ARM GAS  C:\Users\Patrick\AppData\Local\Temp\ccydmBFr.s 			page 1


   1              		.syntax unified
   2              		.cpu cortex-m3
   3              		.fpu softvfp
   4              		.eabi_attribute 20, 1
   5              		.eabi_attribute 21, 1
   6              		.eabi_attribute 23, 3
   7              		.eabi_attribute 24, 1
   8              		.eabi_attribute 25, 1
   9              		.eabi_attribute 26, 1
  10              		.eabi_attribute 30, 1
  11              		.eabi_attribute 34, 1
  12              		.eabi_attribute 18, 4
  13              		.thumb
  14              		.file	"cyfitter_cfg.c"
  15              		.text
  16              	.Ltext0:
  17              		.cfi_sections	.debug_frame
  18              		.section	.text.CyClockStartupError,"ax",%progbits
  19              		.align	2
  20              		.thumb
  21              		.thumb_func
  22              		.type	CyClockStartupError, %function
  23              	CyClockStartupError:
  24              	.LFB3:
  25              		.file 1 ".\\Generated_Source\\PSoC5\\cyfitter_cfg.c"
   1:.\Generated_Source\PSoC5/cyfitter_cfg.c **** /*******************************************************************************
   2:.\Generated_Source\PSoC5/cyfitter_cfg.c **** * File Name: cyfitter_cfg.c
   3:.\Generated_Source\PSoC5/cyfitter_cfg.c **** * 
   4:.\Generated_Source\PSoC5/cyfitter_cfg.c **** * PSoC Creator  3.3 CP3
   5:.\Generated_Source\PSoC5/cyfitter_cfg.c **** *
   6:.\Generated_Source\PSoC5/cyfitter_cfg.c **** * Description:
   7:.\Generated_Source\PSoC5/cyfitter_cfg.c **** * This file contains device initialization code.
   8:.\Generated_Source\PSoC5/cyfitter_cfg.c **** * Except for the user defined sections in CyClockStartupError(), this file should not be modified.
   9:.\Generated_Source\PSoC5/cyfitter_cfg.c **** * This file is automatically generated by PSoC Creator.
  10:.\Generated_Source\PSoC5/cyfitter_cfg.c **** *
  11:.\Generated_Source\PSoC5/cyfitter_cfg.c **** ********************************************************************************
  12:.\Generated_Source\PSoC5/cyfitter_cfg.c **** * Copyright (c) 2007-2016 Cypress Semiconductor.  All rights reserved.
  13:.\Generated_Source\PSoC5/cyfitter_cfg.c **** * You may use this file only in accordance with the license, terms, conditions, 
  14:.\Generated_Source\PSoC5/cyfitter_cfg.c **** * disclaimers, and limitations in the end user license agreement accompanying 
  15:.\Generated_Source\PSoC5/cyfitter_cfg.c **** * the software package with which this file was provided.
  16:.\Generated_Source\PSoC5/cyfitter_cfg.c **** ********************************************************************************/
  17:.\Generated_Source\PSoC5/cyfitter_cfg.c **** 
  18:.\Generated_Source\PSoC5/cyfitter_cfg.c **** #include <string.h>
  19:.\Generated_Source\PSoC5/cyfitter_cfg.c **** #include "cytypes.h"
  20:.\Generated_Source\PSoC5/cyfitter_cfg.c **** #include "cydevice_trm.h"
  21:.\Generated_Source\PSoC5/cyfitter_cfg.c **** #include "cyfitter.h"
  22:.\Generated_Source\PSoC5/cyfitter_cfg.c **** #include "CyLib.h"
  23:.\Generated_Source\PSoC5/cyfitter_cfg.c **** #include "cyfitter_cfg.h"
  24:.\Generated_Source\PSoC5/cyfitter_cfg.c **** 
  25:.\Generated_Source\PSoC5/cyfitter_cfg.c **** #define CY_NEED_CYCLOCKSTARTUPERROR 1
  26:.\Generated_Source\PSoC5/cyfitter_cfg.c **** 
  27:.\Generated_Source\PSoC5/cyfitter_cfg.c **** 
  28:.\Generated_Source\PSoC5/cyfitter_cfg.c **** #if defined(__GNUC__) || defined(__ARMCC_VERSION)
  29:.\Generated_Source\PSoC5/cyfitter_cfg.c ****     #define CYPACKED 
  30:.\Generated_Source\PSoC5/cyfitter_cfg.c ****     #define CYPACKED_ATTR __attribute__ ((packed))
  31:.\Generated_Source\PSoC5/cyfitter_cfg.c ****     #define CYALIGNED __attribute__ ((aligned))
  32:.\Generated_Source\PSoC5/cyfitter_cfg.c ****     #define CY_CFG_UNUSED __attribute__ ((unused))
ARM GAS  C:\Users\Patrick\AppData\Local\Temp\ccydmBFr.s 			page 2


  33:.\Generated_Source\PSoC5/cyfitter_cfg.c ****     #ifndef CY_CFG_SECTION
  34:.\Generated_Source\PSoC5/cyfitter_cfg.c ****         #define CY_CFG_SECTION __attribute__ ((section(".psocinit")))
  35:.\Generated_Source\PSoC5/cyfitter_cfg.c ****     #endif
  36:.\Generated_Source\PSoC5/cyfitter_cfg.c ****     
  37:.\Generated_Source\PSoC5/cyfitter_cfg.c ****     #if defined(__ARMCC_VERSION)
  38:.\Generated_Source\PSoC5/cyfitter_cfg.c ****         #define CY_CFG_MEMORY_BARRIER() __memory_changed()
  39:.\Generated_Source\PSoC5/cyfitter_cfg.c ****     #else
  40:.\Generated_Source\PSoC5/cyfitter_cfg.c ****         #define CY_CFG_MEMORY_BARRIER() __sync_synchronize()
  41:.\Generated_Source\PSoC5/cyfitter_cfg.c ****     #endif
  42:.\Generated_Source\PSoC5/cyfitter_cfg.c ****     
  43:.\Generated_Source\PSoC5/cyfitter_cfg.c **** #elif defined(__ICCARM__)
  44:.\Generated_Source\PSoC5/cyfitter_cfg.c ****     #include <intrinsics.h>
  45:.\Generated_Source\PSoC5/cyfitter_cfg.c **** 
  46:.\Generated_Source\PSoC5/cyfitter_cfg.c ****     #define CYPACKED __packed
  47:.\Generated_Source\PSoC5/cyfitter_cfg.c ****     #define CYPACKED_ATTR 
  48:.\Generated_Source\PSoC5/cyfitter_cfg.c ****     #define CYALIGNED _Pragma("data_alignment=4")
  49:.\Generated_Source\PSoC5/cyfitter_cfg.c ****     #define CY_CFG_UNUSED _Pragma("diag_suppress=Pe177")
  50:.\Generated_Source\PSoC5/cyfitter_cfg.c ****     #define CY_CFG_SECTION _Pragma("location=\".psocinit\"")
  51:.\Generated_Source\PSoC5/cyfitter_cfg.c ****     
  52:.\Generated_Source\PSoC5/cyfitter_cfg.c ****     #define CY_CFG_MEMORY_BARRIER() __DMB()
  53:.\Generated_Source\PSoC5/cyfitter_cfg.c ****     
  54:.\Generated_Source\PSoC5/cyfitter_cfg.c **** #else
  55:.\Generated_Source\PSoC5/cyfitter_cfg.c ****     #error Unsupported toolchain
  56:.\Generated_Source\PSoC5/cyfitter_cfg.c **** #endif
  57:.\Generated_Source\PSoC5/cyfitter_cfg.c **** 
  58:.\Generated_Source\PSoC5/cyfitter_cfg.c **** 
  59:.\Generated_Source\PSoC5/cyfitter_cfg.c **** CY_CFG_UNUSED
  60:.\Generated_Source\PSoC5/cyfitter_cfg.c **** static void CYMEMZERO(void *s, size_t n);
  61:.\Generated_Source\PSoC5/cyfitter_cfg.c **** CY_CFG_UNUSED
  62:.\Generated_Source\PSoC5/cyfitter_cfg.c **** static void CYMEMZERO(void *s, size_t n)
  63:.\Generated_Source\PSoC5/cyfitter_cfg.c **** {
  64:.\Generated_Source\PSoC5/cyfitter_cfg.c **** 	(void)memset(s, 0, n);
  65:.\Generated_Source\PSoC5/cyfitter_cfg.c **** }
  66:.\Generated_Source\PSoC5/cyfitter_cfg.c **** CY_CFG_UNUSED
  67:.\Generated_Source\PSoC5/cyfitter_cfg.c **** static void CYCONFIGCPY(void *dest, const void *src, size_t n);
  68:.\Generated_Source\PSoC5/cyfitter_cfg.c **** CY_CFG_UNUSED
  69:.\Generated_Source\PSoC5/cyfitter_cfg.c **** static void CYCONFIGCPY(void *dest, const void *src, size_t n)
  70:.\Generated_Source\PSoC5/cyfitter_cfg.c **** {
  71:.\Generated_Source\PSoC5/cyfitter_cfg.c **** 	(void)memcpy(dest, src, n);
  72:.\Generated_Source\PSoC5/cyfitter_cfg.c **** }
  73:.\Generated_Source\PSoC5/cyfitter_cfg.c **** CY_CFG_UNUSED
  74:.\Generated_Source\PSoC5/cyfitter_cfg.c **** static void CYCONFIGCPYCODE(void *dest, const void *src, size_t n);
  75:.\Generated_Source\PSoC5/cyfitter_cfg.c **** CY_CFG_UNUSED
  76:.\Generated_Source\PSoC5/cyfitter_cfg.c **** static void CYCONFIGCPYCODE(void *dest, const void *src, size_t n)
  77:.\Generated_Source\PSoC5/cyfitter_cfg.c **** {
  78:.\Generated_Source\PSoC5/cyfitter_cfg.c **** 	(void)memcpy(dest, src, n);
  79:.\Generated_Source\PSoC5/cyfitter_cfg.c **** }
  80:.\Generated_Source\PSoC5/cyfitter_cfg.c **** 
  81:.\Generated_Source\PSoC5/cyfitter_cfg.c **** 
  82:.\Generated_Source\PSoC5/cyfitter_cfg.c **** 
  83:.\Generated_Source\PSoC5/cyfitter_cfg.c **** /* Clock startup error codes                                                   */
  84:.\Generated_Source\PSoC5/cyfitter_cfg.c **** #define CYCLOCKSTART_NO_ERROR    0u
  85:.\Generated_Source\PSoC5/cyfitter_cfg.c **** #define CYCLOCKSTART_XTAL_ERROR  1u
  86:.\Generated_Source\PSoC5/cyfitter_cfg.c **** #define CYCLOCKSTART_32KHZ_ERROR 2u
  87:.\Generated_Source\PSoC5/cyfitter_cfg.c **** #define CYCLOCKSTART_PLL_ERROR   3u
  88:.\Generated_Source\PSoC5/cyfitter_cfg.c **** 
  89:.\Generated_Source\PSoC5/cyfitter_cfg.c **** #ifdef CY_NEED_CYCLOCKSTARTUPERROR
ARM GAS  C:\Users\Patrick\AppData\Local\Temp\ccydmBFr.s 			page 3


  90:.\Generated_Source\PSoC5/cyfitter_cfg.c **** /*******************************************************************************
  91:.\Generated_Source\PSoC5/cyfitter_cfg.c **** * Function Name: CyClockStartupError
  92:.\Generated_Source\PSoC5/cyfitter_cfg.c **** ********************************************************************************
  93:.\Generated_Source\PSoC5/cyfitter_cfg.c **** * Summary:
  94:.\Generated_Source\PSoC5/cyfitter_cfg.c **** *  If an error is encountered during clock configuration (crystal startup error,
  95:.\Generated_Source\PSoC5/cyfitter_cfg.c **** *  PLL lock error, etc.), the system will end up here.  Unless reimplemented by
  96:.\Generated_Source\PSoC5/cyfitter_cfg.c **** *  the customer, this function will stop in an infinite loop.
  97:.\Generated_Source\PSoC5/cyfitter_cfg.c **** *
  98:.\Generated_Source\PSoC5/cyfitter_cfg.c **** * Parameters:
  99:.\Generated_Source\PSoC5/cyfitter_cfg.c **** *   void
 100:.\Generated_Source\PSoC5/cyfitter_cfg.c **** *
 101:.\Generated_Source\PSoC5/cyfitter_cfg.c **** * Return:
 102:.\Generated_Source\PSoC5/cyfitter_cfg.c **** *   void
 103:.\Generated_Source\PSoC5/cyfitter_cfg.c **** *
 104:.\Generated_Source\PSoC5/cyfitter_cfg.c **** *******************************************************************************/
 105:.\Generated_Source\PSoC5/cyfitter_cfg.c **** CY_CFG_UNUSED
 106:.\Generated_Source\PSoC5/cyfitter_cfg.c **** static void CyClockStartupError(uint8 errorCode);
 107:.\Generated_Source\PSoC5/cyfitter_cfg.c **** CY_CFG_UNUSED
 108:.\Generated_Source\PSoC5/cyfitter_cfg.c **** static void CyClockStartupError(uint8 errorCode)
 109:.\Generated_Source\PSoC5/cyfitter_cfg.c **** {
  26              		.loc 1 109 0
  27              		.cfi_startproc
  28              		@ Volatile: function does not return.
  29              		@ args = 0, pretend = 0, frame = 0
  30              		@ frame_needed = 0, uses_anonymous_args = 0
  31              		@ link register save eliminated.
  32              	.LVL0:
  33              	.L2:
 110:.\Generated_Source\PSoC5/cyfitter_cfg.c ****     /* To remove the compiler warning if errorCode not used.                */
 111:.\Generated_Source\PSoC5/cyfitter_cfg.c ****     errorCode = errorCode;
 112:.\Generated_Source\PSoC5/cyfitter_cfg.c **** 
 113:.\Generated_Source\PSoC5/cyfitter_cfg.c ****     /* `#START CyClockStartupError` */
 114:.\Generated_Source\PSoC5/cyfitter_cfg.c **** 
 115:.\Generated_Source\PSoC5/cyfitter_cfg.c ****     /* If we have a clock startup error (bad MHz crystal, PLL lock, etc.),  */
 116:.\Generated_Source\PSoC5/cyfitter_cfg.c ****     /* we will end up here to allow the customer to implement something to  */
 117:.\Generated_Source\PSoC5/cyfitter_cfg.c ****     /* deal with the clock condition.                                       */
 118:.\Generated_Source\PSoC5/cyfitter_cfg.c **** 
 119:.\Generated_Source\PSoC5/cyfitter_cfg.c ****     /* `#END` */
 120:.\Generated_Source\PSoC5/cyfitter_cfg.c **** 
 121:.\Generated_Source\PSoC5/cyfitter_cfg.c ****     /* If nothing else, stop here since the clocks have not started         */
 122:.\Generated_Source\PSoC5/cyfitter_cfg.c ****     /* correctly.                                                           */
 123:.\Generated_Source\PSoC5/cyfitter_cfg.c ****     while(1) {}
  34              		.loc 1 123 0 discriminator 1
  35 0000 FEE7     		b	.L2
  36              		.cfi_endproc
  37              	.LFE3:
  38              		.size	CyClockStartupError, .-CyClockStartupError
  39 0002 00BF     		.section	.text.cfg_write_bytes32,"ax",%progbits
  40              		.align	2
  41              		.thumb
  42              		.thumb_func
  43              		.type	cfg_write_bytes32, %function
  44              	cfg_write_bytes32:
  45              	.LFB4:
 124:.\Generated_Source\PSoC5/cyfitter_cfg.c **** }
 125:.\Generated_Source\PSoC5/cyfitter_cfg.c **** #endif
 126:.\Generated_Source\PSoC5/cyfitter_cfg.c **** 
ARM GAS  C:\Users\Patrick\AppData\Local\Temp\ccydmBFr.s 			page 4


 127:.\Generated_Source\PSoC5/cyfitter_cfg.c **** #define CY_CFG_BASE_ADDR_COUNT 20u
 128:.\Generated_Source\PSoC5/cyfitter_cfg.c **** CYPACKED typedef struct
 129:.\Generated_Source\PSoC5/cyfitter_cfg.c **** {
 130:.\Generated_Source\PSoC5/cyfitter_cfg.c **** 	uint8 offset;
 131:.\Generated_Source\PSoC5/cyfitter_cfg.c **** 	uint8 value;
 132:.\Generated_Source\PSoC5/cyfitter_cfg.c **** } CYPACKED_ATTR cy_cfg_addrvalue_t;
 133:.\Generated_Source\PSoC5/cyfitter_cfg.c **** 
 134:.\Generated_Source\PSoC5/cyfitter_cfg.c **** 
 135:.\Generated_Source\PSoC5/cyfitter_cfg.c **** 
 136:.\Generated_Source\PSoC5/cyfitter_cfg.c **** /*******************************************************************************
 137:.\Generated_Source\PSoC5/cyfitter_cfg.c **** * Function Name: cfg_write_bytes32
 138:.\Generated_Source\PSoC5/cyfitter_cfg.c **** ********************************************************************************
 139:.\Generated_Source\PSoC5/cyfitter_cfg.c **** * Summary:
 140:.\Generated_Source\PSoC5/cyfitter_cfg.c **** *  This function is used for setting up the chip configuration areas that
 141:.\Generated_Source\PSoC5/cyfitter_cfg.c **** *  contain relatively sparse data.
 142:.\Generated_Source\PSoC5/cyfitter_cfg.c **** *
 143:.\Generated_Source\PSoC5/cyfitter_cfg.c **** * Parameters:
 144:.\Generated_Source\PSoC5/cyfitter_cfg.c **** *   void
 145:.\Generated_Source\PSoC5/cyfitter_cfg.c **** *
 146:.\Generated_Source\PSoC5/cyfitter_cfg.c **** * Return:
 147:.\Generated_Source\PSoC5/cyfitter_cfg.c **** *   void
 148:.\Generated_Source\PSoC5/cyfitter_cfg.c **** *
 149:.\Generated_Source\PSoC5/cyfitter_cfg.c **** *******************************************************************************/
 150:.\Generated_Source\PSoC5/cyfitter_cfg.c **** static void cfg_write_bytes32(const uint32 addr_table[], const cy_cfg_addrvalue_t data_table[]);
 151:.\Generated_Source\PSoC5/cyfitter_cfg.c **** static void cfg_write_bytes32(const uint32 addr_table[], const cy_cfg_addrvalue_t data_table[])
 152:.\Generated_Source\PSoC5/cyfitter_cfg.c **** {
  46              		.loc 1 152 0
  47              		.cfi_startproc
  48              		@ args = 0, pretend = 0, frame = 0
  49              		@ frame_needed = 0, uses_anonymous_args = 0
  50              		@ link register save eliminated.
  51              	.LVL1:
  52 0000 F0B4     		push	{r4, r5, r6, r7}
  53              		.cfi_def_cfa_offset 16
  54              		.cfi_offset 4, -16
  55              		.cfi_offset 5, -12
  56              		.cfi_offset 6, -8
  57              		.cfi_offset 7, -4
  58              	.LVL2:
 153:.\Generated_Source\PSoC5/cyfitter_cfg.c **** 	/* For 32-bit little-endian architectures */
 154:.\Generated_Source\PSoC5/cyfitter_cfg.c **** 	uint32 i, j = 0u;
  59              		.loc 1 154 0
  60 0002 0022     		movs	r2, #0
 155:.\Generated_Source\PSoC5/cyfitter_cfg.c **** 	for (i = 0u; i < CY_CFG_BASE_ADDR_COUNT; i++)
  61              		.loc 1 155 0
  62 0004 1746     		mov	r7, r2
  63 0006 11E0     		b	.L4
  64              	.LVL3:
  65              	.L7:
  66              	.LBB2:
 156:.\Generated_Source\PSoC5/cyfitter_cfg.c **** 	{
 157:.\Generated_Source\PSoC5/cyfitter_cfg.c **** 		uint32 baseAddr = addr_table[i];
  67              		.loc 1 157 0
  68 0008 50F82760 		ldr	r6, [r0, r7, lsl #2]
  69              	.LVL4:
 158:.\Generated_Source\PSoC5/cyfitter_cfg.c **** 		uint8 count = (uint8)baseAddr;
  70              		.loc 1 158 0
ARM GAS  C:\Users\Patrick\AppData\Local\Temp\ccydmBFr.s 			page 5


  71 000c F3B2     		uxtb	r3, r6
  72              	.LVL5:
 159:.\Generated_Source\PSoC5/cyfitter_cfg.c **** 		baseAddr &= 0xFFFFFF00u;
  73              		.loc 1 159 0
  74 000e 26F0FF06 		bic	r6, r6, #255
  75              	.LVL6:
 160:.\Generated_Source\PSoC5/cyfitter_cfg.c **** 		while (count != 0u)
  76              		.loc 1 160 0
  77 0012 08E0     		b	.L5
  78              	.L6:
 161:.\Generated_Source\PSoC5/cyfitter_cfg.c **** 		{
 162:.\Generated_Source\PSoC5/cyfitter_cfg.c **** 			CY_SET_XTND_REG8((void CYFAR *)(baseAddr + data_table[j].offset), data_table[j].value);
  79              		.loc 1 162 0
  80 0014 01EB4205 		add	r5, r1, r2, lsl #1
  81 0018 11F81240 		ldrb	r4, [r1, r2, lsl #1]	@ zero_extendqisi2
  82 001c 6D78     		ldrb	r5, [r5, #1]	@ zero_extendqisi2
  83 001e A555     		strb	r5, [r4, r6]
 163:.\Generated_Source\PSoC5/cyfitter_cfg.c **** 			j++;
  84              		.loc 1 163 0
  85 0020 0132     		adds	r2, r2, #1
  86              	.LVL7:
 164:.\Generated_Source\PSoC5/cyfitter_cfg.c **** 			count--;
  87              		.loc 1 164 0
  88 0022 013B     		subs	r3, r3, #1
  89              	.LVL8:
  90 0024 DBB2     		uxtb	r3, r3
  91              	.LVL9:
  92              	.L5:
 160:.\Generated_Source\PSoC5/cyfitter_cfg.c **** 		{
  93              		.loc 1 160 0
  94 0026 002B     		cmp	r3, #0
  95 0028 F4D1     		bne	.L6
  96              	.LBE2:
 155:.\Generated_Source\PSoC5/cyfitter_cfg.c **** 	{
  97              		.loc 1 155 0 discriminator 2
  98 002a 0137     		adds	r7, r7, #1
  99              	.LVL10:
 100              	.L4:
 155:.\Generated_Source\PSoC5/cyfitter_cfg.c **** 	{
 101              		.loc 1 155 0 is_stmt 0 discriminator 1
 102 002c 132F     		cmp	r7, #19
 103 002e EBD9     		bls	.L7
 165:.\Generated_Source\PSoC5/cyfitter_cfg.c **** 		}
 166:.\Generated_Source\PSoC5/cyfitter_cfg.c **** 	}
 167:.\Generated_Source\PSoC5/cyfitter_cfg.c **** }
 104              		.loc 1 167 0 is_stmt 1
 105 0030 F0BC     		pop	{r4, r5, r6, r7}
 106              		.cfi_restore 7
 107              		.cfi_restore 6
 108              		.cfi_restore 5
 109              		.cfi_restore 4
 110              		.cfi_def_cfa_offset 0
 111              	.LVL11:
 112 0032 7047     		bx	lr
 113              		.cfi_endproc
 114              	.LFE4:
 115              		.size	cfg_write_bytes32, .-cfg_write_bytes32
ARM GAS  C:\Users\Patrick\AppData\Local\Temp\ccydmBFr.s 			page 6


 116              		.section	.text.AnalogSetDefault,"ax",%progbits
 117              		.align	2
 118              		.thumb
 119              		.thumb_func
 120              		.type	AnalogSetDefault, %function
 121              	AnalogSetDefault:
 122              	.LFB6:
 168:.\Generated_Source\PSoC5/cyfitter_cfg.c **** 
 169:.\Generated_Source\PSoC5/cyfitter_cfg.c **** /*******************************************************************************
 170:.\Generated_Source\PSoC5/cyfitter_cfg.c **** * Function Name: ClockSetup
 171:.\Generated_Source\PSoC5/cyfitter_cfg.c **** ********************************************************************************
 172:.\Generated_Source\PSoC5/cyfitter_cfg.c **** *
 173:.\Generated_Source\PSoC5/cyfitter_cfg.c **** * Summary:
 174:.\Generated_Source\PSoC5/cyfitter_cfg.c **** *  Performs the initialization of all of the clocks in the device based on the
 175:.\Generated_Source\PSoC5/cyfitter_cfg.c **** *  settings in the Clock tab of the DWR.  This includes enabling the requested
 176:.\Generated_Source\PSoC5/cyfitter_cfg.c **** *  clocks and setting the necessary dividers to produce the desired frequency. 
 177:.\Generated_Source\PSoC5/cyfitter_cfg.c **** *
 178:.\Generated_Source\PSoC5/cyfitter_cfg.c **** * Parameters:
 179:.\Generated_Source\PSoC5/cyfitter_cfg.c **** *  void
 180:.\Generated_Source\PSoC5/cyfitter_cfg.c **** *
 181:.\Generated_Source\PSoC5/cyfitter_cfg.c **** * Return:
 182:.\Generated_Source\PSoC5/cyfitter_cfg.c **** *  void
 183:.\Generated_Source\PSoC5/cyfitter_cfg.c **** *
 184:.\Generated_Source\PSoC5/cyfitter_cfg.c **** *******************************************************************************/
 185:.\Generated_Source\PSoC5/cyfitter_cfg.c **** static void ClockSetup(void);
 186:.\Generated_Source\PSoC5/cyfitter_cfg.c **** static void ClockSetup(void)
 187:.\Generated_Source\PSoC5/cyfitter_cfg.c **** {
 188:.\Generated_Source\PSoC5/cyfitter_cfg.c **** 	uint32 timeout;
 189:.\Generated_Source\PSoC5/cyfitter_cfg.c **** 	uint8 pllLock;
 190:.\Generated_Source\PSoC5/cyfitter_cfg.c **** 
 191:.\Generated_Source\PSoC5/cyfitter_cfg.c **** 
 192:.\Generated_Source\PSoC5/cyfitter_cfg.c **** 	/* Configure Digital Clocks based on settings from Clock DWR */
 193:.\Generated_Source\PSoC5/cyfitter_cfg.c **** 	CY_SET_XTND_REG16((void CYFAR *)(CYREG_CLKDIST_DCFG0_CFG0), 0x5DBFu);
 194:.\Generated_Source\PSoC5/cyfitter_cfg.c **** 	CY_SET_XTND_REG8((void CYFAR *)(CYREG_CLKDIST_DCFG0_CFG0 + 0x2u), 0x19u);
 195:.\Generated_Source\PSoC5/cyfitter_cfg.c **** 
 196:.\Generated_Source\PSoC5/cyfitter_cfg.c **** 	/* Configure ILO based on settings from Clock DWR */
 197:.\Generated_Source\PSoC5/cyfitter_cfg.c **** 	CY_SET_XTND_REG8((void CYFAR *)(CYREG_SLOWCLK_ILO_CR0), 0x06u);
 198:.\Generated_Source\PSoC5/cyfitter_cfg.c **** 
 199:.\Generated_Source\PSoC5/cyfitter_cfg.c **** 	/* Configure IMO based on settings from Clock DWR */
 200:.\Generated_Source\PSoC5/cyfitter_cfg.c **** 	CY_SET_XTND_REG8((void CYFAR *)(CYREG_FASTCLK_IMO_CR), 0x52u);
 201:.\Generated_Source\PSoC5/cyfitter_cfg.c **** 	CY_SET_XTND_REG8((void CYFAR *)(CYREG_IMO_TR1), (CY_GET_XTND_REG8((void CYFAR *)CYREG_FLSHID_CUST_
 202:.\Generated_Source\PSoC5/cyfitter_cfg.c **** 
 203:.\Generated_Source\PSoC5/cyfitter_cfg.c **** 	/* Configure PLL based on settings from Clock DWR */
 204:.\Generated_Source\PSoC5/cyfitter_cfg.c **** 	CY_SET_XTND_REG16((void CYFAR *)(CYREG_FASTCLK_PLL_P), 0x0D2Au);
 205:.\Generated_Source\PSoC5/cyfitter_cfg.c **** 	CY_SET_XTND_REG16((void CYFAR *)(CYREG_FASTCLK_PLL_CFG0), 0x2251u);
 206:.\Generated_Source\PSoC5/cyfitter_cfg.c **** 	/* Wait up to 250us for the PLL to lock */
 207:.\Generated_Source\PSoC5/cyfitter_cfg.c **** 	pllLock = 0u;
 208:.\Generated_Source\PSoC5/cyfitter_cfg.c **** 	for (timeout = 250u / 10u; (timeout > 0u) && (pllLock != 0x03u); timeout--)
 209:.\Generated_Source\PSoC5/cyfitter_cfg.c **** 	{ 
 210:.\Generated_Source\PSoC5/cyfitter_cfg.c **** 		pllLock = 0x03u & ((uint8)((uint8)pllLock << 1) | ((CY_GET_XTND_REG8((void CYFAR *)CYREG_FASTCLK_
 211:.\Generated_Source\PSoC5/cyfitter_cfg.c **** 		CyDelayCycles(10u * 48u); /* Delay 10us based on 48MHz clock */
 212:.\Generated_Source\PSoC5/cyfitter_cfg.c **** 	}
 213:.\Generated_Source\PSoC5/cyfitter_cfg.c **** 	/* If we ran out of time the PLL didn't lock so go to the error function */
 214:.\Generated_Source\PSoC5/cyfitter_cfg.c **** 	if (timeout == 0u)
 215:.\Generated_Source\PSoC5/cyfitter_cfg.c **** 	{
 216:.\Generated_Source\PSoC5/cyfitter_cfg.c **** 		CyClockStartupError(CYCLOCKSTART_PLL_ERROR);
 217:.\Generated_Source\PSoC5/cyfitter_cfg.c **** 	}
ARM GAS  C:\Users\Patrick\AppData\Local\Temp\ccydmBFr.s 			page 7


 218:.\Generated_Source\PSoC5/cyfitter_cfg.c **** 
 219:.\Generated_Source\PSoC5/cyfitter_cfg.c **** 	/* Configure Bus/Master Clock based on settings from Clock DWR */
 220:.\Generated_Source\PSoC5/cyfitter_cfg.c **** 	CY_SET_XTND_REG16((void CYFAR *)(CYREG_CLKDIST_MSTR0), 0x0100u);
 221:.\Generated_Source\PSoC5/cyfitter_cfg.c **** 	CY_SET_XTND_REG8((void CYFAR *)(CYREG_CLKDIST_MSTR0), 0x07u);
 222:.\Generated_Source\PSoC5/cyfitter_cfg.c **** 	CY_SET_XTND_REG8((void CYFAR *)(CYREG_CLKDIST_BCFG0), 0x00u);
 223:.\Generated_Source\PSoC5/cyfitter_cfg.c **** 	CY_SET_XTND_REG8((void CYFAR *)(CYREG_CLKDIST_BCFG2), 0x48u);
 224:.\Generated_Source\PSoC5/cyfitter_cfg.c **** 	CY_SET_XTND_REG8((void CYFAR *)(CYREG_CLKDIST_MSTR0), 0x00u);
 225:.\Generated_Source\PSoC5/cyfitter_cfg.c **** 
 226:.\Generated_Source\PSoC5/cyfitter_cfg.c **** 	/* Configure USB Clock based on settings from Clock DWR */
 227:.\Generated_Source\PSoC5/cyfitter_cfg.c **** 	CY_SET_XTND_REG8((void CYFAR *)(CYREG_CLKDIST_UCFG), 0x00u);
 228:.\Generated_Source\PSoC5/cyfitter_cfg.c **** 	CY_SET_XTND_REG8((void CYFAR *)(CYREG_CLKDIST_LD), 0x02u);
 229:.\Generated_Source\PSoC5/cyfitter_cfg.c **** 
 230:.\Generated_Source\PSoC5/cyfitter_cfg.c **** 	CY_SET_XTND_REG8((void CYFAR *)(CYREG_PM_ACT_CFG2), ((CY_GET_XTND_REG8((void CYFAR *)CYREG_PM_ACT_
 231:.\Generated_Source\PSoC5/cyfitter_cfg.c **** }
 232:.\Generated_Source\PSoC5/cyfitter_cfg.c **** 
 233:.\Generated_Source\PSoC5/cyfitter_cfg.c **** 
 234:.\Generated_Source\PSoC5/cyfitter_cfg.c **** /* Analog API Functions */
 235:.\Generated_Source\PSoC5/cyfitter_cfg.c **** 
 236:.\Generated_Source\PSoC5/cyfitter_cfg.c **** 
 237:.\Generated_Source\PSoC5/cyfitter_cfg.c **** /*******************************************************************************
 238:.\Generated_Source\PSoC5/cyfitter_cfg.c **** * Function Name: AnalogSetDefault
 239:.\Generated_Source\PSoC5/cyfitter_cfg.c **** ********************************************************************************
 240:.\Generated_Source\PSoC5/cyfitter_cfg.c **** *
 241:.\Generated_Source\PSoC5/cyfitter_cfg.c **** * Summary:
 242:.\Generated_Source\PSoC5/cyfitter_cfg.c **** *  Sets up the analog portions of the chip to default values based on chip
 243:.\Generated_Source\PSoC5/cyfitter_cfg.c **** *  configuration options from the project.
 244:.\Generated_Source\PSoC5/cyfitter_cfg.c **** *
 245:.\Generated_Source\PSoC5/cyfitter_cfg.c **** * Parameters:
 246:.\Generated_Source\PSoC5/cyfitter_cfg.c **** *  void
 247:.\Generated_Source\PSoC5/cyfitter_cfg.c **** *
 248:.\Generated_Source\PSoC5/cyfitter_cfg.c **** * Return:
 249:.\Generated_Source\PSoC5/cyfitter_cfg.c **** *  void
 250:.\Generated_Source\PSoC5/cyfitter_cfg.c **** *
 251:.\Generated_Source\PSoC5/cyfitter_cfg.c **** *******************************************************************************/
 252:.\Generated_Source\PSoC5/cyfitter_cfg.c **** static void AnalogSetDefault(void);
 253:.\Generated_Source\PSoC5/cyfitter_cfg.c **** static void AnalogSetDefault(void)
 254:.\Generated_Source\PSoC5/cyfitter_cfg.c **** {
 123              		.loc 1 254 0
 124              		.cfi_startproc
 125              		@ args = 0, pretend = 0, frame = 0
 126              		@ frame_needed = 0, uses_anonymous_args = 0
 127              		@ link register save eliminated.
 255:.\Generated_Source\PSoC5/cyfitter_cfg.c **** 	uint8 bg_xover_inl_trim = CY_GET_XTND_REG8((void CYFAR *)(CYREG_FLSHID_MFG_CFG_BG_XOVER_INL_TRIM +
 128              		.loc 1 255 0
 129 0000 064B     		ldr	r3, .L10
 130 0002 1B78     		ldrb	r3, [r3]	@ zero_extendqisi2
 131 0004 DBB2     		uxtb	r3, r3
 132              	.LVL12:
 256:.\Generated_Source\PSoC5/cyfitter_cfg.c **** 	CY_SET_XTND_REG8((void CYFAR *)(CYREG_BG_DFT0), (bg_xover_inl_trim & 0x07u));
 133              		.loc 1 256 0
 134 0006 03F00701 		and	r1, r3, #7
 135 000a 054A     		ldr	r2, .L10+4
 136 000c 1170     		strb	r1, [r2]
 257:.\Generated_Source\PSoC5/cyfitter_cfg.c **** 	CY_SET_XTND_REG8((void CYFAR *)(CYREG_BG_DFT1), ((bg_xover_inl_trim >> 4) & 0x0Fu));
 137              		.loc 1 257 0
 138 000e 1B09     		lsrs	r3, r3, #4
 139              	.LVL13:
ARM GAS  C:\Users\Patrick\AppData\Local\Temp\ccydmBFr.s 			page 8


 140 0010 0132     		adds	r2, r2, #1
 141 0012 1370     		strb	r3, [r2]
 258:.\Generated_Source\PSoC5/cyfitter_cfg.c **** 	CY_SET_XTND_REG8((void CYFAR *)CYREG_PUMP_CR0, 0x44u);
 142              		.loc 1 258 0
 143 0014 4422     		movs	r2, #68
 144 0016 034B     		ldr	r3, .L10+8
 145 0018 1A70     		strb	r2, [r3]
 146 001a 7047     		bx	lr
 147              	.L11:
 148              		.align	2
 149              	.L10:
 150 001c CF010049 		.word	1224737231
 151 0020 6E580040 		.word	1073764462
 152 0024 76580040 		.word	1073764470
 153              		.cfi_endproc
 154              	.LFE6:
 155              		.size	AnalogSetDefault, .-AnalogSetDefault
 156              		.section	.text.ClockSetup,"ax",%progbits
 157              		.align	2
 158              		.thumb
 159              		.thumb_func
 160              		.type	ClockSetup, %function
 161              	ClockSetup:
 162              	.LFB5:
 187:.\Generated_Source\PSoC5/cyfitter_cfg.c **** 	uint32 timeout;
 163              		.loc 1 187 0
 164              		.cfi_startproc
 165              		@ args = 0, pretend = 0, frame = 0
 166              		@ frame_needed = 0, uses_anonymous_args = 0
 167 0000 38B5     		push	{r3, r4, r5, lr}
 168              		.cfi_def_cfa_offset 16
 169              		.cfi_offset 3, -16
 170              		.cfi_offset 4, -12
 171              		.cfi_offset 5, -8
 172              		.cfi_offset 14, -4
 193:.\Generated_Source\PSoC5/cyfitter_cfg.c **** 	CY_SET_XTND_REG8((void CYFAR *)(CYREG_CLKDIST_DCFG0_CFG0 + 0x2u), 0x19u);
 173              		.loc 1 193 0
 174 0002 45F6BF52 		movw	r2, #23999
 175 0006 244B     		ldr	r3, .L18
 176 0008 1A80     		strh	r2, [r3]	@ movhi
 194:.\Generated_Source\PSoC5/cyfitter_cfg.c **** 
 177              		.loc 1 194 0
 178 000a 1925     		movs	r5, #25
 179 000c 0233     		adds	r3, r3, #2
 180 000e 1D70     		strb	r5, [r3]
 197:.\Generated_Source\PSoC5/cyfitter_cfg.c **** 
 181              		.loc 1 197 0
 182 0010 0622     		movs	r2, #6
 183 0012 03F27E23 		addw	r3, r3, #638
 184 0016 1A70     		strb	r2, [r3]
 200:.\Generated_Source\PSoC5/cyfitter_cfg.c **** 	CY_SET_XTND_REG8((void CYFAR *)(CYREG_IMO_TR1), (CY_GET_XTND_REG8((void CYFAR *)CYREG_FLSHID_CUST_
 185              		.loc 1 200 0
 186 0018 5222     		movs	r2, #82
 187 001a A3F58073 		sub	r3, r3, #256
 188 001e 1A70     		strb	r2, [r3]
 201:.\Generated_Source\PSoC5/cyfitter_cfg.c **** 
 189              		.loc 1 201 0
ARM GAS  C:\Users\Patrick\AppData\Local\Temp\ccydmBFr.s 			page 9


 190 0020 1E4B     		ldr	r3, .L18+4
 191 0022 1B78     		ldrb	r3, [r3]	@ zero_extendqisi2
 192 0024 DBB2     		uxtb	r3, r3
 193 0026 1E4A     		ldr	r2, .L18+8
 194 0028 1370     		strb	r3, [r2]
 204:.\Generated_Source\PSoC5/cyfitter_cfg.c **** 	CY_SET_XTND_REG16((void CYFAR *)(CYREG_FASTCLK_PLL_CFG0), 0x2251u);
 195              		.loc 1 204 0
 196 002a 40F62A52 		movw	r2, #3370
 197 002e 1D4B     		ldr	r3, .L18+12
 198 0030 1A80     		strh	r2, [r3]	@ movhi
 205:.\Generated_Source\PSoC5/cyfitter_cfg.c **** 	/* Wait up to 250us for the PLL to lock */
 199              		.loc 1 205 0
 200 0032 42F25122 		movw	r2, #8785
 201 0036 023B     		subs	r3, r3, #2
 202 0038 1A80     		strh	r2, [r3]	@ movhi
 203              	.LVL14:
 207:.\Generated_Source\PSoC5/cyfitter_cfg.c **** 	for (timeout = 250u / 10u; (timeout > 0u) && (pllLock != 0x03u); timeout--)
 204              		.loc 1 207 0
 205 003a 0024     		movs	r4, #0
 208:.\Generated_Source\PSoC5/cyfitter_cfg.c **** 	{ 
 206              		.loc 1 208 0
 207 003c 0CE0     		b	.L13
 208              	.LVL15:
 209              	.L15:
 210:.\Generated_Source\PSoC5/cyfitter_cfg.c **** 		CyDelayCycles(10u * 48u); /* Delay 10us based on 48MHz clock */
 210              		.loc 1 210 0 discriminator 4
 211 003e 1A4B     		ldr	r3, .L18+16
 212 0040 1B78     		ldrb	r3, [r3]	@ zero_extendqisi2
 213 0042 03F00103 		and	r3, r3, #1
 214 0046 43EA4404 		orr	r4, r3, r4, lsl #1
 215              	.LVL16:
 216 004a 04F00304 		and	r4, r4, #3
 217              	.LVL17:
 211:.\Generated_Source\PSoC5/cyfitter_cfg.c **** 	}
 218              		.loc 1 211 0 discriminator 4
 219 004e 4FF4F070 		mov	r0, #480
 220 0052 FFF7FEFF 		bl	CyDelayCycles
 221              	.LVL18:
 208:.\Generated_Source\PSoC5/cyfitter_cfg.c **** 	{ 
 222              		.loc 1 208 0 discriminator 4
 223 0056 013D     		subs	r5, r5, #1
 224              	.LVL19:
 225              	.L13:
 208:.\Generated_Source\PSoC5/cyfitter_cfg.c **** 	{ 
 226              		.loc 1 208 0 is_stmt 0 discriminator 1
 227 0058 0DB1     		cbz	r5, .L14
 208:.\Generated_Source\PSoC5/cyfitter_cfg.c **** 	{ 
 228              		.loc 1 208 0 discriminator 3
 229 005a 032C     		cmp	r4, #3
 230 005c EFD1     		bne	.L15
 231              	.L14:
 214:.\Generated_Source\PSoC5/cyfitter_cfg.c **** 	{
 232              		.loc 1 214 0 is_stmt 1
 233 005e 15B9     		cbnz	r5, .L16
 216:.\Generated_Source\PSoC5/cyfitter_cfg.c **** 	}
 234              		.loc 1 216 0
 235 0060 0320     		movs	r0, #3
ARM GAS  C:\Users\Patrick\AppData\Local\Temp\ccydmBFr.s 			page 10


 236 0062 FFF7FEFF 		bl	CyClockStartupError
 237              	.LVL20:
 238              	.L16:
 220:.\Generated_Source\PSoC5/cyfitter_cfg.c **** 	CY_SET_XTND_REG8((void CYFAR *)(CYREG_CLKDIST_MSTR0), 0x07u);
 239              		.loc 1 220 0
 240 0066 114A     		ldr	r2, .L18+20
 241 0068 4FF48073 		mov	r3, #256
 242 006c 1380     		strh	r3, [r2]	@ movhi
 221:.\Generated_Source\PSoC5/cyfitter_cfg.c **** 	CY_SET_XTND_REG8((void CYFAR *)(CYREG_CLKDIST_BCFG0), 0x00u);
 243              		.loc 1 221 0
 244 006e 0723     		movs	r3, #7
 245 0070 1370     		strb	r3, [r2]
 222:.\Generated_Source\PSoC5/cyfitter_cfg.c **** 	CY_SET_XTND_REG8((void CYFAR *)(CYREG_CLKDIST_BCFG2), 0x48u);
 246              		.loc 1 222 0
 247 0072 0023     		movs	r3, #0
 248 0074 0E49     		ldr	r1, .L18+24
 249 0076 0B70     		strb	r3, [r1]
 223:.\Generated_Source\PSoC5/cyfitter_cfg.c **** 	CY_SET_XTND_REG8((void CYFAR *)(CYREG_CLKDIST_MSTR0), 0x00u);
 250              		.loc 1 223 0
 251 0078 4820     		movs	r0, #72
 252 007a 0231     		adds	r1, r1, #2
 253 007c 0870     		strb	r0, [r1]
 224:.\Generated_Source\PSoC5/cyfitter_cfg.c **** 
 254              		.loc 1 224 0
 255 007e 1370     		strb	r3, [r2]
 227:.\Generated_Source\PSoC5/cyfitter_cfg.c **** 	CY_SET_XTND_REG8((void CYFAR *)(CYREG_CLKDIST_LD), 0x02u);
 256              		.loc 1 227 0
 257 0080 0532     		adds	r2, r2, #5
 258 0082 1370     		strb	r3, [r2]
 228:.\Generated_Source\PSoC5/cyfitter_cfg.c **** 
 259              		.loc 1 228 0
 260 0084 0222     		movs	r2, #2
 261 0086 0B4B     		ldr	r3, .L18+28
 262 0088 1A70     		strb	r2, [r3]
 230:.\Generated_Source\PSoC5/cyfitter_cfg.c **** }
 263              		.loc 1 230 0
 264 008a 0B4A     		ldr	r2, .L18+32
 265 008c 1378     		ldrb	r3, [r2]	@ zero_extendqisi2
 266 008e 43F00103 		orr	r3, r3, #1
 267 0092 1370     		strb	r3, [r2]
 268 0094 38BD     		pop	{r3, r4, r5, pc}
 269              	.LVL21:
 270              	.L19:
 271 0096 00BF     		.align	2
 272              	.L18:
 273 0098 80400040 		.word	1073758336
 274 009c 0F010049 		.word	1224737039
 275 00a0 A1460040 		.word	1073759905
 276 00a4 22420040 		.word	1073758754
 277 00a8 25420040 		.word	1073758757
 278 00ac 04400040 		.word	1073758212
 279 00b0 06400040 		.word	1073758214
 280 00b4 01400040 		.word	1073758209
 281 00b8 A2430040 		.word	1073759138
 282              		.cfi_endproc
 283              	.LFE5:
 284              		.size	ClockSetup, .-ClockSetup
ARM GAS  C:\Users\Patrick\AppData\Local\Temp\ccydmBFr.s 			page 11


 285              		.section	.text.CYMEMZERO,"ax",%progbits
 286              		.align	2
 287              		.thumb
 288              		.thumb_func
 289              		.type	CYMEMZERO, %function
 290              	CYMEMZERO:
 291              	.LFB0:
  63:.\Generated_Source\PSoC5/cyfitter_cfg.c **** 	(void)memset(s, 0, n);
 292              		.loc 1 63 0
 293              		.cfi_startproc
 294              		@ args = 0, pretend = 0, frame = 0
 295              		@ frame_needed = 0, uses_anonymous_args = 0
 296              	.LVL22:
 297 0000 08B5     		push	{r3, lr}
 298              		.cfi_def_cfa_offset 8
 299              		.cfi_offset 3, -8
 300              		.cfi_offset 14, -4
 301 0002 0A46     		mov	r2, r1
  64:.\Generated_Source\PSoC5/cyfitter_cfg.c **** }
 302              		.loc 1 64 0
 303 0004 0021     		movs	r1, #0
 304              	.LVL23:
 305 0006 FFF7FEFF 		bl	memset
 306              	.LVL24:
 307 000a 08BD     		pop	{r3, pc}
 308              		.cfi_endproc
 309              	.LFE0:
 310              		.size	CYMEMZERO, .-CYMEMZERO
 311              		.section	.text.CYCONFIGCPYCODE,"ax",%progbits
 312              		.align	2
 313              		.thumb
 314              		.thumb_func
 315              		.type	CYCONFIGCPYCODE, %function
 316              	CYCONFIGCPYCODE:
 317              	.LFB2:
  77:.\Generated_Source\PSoC5/cyfitter_cfg.c **** 	(void)memcpy(dest, src, n);
 318              		.loc 1 77 0
 319              		.cfi_startproc
 320              		@ args = 0, pretend = 0, frame = 0
 321              		@ frame_needed = 0, uses_anonymous_args = 0
 322              	.LVL25:
 323 0000 08B5     		push	{r3, lr}
 324              		.cfi_def_cfa_offset 8
 325              		.cfi_offset 3, -8
 326              		.cfi_offset 14, -4
  78:.\Generated_Source\PSoC5/cyfitter_cfg.c **** }
 327              		.loc 1 78 0
 328 0002 FFF7FEFF 		bl	memcpy
 329              	.LVL26:
 330 0006 08BD     		pop	{r3, pc}
 331              		.cfi_endproc
 332              	.LFE2:
 333              		.size	CYCONFIGCPYCODE, .-CYCONFIGCPYCODE
 334              		.section	.text.CYCONFIGCPY,"ax",%progbits
 335              		.align	2
 336              		.thumb
 337              		.thumb_func
ARM GAS  C:\Users\Patrick\AppData\Local\Temp\ccydmBFr.s 			page 12


 338              		.type	CYCONFIGCPY, %function
 339              	CYCONFIGCPY:
 340              	.LFB1:
  70:.\Generated_Source\PSoC5/cyfitter_cfg.c **** 	(void)memcpy(dest, src, n);
 341              		.loc 1 70 0
 342              		.cfi_startproc
 343              		@ args = 0, pretend = 0, frame = 0
 344              		@ frame_needed = 0, uses_anonymous_args = 0
 345              	.LVL27:
 346 0000 08B5     		push	{r3, lr}
 347              		.cfi_def_cfa_offset 8
 348              		.cfi_offset 3, -8
 349              		.cfi_offset 14, -4
  71:.\Generated_Source\PSoC5/cyfitter_cfg.c **** }
 350              		.loc 1 71 0
 351 0002 FFF7FEFF 		bl	memcpy
 352              	.LVL28:
 353 0006 08BD     		pop	{r3, pc}
 354              		.cfi_endproc
 355              	.LFE1:
 356              		.size	CYCONFIGCPY, .-CYCONFIGCPY
 357              		.section	.text.SetAnalogRoutingPumps,"ax",%progbits
 358              		.align	2
 359              		.global	SetAnalogRoutingPumps
 360              		.thumb
 361              		.thumb_func
 362              		.type	SetAnalogRoutingPumps, %function
 363              	SetAnalogRoutingPumps:
 364              	.LFB7:
 259:.\Generated_Source\PSoC5/cyfitter_cfg.c **** }
 260:.\Generated_Source\PSoC5/cyfitter_cfg.c **** 
 261:.\Generated_Source\PSoC5/cyfitter_cfg.c **** 
 262:.\Generated_Source\PSoC5/cyfitter_cfg.c **** /*******************************************************************************
 263:.\Generated_Source\PSoC5/cyfitter_cfg.c **** * Function Name: SetAnalogRoutingPumps
 264:.\Generated_Source\PSoC5/cyfitter_cfg.c **** ********************************************************************************
 265:.\Generated_Source\PSoC5/cyfitter_cfg.c **** *
 266:.\Generated_Source\PSoC5/cyfitter_cfg.c **** * Summary:
 267:.\Generated_Source\PSoC5/cyfitter_cfg.c **** * Enables or disables the analog pumps feeding analog routing switches.
 268:.\Generated_Source\PSoC5/cyfitter_cfg.c **** * Intended to be called at startup, based on the Vdda system configuration;
 269:.\Generated_Source\PSoC5/cyfitter_cfg.c **** * may be called during operation when the user informs us that the Vdda voltage
 270:.\Generated_Source\PSoC5/cyfitter_cfg.c **** * crossed the pump threshold.
 271:.\Generated_Source\PSoC5/cyfitter_cfg.c **** *
 272:.\Generated_Source\PSoC5/cyfitter_cfg.c **** * Parameters:
 273:.\Generated_Source\PSoC5/cyfitter_cfg.c **** *  enabled - 1 to enable the pumps, 0 to disable the pumps
 274:.\Generated_Source\PSoC5/cyfitter_cfg.c **** *
 275:.\Generated_Source\PSoC5/cyfitter_cfg.c **** * Return:
 276:.\Generated_Source\PSoC5/cyfitter_cfg.c **** *  void
 277:.\Generated_Source\PSoC5/cyfitter_cfg.c **** *
 278:.\Generated_Source\PSoC5/cyfitter_cfg.c **** *******************************************************************************/
 279:.\Generated_Source\PSoC5/cyfitter_cfg.c **** void SetAnalogRoutingPumps(uint8 enabled)
 280:.\Generated_Source\PSoC5/cyfitter_cfg.c **** {
 365              		.loc 1 280 0
 366              		.cfi_startproc
 367              		@ args = 0, pretend = 0, frame = 0
 368              		@ frame_needed = 0, uses_anonymous_args = 0
 369              		@ link register save eliminated.
 370              	.LVL29:
ARM GAS  C:\Users\Patrick\AppData\Local\Temp\ccydmBFr.s 			page 13


 281:.\Generated_Source\PSoC5/cyfitter_cfg.c **** 	uint8 regValue = CY_GET_XTND_REG8((void CYFAR *)CYREG_PUMP_CR0);
 371              		.loc 1 281 0
 372 0000 024A     		ldr	r2, .L27
 373 0002 1378     		ldrb	r3, [r2]	@ zero_extendqisi2
 374 0004 DBB2     		uxtb	r3, r3
 375              	.LVL30:
 282:.\Generated_Source\PSoC5/cyfitter_cfg.c **** 	if (enabled != 0u)
 283:.\Generated_Source\PSoC5/cyfitter_cfg.c **** 	{
 284:.\Generated_Source\PSoC5/cyfitter_cfg.c **** 		regValue |= 0x00u;
 285:.\Generated_Source\PSoC5/cyfitter_cfg.c **** 	}
 286:.\Generated_Source\PSoC5/cyfitter_cfg.c **** 	else
 287:.\Generated_Source\PSoC5/cyfitter_cfg.c **** 	{
 288:.\Generated_Source\PSoC5/cyfitter_cfg.c **** 		regValue &= (uint8)~0x00u;
 289:.\Generated_Source\PSoC5/cyfitter_cfg.c **** 	}
 290:.\Generated_Source\PSoC5/cyfitter_cfg.c **** 	CY_SET_XTND_REG8((void CYFAR *)CYREG_PUMP_CR0, regValue);
 376              		.loc 1 290 0
 377 0006 1370     		strb	r3, [r2]
 378 0008 7047     		bx	lr
 379              	.L28:
 380 000a 00BF     		.align	2
 381              	.L27:
 382 000c 76580040 		.word	1073764470
 383              		.cfi_endproc
 384              	.LFE7:
 385              		.size	SetAnalogRoutingPumps, .-SetAnalogRoutingPumps
 386              		.section	.text.cyfitter_cfg,"ax",%progbits
 387              		.align	2
 388              		.global	cyfitter_cfg
 389              		.thumb
 390              		.thumb_func
 391              		.type	cyfitter_cfg, %function
 392              	cyfitter_cfg:
 393              	.LFB8:
 291:.\Generated_Source\PSoC5/cyfitter_cfg.c **** }
 292:.\Generated_Source\PSoC5/cyfitter_cfg.c **** 
 293:.\Generated_Source\PSoC5/cyfitter_cfg.c **** #define CY_AMUX_UNUSED CYREG_BOOST_SR
 294:.\Generated_Source\PSoC5/cyfitter_cfg.c **** 
 295:.\Generated_Source\PSoC5/cyfitter_cfg.c **** 
 296:.\Generated_Source\PSoC5/cyfitter_cfg.c **** /*******************************************************************************
 297:.\Generated_Source\PSoC5/cyfitter_cfg.c **** * Function Name: cyfitter_cfg
 298:.\Generated_Source\PSoC5/cyfitter_cfg.c **** ********************************************************************************
 299:.\Generated_Source\PSoC5/cyfitter_cfg.c **** * Summary:
 300:.\Generated_Source\PSoC5/cyfitter_cfg.c **** *  This function is called by the start-up code for the selected device. It
 301:.\Generated_Source\PSoC5/cyfitter_cfg.c **** *  performs all of the necessary device configuration based on the design
 302:.\Generated_Source\PSoC5/cyfitter_cfg.c **** *  settings.  This includes settings from the Design Wide Resources (DWR) such
 303:.\Generated_Source\PSoC5/cyfitter_cfg.c **** *  as Clocks and Pins as well as any component configuration that is necessary.
 304:.\Generated_Source\PSoC5/cyfitter_cfg.c **** *
 305:.\Generated_Source\PSoC5/cyfitter_cfg.c **** * Parameters:  
 306:.\Generated_Source\PSoC5/cyfitter_cfg.c **** *   void
 307:.\Generated_Source\PSoC5/cyfitter_cfg.c **** *
 308:.\Generated_Source\PSoC5/cyfitter_cfg.c **** * Return:
 309:.\Generated_Source\PSoC5/cyfitter_cfg.c **** *   void
 310:.\Generated_Source\PSoC5/cyfitter_cfg.c **** *
 311:.\Generated_Source\PSoC5/cyfitter_cfg.c **** *******************************************************************************/
 312:.\Generated_Source\PSoC5/cyfitter_cfg.c **** 
 313:.\Generated_Source\PSoC5/cyfitter_cfg.c **** void cyfitter_cfg(void)
 314:.\Generated_Source\PSoC5/cyfitter_cfg.c **** {
ARM GAS  C:\Users\Patrick\AppData\Local\Temp\ccydmBFr.s 			page 14


 394              		.loc 1 314 0
 395              		.cfi_startproc
 396              		@ args = 0, pretend = 0, frame = 0
 397              		@ frame_needed = 0, uses_anonymous_args = 0
 398 0000 38B5     		push	{r3, r4, r5, lr}
 399              		.cfi_def_cfa_offset 16
 400              		.cfi_offset 3, -16
 401              		.cfi_offset 4, -12
 402              		.cfi_offset 5, -8
 403              		.cfi_offset 14, -4
 315:.\Generated_Source\PSoC5/cyfitter_cfg.c **** 	/* IOPINS0_8 Address: CYREG_PRT15_DR Size (bytes): 10 */
 316:.\Generated_Source\PSoC5/cyfitter_cfg.c **** 	static const uint8 CYCODE BS_IOPINS0_8_VAL[] = {
 317:.\Generated_Source\PSoC5/cyfitter_cfg.c **** 		0x40u, 0x00u, 0x00u, 0x00u, 0x00u, 0x00u, 0x00u, 0x00u, 0xC0u, 0x00u};
 318:.\Generated_Source\PSoC5/cyfitter_cfg.c **** 
 319:.\Generated_Source\PSoC5/cyfitter_cfg.c **** 	/* IOPINS0_2 Address: CYREG_PRT2_DM0 Size (bytes): 8 */
 320:.\Generated_Source\PSoC5/cyfitter_cfg.c **** 	static const uint8 CYCODE BS_IOPINS0_2_VAL[] = {
 321:.\Generated_Source\PSoC5/cyfitter_cfg.c **** 		0x00u, 0x02u, 0x02u, 0x00u, 0x02u, 0x00u, 0x00u, 0x00u};
 322:.\Generated_Source\PSoC5/cyfitter_cfg.c **** 
 323:.\Generated_Source\PSoC5/cyfitter_cfg.c **** #ifdef CYGlobalIntDisable
 324:.\Generated_Source\PSoC5/cyfitter_cfg.c **** 	/* Disable interrupts by default. Let user enable if/when they want. */
 325:.\Generated_Source\PSoC5/cyfitter_cfg.c **** 	CYGlobalIntDisable
 404              		.loc 1 325 0
 405              	@ 325 ".\Generated_Source\PSoC5\cyfitter_cfg.c" 1
 406 0002 72B6     		CPSID   i
 407              	@ 0 "" 2
 326:.\Generated_Source\PSoC5/cyfitter_cfg.c **** #endif
 327:.\Generated_Source\PSoC5/cyfitter_cfg.c **** 
 328:.\Generated_Source\PSoC5/cyfitter_cfg.c **** 
 329:.\Generated_Source\PSoC5/cyfitter_cfg.c **** 	/* Set Flash Cycles based on max possible frequency in case a glitch occurs during ClockSetup(). *
 330:.\Generated_Source\PSoC5/cyfitter_cfg.c **** 	CY_SET_XTND_REG8((void CYFAR *)(CYREG_CACHE_CC_CTL), (((CYDEV_INSTRUCT_CACHE_ENABLED) != 0) ? 0x61
 408              		.loc 1 330 0
 409              		.thumb
 410 0004 6122     		movs	r2, #97
 411 0006 284B     		ldr	r3, .L33
 412 0008 1A70     		strb	r2, [r3]
 331:.\Generated_Source\PSoC5/cyfitter_cfg.c **** 	/* Setup clocks based on selections from Clock DWR */
 332:.\Generated_Source\PSoC5/cyfitter_cfg.c **** 	ClockSetup();
 413              		.loc 1 332 0
 414 000a FFF7FEFF 		bl	ClockSetup
 415              	.LVL31:
 333:.\Generated_Source\PSoC5/cyfitter_cfg.c **** 	/* Enable/Disable Debug functionality based on settings from System DWR */
 334:.\Generated_Source\PSoC5/cyfitter_cfg.c **** 	CY_SET_XTND_REG8((void CYFAR *)CYREG_MLOGIC_DEBUG, (CY_GET_XTND_REG8((void CYFAR *)CYREG_MLOGIC_DE
 416              		.loc 1 334 0
 417 000e 274A     		ldr	r2, .L33+4
 418 0010 1378     		ldrb	r3, [r2]	@ zero_extendqisi2
 419 0012 43F00403 		orr	r3, r3, #4
 420 0016 1370     		strb	r3, [r2]
 421              	.LVL32:
 422              	.LBB3:
 335:.\Generated_Source\PSoC5/cyfitter_cfg.c **** 
 336:.\Generated_Source\PSoC5/cyfitter_cfg.c **** 	{
 337:.\Generated_Source\PSoC5/cyfitter_cfg.c **** 		static const uint32 CYCODE cy_cfg_addr_table[] = {
 338:.\Generated_Source\PSoC5/cyfitter_cfg.c **** 			0x40004501u, /* Base address: 0x40004500 Count: 1 */
 339:.\Generated_Source\PSoC5/cyfitter_cfg.c **** 			0x40004F01u, /* Base address: 0x40004F00 Count: 1 */
 340:.\Generated_Source\PSoC5/cyfitter_cfg.c **** 			0x40005201u, /* Base address: 0x40005200 Count: 1 */
 341:.\Generated_Source\PSoC5/cyfitter_cfg.c **** 			0x40010701u, /* Base address: 0x40010700 Count: 1 */
 342:.\Generated_Source\PSoC5/cyfitter_cfg.c **** 			0x40010901u, /* Base address: 0x40010900 Count: 1 */
ARM GAS  C:\Users\Patrick\AppData\Local\Temp\ccydmBFr.s 			page 15


 343:.\Generated_Source\PSoC5/cyfitter_cfg.c **** 			0x40010A04u, /* Base address: 0x40010A00 Count: 4 */
 344:.\Generated_Source\PSoC5/cyfitter_cfg.c **** 			0x40010B01u, /* Base address: 0x40010B00 Count: 1 */
 345:.\Generated_Source\PSoC5/cyfitter_cfg.c **** 			0x40011702u, /* Base address: 0x40011700 Count: 2 */
 346:.\Generated_Source\PSoC5/cyfitter_cfg.c **** 			0x40011902u, /* Base address: 0x40011900 Count: 2 */
 347:.\Generated_Source\PSoC5/cyfitter_cfg.c **** 			0x40014003u, /* Base address: 0x40014000 Count: 3 */
 348:.\Generated_Source\PSoC5/cyfitter_cfg.c **** 			0x40014102u, /* Base address: 0x40014100 Count: 2 */
 349:.\Generated_Source\PSoC5/cyfitter_cfg.c **** 			0x40014204u, /* Base address: 0x40014200 Count: 4 */
 350:.\Generated_Source\PSoC5/cyfitter_cfg.c **** 			0x40014306u, /* Base address: 0x40014300 Count: 6 */
 351:.\Generated_Source\PSoC5/cyfitter_cfg.c **** 			0x40014502u, /* Base address: 0x40014500 Count: 2 */
 352:.\Generated_Source\PSoC5/cyfitter_cfg.c **** 			0x40014601u, /* Base address: 0x40014600 Count: 1 */
 353:.\Generated_Source\PSoC5/cyfitter_cfg.c **** 			0x40014704u, /* Base address: 0x40014700 Count: 4 */
 354:.\Generated_Source\PSoC5/cyfitter_cfg.c **** 			0x40014804u, /* Base address: 0x40014800 Count: 4 */
 355:.\Generated_Source\PSoC5/cyfitter_cfg.c **** 			0x40014C04u, /* Base address: 0x40014C00 Count: 4 */
 356:.\Generated_Source\PSoC5/cyfitter_cfg.c **** 			0x40015001u, /* Base address: 0x40015000 Count: 1 */
 357:.\Generated_Source\PSoC5/cyfitter_cfg.c **** 			0x40015101u, /* Base address: 0x40015100 Count: 1 */
 358:.\Generated_Source\PSoC5/cyfitter_cfg.c **** 		};
 359:.\Generated_Source\PSoC5/cyfitter_cfg.c **** 
 360:.\Generated_Source\PSoC5/cyfitter_cfg.c **** 		static const cy_cfg_addrvalue_t CYCODE cy_cfg_data_table[] = {
 361:.\Generated_Source\PSoC5/cyfitter_cfg.c **** 			{0x7Eu, 0x02u},
 362:.\Generated_Source\PSoC5/cyfitter_cfg.c **** 			{0x0Au, 0x4Bu},
 363:.\Generated_Source\PSoC5/cyfitter_cfg.c **** 			{0x7Cu, 0x40u},
 364:.\Generated_Source\PSoC5/cyfitter_cfg.c **** 			{0xEEu, 0x08u},
 365:.\Generated_Source\PSoC5/cyfitter_cfg.c **** 			{0xAFu, 0x20u},
 366:.\Generated_Source\PSoC5/cyfitter_cfg.c **** 			{0xB8u, 0x20u},
 367:.\Generated_Source\PSoC5/cyfitter_cfg.c **** 			{0xBEu, 0x10u},
 368:.\Generated_Source\PSoC5/cyfitter_cfg.c **** 			{0xD8u, 0x04u},
 369:.\Generated_Source\PSoC5/cyfitter_cfg.c **** 			{0xDFu, 0x01u},
 370:.\Generated_Source\PSoC5/cyfitter_cfg.c **** 			{0x1Fu, 0x20u},
 371:.\Generated_Source\PSoC5/cyfitter_cfg.c **** 			{0xE8u, 0x10u},
 372:.\Generated_Source\PSoC5/cyfitter_cfg.c **** 			{0xEEu, 0x0Au},
 373:.\Generated_Source\PSoC5/cyfitter_cfg.c **** 			{0xE8u, 0x10u},
 374:.\Generated_Source\PSoC5/cyfitter_cfg.c **** 			{0xEEu, 0x0Au},
 375:.\Generated_Source\PSoC5/cyfitter_cfg.c **** 			{0x33u, 0x80u},
 376:.\Generated_Source\PSoC5/cyfitter_cfg.c **** 			{0x36u, 0x40u},
 377:.\Generated_Source\PSoC5/cyfitter_cfg.c **** 			{0xCCu, 0x30u},
 378:.\Generated_Source\PSoC5/cyfitter_cfg.c **** 			{0xA6u, 0x40u},
 379:.\Generated_Source\PSoC5/cyfitter_cfg.c **** 			{0xA7u, 0x80u},
 380:.\Generated_Source\PSoC5/cyfitter_cfg.c **** 			{0x63u, 0x02u},
 381:.\Generated_Source\PSoC5/cyfitter_cfg.c **** 			{0xA6u, 0x40u},
 382:.\Generated_Source\PSoC5/cyfitter_cfg.c **** 			{0xA7u, 0x80u},
 383:.\Generated_Source\PSoC5/cyfitter_cfg.c **** 			{0xD6u, 0x40u},
 384:.\Generated_Source\PSoC5/cyfitter_cfg.c **** 			{0x18u, 0x10u},
 385:.\Generated_Source\PSoC5/cyfitter_cfg.c **** 			{0xA6u, 0x40u},
 386:.\Generated_Source\PSoC5/cyfitter_cfg.c **** 			{0xA7u, 0x80u},
 387:.\Generated_Source\PSoC5/cyfitter_cfg.c **** 			{0xAFu, 0x01u},
 388:.\Generated_Source\PSoC5/cyfitter_cfg.c **** 			{0xC6u, 0x10u},
 389:.\Generated_Source\PSoC5/cyfitter_cfg.c **** 			{0xEEu, 0x10u},
 390:.\Generated_Source\PSoC5/cyfitter_cfg.c **** 			{0x50u, 0x04u},
 391:.\Generated_Source\PSoC5/cyfitter_cfg.c **** 			{0xD4u, 0x04u},
 392:.\Generated_Source\PSoC5/cyfitter_cfg.c **** 			{0x94u, 0x08u},
 393:.\Generated_Source\PSoC5/cyfitter_cfg.c **** 			{0x08u, 0x08u},
 394:.\Generated_Source\PSoC5/cyfitter_cfg.c **** 			{0x0Fu, 0x40u},
 395:.\Generated_Source\PSoC5/cyfitter_cfg.c **** 			{0x94u, 0x08u},
 396:.\Generated_Source\PSoC5/cyfitter_cfg.c **** 			{0xC2u, 0x0Cu},
 397:.\Generated_Source\PSoC5/cyfitter_cfg.c **** 			{0xAEu, 0x40u},
 398:.\Generated_Source\PSoC5/cyfitter_cfg.c **** 			{0xAFu, 0x80u},
 399:.\Generated_Source\PSoC5/cyfitter_cfg.c **** 			{0xB4u, 0x10u},
ARM GAS  C:\Users\Patrick\AppData\Local\Temp\ccydmBFr.s 			page 16


 400:.\Generated_Source\PSoC5/cyfitter_cfg.c **** 			{0xEEu, 0x50u},
 401:.\Generated_Source\PSoC5/cyfitter_cfg.c **** 			{0xACu, 0x08u},
 402:.\Generated_Source\PSoC5/cyfitter_cfg.c **** 			{0xAFu, 0x40u},
 403:.\Generated_Source\PSoC5/cyfitter_cfg.c **** 			{0xB4u, 0x04u},
 404:.\Generated_Source\PSoC5/cyfitter_cfg.c **** 			{0xE8u, 0x08u},
 405:.\Generated_Source\PSoC5/cyfitter_cfg.c **** 			{0x02u, 0x14u},
 406:.\Generated_Source\PSoC5/cyfitter_cfg.c **** 			{0x00u, 0x0Au},
 407:.\Generated_Source\PSoC5/cyfitter_cfg.c **** 		};
 408:.\Generated_Source\PSoC5/cyfitter_cfg.c **** 
 409:.\Generated_Source\PSoC5/cyfitter_cfg.c **** 
 410:.\Generated_Source\PSoC5/cyfitter_cfg.c **** 
 411:.\Generated_Source\PSoC5/cyfitter_cfg.c **** 		CYPACKED typedef struct {
 412:.\Generated_Source\PSoC5/cyfitter_cfg.c **** 			void CYFAR *address;
 413:.\Generated_Source\PSoC5/cyfitter_cfg.c **** 			uint16 size;
 414:.\Generated_Source\PSoC5/cyfitter_cfg.c **** 		} CYPACKED_ATTR cfg_memset_t;
 415:.\Generated_Source\PSoC5/cyfitter_cfg.c **** 
 416:.\Generated_Source\PSoC5/cyfitter_cfg.c **** 		static const cfg_memset_t CYCODE cfg_memset_list [] = {
 417:.\Generated_Source\PSoC5/cyfitter_cfg.c **** 			/* address, size */
 418:.\Generated_Source\PSoC5/cyfitter_cfg.c **** 			{(void CYFAR *)(CYREG_TMR0_CFG0), 12u},
 419:.\Generated_Source\PSoC5/cyfitter_cfg.c **** 			{(void CYFAR *)(CYREG_PRT0_DR), 32u},
 420:.\Generated_Source\PSoC5/cyfitter_cfg.c **** 			{(void CYFAR *)(CYREG_PRT3_DR), 64u},
 421:.\Generated_Source\PSoC5/cyfitter_cfg.c **** 			{(void CYFAR *)(CYREG_PRT12_DR), 16u},
 422:.\Generated_Source\PSoC5/cyfitter_cfg.c **** 			{(void CYFAR *)(CYDEV_UCFG_B0_P0_U0_BASE), 4096u},
 423:.\Generated_Source\PSoC5/cyfitter_cfg.c **** 			{(void CYFAR *)(CYDEV_UCFG_B1_P2_U0_BASE), 2048u},
 424:.\Generated_Source\PSoC5/cyfitter_cfg.c **** 			{(void CYFAR *)(CYDEV_UCFG_DSI0_BASE), 2560u},
 425:.\Generated_Source\PSoC5/cyfitter_cfg.c **** 			{(void CYFAR *)(CYDEV_UCFG_DSI12_BASE), 512u},
 426:.\Generated_Source\PSoC5/cyfitter_cfg.c **** 			{(void CYFAR *)(CYREG_BCTL0_MDCLK_EN), 32u},
 427:.\Generated_Source\PSoC5/cyfitter_cfg.c **** 		};
 428:.\Generated_Source\PSoC5/cyfitter_cfg.c **** 
 429:.\Generated_Source\PSoC5/cyfitter_cfg.c **** 		uint8 CYDATA i;
 430:.\Generated_Source\PSoC5/cyfitter_cfg.c **** 
 431:.\Generated_Source\PSoC5/cyfitter_cfg.c **** 		/* Zero out critical memory blocks before beginning configuration */
 432:.\Generated_Source\PSoC5/cyfitter_cfg.c **** 		for (i = 0u; i < (sizeof(cfg_memset_list)/sizeof(cfg_memset_list[0])); i++)
 423              		.loc 1 432 0
 424 0018 0024     		movs	r4, #0
 425 001a 0CE0     		b	.L30
 426              	.LVL33:
 427              	.L31:
 428              	.LBB4:
 433:.\Generated_Source\PSoC5/cyfitter_cfg.c **** 		{
 434:.\Generated_Source\PSoC5/cyfitter_cfg.c **** 			const cfg_memset_t CYCODE * CYDATA ms = &cfg_memset_list[i];
 435:.\Generated_Source\PSoC5/cyfitter_cfg.c **** 			CYMEMZERO(ms->address, (size_t)(uint32)(ms->size));
 429              		.loc 1 435 0 discriminator 3
 430 001c 2449     		ldr	r1, .L33+8
 431 001e 6300     		lsls	r3, r4, #1
 432 0020 1A19     		adds	r2, r3, r4
 433 0022 5200     		lsls	r2, r2, #1
 434 0024 0A44     		add	r2, r2, r1
 435 0026 2344     		add	r3, r3, r4
 436 0028 5B00     		lsls	r3, r3, #1
 437 002a C858     		ldr	r0, [r1, r3]	@ unaligned
 438 002c 9188     		ldrh	r1, [r2, #4]
 439 002e FFF7FEFF 		bl	CYMEMZERO
 440              	.LVL34:
 441              	.LBE4:
 432:.\Generated_Source\PSoC5/cyfitter_cfg.c **** 		{
 442              		.loc 1 432 0 discriminator 3
ARM GAS  C:\Users\Patrick\AppData\Local\Temp\ccydmBFr.s 			page 17


 443 0032 0134     		adds	r4, r4, #1
 444              	.LVL35:
 445 0034 E4B2     		uxtb	r4, r4
 446              	.LVL36:
 447              	.L30:
 432:.\Generated_Source\PSoC5/cyfitter_cfg.c **** 		{
 448              		.loc 1 432 0 is_stmt 0 discriminator 1
 449 0036 082C     		cmp	r4, #8
 450 0038 F0D9     		bls	.L31
 436:.\Generated_Source\PSoC5/cyfitter_cfg.c **** 		}
 437:.\Generated_Source\PSoC5/cyfitter_cfg.c **** 
 438:.\Generated_Source\PSoC5/cyfitter_cfg.c **** 		cfg_write_bytes32(cy_cfg_addr_table, cy_cfg_data_table);
 451              		.loc 1 438 0 is_stmt 1
 452 003a 1D4C     		ldr	r4, .L33+8
 453              	.LVL37:
 454 003c 04F13800 		add	r0, r4, #56
 455 0040 04F18801 		add	r1, r4, #136
 456 0044 FFF7FEFF 		bl	cfg_write_bytes32
 457              	.LVL38:
 439:.\Generated_Source\PSoC5/cyfitter_cfg.c **** 
 440:.\Generated_Source\PSoC5/cyfitter_cfg.c **** 		/* Enable digital routing */
 441:.\Generated_Source\PSoC5/cyfitter_cfg.c **** 		CY_SET_XTND_REG8((void CYFAR *)CYREG_BCTL0_BANK_CTL, CY_GET_XTND_REG8((void CYFAR *)CYREG_BCTL0_B
 458              		.loc 1 441 0
 459 0048 1A4A     		ldr	r2, .L33+12
 460 004a 1378     		ldrb	r3, [r2]	@ zero_extendqisi2
 461 004c 43F00203 		orr	r3, r3, #2
 462 0050 1370     		strb	r3, [r2]
 442:.\Generated_Source\PSoC5/cyfitter_cfg.c **** 		CY_SET_XTND_REG8((void CYFAR *)CYREG_BCTL1_BANK_CTL, CY_GET_XTND_REG8((void CYFAR *)CYREG_BCTL1_B
 463              		.loc 1 442 0
 464 0052 1032     		adds	r2, r2, #16
 465 0054 1378     		ldrb	r3, [r2]	@ zero_extendqisi2
 466 0056 43F00203 		orr	r3, r3, #2
 467 005a 1370     		strb	r3, [r2]
 443:.\Generated_Source\PSoC5/cyfitter_cfg.c **** 
 444:.\Generated_Source\PSoC5/cyfitter_cfg.c **** 		/* Enable UDB array */
 445:.\Generated_Source\PSoC5/cyfitter_cfg.c **** 		CY_SET_XTND_REG8((void CYFAR *)CYREG_PM_ACT_CFG0, CY_GET_XTND_REG8((void CYFAR *)CYREG_PM_ACT_CFG
 468              		.loc 1 445 0
 469 005c 164D     		ldr	r5, .L33+16
 470 005e 2B78     		ldrb	r3, [r5]	@ zero_extendqisi2
 471 0060 43F04003 		orr	r3, r3, #64
 472 0064 2B70     		strb	r3, [r5]
 446:.\Generated_Source\PSoC5/cyfitter_cfg.c **** 		CY_SET_XTND_REG8((void CYFAR *)CYREG_PM_AVAIL_CR2, CY_GET_XTND_REG8((void CYFAR *)CYREG_PM_AVAIL_
 473              		.loc 1 446 0
 474 0066 A2F58632 		sub	r2, r2, #68608
 475 006a 513A     		subs	r2, r2, #81
 476 006c 1378     		ldrb	r3, [r2]	@ zero_extendqisi2
 477 006e 43F01003 		orr	r3, r3, #16
 478 0072 1370     		strb	r3, [r2]
 479              	.LBE3:
 447:.\Generated_Source\PSoC5/cyfitter_cfg.c **** 	}
 448:.\Generated_Source\PSoC5/cyfitter_cfg.c **** 
 449:.\Generated_Source\PSoC5/cyfitter_cfg.c **** 
 450:.\Generated_Source\PSoC5/cyfitter_cfg.c **** 	/* Perform second pass device configuration. These items must be configured in specific order afte
 451:.\Generated_Source\PSoC5/cyfitter_cfg.c **** 	CYCONFIGCPYCODE((void CYFAR *)(CYREG_PRT15_DR), (const void CYCODE *)(BS_IOPINS0_8_VAL), 10u);
 480              		.loc 1 451 0
 481 0074 1148     		ldr	r0, .L33+20
 482 0076 04F1E401 		add	r1, r4, #228
ARM GAS  C:\Users\Patrick\AppData\Local\Temp\ccydmBFr.s 			page 18


 483 007a 0A22     		movs	r2, #10
 484 007c FFF7FEFF 		bl	CYCONFIGCPYCODE
 485              	.LVL39:
 452:.\Generated_Source\PSoC5/cyfitter_cfg.c **** 	CYCONFIGCPYCODE((void CYFAR *)(CYREG_PRT2_DM0), (const void CYCODE *)(BS_IOPINS0_2_VAL), 8u);
 486              		.loc 1 452 0
 487 0080 0F48     		ldr	r0, .L33+24
 488 0082 04F1F001 		add	r1, r4, #240
 489 0086 0822     		movs	r2, #8
 490 0088 FFF7FEFF 		bl	CYCONFIGCPYCODE
 491              	.LVL40:
 453:.\Generated_Source\PSoC5/cyfitter_cfg.c **** 	/* Switch Boost to the precision bandgap reference from its internal reference */
 454:.\Generated_Source\PSoC5/cyfitter_cfg.c **** 	CY_SET_REG8((void CYXDATA *)CYREG_BOOST_CR2, (CY_GET_REG8((void CYXDATA *)CYREG_BOOST_CR2) | 0x08u
 492              		.loc 1 454 0
 493 008c 0D4A     		ldr	r2, .L33+28
 494 008e 1378     		ldrb	r3, [r2]	@ zero_extendqisi2
 495 0090 43F00803 		orr	r3, r3, #8
 496 0094 1370     		strb	r3, [r2]
 455:.\Generated_Source\PSoC5/cyfitter_cfg.c **** 
 456:.\Generated_Source\PSoC5/cyfitter_cfg.c **** 	/* Perform basic analog initialization to defaults */
 457:.\Generated_Source\PSoC5/cyfitter_cfg.c **** 	AnalogSetDefault();
 497              		.loc 1 457 0
 498 0096 FFF7FEFF 		bl	AnalogSetDefault
 499              	.LVL41:
 458:.\Generated_Source\PSoC5/cyfitter_cfg.c **** 
 459:.\Generated_Source\PSoC5/cyfitter_cfg.c **** 	/* Configure alternate active mode */
 460:.\Generated_Source\PSoC5/cyfitter_cfg.c **** 	CYCONFIGCPY((void CYFAR *)CYDEV_PM_STBY_BASE, (const void CYFAR *)CYDEV_PM_ACT_BASE, 14u);
 500              		.loc 1 460 0
 501 009a 0B48     		ldr	r0, .L33+32
 502 009c 2946     		mov	r1, r5
 503 009e 0E22     		movs	r2, #14
 504 00a0 FFF7FEFF 		bl	CYCONFIGCPY
 505              	.LVL42:
 506 00a4 38BD     		pop	{r3, r4, r5, pc}
 507              	.L34:
 508 00a6 00BF     		.align	2
 509              	.L33:
 510 00a8 00480040 		.word	1073760256
 511 00ac E8460040 		.word	1073759976
 512 00b0 00000000 		.word	.LANCHOR0
 513 00b4 03500140 		.word	1073827843
 514 00b8 A0430040 		.word	1073759136
 515 00bc F0510040 		.word	1073762800
 516 00c0 22510040 		.word	1073762594
 517 00c4 22430040 		.word	1073759010
 518 00c8 B0430040 		.word	1073759152
 519              		.cfi_endproc
 520              	.LFE8:
 521              		.size	cyfitter_cfg, .-cyfitter_cfg
 522              		.section	.rodata
 523              		.align	2
 524              		.set	.LANCHOR0,. + 0
 525              		.type	cfg_memset_list.4884, %object
 526              		.size	cfg_memset_list.4884, 54
 527              	cfg_memset_list.4884:
 528 0000 004F0040 		.word	1073762048
 529 0004 0C00     		.short	12
 530 0006 00510040 		.4byte	1073762560
ARM GAS  C:\Users\Patrick\AppData\Local\Temp\ccydmBFr.s 			page 19


 531 000a 2000     		.short	32
 532 000c 30510040 		.word	1073762608
 533 0010 4000     		.short	64
 534 0012 C0510040 		.4byte	1073762752
 535 0016 1000     		.short	16
 536 0018 00000140 		.word	1073807360
 537 001c 0010     		.short	4096
 538 001e 00140140 		.4byte	1073812480
 539 0022 0008     		.short	2048
 540 0024 00400140 		.word	1073823744
 541 0028 000A     		.short	2560
 542 002a 004C0140 		.4byte	1073826816
 543 002e 0002     		.short	512
 544 0030 00500140 		.word	1073827840
 545 0034 2000     		.short	32
 546 0036 0000     		.space	2
 547              		.type	cy_cfg_addr_table.4878, %object
 548              		.size	cy_cfg_addr_table.4878, 80
 549              	cy_cfg_addr_table.4878:
 550 0038 01450040 		.word	1073759489
 551 003c 014F0040 		.word	1073762049
 552 0040 01520040 		.word	1073762817
 553 0044 01070140 		.word	1073809153
 554 0048 01090140 		.word	1073809665
 555 004c 040A0140 		.word	1073809924
 556 0050 010B0140 		.word	1073810177
 557 0054 02170140 		.word	1073813250
 558 0058 02190140 		.word	1073813762
 559 005c 03400140 		.word	1073823747
 560 0060 02410140 		.word	1073824002
 561 0064 04420140 		.word	1073824260
 562 0068 06430140 		.word	1073824518
 563 006c 02450140 		.word	1073825026
 564 0070 01460140 		.word	1073825281
 565 0074 04470140 		.word	1073825540
 566 0078 04480140 		.word	1073825796
 567 007c 044C0140 		.word	1073826820
 568 0080 01500140 		.word	1073827841
 569 0084 01510140 		.word	1073828097
 570              		.type	cy_cfg_data_table.4879, %object
 571              		.size	cy_cfg_data_table.4879, 92
 572              	cy_cfg_data_table.4879:
 573 0088 7E       		.byte	126
 574 0089 02       		.byte	2
 575 008a 0A       		.byte	10
 576 008b 4B       		.byte	75
 577 008c 7C       		.byte	124
 578 008d 40       		.byte	64
 579 008e EE       		.byte	-18
 580 008f 08       		.byte	8
 581 0090 AF       		.byte	-81
 582 0091 20       		.byte	32
 583 0092 B8       		.byte	-72
 584 0093 20       		.byte	32
 585 0094 BE       		.byte	-66
 586 0095 10       		.byte	16
 587 0096 D8       		.byte	-40
ARM GAS  C:\Users\Patrick\AppData\Local\Temp\ccydmBFr.s 			page 20


 588 0097 04       		.byte	4
 589 0098 DF       		.byte	-33
 590 0099 01       		.byte	1
 591 009a 1F       		.byte	31
 592 009b 20       		.byte	32
 593 009c E8       		.byte	-24
 594 009d 10       		.byte	16
 595 009e EE       		.byte	-18
 596 009f 0A       		.byte	10
 597 00a0 E8       		.byte	-24
 598 00a1 10       		.byte	16
 599 00a2 EE       		.byte	-18
 600 00a3 0A       		.byte	10
 601 00a4 33       		.byte	51
 602 00a5 80       		.byte	-128
 603 00a6 36       		.byte	54
 604 00a7 40       		.byte	64
 605 00a8 CC       		.byte	-52
 606 00a9 30       		.byte	48
 607 00aa A6       		.byte	-90
 608 00ab 40       		.byte	64
 609 00ac A7       		.byte	-89
 610 00ad 80       		.byte	-128
 611 00ae 63       		.byte	99
 612 00af 02       		.byte	2
 613 00b0 A6       		.byte	-90
 614 00b1 40       		.byte	64
 615 00b2 A7       		.byte	-89
 616 00b3 80       		.byte	-128
 617 00b4 D6       		.byte	-42
 618 00b5 40       		.byte	64
 619 00b6 18       		.byte	24
 620 00b7 10       		.byte	16
 621 00b8 A6       		.byte	-90
 622 00b9 40       		.byte	64
 623 00ba A7       		.byte	-89
 624 00bb 80       		.byte	-128
 625 00bc AF       		.byte	-81
 626 00bd 01       		.byte	1
 627 00be C6       		.byte	-58
 628 00bf 10       		.byte	16
 629 00c0 EE       		.byte	-18
 630 00c1 10       		.byte	16
 631 00c2 50       		.byte	80
 632 00c3 04       		.byte	4
 633 00c4 D4       		.byte	-44
 634 00c5 04       		.byte	4
 635 00c6 94       		.byte	-108
 636 00c7 08       		.byte	8
 637 00c8 08       		.byte	8
 638 00c9 08       		.byte	8
 639 00ca 0F       		.byte	15
 640 00cb 40       		.byte	64
 641 00cc 94       		.byte	-108
 642 00cd 08       		.byte	8
 643 00ce C2       		.byte	-62
 644 00cf 0C       		.byte	12
ARM GAS  C:\Users\Patrick\AppData\Local\Temp\ccydmBFr.s 			page 21


 645 00d0 AE       		.byte	-82
 646 00d1 40       		.byte	64
 647 00d2 AF       		.byte	-81
 648 00d3 80       		.byte	-128
 649 00d4 B4       		.byte	-76
 650 00d5 10       		.byte	16
 651 00d6 EE       		.byte	-18
 652 00d7 50       		.byte	80
 653 00d8 AC       		.byte	-84
 654 00d9 08       		.byte	8
 655 00da AF       		.byte	-81
 656 00db 40       		.byte	64
 657 00dc B4       		.byte	-76
 658 00dd 04       		.byte	4
 659 00de E8       		.byte	-24
 660 00df 08       		.byte	8
 661 00e0 02       		.byte	2
 662 00e1 14       		.byte	20
 663 00e2 00       		.byte	0
 664 00e3 0A       		.byte	10
 665              		.type	BS_IOPINS0_8_VAL.4876, %object
 666              		.size	BS_IOPINS0_8_VAL.4876, 10
 667              	BS_IOPINS0_8_VAL.4876:
 668 00e4 40       		.byte	64
 669 00e5 00       		.byte	0
 670 00e6 00       		.byte	0
 671 00e7 00       		.byte	0
 672 00e8 00       		.byte	0
 673 00e9 00       		.byte	0
 674 00ea 00       		.byte	0
 675 00eb 00       		.byte	0
 676 00ec C0       		.byte	-64
 677 00ed 00       		.byte	0
 678 00ee 0000     		.space	2
 679              		.type	BS_IOPINS0_2_VAL.4877, %object
 680              		.size	BS_IOPINS0_2_VAL.4877, 8
 681              	BS_IOPINS0_2_VAL.4877:
 682 00f0 00       		.byte	0
 683 00f1 02       		.byte	2
 684 00f2 02       		.byte	2
 685 00f3 00       		.byte	0
 686 00f4 02       		.byte	2
 687 00f5 00       		.byte	0
 688 00f6 00       		.byte	0
 689 00f7 00       		.byte	0
 690              		.text
 691              	.Letext0:
 692              		.file 2 "c:\\program files (x86)\\cypress\\psoc creator\\3.3\\psoc creator\\import\\gnu\\arm\\4.9.
 693              		.file 3 ".\\Generated_Source\\PSoC5\\cytypes.h"
 694              		.file 4 ".\\Generated_Source\\PSoC5\\CyLib.h"