ARM GAS  C:\Users\Patrick\AppData\Local\Temp\ccAEtMzX.s 			page 1


   1              		.syntax unified
   2              		.cpu cortex-m3
   3              		.fpu softvfp
   4              		.eabi_attribute 20, 1
   5              		.eabi_attribute 21, 1
   6              		.eabi_attribute 23, 3
   7              		.eabi_attribute 24, 1
   8              		.eabi_attribute 25, 1
   9              		.eabi_attribute 26, 1
  10              		.eabi_attribute 30, 1
  11              		.eabi_attribute 34, 1
  12              		.eabi_attribute 18, 4
  13              		.thumb
  14              		.file	"USBFS_boot.c"
  15              		.text
  16              	.Ltext0:
  17              		.cfi_sections	.debug_frame
  18              		.section	.text.USBFS_CyBtldrCommStart,"ax",%progbits
  19              		.align	2
  20              		.global	USBFS_CyBtldrCommStart
  21              		.thumb
  22              		.thumb_func
  23              		.type	USBFS_CyBtldrCommStart, %function
  24              	USBFS_CyBtldrCommStart:
  25              	.LFB0:
  26              		.file 1 ".\\Generated_Source\\PSoC5\\USBFS_boot.c"
   1:.\Generated_Source\PSoC5/USBFS_boot.c **** /***************************************************************************//**
   2:.\Generated_Source\PSoC5/USBFS_boot.c **** * \file USBFS_boot.c
   3:.\Generated_Source\PSoC5/USBFS_boot.c **** * \version 3.0
   4:.\Generated_Source\PSoC5/USBFS_boot.c **** *
   5:.\Generated_Source\PSoC5/USBFS_boot.c **** * \brief
   6:.\Generated_Source\PSoC5/USBFS_boot.c **** *  This file contains the Bootloader API for USBFS Component.
   7:.\Generated_Source\PSoC5/USBFS_boot.c **** *
   8:.\Generated_Source\PSoC5/USBFS_boot.c **** ********************************************************************************
   9:.\Generated_Source\PSoC5/USBFS_boot.c **** * \copyright
  10:.\Generated_Source\PSoC5/USBFS_boot.c **** * Copyright 2008-2015, Cypress Semiconductor Corporation.  All rights reserved.
  11:.\Generated_Source\PSoC5/USBFS_boot.c **** * You may use this file only in accordance with the license, terms, conditions,
  12:.\Generated_Source\PSoC5/USBFS_boot.c **** * disclaimers, and limitations in the end user license agreement accompanying
  13:.\Generated_Source\PSoC5/USBFS_boot.c **** * the software package with which this file was provided.
  14:.\Generated_Source\PSoC5/USBFS_boot.c **** *******************************************************************************/
  15:.\Generated_Source\PSoC5/USBFS_boot.c **** 
  16:.\Generated_Source\PSoC5/USBFS_boot.c **** #include "USBFS_pvt.h"
  17:.\Generated_Source\PSoC5/USBFS_boot.c **** 
  18:.\Generated_Source\PSoC5/USBFS_boot.c **** #if defined(CYDEV_BOOTLOADER_IO_COMP) && ((CYDEV_BOOTLOADER_IO_COMP == CyBtldr_USBFS) || \
  19:.\Generated_Source\PSoC5/USBFS_boot.c ****                                           (CYDEV_BOOTLOADER_IO_COMP == CyBtldr_Custom_Interface))  
  20:.\Generated_Source\PSoC5/USBFS_boot.c **** 
  21:.\Generated_Source\PSoC5/USBFS_boot.c **** /***************************************
  22:.\Generated_Source\PSoC5/USBFS_boot.c **** *    Bootloader Variables
  23:.\Generated_Source\PSoC5/USBFS_boot.c **** ***************************************/
  24:.\Generated_Source\PSoC5/USBFS_boot.c ****     
  25:.\Generated_Source\PSoC5/USBFS_boot.c **** 
  26:.\Generated_Source\PSoC5/USBFS_boot.c **** static uint8  USBFS_started = 0u;
  27:.\Generated_Source\PSoC5/USBFS_boot.c **** 
  28:.\Generated_Source\PSoC5/USBFS_boot.c **** 
  29:.\Generated_Source\PSoC5/USBFS_boot.c **** /*******************************************************************************
  30:.\Generated_Source\PSoC5/USBFS_boot.c **** * Function Name: USBFS_CyBtldrCommStart
  31:.\Generated_Source\PSoC5/USBFS_boot.c **** ****************************************************************************//**
ARM GAS  C:\Users\Patrick\AppData\Local\Temp\ccAEtMzX.s 			page 2


  32:.\Generated_Source\PSoC5/USBFS_boot.c **** *
  33:.\Generated_Source\PSoC5/USBFS_boot.c **** *  This function performs all required initialization for the USBFS component, 
  34:.\Generated_Source\PSoC5/USBFS_boot.c **** *  waits on enumeration, and enables communication.
  35:.\Generated_Source\PSoC5/USBFS_boot.c **** *
  36:.\Generated_Source\PSoC5/USBFS_boot.c **** * \sideeffect
  37:.\Generated_Source\PSoC5/USBFS_boot.c **** *  This function starts the USB with 3V or 5V operation.
  38:.\Generated_Source\PSoC5/USBFS_boot.c **** *
  39:.\Generated_Source\PSoC5/USBFS_boot.c **** * \reentrant
  40:.\Generated_Source\PSoC5/USBFS_boot.c **** *  No.
  41:.\Generated_Source\PSoC5/USBFS_boot.c **** *
  42:.\Generated_Source\PSoC5/USBFS_boot.c **** *******************************************************************************/
  43:.\Generated_Source\PSoC5/USBFS_boot.c **** void USBFS_CyBtldrCommStart(void) 
  44:.\Generated_Source\PSoC5/USBFS_boot.c **** {
  27              		.loc 1 44 0
  28              		.cfi_startproc
  29              		@ args = 0, pretend = 0, frame = 0
  30              		@ frame_needed = 0, uses_anonymous_args = 0
  31 0000 08B5     		push	{r3, lr}
  32              		.cfi_def_cfa_offset 8
  33              		.cfi_offset 3, -8
  34              		.cfi_offset 14, -4
  45:.\Generated_Source\PSoC5/USBFS_boot.c ****     /* Enable Global Interrupts. Interrupts are mandatory for USBFS component operation. */
  46:.\Generated_Source\PSoC5/USBFS_boot.c ****     CyGlobalIntEnable;
  35              		.loc 1 46 0
  36              	@ 46 ".\Generated_Source\PSoC5\USBFS_boot.c" 1
  37 0002 62B6     		CPSIE   i
  38              	@ 0 "" 2
  47:.\Generated_Source\PSoC5/USBFS_boot.c **** 
  48:.\Generated_Source\PSoC5/USBFS_boot.c ****     /* Start USBFS Operation: device 0 and with 5V or 3V operation depend on Voltage Configuration 
  49:.\Generated_Source\PSoC5/USBFS_boot.c ****     USBFS_Start(0u, USBFS_DWR_POWER_OPERATION);
  39              		.loc 1 49 0
  40              		.thumb
  41 0004 0020     		movs	r0, #0
  42 0006 0221     		movs	r1, #2
  43 0008 FFF7FEFF 		bl	USBFS_Start
  44              	.LVL0:
  50:.\Generated_Source\PSoC5/USBFS_boot.c **** 
  51:.\Generated_Source\PSoC5/USBFS_boot.c ****     /* USB component started, the correct enumeration will be checked in the first Read operation. 
  52:.\Generated_Source\PSoC5/USBFS_boot.c ****     USBFS_started = 1u;
  45              		.loc 1 52 0
  46 000c 0122     		movs	r2, #1
  47 000e 014B     		ldr	r3, .L3
  48 0010 1A70     		strb	r2, [r3]
  49 0012 08BD     		pop	{r3, pc}
  50              	.L4:
  51              		.align	2
  52              	.L3:
  53 0014 00000000 		.word	.LANCHOR0
  54              		.cfi_endproc
  55              	.LFE0:
  56              		.size	USBFS_CyBtldrCommStart, .-USBFS_CyBtldrCommStart
  57              		.section	.text.USBFS_CyBtldrCommStop,"ax",%progbits
  58              		.align	2
  59              		.global	USBFS_CyBtldrCommStop
  60              		.thumb
  61              		.thumb_func
  62              		.type	USBFS_CyBtldrCommStop, %function
ARM GAS  C:\Users\Patrick\AppData\Local\Temp\ccAEtMzX.s 			page 3


  63              	USBFS_CyBtldrCommStop:
  64              	.LFB1:
  53:.\Generated_Source\PSoC5/USBFS_boot.c **** }
  54:.\Generated_Source\PSoC5/USBFS_boot.c **** 
  55:.\Generated_Source\PSoC5/USBFS_boot.c **** 
  56:.\Generated_Source\PSoC5/USBFS_boot.c **** /*******************************************************************************
  57:.\Generated_Source\PSoC5/USBFS_boot.c **** * Function Name: USBFS_CyBtldrCommStop.
  58:.\Generated_Source\PSoC5/USBFS_boot.c **** ****************************************************************************//**
  59:.\Generated_Source\PSoC5/USBFS_boot.c **** *
  60:.\Generated_Source\PSoC5/USBFS_boot.c **** *  This function performs all necessary shutdown tasks required for the USBFS 
  61:.\Generated_Source\PSoC5/USBFS_boot.c **** *  component.
  62:.\Generated_Source\PSoC5/USBFS_boot.c **** *  
  63:.\Generated_Source\PSoC5/USBFS_boot.c **** *  \sideeffect
  64:.\Generated_Source\PSoC5/USBFS_boot.c **** *   Calls the USBFS_Stop() function.
  65:.\Generated_Source\PSoC5/USBFS_boot.c **** *
  66:.\Generated_Source\PSoC5/USBFS_boot.c **** *******************************************************************************/
  67:.\Generated_Source\PSoC5/USBFS_boot.c **** void USBFS_CyBtldrCommStop(void) 
  68:.\Generated_Source\PSoC5/USBFS_boot.c **** {
  65              		.loc 1 68 0
  66              		.cfi_startproc
  67              		@ args = 0, pretend = 0, frame = 0
  68              		@ frame_needed = 0, uses_anonymous_args = 0
  69 0000 08B5     		push	{r3, lr}
  70              		.cfi_def_cfa_offset 8
  71              		.cfi_offset 3, -8
  72              		.cfi_offset 14, -4
  69:.\Generated_Source\PSoC5/USBFS_boot.c ****     USBFS_Stop();
  73              		.loc 1 69 0
  74 0002 FFF7FEFF 		bl	USBFS_Stop
  75              	.LVL1:
  76 0006 08BD     		pop	{r3, pc}
  77              		.cfi_endproc
  78              	.LFE1:
  79              		.size	USBFS_CyBtldrCommStop, .-USBFS_CyBtldrCommStop
  80              		.section	.text.USBFS_CyBtldrCommReset,"ax",%progbits
  81              		.align	2
  82              		.global	USBFS_CyBtldrCommReset
  83              		.thumb
  84              		.thumb_func
  85              		.type	USBFS_CyBtldrCommReset, %function
  86              	USBFS_CyBtldrCommReset:
  87              	.LFB2:
  70:.\Generated_Source\PSoC5/USBFS_boot.c **** }
  71:.\Generated_Source\PSoC5/USBFS_boot.c **** 
  72:.\Generated_Source\PSoC5/USBFS_boot.c **** 
  73:.\Generated_Source\PSoC5/USBFS_boot.c **** /*******************************************************************************
  74:.\Generated_Source\PSoC5/USBFS_boot.c **** * Function Name: USBFS_CyBtldrCommReset.
  75:.\Generated_Source\PSoC5/USBFS_boot.c **** ****************************************************************************//**
  76:.\Generated_Source\PSoC5/USBFS_boot.c **** *
  77:.\Generated_Source\PSoC5/USBFS_boot.c **** *  This function resets receive and transmit communication buffers.
  78:.\Generated_Source\PSoC5/USBFS_boot.c **** *
  79:.\Generated_Source\PSoC5/USBFS_boot.c **** * \reentrant
  80:.\Generated_Source\PSoC5/USBFS_boot.c **** *  No
  81:.\Generated_Source\PSoC5/USBFS_boot.c **** *
  82:.\Generated_Source\PSoC5/USBFS_boot.c **** *******************************************************************************/
  83:.\Generated_Source\PSoC5/USBFS_boot.c **** void USBFS_CyBtldrCommReset(void) 
  84:.\Generated_Source\PSoC5/USBFS_boot.c **** {
ARM GAS  C:\Users\Patrick\AppData\Local\Temp\ccAEtMzX.s 			page 4


  88              		.loc 1 84 0
  89              		.cfi_startproc
  90              		@ args = 0, pretend = 0, frame = 0
  91              		@ frame_needed = 0, uses_anonymous_args = 0
  92 0000 08B5     		push	{r3, lr}
  93              		.cfi_def_cfa_offset 8
  94              		.cfi_offset 3, -8
  95              		.cfi_offset 14, -4
  85:.\Generated_Source\PSoC5/USBFS_boot.c ****     USBFS_EnableOutEP(USBFS_BTLDR_OUT_EP); 
  96              		.loc 1 85 0
  97 0002 0120     		movs	r0, #1
  98 0004 FFF7FEFF 		bl	USBFS_EnableOutEP
  99              	.LVL2:
 100 0008 08BD     		pop	{r3, pc}
 101              		.cfi_endproc
 102              	.LFE2:
 103              		.size	USBFS_CyBtldrCommReset, .-USBFS_CyBtldrCommReset
 104 000a 00BF     		.section	.text.USBFS_CyBtldrCommWrite,"ax",%progbits
 105              		.align	2
 106              		.global	USBFS_CyBtldrCommWrite
 107              		.thumb
 108              		.thumb_func
 109              		.type	USBFS_CyBtldrCommWrite, %function
 110              	USBFS_CyBtldrCommWrite:
 111              	.LFB3:
  86:.\Generated_Source\PSoC5/USBFS_boot.c **** }
  87:.\Generated_Source\PSoC5/USBFS_boot.c **** 
  88:.\Generated_Source\PSoC5/USBFS_boot.c **** 
  89:.\Generated_Source\PSoC5/USBFS_boot.c **** /*******************************************************************************
  90:.\Generated_Source\PSoC5/USBFS_boot.c **** * Function Name: USBFS_CyBtldrCommWrite.
  91:.\Generated_Source\PSoC5/USBFS_boot.c **** ****************************************************************************//**
  92:.\Generated_Source\PSoC5/USBFS_boot.c **** *
  93:.\Generated_Source\PSoC5/USBFS_boot.c **** *  This function allows the caller to write data to the bootloader host. It 
  94:.\Generated_Source\PSoC5/USBFS_boot.c **** *  handles polling to allow a block of data to be completely sent to the host 
  95:.\Generated_Source\PSoC5/USBFS_boot.c **** *  device.
  96:.\Generated_Source\PSoC5/USBFS_boot.c **** *
  97:.\Generated_Source\PSoC5/USBFS_boot.c **** *  \param pData    A pointer to the block of data to send to the device
  98:.\Generated_Source\PSoC5/USBFS_boot.c **** *  \param size     The number of bytes to write.
  99:.\Generated_Source\PSoC5/USBFS_boot.c **** *  \param count    Pointer to an unsigned short variable to write the number of
 100:.\Generated_Source\PSoC5/USBFS_boot.c **** *                  bytes actually written.
 101:.\Generated_Source\PSoC5/USBFS_boot.c **** *  \param timeOut  Number of units to wait before returning because of a timeout.
 102:.\Generated_Source\PSoC5/USBFS_boot.c **** *
 103:.\Generated_Source\PSoC5/USBFS_boot.c **** * \return
 104:.\Generated_Source\PSoC5/USBFS_boot.c **** *  Returns CYRET_SUCCESS if no problem was encountered or returns the value that 
 105:.\Generated_Source\PSoC5/USBFS_boot.c **** *  best describes the problem. For more information, see the “Return Codes” 
 106:.\Generated_Source\PSoC5/USBFS_boot.c **** *  section of the System Reference Guide.
 107:.\Generated_Source\PSoC5/USBFS_boot.c **** *
 108:.\Generated_Source\PSoC5/USBFS_boot.c **** * \reentrant
 109:.\Generated_Source\PSoC5/USBFS_boot.c **** *  No
 110:.\Generated_Source\PSoC5/USBFS_boot.c **** *
 111:.\Generated_Source\PSoC5/USBFS_boot.c **** *******************************************************************************/
 112:.\Generated_Source\PSoC5/USBFS_boot.c **** cystatus USBFS_CyBtldrCommWrite(const uint8 pData[], uint16 size, uint16 *count, uint8 timeOut) CYS
 113:.\Generated_Source\PSoC5/USBFS_boot.c ****                                                             
 114:.\Generated_Source\PSoC5/USBFS_boot.c **** {
 112              		.loc 1 114 0
 113              		.cfi_startproc
 114              		@ args = 0, pretend = 0, frame = 0
ARM GAS  C:\Users\Patrick\AppData\Local\Temp\ccAEtMzX.s 			page 5


 115              		@ frame_needed = 0, uses_anonymous_args = 0
 116              	.LVL3:
 117 0000 F8B5     		push	{r3, r4, r5, r6, r7, lr}
 118              		.cfi_def_cfa_offset 24
 119              		.cfi_offset 3, -24
 120              		.cfi_offset 4, -20
 121              		.cfi_offset 5, -16
 122              		.cfi_offset 6, -12
 123              		.cfi_offset 7, -8
 124              		.cfi_offset 14, -4
 125 0002 0546     		mov	r5, r0
 126 0004 0F46     		mov	r7, r1
 127 0006 1646     		mov	r6, r2
 115:.\Generated_Source\PSoC5/USBFS_boot.c ****     cystatus retCode;
 116:.\Generated_Source\PSoC5/USBFS_boot.c ****     uint16 timeoutMs;
 117:.\Generated_Source\PSoC5/USBFS_boot.c **** 
 118:.\Generated_Source\PSoC5/USBFS_boot.c ****     /* Convert 10mS checks into 1mS checks. */
 119:.\Generated_Source\PSoC5/USBFS_boot.c ****     timeoutMs = ((uint16) 10u * timeOut);
 128              		.loc 1 119 0
 129 0008 03EB8303 		add	r3, r3, r3, lsl #2
 130              	.LVL4:
 131 000c 5C00     		lsls	r4, r3, #1
 132 000e A4B2     		uxth	r4, r4
 133              	.LVL5:
 120:.\Generated_Source\PSoC5/USBFS_boot.c **** 
 121:.\Generated_Source\PSoC5/USBFS_boot.c ****     /* Load data into IN endpoint to be read by host. */
 122:.\Generated_Source\PSoC5/USBFS_boot.c ****     USBFS_LoadInEP(USBFS_BTLDR_IN_EP, pData, USBFS_BTLDR_SIZEOF_READ_BUFFER);
 134              		.loc 1 122 0
 135 0010 0220     		movs	r0, #2
 136              	.LVL6:
 137 0012 2946     		mov	r1, r5
 138              	.LVL7:
 139 0014 4022     		movs	r2, #64
 140              	.LVL8:
 141 0016 FFF7FEFF 		bl	USBFS_LoadInEP
 142              	.LVL9:
 123:.\Generated_Source\PSoC5/USBFS_boot.c **** 
 124:.\Generated_Source\PSoC5/USBFS_boot.c ****     /* Wait unitl host reads data from IN endpoint. */
 125:.\Generated_Source\PSoC5/USBFS_boot.c ****     while ((USBFS_GetEPState(USBFS_BTLDR_IN_EP) == USBFS_IN_BUFFER_FULL) &&
 143              		.loc 1 125 0
 144 001a 04E0     		b	.L10
 145              	.L12:
 126:.\Generated_Source\PSoC5/USBFS_boot.c ****            (0u != timeoutMs))
 127:.\Generated_Source\PSoC5/USBFS_boot.c ****     {
 128:.\Generated_Source\PSoC5/USBFS_boot.c ****         CyDelay(USBFS_BTLDR_WAIT_1_MS);
 146              		.loc 1 128 0
 147 001c 0120     		movs	r0, #1
 148 001e FFF7FEFF 		bl	CyDelay
 149              	.LVL10:
 129:.\Generated_Source\PSoC5/USBFS_boot.c ****         timeoutMs--;
 150              		.loc 1 129 0
 151 0022 013C     		subs	r4, r4, #1
 152              	.LVL11:
 153 0024 A4B2     		uxth	r4, r4
 154              	.LVL12:
 155              	.L10:
 125:.\Generated_Source\PSoC5/USBFS_boot.c ****            (0u != timeoutMs))
ARM GAS  C:\Users\Patrick\AppData\Local\Temp\ccAEtMzX.s 			page 6


 156              		.loc 1 125 0
 157 0026 0220     		movs	r0, #2
 158 0028 FFF7FEFF 		bl	USBFS_GetEPState
 159              	.LVL13:
 160 002c 08B9     		cbnz	r0, .L11
 125:.\Generated_Source\PSoC5/USBFS_boot.c ****            (0u != timeoutMs))
 161              		.loc 1 125 0 is_stmt 0 discriminator 1
 162 002e 002C     		cmp	r4, #0
 163 0030 F4D1     		bne	.L12
 164              	.L11:
 130:.\Generated_Source\PSoC5/USBFS_boot.c ****     }
 131:.\Generated_Source\PSoC5/USBFS_boot.c **** 
 132:.\Generated_Source\PSoC5/USBFS_boot.c ****     if (USBFS_GetEPState(USBFS_BTLDR_IN_EP) == USBFS_IN_BUFFER_FULL)
 165              		.loc 1 132 0 is_stmt 1
 166 0032 0220     		movs	r0, #2
 167 0034 FFF7FEFF 		bl	USBFS_GetEPState
 168              	.LVL14:
 169 0038 10B1     		cbz	r0, .L14
 133:.\Generated_Source\PSoC5/USBFS_boot.c ****     {
 134:.\Generated_Source\PSoC5/USBFS_boot.c ****         retCode = CYRET_TIMEOUT;
 135:.\Generated_Source\PSoC5/USBFS_boot.c ****     }
 136:.\Generated_Source\PSoC5/USBFS_boot.c ****     else
 137:.\Generated_Source\PSoC5/USBFS_boot.c ****     {
 138:.\Generated_Source\PSoC5/USBFS_boot.c ****         *count = size;
 170              		.loc 1 138 0
 171 003a 3780     		strh	r7, [r6]	@ movhi
 172              	.LVL15:
 139:.\Generated_Source\PSoC5/USBFS_boot.c ****         retCode = CYRET_SUCCESS;
 173              		.loc 1 139 0
 174 003c 0020     		movs	r0, #0
 175 003e F8BD     		pop	{r3, r4, r5, r6, r7, pc}
 176              	.LVL16:
 177              	.L14:
 134:.\Generated_Source\PSoC5/USBFS_boot.c ****     }
 178              		.loc 1 134 0
 179 0040 1020     		movs	r0, #16
 180              	.LVL17:
 140:.\Generated_Source\PSoC5/USBFS_boot.c ****     }
 141:.\Generated_Source\PSoC5/USBFS_boot.c **** 
 142:.\Generated_Source\PSoC5/USBFS_boot.c ****     return (retCode);
 143:.\Generated_Source\PSoC5/USBFS_boot.c **** }
 181              		.loc 1 143 0
 182 0042 F8BD     		pop	{r3, r4, r5, r6, r7, pc}
 183              		.cfi_endproc
 184              	.LFE3:
 185              		.size	USBFS_CyBtldrCommWrite, .-USBFS_CyBtldrCommWrite
 186              		.section	.text.USBFS_CyBtldrCommRead,"ax",%progbits
 187              		.align	2
 188              		.global	USBFS_CyBtldrCommRead
 189              		.thumb
 190              		.thumb_func
 191              		.type	USBFS_CyBtldrCommRead, %function
 192              	USBFS_CyBtldrCommRead:
 193              	.LFB4:
 144:.\Generated_Source\PSoC5/USBFS_boot.c **** 
 145:.\Generated_Source\PSoC5/USBFS_boot.c **** 
 146:.\Generated_Source\PSoC5/USBFS_boot.c **** /*******************************************************************************
ARM GAS  C:\Users\Patrick\AppData\Local\Temp\ccAEtMzX.s 			page 7


 147:.\Generated_Source\PSoC5/USBFS_boot.c **** * Function Name: USBFS_CyBtldrCommRead.
 148:.\Generated_Source\PSoC5/USBFS_boot.c **** ****************************************************************************//**
 149:.\Generated_Source\PSoC5/USBFS_boot.c **** *
 150:.\Generated_Source\PSoC5/USBFS_boot.c **** *  This function allows the caller to read data from the bootloader host. It 
 151:.\Generated_Source\PSoC5/USBFS_boot.c **** *  handles polling to allow a block of data to be completely received from the 
 152:.\Generated_Source\PSoC5/USBFS_boot.c **** *  host device.
 153:.\Generated_Source\PSoC5/USBFS_boot.c **** *
 154:.\Generated_Source\PSoC5/USBFS_boot.c **** *  \param pData    A pointer to the area to store the block of data received
 155:.\Generated_Source\PSoC5/USBFS_boot.c **** *                  from the device.
 156:.\Generated_Source\PSoC5/USBFS_boot.c **** *  \param size     The number of bytes to read.
 157:.\Generated_Source\PSoC5/USBFS_boot.c **** *  \param count    Pointer to an unsigned short variable to write the number
 158:.\Generated_Source\PSoC5/USBFS_boot.c **** *                  of bytes actually read.
 159:.\Generated_Source\PSoC5/USBFS_boot.c **** *  \param timeOut  Number of units to wait before returning because of a timeOut.
 160:.\Generated_Source\PSoC5/USBFS_boot.c **** *                  Timeout is measured in 10s of ms.
 161:.\Generated_Source\PSoC5/USBFS_boot.c **** *
 162:.\Generated_Source\PSoC5/USBFS_boot.c **** * \return
 163:.\Generated_Source\PSoC5/USBFS_boot.c **** *  Returns CYRET_SUCCESS if no problem was encountered or returns the value that 
 164:.\Generated_Source\PSoC5/USBFS_boot.c **** *  best describes the problem. For more information, see the “Return Codes” 
 165:.\Generated_Source\PSoC5/USBFS_boot.c **** *  section of the System Reference Guide.
 166:.\Generated_Source\PSoC5/USBFS_boot.c **** *
 167:.\Generated_Source\PSoC5/USBFS_boot.c **** * \reentrant
 168:.\Generated_Source\PSoC5/USBFS_boot.c **** *  No
 169:.\Generated_Source\PSoC5/USBFS_boot.c **** *
 170:.\Generated_Source\PSoC5/USBFS_boot.c **** *******************************************************************************/
 171:.\Generated_Source\PSoC5/USBFS_boot.c **** cystatus USBFS_CyBtldrCommRead(uint8 pData[], uint16 size, uint16 *count, uint8 timeOut) CYSMALL
 172:.\Generated_Source\PSoC5/USBFS_boot.c ****                                                             
 173:.\Generated_Source\PSoC5/USBFS_boot.c **** {
 194              		.loc 1 173 0
 195              		.cfi_startproc
 196              		@ args = 0, pretend = 0, frame = 0
 197              		@ frame_needed = 0, uses_anonymous_args = 0
 198              	.LVL18:
 199 0000 2DE9F041 		push	{r4, r5, r6, r7, r8, lr}
 200              		.cfi_def_cfa_offset 24
 201              		.cfi_offset 4, -24
 202              		.cfi_offset 5, -20
 203              		.cfi_offset 6, -16
 204              		.cfi_offset 7, -12
 205              		.cfi_offset 8, -8
 206              		.cfi_offset 14, -4
 207 0004 8046     		mov	r8, r0
 208 0006 0E46     		mov	r6, r1
 209 0008 1746     		mov	r7, r2
 174:.\Generated_Source\PSoC5/USBFS_boot.c ****     cystatus retCode;
 175:.\Generated_Source\PSoC5/USBFS_boot.c ****     uint16 timeoutMs;
 176:.\Generated_Source\PSoC5/USBFS_boot.c **** 
 177:.\Generated_Source\PSoC5/USBFS_boot.c ****     /* Convert 10mS checks into 1mS checks. */
 178:.\Generated_Source\PSoC5/USBFS_boot.c ****     timeoutMs = ((uint16) 10u * timeOut);
 210              		.loc 1 178 0
 211 000a 03EB8303 		add	r3, r3, r3, lsl #2
 212              	.LVL19:
 213 000e 5C00     		lsls	r4, r3, #1
 214 0010 A4B2     		uxth	r4, r4
 215              	.LVL20:
 179:.\Generated_Source\PSoC5/USBFS_boot.c **** 
 180:.\Generated_Source\PSoC5/USBFS_boot.c ****     if (size > USBFS_BTLDR_SIZEOF_WRITE_BUFFER)
 216              		.loc 1 180 0
ARM GAS  C:\Users\Patrick\AppData\Local\Temp\ccAEtMzX.s 			page 8


 217 0012 4029     		cmp	r1, #64
 218 0014 00D9     		bls	.L17
 181:.\Generated_Source\PSoC5/USBFS_boot.c ****     {
 182:.\Generated_Source\PSoC5/USBFS_boot.c ****         size = USBFS_BTLDR_SIZEOF_WRITE_BUFFER;
 219              		.loc 1 182 0
 220 0016 4026     		movs	r6, #64
 221              	.L17:
 222              	.LVL21:
 183:.\Generated_Source\PSoC5/USBFS_boot.c ****     }
 184:.\Generated_Source\PSoC5/USBFS_boot.c **** 
 185:.\Generated_Source\PSoC5/USBFS_boot.c ****     /* Wait for enumeration first time. */
 186:.\Generated_Source\PSoC5/USBFS_boot.c ****     if (0u != USBFS_started)
 223              		.loc 1 186 0
 224 0018 204B     		ldr	r3, .L32
 225 001a 1B78     		ldrb	r3, [r3]	@ zero_extendqisi2
 226 001c 33B9     		cbnz	r3, .L29
 227 001e 16E0     		b	.L30
 228              	.LVL22:
 229              	.L21:
 187:.\Generated_Source\PSoC5/USBFS_boot.c ****     {
 188:.\Generated_Source\PSoC5/USBFS_boot.c ****         /* Wait for device enumeration. */
 189:.\Generated_Source\PSoC5/USBFS_boot.c ****         while ((0u == USBFS_GetConfiguration()) && (0u != timeoutMs))
 190:.\Generated_Source\PSoC5/USBFS_boot.c ****         {
 191:.\Generated_Source\PSoC5/USBFS_boot.c ****             CyDelay(USBFS_BTLDR_WAIT_1_MS);
 230              		.loc 1 191 0
 231 0020 0120     		movs	r0, #1
 232 0022 FFF7FEFF 		bl	CyDelay
 233              	.LVL23:
 192:.\Generated_Source\PSoC5/USBFS_boot.c ****             timeoutMs--;
 234              		.loc 1 192 0
 235 0026 013D     		subs	r5, r5, #1
 236              	.LVL24:
 237 0028 ADB2     		uxth	r5, r5
 238              	.LVL25:
 239 002a 00E0     		b	.L18
 240              	.LVL26:
 241              	.L29:
 242 002c 2546     		mov	r5, r4
 243              	.LVL27:
 244              	.L18:
 189:.\Generated_Source\PSoC5/USBFS_boot.c ****         {
 245              		.loc 1 189 0
 246 002e FFF7FEFF 		bl	USBFS_GetConfiguration
 247              	.LVL28:
 248 0032 08B9     		cbnz	r0, .L20
 189:.\Generated_Source\PSoC5/USBFS_boot.c ****         {
 249              		.loc 1 189 0 is_stmt 0 discriminator 1
 250 0034 002D     		cmp	r5, #0
 251 0036 F3D1     		bne	.L21
 252              	.L20:
 193:.\Generated_Source\PSoC5/USBFS_boot.c ****         }
 194:.\Generated_Source\PSoC5/USBFS_boot.c **** 
 195:.\Generated_Source\PSoC5/USBFS_boot.c ****         /* Enable OUT after enumeration. */
 196:.\Generated_Source\PSoC5/USBFS_boot.c ****         if (0u != USBFS_GetConfiguration())
 253              		.loc 1 196 0 is_stmt 1
 254 0038 FFF7FEFF 		bl	USBFS_GetConfiguration
 255              	.LVL29:
ARM GAS  C:\Users\Patrick\AppData\Local\Temp\ccAEtMzX.s 			page 9


 256 003c A8B1     		cbz	r0, .L23
 197:.\Generated_Source\PSoC5/USBFS_boot.c ****         {
 198:.\Generated_Source\PSoC5/USBFS_boot.c ****             (void) USBFS_IsConfigurationChanged();  /* Clear configuration changes state status. */
 257              		.loc 1 198 0
 258 003e FFF7FEFF 		bl	USBFS_IsConfigurationChanged
 259              	.LVL30:
 199:.\Generated_Source\PSoC5/USBFS_boot.c ****             USBFS_CyBtldrCommReset();
 260              		.loc 1 199 0
 261 0042 FFF7FEFF 		bl	USBFS_CyBtldrCommReset
 262              	.LVL31:
 200:.\Generated_Source\PSoC5/USBFS_boot.c ****             
 201:.\Generated_Source\PSoC5/USBFS_boot.c ****             USBFS_started = 0u;
 263              		.loc 1 201 0
 264 0046 0022     		movs	r2, #0
 265 0048 144B     		ldr	r3, .L32
 266 004a 1A70     		strb	r2, [r3]
 267 004c 0DE0     		b	.L23
 268              	.LVL32:
 269              	.L30:
 202:.\Generated_Source\PSoC5/USBFS_boot.c ****         }
 203:.\Generated_Source\PSoC5/USBFS_boot.c ****     }
 204:.\Generated_Source\PSoC5/USBFS_boot.c ****     else /* Check for configuration changes, has been done by Host. */
 205:.\Generated_Source\PSoC5/USBFS_boot.c ****     {
 206:.\Generated_Source\PSoC5/USBFS_boot.c ****         if (0u != USBFS_IsConfigurationChanged()) /* Host could send double SET_INTERFACE request o
 270              		.loc 1 206 0
 271 004e FFF7FEFF 		bl	USBFS_IsConfigurationChanged
 272              	.LVL33:
 273 0052 50B1     		cbz	r0, .L23
 207:.\Generated_Source\PSoC5/USBFS_boot.c ****         {
 208:.\Generated_Source\PSoC5/USBFS_boot.c ****             if (0u != USBFS_GetConfiguration())   /* Init OUT endpoints when device reconfigured. *
 274              		.loc 1 208 0
 275 0054 FFF7FEFF 		bl	USBFS_GetConfiguration
 276              	.LVL34:
 277 0058 38B1     		cbz	r0, .L23
 209:.\Generated_Source\PSoC5/USBFS_boot.c ****             {
 210:.\Generated_Source\PSoC5/USBFS_boot.c ****                 USBFS_CyBtldrCommReset();
 278              		.loc 1 210 0
 279 005a FFF7FEFF 		bl	USBFS_CyBtldrCommReset
 280              	.LVL35:
 211:.\Generated_Source\PSoC5/USBFS_boot.c ****             }
 212:.\Generated_Source\PSoC5/USBFS_boot.c ****         }
 213:.\Generated_Source\PSoC5/USBFS_boot.c ****     }
 214:.\Generated_Source\PSoC5/USBFS_boot.c **** 
 215:.\Generated_Source\PSoC5/USBFS_boot.c ****     timeoutMs = ((uint16) 10u * timeOut); /* Re-arm timeout */
 216:.\Generated_Source\PSoC5/USBFS_boot.c **** 
 217:.\Generated_Source\PSoC5/USBFS_boot.c ****     /* Wait unitl host writes data into OUT endpoint. */
 218:.\Generated_Source\PSoC5/USBFS_boot.c ****     while ((USBFS_GetEPState(USBFS_BTLDR_OUT_EP) != USBFS_OUT_BUFFER_FULL) && \
 281              		.loc 1 218 0
 282 005e 04E0     		b	.L23
 283              	.L25:
 219:.\Generated_Source\PSoC5/USBFS_boot.c ****            (0u != timeoutMs))
 220:.\Generated_Source\PSoC5/USBFS_boot.c ****     {
 221:.\Generated_Source\PSoC5/USBFS_boot.c ****         CyDelay(USBFS_BTLDR_WAIT_1_MS);
 284              		.loc 1 221 0
 285 0060 0120     		movs	r0, #1
 286 0062 FFF7FEFF 		bl	CyDelay
 287              	.LVL36:
ARM GAS  C:\Users\Patrick\AppData\Local\Temp\ccAEtMzX.s 			page 10


 222:.\Generated_Source\PSoC5/USBFS_boot.c ****         timeoutMs--;
 288              		.loc 1 222 0
 289 0066 013C     		subs	r4, r4, #1
 290              	.LVL37:
 291 0068 A4B2     		uxth	r4, r4
 292              	.LVL38:
 293              	.L23:
 218:.\Generated_Source\PSoC5/USBFS_boot.c ****            (0u != timeoutMs))
 294              		.loc 1 218 0
 295 006a 0120     		movs	r0, #1
 296 006c FFF7FEFF 		bl	USBFS_GetEPState
 297              	.LVL39:
 298 0070 0128     		cmp	r0, #1
 299 0072 01D0     		beq	.L24
 218:.\Generated_Source\PSoC5/USBFS_boot.c ****            (0u != timeoutMs))
 300              		.loc 1 218 0 is_stmt 0 discriminator 1
 301 0074 002C     		cmp	r4, #0
 302 0076 F3D1     		bne	.L25
 303              	.L24:
 223:.\Generated_Source\PSoC5/USBFS_boot.c ****     }
 224:.\Generated_Source\PSoC5/USBFS_boot.c **** 
 225:.\Generated_Source\PSoC5/USBFS_boot.c ****     /* Read data from OUT endpoint if host wrote data into it. */
 226:.\Generated_Source\PSoC5/USBFS_boot.c ****     if (USBFS_GetEPState(USBFS_BTLDR_OUT_EP) == USBFS_OUT_BUFFER_FULL)
 304              		.loc 1 226 0 is_stmt 1
 305 0078 0120     		movs	r0, #1
 306 007a FFF7FEFF 		bl	USBFS_GetEPState
 307              	.LVL40:
 308 007e 0128     		cmp	r0, #1
 309 0080 07D1     		bne	.L26
 227:.\Generated_Source\PSoC5/USBFS_boot.c ****     {
 228:.\Generated_Source\PSoC5/USBFS_boot.c ****         *count = USBFS_ReadOutEP(USBFS_BTLDR_OUT_EP, pData, size);
 310              		.loc 1 228 0
 311 0082 4146     		mov	r1, r8
 312 0084 3246     		mov	r2, r6
 313 0086 FFF7FEFF 		bl	USBFS_ReadOutEP
 314              	.LVL41:
 315 008a 3880     		strh	r0, [r7]	@ movhi
 316              	.LVL42:
 229:.\Generated_Source\PSoC5/USBFS_boot.c ****         retCode = CYRET_SUCCESS;
 317              		.loc 1 229 0
 318 008c 0020     		movs	r0, #0
 319 008e BDE8F081 		pop	{r4, r5, r6, r7, r8, pc}
 320              	.LVL43:
 321              	.L26:
 230:.\Generated_Source\PSoC5/USBFS_boot.c ****     }
 231:.\Generated_Source\PSoC5/USBFS_boot.c ****     else
 232:.\Generated_Source\PSoC5/USBFS_boot.c ****     {
 233:.\Generated_Source\PSoC5/USBFS_boot.c ****         *count = 0u;
 322              		.loc 1 233 0
 323 0092 0023     		movs	r3, #0
 324 0094 3B80     		strh	r3, [r7]	@ movhi
 325              	.LVL44:
 234:.\Generated_Source\PSoC5/USBFS_boot.c ****         retCode = CYRET_TIMEOUT;
 326              		.loc 1 234 0
 327 0096 1020     		movs	r0, #16
 328              	.LVL45:
 235:.\Generated_Source\PSoC5/USBFS_boot.c ****     }
ARM GAS  C:\Users\Patrick\AppData\Local\Temp\ccAEtMzX.s 			page 11


 236:.\Generated_Source\PSoC5/USBFS_boot.c **** 
 237:.\Generated_Source\PSoC5/USBFS_boot.c ****     return (retCode);
 238:.\Generated_Source\PSoC5/USBFS_boot.c **** }
 329              		.loc 1 238 0
 330 0098 BDE8F081 		pop	{r4, r5, r6, r7, r8, pc}
 331              	.LVL46:
 332              	.L33:
 333              		.align	2
 334              	.L32:
 335 009c 00000000 		.word	.LANCHOR0
 336              		.cfi_endproc
 337              	.LFE4:
 338              		.size	USBFS_CyBtldrCommRead, .-USBFS_CyBtldrCommRead
 339              		.bss
 340              		.set	.LANCHOR0,. + 0
 341              		.type	USBFS_started, %object
 342              		.size	USBFS_started, 1
 343              	USBFS_started:
 344 0000 00       		.space	1
 345              		.text
 346              	.Letext0:
 347              		.file 2 ".\\Generated_Source\\PSoC5\\cytypes.h"
 348              		.file 3 ".\\Generated_Source\\PSoC5\\USBFS.h"
 349              		.file 4 ".\\Generated_Source\\PSoC5\\CyLib.h"