ARM GAS  C:\Users\Patrick\AppData\Local\Temp\ccvH7eQO.s 			page 1


   1              		.syntax unified
   2              		.cpu cortex-m3
   3              		.fpu softvfp
   4              		.eabi_attribute 20, 1
   5              		.eabi_attribute 21, 1
   6              		.eabi_attribute 23, 3
   7              		.eabi_attribute 24, 1
   8              		.eabi_attribute 25, 1
   9              		.eabi_attribute 26, 1
  10              		.eabi_attribute 30, 1
  11              		.eabi_attribute 34, 1
  12              		.eabi_attribute 18, 4
  13              		.thumb
  14              		.file	"USBFS_std.c"
  15              		.text
  16              	.Ltext0:
  17              		.cfi_sections	.debug_frame
  18              		.section	.text.USBFS_ConfigReg,"ax",%progbits
  19              		.align	2
  20              		.global	USBFS_ConfigReg
  21              		.thumb
  22              		.thumb_func
  23              		.type	USBFS_ConfigReg, %function
  24              	USBFS_ConfigReg:
  25              	.LFB1:
  26              		.file 1 ".\\Generated_Source\\PSoC5\\USBFS_std.c"
   1:.\Generated_Source\PSoC5/USBFS_std.c **** /***************************************************************************//**
   2:.\Generated_Source\PSoC5/USBFS_std.c **** * \file USBFS_std.c
   3:.\Generated_Source\PSoC5/USBFS_std.c **** * \version 3.0
   4:.\Generated_Source\PSoC5/USBFS_std.c **** *
   5:.\Generated_Source\PSoC5/USBFS_std.c **** * \brief
   6:.\Generated_Source\PSoC5/USBFS_std.c **** *  This file contains the USB Standard request handler.
   7:.\Generated_Source\PSoC5/USBFS_std.c **** *
   8:.\Generated_Source\PSoC5/USBFS_std.c **** ********************************************************************************
   9:.\Generated_Source\PSoC5/USBFS_std.c **** * \copyright
  10:.\Generated_Source\PSoC5/USBFS_std.c **** * Copyright 2008-2015, Cypress Semiconductor Corporation.  All rights reserved.
  11:.\Generated_Source\PSoC5/USBFS_std.c **** * You may use this file only in accordance with the license, terms, conditions,
  12:.\Generated_Source\PSoC5/USBFS_std.c **** * disclaimers, and limitations in the end user license agreement accompanying
  13:.\Generated_Source\PSoC5/USBFS_std.c **** * the software package with which this file was provided.
  14:.\Generated_Source\PSoC5/USBFS_std.c **** *******************************************************************************/
  15:.\Generated_Source\PSoC5/USBFS_std.c **** 
  16:.\Generated_Source\PSoC5/USBFS_std.c **** #include "USBFS_pvt.h"
  17:.\Generated_Source\PSoC5/USBFS_std.c **** 
  18:.\Generated_Source\PSoC5/USBFS_std.c **** /***************************************
  19:.\Generated_Source\PSoC5/USBFS_std.c **** *   Static data allocation
  20:.\Generated_Source\PSoC5/USBFS_std.c **** ***************************************/
  21:.\Generated_Source\PSoC5/USBFS_std.c **** 
  22:.\Generated_Source\PSoC5/USBFS_std.c **** #if defined(USBFS_ENABLE_FWSN_STRING)
  23:.\Generated_Source\PSoC5/USBFS_std.c ****     static volatile uint8* USBFS_fwSerialNumberStringDescriptor;
  24:.\Generated_Source\PSoC5/USBFS_std.c ****     static volatile uint8  USBFS_snStringConfirm = USBFS_FALSE;
  25:.\Generated_Source\PSoC5/USBFS_std.c **** #endif  /* (USBFS_ENABLE_FWSN_STRING) */
  26:.\Generated_Source\PSoC5/USBFS_std.c **** 
  27:.\Generated_Source\PSoC5/USBFS_std.c **** #if defined(USBFS_ENABLE_FWSN_STRING)
  28:.\Generated_Source\PSoC5/USBFS_std.c ****     /***************************************************************************
  29:.\Generated_Source\PSoC5/USBFS_std.c ****     * Function Name: USBFS_SerialNumString
  30:.\Generated_Source\PSoC5/USBFS_std.c ****     ************************************************************************//**
  31:.\Generated_Source\PSoC5/USBFS_std.c ****     *
ARM GAS  C:\Users\Patrick\AppData\Local\Temp\ccvH7eQO.s 			page 2


  32:.\Generated_Source\PSoC5/USBFS_std.c ****     *  This function is available only when the User Call Back option in the 
  33:.\Generated_Source\PSoC5/USBFS_std.c ****     *  Serial Number String descriptor properties is selected. Application 
  34:.\Generated_Source\PSoC5/USBFS_std.c ****     *  firmware can provide the source of the USB device serial number string 
  35:.\Generated_Source\PSoC5/USBFS_std.c ****     *  descriptor during run time. The default string is used if the application 
  36:.\Generated_Source\PSoC5/USBFS_std.c ****     *  firmware does not use this function or sets the wrong string descriptor.
  37:.\Generated_Source\PSoC5/USBFS_std.c ****     *
  38:.\Generated_Source\PSoC5/USBFS_std.c ****     *  \param snString:  Pointer to the user-defined string descriptor. The 
  39:.\Generated_Source\PSoC5/USBFS_std.c ****     *  string descriptor should meet the Universal Serial Bus Specification 
  40:.\Generated_Source\PSoC5/USBFS_std.c ****     *  revision 2.0 chapter 9.6.7
  41:.\Generated_Source\PSoC5/USBFS_std.c ****     *  Offset|Size|Value|Description
  42:.\Generated_Source\PSoC5/USBFS_std.c ****     *  ------|----|------|---------------------------------
  43:.\Generated_Source\PSoC5/USBFS_std.c ****     *  0     |1   |N     |Size of this descriptor in bytes
  44:.\Generated_Source\PSoC5/USBFS_std.c ****     *  1     |1   |0x03  |STRING Descriptor Type
  45:.\Generated_Source\PSoC5/USBFS_std.c ****     *  2     |N-2 |Number|UNICODE encoded string
  46:.\Generated_Source\PSoC5/USBFS_std.c ****     *  
  47:.\Generated_Source\PSoC5/USBFS_std.c ****     * *For example:* uint8 snString[16]={0x0E,0x03,'F',0,'W',0,'S',0,'N',0,'0',0,'1',0};
  48:.\Generated_Source\PSoC5/USBFS_std.c ****     *
  49:.\Generated_Source\PSoC5/USBFS_std.c ****     * \reentrant
  50:.\Generated_Source\PSoC5/USBFS_std.c ****     *  No.
  51:.\Generated_Source\PSoC5/USBFS_std.c ****     *
  52:.\Generated_Source\PSoC5/USBFS_std.c ****     ***************************************************************************/
  53:.\Generated_Source\PSoC5/USBFS_std.c ****     void  USBFS_SerialNumString(uint8 snString[]) 
  54:.\Generated_Source\PSoC5/USBFS_std.c ****     {
  55:.\Generated_Source\PSoC5/USBFS_std.c ****         USBFS_snStringConfirm = USBFS_FALSE;
  56:.\Generated_Source\PSoC5/USBFS_std.c ****         
  57:.\Generated_Source\PSoC5/USBFS_std.c ****         if (snString != NULL)
  58:.\Generated_Source\PSoC5/USBFS_std.c ****         {
  59:.\Generated_Source\PSoC5/USBFS_std.c ****             /* Check descriptor validation */
  60:.\Generated_Source\PSoC5/USBFS_std.c ****             if ((snString[0u] > 1u) && (snString[1u] == USBFS_DESCR_STRING))
  61:.\Generated_Source\PSoC5/USBFS_std.c ****             {
  62:.\Generated_Source\PSoC5/USBFS_std.c ****                 USBFS_fwSerialNumberStringDescriptor = snString;
  63:.\Generated_Source\PSoC5/USBFS_std.c ****                 USBFS_snStringConfirm = USBFS_TRUE;
  64:.\Generated_Source\PSoC5/USBFS_std.c ****             }
  65:.\Generated_Source\PSoC5/USBFS_std.c ****         }
  66:.\Generated_Source\PSoC5/USBFS_std.c ****     }
  67:.\Generated_Source\PSoC5/USBFS_std.c **** #endif  /* USBFS_ENABLE_FWSN_STRING */
  68:.\Generated_Source\PSoC5/USBFS_std.c **** 
  69:.\Generated_Source\PSoC5/USBFS_std.c **** 
  70:.\Generated_Source\PSoC5/USBFS_std.c **** /*******************************************************************************
  71:.\Generated_Source\PSoC5/USBFS_std.c **** * Function Name: USBFS_HandleStandardRqst
  72:.\Generated_Source\PSoC5/USBFS_std.c **** ****************************************************************************//**
  73:.\Generated_Source\PSoC5/USBFS_std.c **** *
  74:.\Generated_Source\PSoC5/USBFS_std.c **** *  This Routine dispatches standard requests
  75:.\Generated_Source\PSoC5/USBFS_std.c **** *
  76:.\Generated_Source\PSoC5/USBFS_std.c **** *
  77:.\Generated_Source\PSoC5/USBFS_std.c **** * \return
  78:.\Generated_Source\PSoC5/USBFS_std.c **** *  TRUE if request handled.
  79:.\Generated_Source\PSoC5/USBFS_std.c **** *
  80:.\Generated_Source\PSoC5/USBFS_std.c **** * \reentrant
  81:.\Generated_Source\PSoC5/USBFS_std.c **** *  No.
  82:.\Generated_Source\PSoC5/USBFS_std.c **** *
  83:.\Generated_Source\PSoC5/USBFS_std.c **** *******************************************************************************/
  84:.\Generated_Source\PSoC5/USBFS_std.c **** uint8 USBFS_HandleStandardRqst(void) 
  85:.\Generated_Source\PSoC5/USBFS_std.c **** {
  86:.\Generated_Source\PSoC5/USBFS_std.c ****     uint8 requestHandled = USBFS_FALSE;
  87:.\Generated_Source\PSoC5/USBFS_std.c ****     uint8 interfaceNumber;
  88:.\Generated_Source\PSoC5/USBFS_std.c ****     uint8 configurationN;
ARM GAS  C:\Users\Patrick\AppData\Local\Temp\ccvH7eQO.s 			page 3


  89:.\Generated_Source\PSoC5/USBFS_std.c ****     uint8 bmRequestType = USBFS_bmRequestTypeReg;
  90:.\Generated_Source\PSoC5/USBFS_std.c **** 
  91:.\Generated_Source\PSoC5/USBFS_std.c **** #if defined(USBFS_ENABLE_STRINGS)
  92:.\Generated_Source\PSoC5/USBFS_std.c ****     volatile uint8 *pStr = 0u;
  93:.\Generated_Source\PSoC5/USBFS_std.c ****     #if defined(USBFS_ENABLE_DESCRIPTOR_STRINGS)
  94:.\Generated_Source\PSoC5/USBFS_std.c ****         uint8 nStr;
  95:.\Generated_Source\PSoC5/USBFS_std.c ****         uint8 descrLength;
  96:.\Generated_Source\PSoC5/USBFS_std.c ****     #endif /* (USBFS_ENABLE_DESCRIPTOR_STRINGS) */
  97:.\Generated_Source\PSoC5/USBFS_std.c **** #endif /* (USBFS_ENABLE_STRINGS) */
  98:.\Generated_Source\PSoC5/USBFS_std.c ****     
  99:.\Generated_Source\PSoC5/USBFS_std.c ****     static volatile uint8 USBFS_tBuffer[USBFS_STATUS_LENGTH_MAX];
 100:.\Generated_Source\PSoC5/USBFS_std.c ****     const T_USBFS_LUT CYCODE *pTmp;
 101:.\Generated_Source\PSoC5/USBFS_std.c **** 
 102:.\Generated_Source\PSoC5/USBFS_std.c ****     USBFS_currentTD.count = 0u;
 103:.\Generated_Source\PSoC5/USBFS_std.c **** 
 104:.\Generated_Source\PSoC5/USBFS_std.c ****     if (USBFS_RQST_DIR_D2H == (bmRequestType & USBFS_RQST_DIR_MASK))
 105:.\Generated_Source\PSoC5/USBFS_std.c ****     {
 106:.\Generated_Source\PSoC5/USBFS_std.c ****         /* Control Read */
 107:.\Generated_Source\PSoC5/USBFS_std.c ****         switch (USBFS_bRequestReg)
 108:.\Generated_Source\PSoC5/USBFS_std.c ****         {
 109:.\Generated_Source\PSoC5/USBFS_std.c ****             case USBFS_GET_DESCRIPTOR:
 110:.\Generated_Source\PSoC5/USBFS_std.c ****                 if (USBFS_DESCR_DEVICE ==USBFS_wValueHiReg)
 111:.\Generated_Source\PSoC5/USBFS_std.c ****                 {
 112:.\Generated_Source\PSoC5/USBFS_std.c ****                     pTmp = USBFS_GetDeviceTablePtr();
 113:.\Generated_Source\PSoC5/USBFS_std.c ****                     USBFS_currentTD.pData = (volatile uint8 *)pTmp->p_list;
 114:.\Generated_Source\PSoC5/USBFS_std.c ****                     USBFS_currentTD.count = USBFS_DEVICE_DESCR_LENGTH;
 115:.\Generated_Source\PSoC5/USBFS_std.c ****                     
 116:.\Generated_Source\PSoC5/USBFS_std.c ****                     requestHandled  = USBFS_InitControlRead();
 117:.\Generated_Source\PSoC5/USBFS_std.c ****                 }
 118:.\Generated_Source\PSoC5/USBFS_std.c ****                 else if (USBFS_DESCR_CONFIG == USBFS_wValueHiReg)
 119:.\Generated_Source\PSoC5/USBFS_std.c ****                 {
 120:.\Generated_Source\PSoC5/USBFS_std.c ****                     pTmp = USBFS_GetConfigTablePtr((uint8) USBFS_wValueLoReg);
 121:.\Generated_Source\PSoC5/USBFS_std.c ****                     
 122:.\Generated_Source\PSoC5/USBFS_std.c ****                     /* Verify that requested descriptor exists */
 123:.\Generated_Source\PSoC5/USBFS_std.c ****                     if (pTmp != NULL)
 124:.\Generated_Source\PSoC5/USBFS_std.c ****                     {
 125:.\Generated_Source\PSoC5/USBFS_std.c ****                         USBFS_currentTD.pData = (volatile uint8 *)pTmp->p_list;
 126:.\Generated_Source\PSoC5/USBFS_std.c ****                         USBFS_currentTD.count = (uint16)((uint16)(USBFS_currentTD.pData)[USBFS_CONF
 127:.\Generated_Source\PSoC5/USBFS_std.c ****                                                                             (USBFS_currentTD.pData)
 128:.\Generated_Source\PSoC5/USBFS_std.c ****                         requestHandled  = USBFS_InitControlRead();
 129:.\Generated_Source\PSoC5/USBFS_std.c ****                     }
 130:.\Generated_Source\PSoC5/USBFS_std.c ****                 }
 131:.\Generated_Source\PSoC5/USBFS_std.c ****                 
 132:.\Generated_Source\PSoC5/USBFS_std.c ****             #if(USBFS_BOS_ENABLE)
 133:.\Generated_Source\PSoC5/USBFS_std.c ****                 else if (USBFS_DESCR_BOS == USBFS_wValueHiReg)
 134:.\Generated_Source\PSoC5/USBFS_std.c ****                 {
 135:.\Generated_Source\PSoC5/USBFS_std.c ****                     pTmp = USBFS_GetBOSPtr();
 136:.\Generated_Source\PSoC5/USBFS_std.c ****                     
 137:.\Generated_Source\PSoC5/USBFS_std.c ****                     /* Verify that requested descriptor exists */
 138:.\Generated_Source\PSoC5/USBFS_std.c ****                     if (pTmp != NULL)
 139:.\Generated_Source\PSoC5/USBFS_std.c ****                     {
 140:.\Generated_Source\PSoC5/USBFS_std.c ****                         USBFS_currentTD.pData = (volatile uint8 *)pTmp;
 141:.\Generated_Source\PSoC5/USBFS_std.c ****                         USBFS_currentTD.count = ((uint16)((uint16)(USBFS_currentTD.pData)[USBFS_BOS
 142:.\Generated_Source\PSoC5/USBFS_std.c ****                                                                              (USBFS_currentTD.pData
 143:.\Generated_Source\PSoC5/USBFS_std.c ****                         requestHandled  = USBFS_InitControlRead();
 144:.\Generated_Source\PSoC5/USBFS_std.c ****                     }
 145:.\Generated_Source\PSoC5/USBFS_std.c ****                 }
ARM GAS  C:\Users\Patrick\AppData\Local\Temp\ccvH7eQO.s 			page 4


 146:.\Generated_Source\PSoC5/USBFS_std.c ****             #endif /*(USBFS_BOS_ENABLE)*/
 147:.\Generated_Source\PSoC5/USBFS_std.c ****             
 148:.\Generated_Source\PSoC5/USBFS_std.c ****             #if defined(USBFS_ENABLE_STRINGS)
 149:.\Generated_Source\PSoC5/USBFS_std.c ****                 else if (USBFS_DESCR_STRING == USBFS_wValueHiReg)
 150:.\Generated_Source\PSoC5/USBFS_std.c ****                 {
 151:.\Generated_Source\PSoC5/USBFS_std.c ****                 /* Descriptor Strings */
 152:.\Generated_Source\PSoC5/USBFS_std.c ****                 #if defined(USBFS_ENABLE_DESCRIPTOR_STRINGS)
 153:.\Generated_Source\PSoC5/USBFS_std.c ****                     nStr = 0u;
 154:.\Generated_Source\PSoC5/USBFS_std.c ****                     pStr = (volatile uint8 *) &USBFS_STRING_DESCRIPTORS[0u];
 155:.\Generated_Source\PSoC5/USBFS_std.c ****                     
 156:.\Generated_Source\PSoC5/USBFS_std.c ****                     while ((USBFS_wValueLoReg > nStr) && (*pStr != 0u))
 157:.\Generated_Source\PSoC5/USBFS_std.c ****                     {
 158:.\Generated_Source\PSoC5/USBFS_std.c ****                         /* Read descriptor length from 1st byte */
 159:.\Generated_Source\PSoC5/USBFS_std.c ****                         descrLength = *pStr;
 160:.\Generated_Source\PSoC5/USBFS_std.c ****                         /* Move to next string descriptor */
 161:.\Generated_Source\PSoC5/USBFS_std.c ****                         pStr = &pStr[descrLength];
 162:.\Generated_Source\PSoC5/USBFS_std.c ****                         nStr++;
 163:.\Generated_Source\PSoC5/USBFS_std.c ****                     }
 164:.\Generated_Source\PSoC5/USBFS_std.c ****                 #endif /* (USBFS_ENABLE_DESCRIPTOR_STRINGS) */
 165:.\Generated_Source\PSoC5/USBFS_std.c ****                 
 166:.\Generated_Source\PSoC5/USBFS_std.c ****                 /* Microsoft OS String */
 167:.\Generated_Source\PSoC5/USBFS_std.c ****                 #if defined(USBFS_ENABLE_MSOS_STRING)
 168:.\Generated_Source\PSoC5/USBFS_std.c ****                     if (USBFS_STRING_MSOS == USBFS_wValueLoReg)
 169:.\Generated_Source\PSoC5/USBFS_std.c ****                     {
 170:.\Generated_Source\PSoC5/USBFS_std.c ****                         pStr = (volatile uint8 *)& USBFS_MSOS_DESCRIPTOR[0u];
 171:.\Generated_Source\PSoC5/USBFS_std.c ****                     }
 172:.\Generated_Source\PSoC5/USBFS_std.c ****                 #endif /* (USBFS_ENABLE_MSOS_STRING) */
 173:.\Generated_Source\PSoC5/USBFS_std.c ****                 
 174:.\Generated_Source\PSoC5/USBFS_std.c ****                 /* SN string */
 175:.\Generated_Source\PSoC5/USBFS_std.c ****                 #if defined(USBFS_ENABLE_SN_STRING)
 176:.\Generated_Source\PSoC5/USBFS_std.c ****                     if ((USBFS_wValueLoReg != 0u) && 
 177:.\Generated_Source\PSoC5/USBFS_std.c ****                         (USBFS_wValueLoReg == USBFS_DEVICE0_DESCR[USBFS_DEVICE_DESCR_SN_SHIFT]))
 178:.\Generated_Source\PSoC5/USBFS_std.c ****                     {
 179:.\Generated_Source\PSoC5/USBFS_std.c ****                     #if defined(USBFS_ENABLE_IDSN_STRING)
 180:.\Generated_Source\PSoC5/USBFS_std.c ****                         /* Read DIE ID and generate string descriptor in RAM */
 181:.\Generated_Source\PSoC5/USBFS_std.c ****                         USBFS_ReadDieID(USBFS_idSerialNumberStringDescriptor);
 182:.\Generated_Source\PSoC5/USBFS_std.c ****                         pStr = USBFS_idSerialNumberStringDescriptor;
 183:.\Generated_Source\PSoC5/USBFS_std.c ****                     #elif defined(USBFS_ENABLE_FWSN_STRING)
 184:.\Generated_Source\PSoC5/USBFS_std.c ****                         
 185:.\Generated_Source\PSoC5/USBFS_std.c ****                         if(USBFS_snStringConfirm != USBFS_FALSE)
 186:.\Generated_Source\PSoC5/USBFS_std.c ****                         {
 187:.\Generated_Source\PSoC5/USBFS_std.c ****                             pStr = USBFS_fwSerialNumberStringDescriptor;
 188:.\Generated_Source\PSoC5/USBFS_std.c ****                         }
 189:.\Generated_Source\PSoC5/USBFS_std.c ****                         else
 190:.\Generated_Source\PSoC5/USBFS_std.c ****                         {
 191:.\Generated_Source\PSoC5/USBFS_std.c ****                             pStr = (volatile uint8 *)&USBFS_SN_STRING_DESCRIPTOR[0u];
 192:.\Generated_Source\PSoC5/USBFS_std.c ****                         }
 193:.\Generated_Source\PSoC5/USBFS_std.c ****                     #else
 194:.\Generated_Source\PSoC5/USBFS_std.c ****                         pStr = (volatile uint8 *)&USBFS_SN_STRING_DESCRIPTOR[0u];
 195:.\Generated_Source\PSoC5/USBFS_std.c ****                     #endif  /* (USBFS_ENABLE_IDSN_STRING) */
 196:.\Generated_Source\PSoC5/USBFS_std.c ****                     }
 197:.\Generated_Source\PSoC5/USBFS_std.c ****                 #endif /* (USBFS_ENABLE_SN_STRING) */
 198:.\Generated_Source\PSoC5/USBFS_std.c ****                 
 199:.\Generated_Source\PSoC5/USBFS_std.c ****                     if (*pStr != 0u)
 200:.\Generated_Source\PSoC5/USBFS_std.c ****                     {
 201:.\Generated_Source\PSoC5/USBFS_std.c ****                         USBFS_currentTD.count = *pStr;
 202:.\Generated_Source\PSoC5/USBFS_std.c ****                         USBFS_currentTD.pData = pStr;
ARM GAS  C:\Users\Patrick\AppData\Local\Temp\ccvH7eQO.s 			page 5


 203:.\Generated_Source\PSoC5/USBFS_std.c ****                         requestHandled  = USBFS_InitControlRead();
 204:.\Generated_Source\PSoC5/USBFS_std.c ****                     }
 205:.\Generated_Source\PSoC5/USBFS_std.c ****                 }
 206:.\Generated_Source\PSoC5/USBFS_std.c ****             #endif /*  USBFS_ENABLE_STRINGS */
 207:.\Generated_Source\PSoC5/USBFS_std.c ****                 else
 208:.\Generated_Source\PSoC5/USBFS_std.c ****                 {
 209:.\Generated_Source\PSoC5/USBFS_std.c ****                     requestHandled = USBFS_DispatchClassRqst();
 210:.\Generated_Source\PSoC5/USBFS_std.c ****                 }
 211:.\Generated_Source\PSoC5/USBFS_std.c ****                 break;
 212:.\Generated_Source\PSoC5/USBFS_std.c ****                 
 213:.\Generated_Source\PSoC5/USBFS_std.c ****             case USBFS_GET_STATUS:
 214:.\Generated_Source\PSoC5/USBFS_std.c ****                 switch (bmRequestType & USBFS_RQST_RCPT_MASK)
 215:.\Generated_Source\PSoC5/USBFS_std.c ****                 {
 216:.\Generated_Source\PSoC5/USBFS_std.c ****                     case USBFS_RQST_RCPT_EP:
 217:.\Generated_Source\PSoC5/USBFS_std.c ****                         USBFS_currentTD.count = USBFS_EP_STATUS_LENGTH;
 218:.\Generated_Source\PSoC5/USBFS_std.c ****                         USBFS_tBuffer[0u]     = USBFS_EP[USBFS_wIndexLoReg & USBFS_DIR_UNUSED].hwEp
 219:.\Generated_Source\PSoC5/USBFS_std.c ****                         USBFS_tBuffer[1u]     = 0u;
 220:.\Generated_Source\PSoC5/USBFS_std.c ****                         USBFS_currentTD.pData = &USBFS_tBuffer[0u];
 221:.\Generated_Source\PSoC5/USBFS_std.c ****                         
 222:.\Generated_Source\PSoC5/USBFS_std.c ****                         requestHandled  = USBFS_InitControlRead();
 223:.\Generated_Source\PSoC5/USBFS_std.c ****                         break;
 224:.\Generated_Source\PSoC5/USBFS_std.c ****                     case USBFS_RQST_RCPT_DEV:
 225:.\Generated_Source\PSoC5/USBFS_std.c ****                         USBFS_currentTD.count = USBFS_DEVICE_STATUS_LENGTH;
 226:.\Generated_Source\PSoC5/USBFS_std.c ****                         USBFS_tBuffer[0u]     = USBFS_deviceStatus;
 227:.\Generated_Source\PSoC5/USBFS_std.c ****                         USBFS_tBuffer[1u]     = 0u;
 228:.\Generated_Source\PSoC5/USBFS_std.c ****                         USBFS_currentTD.pData = &USBFS_tBuffer[0u];
 229:.\Generated_Source\PSoC5/USBFS_std.c ****                         
 230:.\Generated_Source\PSoC5/USBFS_std.c ****                         requestHandled  = USBFS_InitControlRead();
 231:.\Generated_Source\PSoC5/USBFS_std.c ****                         break;
 232:.\Generated_Source\PSoC5/USBFS_std.c ****                     default:    /* requestHandled is initialized as FALSE by default */
 233:.\Generated_Source\PSoC5/USBFS_std.c ****                         break;
 234:.\Generated_Source\PSoC5/USBFS_std.c ****                 }
 235:.\Generated_Source\PSoC5/USBFS_std.c ****                 break;
 236:.\Generated_Source\PSoC5/USBFS_std.c ****                 
 237:.\Generated_Source\PSoC5/USBFS_std.c ****             case USBFS_GET_CONFIGURATION:
 238:.\Generated_Source\PSoC5/USBFS_std.c ****                 USBFS_currentTD.count = 1u;
 239:.\Generated_Source\PSoC5/USBFS_std.c ****                 USBFS_currentTD.pData = (volatile uint8 *) &USBFS_configuration;
 240:.\Generated_Source\PSoC5/USBFS_std.c ****                 requestHandled  = USBFS_InitControlRead();
 241:.\Generated_Source\PSoC5/USBFS_std.c ****                 break;
 242:.\Generated_Source\PSoC5/USBFS_std.c ****                 
 243:.\Generated_Source\PSoC5/USBFS_std.c ****             case USBFS_GET_INTERFACE:
 244:.\Generated_Source\PSoC5/USBFS_std.c ****                 USBFS_currentTD.count = 1u;
 245:.\Generated_Source\PSoC5/USBFS_std.c ****                 USBFS_currentTD.pData = (volatile uint8 *) &USBFS_interfaceSetting[USBFS_wIndexLoRe
 246:.\Generated_Source\PSoC5/USBFS_std.c ****                 requestHandled  = USBFS_InitControlRead();
 247:.\Generated_Source\PSoC5/USBFS_std.c ****                 break;
 248:.\Generated_Source\PSoC5/USBFS_std.c ****                 
 249:.\Generated_Source\PSoC5/USBFS_std.c ****             default: /* requestHandled is initialized as FALSE by default */
 250:.\Generated_Source\PSoC5/USBFS_std.c ****                 break;
 251:.\Generated_Source\PSoC5/USBFS_std.c ****         }
 252:.\Generated_Source\PSoC5/USBFS_std.c ****     }
 253:.\Generated_Source\PSoC5/USBFS_std.c ****     else
 254:.\Generated_Source\PSoC5/USBFS_std.c ****     {
 255:.\Generated_Source\PSoC5/USBFS_std.c ****         /* Control Write */
 256:.\Generated_Source\PSoC5/USBFS_std.c ****         switch (USBFS_bRequestReg)
 257:.\Generated_Source\PSoC5/USBFS_std.c ****         {
 258:.\Generated_Source\PSoC5/USBFS_std.c ****             case USBFS_SET_ADDRESS:
 259:.\Generated_Source\PSoC5/USBFS_std.c ****                 /* Store address to be set in USBFS_NoDataControlStatusStage(). */
ARM GAS  C:\Users\Patrick\AppData\Local\Temp\ccvH7eQO.s 			page 6


 260:.\Generated_Source\PSoC5/USBFS_std.c ****                 USBFS_deviceAddress = (uint8) USBFS_wValueLoReg;
 261:.\Generated_Source\PSoC5/USBFS_std.c ****                 requestHandled = USBFS_InitNoDataControlTransfer();
 262:.\Generated_Source\PSoC5/USBFS_std.c ****                 break;
 263:.\Generated_Source\PSoC5/USBFS_std.c ****                 
 264:.\Generated_Source\PSoC5/USBFS_std.c ****             case USBFS_SET_CONFIGURATION:
 265:.\Generated_Source\PSoC5/USBFS_std.c ****                 configurationN = USBFS_wValueLoReg;
 266:.\Generated_Source\PSoC5/USBFS_std.c ****                 
 267:.\Generated_Source\PSoC5/USBFS_std.c ****                 /* Verify that configuration descriptor exists */
 268:.\Generated_Source\PSoC5/USBFS_std.c ****                 if(configurationN > 0u)
 269:.\Generated_Source\PSoC5/USBFS_std.c ****                 {
 270:.\Generated_Source\PSoC5/USBFS_std.c ****                     pTmp = USBFS_GetConfigTablePtr((uint8) configurationN - 1u);
 271:.\Generated_Source\PSoC5/USBFS_std.c ****                 }
 272:.\Generated_Source\PSoC5/USBFS_std.c ****                 
 273:.\Generated_Source\PSoC5/USBFS_std.c ****                 /* Responds with a Request Error when configuration number is invalid */
 274:.\Generated_Source\PSoC5/USBFS_std.c ****                 if (((configurationN > 0u) && (pTmp != NULL)) || (configurationN == 0u))
 275:.\Generated_Source\PSoC5/USBFS_std.c ****                 {
 276:.\Generated_Source\PSoC5/USBFS_std.c ****                     /* Set new configuration if it has been changed */
 277:.\Generated_Source\PSoC5/USBFS_std.c ****                     if(configurationN != USBFS_configuration)
 278:.\Generated_Source\PSoC5/USBFS_std.c ****                     {
 279:.\Generated_Source\PSoC5/USBFS_std.c ****                         USBFS_configuration = (uint8) configurationN;
 280:.\Generated_Source\PSoC5/USBFS_std.c ****                         USBFS_configurationChanged = USBFS_TRUE;
 281:.\Generated_Source\PSoC5/USBFS_std.c ****                         USBFS_Config(USBFS_TRUE);
 282:.\Generated_Source\PSoC5/USBFS_std.c ****                     }
 283:.\Generated_Source\PSoC5/USBFS_std.c ****                     requestHandled = USBFS_InitNoDataControlTransfer();
 284:.\Generated_Source\PSoC5/USBFS_std.c ****                 }
 285:.\Generated_Source\PSoC5/USBFS_std.c ****                 break;
 286:.\Generated_Source\PSoC5/USBFS_std.c ****                 
 287:.\Generated_Source\PSoC5/USBFS_std.c ****             case USBFS_SET_INTERFACE:
 288:.\Generated_Source\PSoC5/USBFS_std.c ****                 if (0u != USBFS_ValidateAlternateSetting())
 289:.\Generated_Source\PSoC5/USBFS_std.c ****                 {
 290:.\Generated_Source\PSoC5/USBFS_std.c ****                     /* Get interface number from the request. */
 291:.\Generated_Source\PSoC5/USBFS_std.c ****                     interfaceNumber = USBFS_wIndexLoReg;
 292:.\Generated_Source\PSoC5/USBFS_std.c ****                     USBFS_interfaceNumber = (uint8) USBFS_wIndexLoReg;
 293:.\Generated_Source\PSoC5/USBFS_std.c ****                      
 294:.\Generated_Source\PSoC5/USBFS_std.c ****                     /* Check if alternate settings is changed for interface. */
 295:.\Generated_Source\PSoC5/USBFS_std.c ****                     if (USBFS_interfaceSettingLast[interfaceNumber] != USBFS_interfaceSetting[inter
 296:.\Generated_Source\PSoC5/USBFS_std.c ****                     {
 297:.\Generated_Source\PSoC5/USBFS_std.c ****                         USBFS_configurationChanged = USBFS_TRUE;
 298:.\Generated_Source\PSoC5/USBFS_std.c ****                     
 299:.\Generated_Source\PSoC5/USBFS_std.c ****                         /* Change alternate setting for the endpoints. */
 300:.\Generated_Source\PSoC5/USBFS_std.c ****                     #if (USBFS_EP_MANAGEMENT_MANUAL && USBFS_EP_ALLOC_DYNAMIC)
 301:.\Generated_Source\PSoC5/USBFS_std.c ****                         USBFS_Config(USBFS_FALSE);
 302:.\Generated_Source\PSoC5/USBFS_std.c ****                     #else
 303:.\Generated_Source\PSoC5/USBFS_std.c ****                         USBFS_ConfigAltChanged();
 304:.\Generated_Source\PSoC5/USBFS_std.c ****                     #endif /* (USBFS_EP_MANAGEMENT_MANUAL && USBFS_EP_ALLOC_DYNAMIC) */
 305:.\Generated_Source\PSoC5/USBFS_std.c ****                     }
 306:.\Generated_Source\PSoC5/USBFS_std.c ****                     
 307:.\Generated_Source\PSoC5/USBFS_std.c ****                     requestHandled = USBFS_InitNoDataControlTransfer();
 308:.\Generated_Source\PSoC5/USBFS_std.c ****                 }
 309:.\Generated_Source\PSoC5/USBFS_std.c ****                 break;
 310:.\Generated_Source\PSoC5/USBFS_std.c ****                 
 311:.\Generated_Source\PSoC5/USBFS_std.c ****             case USBFS_CLEAR_FEATURE:
 312:.\Generated_Source\PSoC5/USBFS_std.c ****                 switch (bmRequestType & USBFS_RQST_RCPT_MASK)
 313:.\Generated_Source\PSoC5/USBFS_std.c ****                 {
 314:.\Generated_Source\PSoC5/USBFS_std.c ****                     case USBFS_RQST_RCPT_EP:
 315:.\Generated_Source\PSoC5/USBFS_std.c ****                         if (USBFS_wValueLoReg == USBFS_ENDPOINT_HALT)
 316:.\Generated_Source\PSoC5/USBFS_std.c ****                         {
ARM GAS  C:\Users\Patrick\AppData\Local\Temp\ccvH7eQO.s 			page 7


 317:.\Generated_Source\PSoC5/USBFS_std.c ****                             requestHandled = USBFS_ClearEndpointHalt();
 318:.\Generated_Source\PSoC5/USBFS_std.c ****                         }
 319:.\Generated_Source\PSoC5/USBFS_std.c ****                         break;
 320:.\Generated_Source\PSoC5/USBFS_std.c ****                     case USBFS_RQST_RCPT_DEV:
 321:.\Generated_Source\PSoC5/USBFS_std.c ****                         /* Clear device REMOTE_WAKEUP */
 322:.\Generated_Source\PSoC5/USBFS_std.c ****                         if (USBFS_wValueLoReg == USBFS_DEVICE_REMOTE_WAKEUP)
 323:.\Generated_Source\PSoC5/USBFS_std.c ****                         {
 324:.\Generated_Source\PSoC5/USBFS_std.c ****                             USBFS_deviceStatus &= (uint8)~USBFS_DEVICE_STATUS_REMOTE_WAKEUP;
 325:.\Generated_Source\PSoC5/USBFS_std.c ****                             requestHandled = USBFS_InitNoDataControlTransfer();
 326:.\Generated_Source\PSoC5/USBFS_std.c ****                         }
 327:.\Generated_Source\PSoC5/USBFS_std.c ****                         break;
 328:.\Generated_Source\PSoC5/USBFS_std.c ****                     case USBFS_RQST_RCPT_IFC:
 329:.\Generated_Source\PSoC5/USBFS_std.c ****                         /* Validate interfaceNumber */
 330:.\Generated_Source\PSoC5/USBFS_std.c ****                         if (USBFS_wIndexLoReg < USBFS_MAX_INTERFACES_NUMBER)
 331:.\Generated_Source\PSoC5/USBFS_std.c ****                         {
 332:.\Generated_Source\PSoC5/USBFS_std.c ****                             USBFS_interfaceStatus[USBFS_wIndexLoReg] &= (uint8) ~USBFS_wValueLoReg;
 333:.\Generated_Source\PSoC5/USBFS_std.c ****                             requestHandled = USBFS_InitNoDataControlTransfer();
 334:.\Generated_Source\PSoC5/USBFS_std.c ****                         }
 335:.\Generated_Source\PSoC5/USBFS_std.c ****                         break;
 336:.\Generated_Source\PSoC5/USBFS_std.c ****                     default:    /* requestHandled is initialized as FALSE by default */
 337:.\Generated_Source\PSoC5/USBFS_std.c ****                         break;
 338:.\Generated_Source\PSoC5/USBFS_std.c ****                 }
 339:.\Generated_Source\PSoC5/USBFS_std.c ****                 break;
 340:.\Generated_Source\PSoC5/USBFS_std.c ****                 
 341:.\Generated_Source\PSoC5/USBFS_std.c ****             case USBFS_SET_FEATURE:
 342:.\Generated_Source\PSoC5/USBFS_std.c ****                 switch (bmRequestType & USBFS_RQST_RCPT_MASK)
 343:.\Generated_Source\PSoC5/USBFS_std.c ****                 {
 344:.\Generated_Source\PSoC5/USBFS_std.c ****                     case USBFS_RQST_RCPT_EP:
 345:.\Generated_Source\PSoC5/USBFS_std.c ****                         if (USBFS_wValueLoReg == USBFS_ENDPOINT_HALT)
 346:.\Generated_Source\PSoC5/USBFS_std.c ****                         {
 347:.\Generated_Source\PSoC5/USBFS_std.c ****                             requestHandled = USBFS_SetEndpointHalt();
 348:.\Generated_Source\PSoC5/USBFS_std.c ****                         }
 349:.\Generated_Source\PSoC5/USBFS_std.c ****                         break;
 350:.\Generated_Source\PSoC5/USBFS_std.c ****                         
 351:.\Generated_Source\PSoC5/USBFS_std.c ****                     case USBFS_RQST_RCPT_DEV:
 352:.\Generated_Source\PSoC5/USBFS_std.c ****                         /* Set device REMOTE_WAKEUP */
 353:.\Generated_Source\PSoC5/USBFS_std.c ****                         if (USBFS_wValueLoReg == USBFS_DEVICE_REMOTE_WAKEUP)
 354:.\Generated_Source\PSoC5/USBFS_std.c ****                         {
 355:.\Generated_Source\PSoC5/USBFS_std.c ****                             USBFS_deviceStatus |= USBFS_DEVICE_STATUS_REMOTE_WAKEUP;
 356:.\Generated_Source\PSoC5/USBFS_std.c ****                             requestHandled = USBFS_InitNoDataControlTransfer();
 357:.\Generated_Source\PSoC5/USBFS_std.c ****                         }
 358:.\Generated_Source\PSoC5/USBFS_std.c ****                         break;
 359:.\Generated_Source\PSoC5/USBFS_std.c ****                         
 360:.\Generated_Source\PSoC5/USBFS_std.c ****                     case USBFS_RQST_RCPT_IFC:
 361:.\Generated_Source\PSoC5/USBFS_std.c ****                         /* Validate interfaceNumber */
 362:.\Generated_Source\PSoC5/USBFS_std.c ****                         if (USBFS_wIndexLoReg < USBFS_MAX_INTERFACES_NUMBER)
 363:.\Generated_Source\PSoC5/USBFS_std.c ****                         {
 364:.\Generated_Source\PSoC5/USBFS_std.c ****                             USBFS_interfaceStatus[USBFS_wIndexLoReg] &= (uint8) ~USBFS_wValueLoReg;
 365:.\Generated_Source\PSoC5/USBFS_std.c ****                             requestHandled = USBFS_InitNoDataControlTransfer();
 366:.\Generated_Source\PSoC5/USBFS_std.c ****                         }
 367:.\Generated_Source\PSoC5/USBFS_std.c ****                         break;
 368:.\Generated_Source\PSoC5/USBFS_std.c ****                     
 369:.\Generated_Source\PSoC5/USBFS_std.c ****                     default:    /* requestHandled is initialized as FALSE by default */
 370:.\Generated_Source\PSoC5/USBFS_std.c ****                         break;
 371:.\Generated_Source\PSoC5/USBFS_std.c ****                 }
 372:.\Generated_Source\PSoC5/USBFS_std.c ****                 break;
 373:.\Generated_Source\PSoC5/USBFS_std.c ****                 
ARM GAS  C:\Users\Patrick\AppData\Local\Temp\ccvH7eQO.s 			page 8


 374:.\Generated_Source\PSoC5/USBFS_std.c ****             default:    /* requestHandled is initialized as FALSE by default */
 375:.\Generated_Source\PSoC5/USBFS_std.c ****                 break;
 376:.\Generated_Source\PSoC5/USBFS_std.c ****         }
 377:.\Generated_Source\PSoC5/USBFS_std.c ****     }
 378:.\Generated_Source\PSoC5/USBFS_std.c ****     
 379:.\Generated_Source\PSoC5/USBFS_std.c ****     return (requestHandled);
 380:.\Generated_Source\PSoC5/USBFS_std.c **** }
 381:.\Generated_Source\PSoC5/USBFS_std.c **** 
 382:.\Generated_Source\PSoC5/USBFS_std.c **** 
 383:.\Generated_Source\PSoC5/USBFS_std.c **** #if defined(USBFS_ENABLE_IDSN_STRING)
 384:.\Generated_Source\PSoC5/USBFS_std.c ****     /***************************************************************************
 385:.\Generated_Source\PSoC5/USBFS_std.c ****     * Function Name: USBFS_ReadDieID
 386:.\Generated_Source\PSoC5/USBFS_std.c ****     ************************************************************************//**
 387:.\Generated_Source\PSoC5/USBFS_std.c ****     *
 388:.\Generated_Source\PSoC5/USBFS_std.c ****     *  This routine read Die ID and generate Serial Number string descriptor.
 389:.\Generated_Source\PSoC5/USBFS_std.c ****     *
 390:.\Generated_Source\PSoC5/USBFS_std.c ****     *  \param descr:  pointer on string descriptor. This string size has to be equal or
 391:.\Generated_Source\PSoC5/USBFS_std.c ****     *          greater than USBFS_IDSN_DESCR_LENGTH.
 392:.\Generated_Source\PSoC5/USBFS_std.c ****     *
 393:.\Generated_Source\PSoC5/USBFS_std.c ****     *
 394:.\Generated_Source\PSoC5/USBFS_std.c ****     * \reentrant
 395:.\Generated_Source\PSoC5/USBFS_std.c ****     *  No.
 396:.\Generated_Source\PSoC5/USBFS_std.c ****     *
 397:.\Generated_Source\PSoC5/USBFS_std.c ****     ***************************************************************************/
 398:.\Generated_Source\PSoC5/USBFS_std.c ****     void USBFS_ReadDieID(uint8 descr[]) 
 399:.\Generated_Source\PSoC5/USBFS_std.c ****     {
 400:.\Generated_Source\PSoC5/USBFS_std.c ****         const char8 CYCODE hex[] = "0123456789ABCDEF";
 401:.\Generated_Source\PSoC5/USBFS_std.c ****         uint8 i;
 402:.\Generated_Source\PSoC5/USBFS_std.c ****         uint8 j = 0u;
 403:.\Generated_Source\PSoC5/USBFS_std.c ****         uint8 uniqueId[8u];
 404:.\Generated_Source\PSoC5/USBFS_std.c **** 
 405:.\Generated_Source\PSoC5/USBFS_std.c ****         if (NULL != descr)
 406:.\Generated_Source\PSoC5/USBFS_std.c ****         {
 407:.\Generated_Source\PSoC5/USBFS_std.c ****             /* Initialize descriptor header. */
 408:.\Generated_Source\PSoC5/USBFS_std.c ****             descr[0u] = USBFS_IDSN_DESCR_LENGTH;
 409:.\Generated_Source\PSoC5/USBFS_std.c ****             descr[1u] = USBFS_DESCR_STRING;
 410:.\Generated_Source\PSoC5/USBFS_std.c ****             
 411:.\Generated_Source\PSoC5/USBFS_std.c ****             /* Unique ID size is 8 bytes. */
 412:.\Generated_Source\PSoC5/USBFS_std.c ****             CyGetUniqueId((uint32 *) uniqueId);
 413:.\Generated_Source\PSoC5/USBFS_std.c **** 
 414:.\Generated_Source\PSoC5/USBFS_std.c ****             /* Fill descriptor with unique device ID. */
 415:.\Generated_Source\PSoC5/USBFS_std.c ****             for (i = 2u; i < USBFS_IDSN_DESCR_LENGTH; i += 4u)
 416:.\Generated_Source\PSoC5/USBFS_std.c ****             {
 417:.\Generated_Source\PSoC5/USBFS_std.c ****                 descr[i]      = (uint8) hex[(uniqueId[j] >> 4u)];
 418:.\Generated_Source\PSoC5/USBFS_std.c ****                 descr[i + 1u] = 0u;
 419:.\Generated_Source\PSoC5/USBFS_std.c ****                 descr[i + 2u] = (uint8) hex[(uniqueId[j] & 0x0Fu)];
 420:.\Generated_Source\PSoC5/USBFS_std.c ****                 descr[i + 3u] = 0u;
 421:.\Generated_Source\PSoC5/USBFS_std.c ****                 ++j;
 422:.\Generated_Source\PSoC5/USBFS_std.c ****             }
 423:.\Generated_Source\PSoC5/USBFS_std.c ****         }
 424:.\Generated_Source\PSoC5/USBFS_std.c ****     }
 425:.\Generated_Source\PSoC5/USBFS_std.c **** #endif /* (USBFS_ENABLE_IDSN_STRING) */
 426:.\Generated_Source\PSoC5/USBFS_std.c **** 
 427:.\Generated_Source\PSoC5/USBFS_std.c **** 
 428:.\Generated_Source\PSoC5/USBFS_std.c **** /*******************************************************************************
 429:.\Generated_Source\PSoC5/USBFS_std.c **** * Function Name: USBFS_ConfigReg
 430:.\Generated_Source\PSoC5/USBFS_std.c **** ****************************************************************************//**
ARM GAS  C:\Users\Patrick\AppData\Local\Temp\ccvH7eQO.s 			page 9


 431:.\Generated_Source\PSoC5/USBFS_std.c **** *
 432:.\Generated_Source\PSoC5/USBFS_std.c **** *  This routine configures hardware registers from the variables.
 433:.\Generated_Source\PSoC5/USBFS_std.c **** *  It is called from USBFS_Config() function and from RestoreConfig
 434:.\Generated_Source\PSoC5/USBFS_std.c **** *  after Wakeup.
 435:.\Generated_Source\PSoC5/USBFS_std.c **** *
 436:.\Generated_Source\PSoC5/USBFS_std.c **** *******************************************************************************/
 437:.\Generated_Source\PSoC5/USBFS_std.c **** void USBFS_ConfigReg(void) 
 438:.\Generated_Source\PSoC5/USBFS_std.c **** {
  27              		.loc 1 438 0
  28              		.cfi_startproc
  29              		@ args = 0, pretend = 0, frame = 0
  30              		@ frame_needed = 0, uses_anonymous_args = 0
  31              		@ link register save eliminated.
  32 0000 10B4     		push	{r4}
  33              		.cfi_def_cfa_offset 4
  34              		.cfi_offset 4, -4
  35              	.LVL0:
 439:.\Generated_Source\PSoC5/USBFS_std.c ****     uint8 ep;
 440:.\Generated_Source\PSoC5/USBFS_std.c **** 
 441:.\Generated_Source\PSoC5/USBFS_std.c **** #if (USBFS_EP_MANAGEMENT_DMA_AUTO)
 442:.\Generated_Source\PSoC5/USBFS_std.c ****     uint8 epType = 0u;
 443:.\Generated_Source\PSoC5/USBFS_std.c **** #endif /* (USBFS_EP_MANAGEMENT_DMA_AUTO) */
 444:.\Generated_Source\PSoC5/USBFS_std.c **** 
 445:.\Generated_Source\PSoC5/USBFS_std.c ****     /* Go thought all endpoints and set hardware configuration */
 446:.\Generated_Source\PSoC5/USBFS_std.c ****     for (ep = USBFS_EP1; ep < USBFS_MAX_EP; ++ep)
  36              		.loc 1 446 0
  37 0002 0122     		movs	r2, #1
  38 0004 3DE0     		b	.L2
  39              	.LVL1:
  40              	.L6:
 447:.\Generated_Source\PSoC5/USBFS_std.c ****     {
 448:.\Generated_Source\PSoC5/USBFS_std.c ****         USBFS_ARB_EP_BASE.arbEp[ep].epCfg = USBFS_ARB_EPX_CFG_DEFAULT;
  41              		.loc 1 448 0
  42 0006 1146     		mov	r1, r2
  43 0008 1301     		lsls	r3, r2, #4
  44 000a 0C24     		movs	r4, #12
  45 000c 2148     		ldr	r0, .L8
  46 000e C454     		strb	r4, [r0, r3]
 449:.\Generated_Source\PSoC5/USBFS_std.c ****         
 450:.\Generated_Source\PSoC5/USBFS_std.c ****     #if (USBFS_EP_MANAGEMENT_DMA)
 451:.\Generated_Source\PSoC5/USBFS_std.c ****         /* Enable arbiter endpoint interrupt sources */
 452:.\Generated_Source\PSoC5/USBFS_std.c ****         USBFS_ARB_EP_BASE.arbEp[ep].epIntEn = USBFS_ARB_EPX_INT_MASK;
 453:.\Generated_Source\PSoC5/USBFS_std.c ****     #endif /* (USBFS_EP_MANAGEMENT_DMA) */
 454:.\Generated_Source\PSoC5/USBFS_std.c ****     
 455:.\Generated_Source\PSoC5/USBFS_std.c ****         if (USBFS_EP[ep].epMode != USBFS_MODE_DISABLE)
  47              		.loc 1 455 0
  48 0010 02EB4203 		add	r3, r2, r2, lsl #1
  49 0014 9B00     		lsls	r3, r3, #2
  50 0016 2048     		ldr	r0, .L8+4
  51 0018 0344     		add	r3, r3, r0
  52 001a 5B79     		ldrb	r3, [r3, #5]	@ zero_extendqisi2
  53 001c 13F0FF0F 		tst	r3, #255
  54 0020 12D0     		beq	.L3
 456:.\Generated_Source\PSoC5/USBFS_std.c ****         {
 457:.\Generated_Source\PSoC5/USBFS_std.c ****             if (0u != (USBFS_EP[ep].addr & USBFS_DIR_IN))
  55              		.loc 1 457 0
  56 0022 02EB4203 		add	r3, r2, r2, lsl #1
ARM GAS  C:\Users\Patrick\AppData\Local\Temp\ccvH7eQO.s 			page 10


  57 0026 9B00     		lsls	r3, r3, #2
  58 0028 0344     		add	r3, r3, r0
  59 002a 1B79     		ldrb	r3, [r3, #4]	@ zero_extendqisi2
  60 002c 13F0800F 		tst	r3, #128
  61 0030 04D0     		beq	.L4
 458:.\Generated_Source\PSoC5/USBFS_std.c ****             {
 459:.\Generated_Source\PSoC5/USBFS_std.c ****                 USBFS_SIE_EP_BASE.sieEp[ep].epCr0 = USBFS_MODE_NAK_IN;
  62              		.loc 1 459 0
  63 0032 1001     		lsls	r0, r2, #4
  64 0034 194B     		ldr	r3, .L8+8
  65 0036 0344     		add	r3, r3, r0
  66 0038 9C70     		strb	r4, [r3, #2]
  67 003a 0AE0     		b	.L5
  68              	.L4:
 460:.\Generated_Source\PSoC5/USBFS_std.c ****                 
 461:.\Generated_Source\PSoC5/USBFS_std.c ****             #if (USBFS_EP_MANAGEMENT_DMA_AUTO && CY_PSOC4)
 462:.\Generated_Source\PSoC5/USBFS_std.c ****                 /* Clear DMA_TERMIN for IN endpoint. */
 463:.\Generated_Source\PSoC5/USBFS_std.c ****                 USBFS_ARB_EP_BASE.arbEp[ep].epIntEn &= (uint32) ~USBFS_ARB_EPX_INT_DMA_TERMIN;
 464:.\Generated_Source\PSoC5/USBFS_std.c ****             #endif /* (USBFS_EP_MANAGEMENT_DMA_AUTO && CY_PSOC4) */
 465:.\Generated_Source\PSoC5/USBFS_std.c ****             }
 466:.\Generated_Source\PSoC5/USBFS_std.c ****             else
 467:.\Generated_Source\PSoC5/USBFS_std.c ****             {
 468:.\Generated_Source\PSoC5/USBFS_std.c ****                 USBFS_SIE_EP_BASE.sieEp[ep].epCr0 = USBFS_MODE_NAK_OUT;
  69              		.loc 1 468 0
  70 003c 1001     		lsls	r0, r2, #4
  71 003e 174B     		ldr	r3, .L8+8
  72 0040 0344     		add	r3, r3, r0
  73 0042 0820     		movs	r0, #8
  74 0044 9870     		strb	r0, [r3, #2]
  75 0046 04E0     		b	.L5
  76              	.L3:
 469:.\Generated_Source\PSoC5/USBFS_std.c **** 
 470:.\Generated_Source\PSoC5/USBFS_std.c ****             #if (USBFS_EP_MANAGEMENT_DMA_AUTO)
 471:.\Generated_Source\PSoC5/USBFS_std.c ****                 /* (CY_PSOC4): DMA_TERMIN for OUT endpoint is set above. */
 472:.\Generated_Source\PSoC5/USBFS_std.c ****                 
 473:.\Generated_Source\PSoC5/USBFS_std.c ****                 /* Prepare endpoint type mask. */
 474:.\Generated_Source\PSoC5/USBFS_std.c ****                 epType |= (uint8) (0x01u << (ep - USBFS_EP1));
 475:.\Generated_Source\PSoC5/USBFS_std.c ****             #endif /* (USBFS_EP_MANAGEMENT_DMA_AUTO) */
 476:.\Generated_Source\PSoC5/USBFS_std.c ****             }
 477:.\Generated_Source\PSoC5/USBFS_std.c ****         }
 478:.\Generated_Source\PSoC5/USBFS_std.c ****         else
 479:.\Generated_Source\PSoC5/USBFS_std.c ****         {
 480:.\Generated_Source\PSoC5/USBFS_std.c ****             USBFS_SIE_EP_BASE.sieEp[ep].epCr0 = USBFS_MODE_STALL_DATA_EP;
  77              		.loc 1 480 0
  78 0048 1001     		lsls	r0, r2, #4
  79 004a 144B     		ldr	r3, .L8+8
  80 004c 0344     		add	r3, r3, r0
  81 004e 8020     		movs	r0, #128
  82 0050 9870     		strb	r0, [r3, #2]
  83              	.L5:
 481:.\Generated_Source\PSoC5/USBFS_std.c ****         }
 482:.\Generated_Source\PSoC5/USBFS_std.c ****         
 483:.\Generated_Source\PSoC5/USBFS_std.c ****     #if (!USBFS_EP_MANAGEMENT_DMA_AUTO)
 484:.\Generated_Source\PSoC5/USBFS_std.c ****         #if (CY_PSOC4)
 485:.\Generated_Source\PSoC5/USBFS_std.c ****             USBFS_ARB_EP16_BASE.arbEp[ep].rwRa16  = (uint32) USBFS_EP[ep].buffOffset;
 486:.\Generated_Source\PSoC5/USBFS_std.c ****             USBFS_ARB_EP16_BASE.arbEp[ep].rwWa16  = (uint32) USBFS_EP[ep].buffOffset;
 487:.\Generated_Source\PSoC5/USBFS_std.c ****         #else
ARM GAS  C:\Users\Patrick\AppData\Local\Temp\ccvH7eQO.s 			page 11


 488:.\Generated_Source\PSoC5/USBFS_std.c ****             USBFS_ARB_EP_BASE.arbEp[ep].rwRa    = LO8(USBFS_EP[ep].buffOffset);
  84              		.loc 1 488 0 discriminator 2
  85 0052 4B00     		lsls	r3, r1, #1
  86 0054 0B44     		add	r3, r3, r1
  87 0056 9B00     		lsls	r3, r3, #2
  88 0058 0F48     		ldr	r0, .L8+4
  89 005a 0344     		add	r3, r3, r0
  90 005c DC88     		ldrh	r4, [r3, #6]
  91 005e E4B2     		uxtb	r4, r4
  92 0060 0801     		lsls	r0, r1, #4
  93 0062 0C49     		ldr	r1, .L8
  94 0064 0144     		add	r1, r1, r0
  95 0066 8C71     		strb	r4, [r1, #6]
 489:.\Generated_Source\PSoC5/USBFS_std.c ****             USBFS_ARB_EP_BASE.arbEp[ep].rwRaMsb = HI8(USBFS_EP[ep].buffOffset);
  96              		.loc 1 489 0 discriminator 2
  97 0068 D888     		ldrh	r0, [r3, #6]
  98 006a C0F30720 		ubfx	r0, r0, #8, #8
  99 006e C871     		strb	r0, [r1, #7]
 490:.\Generated_Source\PSoC5/USBFS_std.c ****             USBFS_ARB_EP_BASE.arbEp[ep].rwWa    = LO8(USBFS_EP[ep].buffOffset);
 100              		.loc 1 490 0 discriminator 2
 101 0070 D888     		ldrh	r0, [r3, #6]
 102 0072 C0B2     		uxtb	r0, r0
 103 0074 0871     		strb	r0, [r1, #4]
 491:.\Generated_Source\PSoC5/USBFS_std.c ****             USBFS_ARB_EP_BASE.arbEp[ep].rwWaMsb = HI8(USBFS_EP[ep].buffOffset);
 104              		.loc 1 491 0 discriminator 2
 105 0076 DB88     		ldrh	r3, [r3, #6]
 106 0078 C3F30723 		ubfx	r3, r3, #8, #8
 107 007c 4B71     		strb	r3, [r1, #5]
 446:.\Generated_Source\PSoC5/USBFS_std.c ****     {
 108              		.loc 1 446 0 discriminator 2
 109 007e 0132     		adds	r2, r2, #1
 110              	.LVL2:
 111 0080 D2B2     		uxtb	r2, r2
 112              	.LVL3:
 113              	.L2:
 446:.\Generated_Source\PSoC5/USBFS_std.c ****     {
 114              		.loc 1 446 0 is_stmt 0 discriminator 1
 115 0082 082A     		cmp	r2, #8
 116 0084 BFD9     		bls	.L6
 492:.\Generated_Source\PSoC5/USBFS_std.c ****         #endif /* (CY_PSOC4) */
 493:.\Generated_Source\PSoC5/USBFS_std.c ****     #endif /* (!USBFS_EP_MANAGEMENT_DMA_AUTO) */
 494:.\Generated_Source\PSoC5/USBFS_std.c ****     }
 495:.\Generated_Source\PSoC5/USBFS_std.c **** 
 496:.\Generated_Source\PSoC5/USBFS_std.c **** #if (USBFS_EP_MANAGEMENT_DMA_AUTO)
 497:.\Generated_Source\PSoC5/USBFS_std.c ****      /* BUF_SIZE depend on DMA_THRESS value:0x55-32 bytes  0x44-16 bytes 0x33-8 bytes 0x22-4 bytes 
 498:.\Generated_Source\PSoC5/USBFS_std.c ****     USBFS_BUF_SIZE_REG = USBFS_DMA_BUF_SIZE;
 499:.\Generated_Source\PSoC5/USBFS_std.c **** 
 500:.\Generated_Source\PSoC5/USBFS_std.c ****     /* Configure DMA burst threshold */
 501:.\Generated_Source\PSoC5/USBFS_std.c **** #if (CY_PSOC4)
 502:.\Generated_Source\PSoC5/USBFS_std.c ****     USBFS_DMA_THRES16_REG   = USBFS_DMA_BYTES_PER_BURST;
 503:.\Generated_Source\PSoC5/USBFS_std.c **** #else
 504:.\Generated_Source\PSoC5/USBFS_std.c ****     USBFS_DMA_THRES_REG     = USBFS_DMA_BYTES_PER_BURST;
 505:.\Generated_Source\PSoC5/USBFS_std.c ****     USBFS_DMA_THRES_MSB_REG = 0u;
 506:.\Generated_Source\PSoC5/USBFS_std.c **** #endif /* (CY_PSOC4) */
 507:.\Generated_Source\PSoC5/USBFS_std.c ****     USBFS_EP_ACTIVE_REG = USBFS_DEFAULT_ARB_INT_EN;
 508:.\Generated_Source\PSoC5/USBFS_std.c ****     USBFS_EP_TYPE_REG   = epType;
 509:.\Generated_Source\PSoC5/USBFS_std.c ****     
ARM GAS  C:\Users\Patrick\AppData\Local\Temp\ccvH7eQO.s 			page 12


 510:.\Generated_Source\PSoC5/USBFS_std.c ****     /* Cfg_cmp bit set to 1 once configuration is complete. */
 511:.\Generated_Source\PSoC5/USBFS_std.c ****     /* Lock arbiter configtuation */
 512:.\Generated_Source\PSoC5/USBFS_std.c ****     USBFS_ARB_CFG_REG |= (uint8)  USBFS_ARB_CFG_CFG_CMP;
 513:.\Generated_Source\PSoC5/USBFS_std.c ****     /* Cfg_cmp bit set to 0 during configuration of PFSUSB Registers. */
 514:.\Generated_Source\PSoC5/USBFS_std.c ****     USBFS_ARB_CFG_REG &= (uint8) ~USBFS_ARB_CFG_CFG_CMP;
 515:.\Generated_Source\PSoC5/USBFS_std.c **** 
 516:.\Generated_Source\PSoC5/USBFS_std.c **** #endif /* (USBFS_EP_MANAGEMENT_DMA_AUTO) */
 517:.\Generated_Source\PSoC5/USBFS_std.c **** 
 518:.\Generated_Source\PSoC5/USBFS_std.c ****     /* Enable interrupt SIE interurpt source from EP0-EP1 */
 519:.\Generated_Source\PSoC5/USBFS_std.c ****     USBFS_SIE_EP_INT_EN_REG = (uint8) USBFS_DEFAULT_SIE_EP_INT_EN;
 117              		.loc 1 519 0 is_stmt 1
 118 0086 FF22     		movs	r2, #255
 119              	.LVL4:
 120 0088 054B     		ldr	r3, .L8+12
 121 008a 1A70     		strb	r2, [r3]
 520:.\Generated_Source\PSoC5/USBFS_std.c **** }
 122              		.loc 1 520 0
 123 008c 5DF8044B 		ldr	r4, [sp], #4
 124              		.cfi_restore 4
 125              		.cfi_def_cfa_offset 0
 126 0090 7047     		bx	lr
 127              	.L9:
 128 0092 00BF     		.align	2
 129              	.L8:
 130 0094 70600040 		.word	1073766512
 131 0098 00000000 		.word	USBFS_EP
 132 009c FC5F0040 		.word	1073766396
 133 00a0 0A600040 		.word	1073766410
 134              		.cfi_endproc
 135              	.LFE1:
 136              		.size	USBFS_ConfigReg, .-USBFS_ConfigReg
 137              		.section	.text.USBFS_EpStateInit,"ax",%progbits
 138              		.align	2
 139              		.global	USBFS_EpStateInit
 140              		.thumb
 141              		.thumb_func
 142              		.type	USBFS_EpStateInit, %function
 143              	USBFS_EpStateInit:
 144              	.LFB2:
 521:.\Generated_Source\PSoC5/USBFS_std.c **** 
 522:.\Generated_Source\PSoC5/USBFS_std.c **** 
 523:.\Generated_Source\PSoC5/USBFS_std.c **** /*******************************************************************************
 524:.\Generated_Source\PSoC5/USBFS_std.c **** * Function Name: USBFS_EpStateInit
 525:.\Generated_Source\PSoC5/USBFS_std.c **** ****************************************************************************//**
 526:.\Generated_Source\PSoC5/USBFS_std.c **** *
 527:.\Generated_Source\PSoC5/USBFS_std.c **** *  This routine initialize state of Data end points based of its type: 
 528:.\Generated_Source\PSoC5/USBFS_std.c **** *   IN  - USBFS_IN_BUFFER_EMPTY (USBFS_EVENT_PENDING)
 529:.\Generated_Source\PSoC5/USBFS_std.c **** *   OUT - USBFS_OUT_BUFFER_EMPTY (USBFS_NO_EVENT_PENDING)
 530:.\Generated_Source\PSoC5/USBFS_std.c **** *
 531:.\Generated_Source\PSoC5/USBFS_std.c **** *******************************************************************************/
 532:.\Generated_Source\PSoC5/USBFS_std.c **** void USBFS_EpStateInit(void) 
 533:.\Generated_Source\PSoC5/USBFS_std.c **** {
 145              		.loc 1 533 0
 146              		.cfi_startproc
 147              		@ args = 0, pretend = 0, frame = 0
 148              		@ frame_needed = 0, uses_anonymous_args = 0
 149              		@ link register save eliminated.
ARM GAS  C:\Users\Patrick\AppData\Local\Temp\ccvH7eQO.s 			page 13


 150              	.LVL5:
 534:.\Generated_Source\PSoC5/USBFS_std.c ****     uint8 i;
 535:.\Generated_Source\PSoC5/USBFS_std.c **** 
 536:.\Generated_Source\PSoC5/USBFS_std.c ****     for (i = USBFS_EP1; i < USBFS_MAX_EP; i++)
 151              		.loc 1 536 0
 152 0000 0123     		movs	r3, #1
 153 0002 18E0     		b	.L11
 154              	.LVL6:
 155              	.L14:
 537:.\Generated_Source\PSoC5/USBFS_std.c ****     { 
 538:.\Generated_Source\PSoC5/USBFS_std.c ****         if (0u != (USBFS_EP[i].addr & USBFS_DIR_IN))
 156              		.loc 1 538 0
 157 0004 03EB4302 		add	r2, r3, r3, lsl #1
 158 0008 9200     		lsls	r2, r2, #2
 159 000a 0C49     		ldr	r1, .L15
 160 000c 0A44     		add	r2, r2, r1
 161 000e 1279     		ldrb	r2, [r2, #4]	@ zero_extendqisi2
 162 0010 12F0800F 		tst	r2, #128
 163 0014 06D0     		beq	.L12
 539:.\Generated_Source\PSoC5/USBFS_std.c ****         {
 540:.\Generated_Source\PSoC5/USBFS_std.c ****             /* IN Endpoint */
 541:.\Generated_Source\PSoC5/USBFS_std.c ****             USBFS_EP[i].apiEpState = USBFS_EVENT_PENDING;
 164              		.loc 1 541 0
 165 0016 03EB4302 		add	r2, r3, r3, lsl #1
 166 001a 9200     		lsls	r2, r2, #2
 167 001c 0A44     		add	r2, r2, r1
 168 001e 0121     		movs	r1, #1
 169 0020 5170     		strb	r1, [r2, #1]
 170 0022 06E0     		b	.L13
 171              	.L12:
 542:.\Generated_Source\PSoC5/USBFS_std.c ****         }
 543:.\Generated_Source\PSoC5/USBFS_std.c ****         else
 544:.\Generated_Source\PSoC5/USBFS_std.c ****         {
 545:.\Generated_Source\PSoC5/USBFS_std.c ****             /* OUT Endpoint */
 546:.\Generated_Source\PSoC5/USBFS_std.c ****             USBFS_EP[i].apiEpState = USBFS_NO_EVENT_PENDING;
 172              		.loc 1 546 0
 173 0024 03EB4302 		add	r2, r3, r3, lsl #1
 174 0028 9200     		lsls	r2, r2, #2
 175 002a 0449     		ldr	r1, .L15
 176 002c 0A44     		add	r2, r2, r1
 177 002e 0021     		movs	r1, #0
 178 0030 5170     		strb	r1, [r2, #1]
 179              	.L13:
 536:.\Generated_Source\PSoC5/USBFS_std.c ****     { 
 180              		.loc 1 536 0 discriminator 2
 181 0032 0133     		adds	r3, r3, #1
 182              	.LVL7:
 183 0034 DBB2     		uxtb	r3, r3
 184              	.LVL8:
 185              	.L11:
 536:.\Generated_Source\PSoC5/USBFS_std.c ****     { 
 186              		.loc 1 536 0 is_stmt 0 discriminator 1
 187 0036 082B     		cmp	r3, #8
 188 0038 E4D9     		bls	.L14
 547:.\Generated_Source\PSoC5/USBFS_std.c ****         }
 548:.\Generated_Source\PSoC5/USBFS_std.c ****     }
 549:.\Generated_Source\PSoC5/USBFS_std.c ****                     
ARM GAS  C:\Users\Patrick\AppData\Local\Temp\ccvH7eQO.s 			page 14


 550:.\Generated_Source\PSoC5/USBFS_std.c **** }
 189              		.loc 1 550 0 is_stmt 1
 190 003a 7047     		bx	lr
 191              	.L16:
 192              		.align	2
 193              	.L15:
 194 003c 00000000 		.word	USBFS_EP
 195              		.cfi_endproc
 196              	.LFE2:
 197              		.size	USBFS_EpStateInit, .-USBFS_EpStateInit
 198              		.section	.text.USBFS_GetConfigTablePtr,"ax",%progbits
 199              		.align	2
 200              		.global	USBFS_GetConfigTablePtr
 201              		.thumb
 202              		.thumb_func
 203              		.type	USBFS_GetConfigTablePtr, %function
 204              	USBFS_GetConfigTablePtr:
 205              	.LFB5:
 551:.\Generated_Source\PSoC5/USBFS_std.c **** 
 552:.\Generated_Source\PSoC5/USBFS_std.c **** 
 553:.\Generated_Source\PSoC5/USBFS_std.c **** /*******************************************************************************
 554:.\Generated_Source\PSoC5/USBFS_std.c **** * Function Name: USBFS_Config
 555:.\Generated_Source\PSoC5/USBFS_std.c **** ****************************************************************************//**
 556:.\Generated_Source\PSoC5/USBFS_std.c **** *
 557:.\Generated_Source\PSoC5/USBFS_std.c **** *  This routine configures endpoints for the entire configuration by scanning
 558:.\Generated_Source\PSoC5/USBFS_std.c **** *  the configuration descriptor.
 559:.\Generated_Source\PSoC5/USBFS_std.c **** *
 560:.\Generated_Source\PSoC5/USBFS_std.c **** *  \param clearAltSetting: It configures the bAlternateSetting 0 for each interface.
 561:.\Generated_Source\PSoC5/USBFS_std.c **** *
 562:.\Generated_Source\PSoC5/USBFS_std.c **** * USBFS_interfaceClass - Initialized class array for each interface.
 563:.\Generated_Source\PSoC5/USBFS_std.c **** *   It is used for handling Class specific requests depend on interface class.
 564:.\Generated_Source\PSoC5/USBFS_std.c **** *   Different classes in multiple Alternate settings does not supported.
 565:.\Generated_Source\PSoC5/USBFS_std.c **** *
 566:.\Generated_Source\PSoC5/USBFS_std.c **** * \reentrant
 567:.\Generated_Source\PSoC5/USBFS_std.c **** *  No.
 568:.\Generated_Source\PSoC5/USBFS_std.c **** *
 569:.\Generated_Source\PSoC5/USBFS_std.c **** *******************************************************************************/
 570:.\Generated_Source\PSoC5/USBFS_std.c **** void USBFS_Config(uint8 clearAltSetting) 
 571:.\Generated_Source\PSoC5/USBFS_std.c **** {
 572:.\Generated_Source\PSoC5/USBFS_std.c ****     uint8 ep;
 573:.\Generated_Source\PSoC5/USBFS_std.c ****     uint8 curEp;
 574:.\Generated_Source\PSoC5/USBFS_std.c ****     uint8 i;
 575:.\Generated_Source\PSoC5/USBFS_std.c ****     uint8 epType;
 576:.\Generated_Source\PSoC5/USBFS_std.c ****     const uint8 *pDescr;
 577:.\Generated_Source\PSoC5/USBFS_std.c ****     
 578:.\Generated_Source\PSoC5/USBFS_std.c ****     #if (!USBFS_EP_MANAGEMENT_DMA_AUTO)
 579:.\Generated_Source\PSoC5/USBFS_std.c ****         uint16 buffCount = 0u;
 580:.\Generated_Source\PSoC5/USBFS_std.c ****     #endif /* (!USBFS_EP_MANAGEMENT_DMA_AUTO) */
 581:.\Generated_Source\PSoC5/USBFS_std.c **** 
 582:.\Generated_Source\PSoC5/USBFS_std.c ****     const T_USBFS_LUT CYCODE *pTmp;
 583:.\Generated_Source\PSoC5/USBFS_std.c ****     const T_USBFS_EP_SETTINGS_BLOCK CYCODE *pEP;
 584:.\Generated_Source\PSoC5/USBFS_std.c **** 
 585:.\Generated_Source\PSoC5/USBFS_std.c ****     /* Clear endpoints settings */
 586:.\Generated_Source\PSoC5/USBFS_std.c ****     for (ep = 0u; ep < USBFS_MAX_EP; ++ep)
 587:.\Generated_Source\PSoC5/USBFS_std.c ****     {
 588:.\Generated_Source\PSoC5/USBFS_std.c ****         USBFS_EP[ep].attrib     = 0u;
 589:.\Generated_Source\PSoC5/USBFS_std.c ****         USBFS_EP[ep].hwEpState  = 0u;
ARM GAS  C:\Users\Patrick\AppData\Local\Temp\ccvH7eQO.s 			page 15


 590:.\Generated_Source\PSoC5/USBFS_std.c ****         USBFS_EP[ep].epToggle   = 0u;
 591:.\Generated_Source\PSoC5/USBFS_std.c ****         USBFS_EP[ep].bufferSize = 0u;
 592:.\Generated_Source\PSoC5/USBFS_std.c ****         USBFS_EP[ep].interface  = 0u;
 593:.\Generated_Source\PSoC5/USBFS_std.c ****         USBFS_EP[ep].apiEpState = USBFS_NO_EVENT_PENDING;
 594:.\Generated_Source\PSoC5/USBFS_std.c ****         USBFS_EP[ep].epMode     = USBFS_MODE_DISABLE;   
 595:.\Generated_Source\PSoC5/USBFS_std.c ****     }
 596:.\Generated_Source\PSoC5/USBFS_std.c **** 
 597:.\Generated_Source\PSoC5/USBFS_std.c ****     /* Clear Alternate settings for all interfaces. */
 598:.\Generated_Source\PSoC5/USBFS_std.c ****     if (0u != clearAltSetting)
 599:.\Generated_Source\PSoC5/USBFS_std.c ****     {
 600:.\Generated_Source\PSoC5/USBFS_std.c ****         for (i = 0u; i < USBFS_MAX_INTERFACES_NUMBER; ++i)
 601:.\Generated_Source\PSoC5/USBFS_std.c ****         {
 602:.\Generated_Source\PSoC5/USBFS_std.c ****             USBFS_interfaceSetting[i]     = 0u;
 603:.\Generated_Source\PSoC5/USBFS_std.c ****             USBFS_interfaceSettingLast[i] = 0u;
 604:.\Generated_Source\PSoC5/USBFS_std.c ****         }
 605:.\Generated_Source\PSoC5/USBFS_std.c ****     }
 606:.\Generated_Source\PSoC5/USBFS_std.c **** 
 607:.\Generated_Source\PSoC5/USBFS_std.c ****     /* Init Endpoints and Device Status if configured */
 608:.\Generated_Source\PSoC5/USBFS_std.c ****     if (USBFS_configuration > 0u)
 609:.\Generated_Source\PSoC5/USBFS_std.c ****     {
 610:.\Generated_Source\PSoC5/USBFS_std.c ****         #if defined(USBFS_ENABLE_CDC_CLASS)
 611:.\Generated_Source\PSoC5/USBFS_std.c ****             uint8 cdcComNums = 0u;
 612:.\Generated_Source\PSoC5/USBFS_std.c ****         #endif  /* (USBFS_ENABLE_CDC_CLASS) */  
 613:.\Generated_Source\PSoC5/USBFS_std.c **** 
 614:.\Generated_Source\PSoC5/USBFS_std.c ****         pTmp = USBFS_GetConfigTablePtr(USBFS_configuration - 1u);
 615:.\Generated_Source\PSoC5/USBFS_std.c ****         
 616:.\Generated_Source\PSoC5/USBFS_std.c ****         /* Set Power status for current configuration */
 617:.\Generated_Source\PSoC5/USBFS_std.c ****         pDescr = (const uint8 *)pTmp->p_list;
 618:.\Generated_Source\PSoC5/USBFS_std.c ****         if ((pDescr[USBFS_CONFIG_DESCR_ATTRIB] & USBFS_CONFIG_DESCR_ATTRIB_SELF_POWERED) != 0u)
 619:.\Generated_Source\PSoC5/USBFS_std.c ****         {
 620:.\Generated_Source\PSoC5/USBFS_std.c ****             USBFS_deviceStatus |= (uint8)  USBFS_DEVICE_STATUS_SELF_POWERED;
 621:.\Generated_Source\PSoC5/USBFS_std.c ****         }
 622:.\Generated_Source\PSoC5/USBFS_std.c ****         else
 623:.\Generated_Source\PSoC5/USBFS_std.c ****         {
 624:.\Generated_Source\PSoC5/USBFS_std.c ****             USBFS_deviceStatus &= (uint8) ~USBFS_DEVICE_STATUS_SELF_POWERED;
 625:.\Generated_Source\PSoC5/USBFS_std.c ****         }
 626:.\Generated_Source\PSoC5/USBFS_std.c ****         
 627:.\Generated_Source\PSoC5/USBFS_std.c ****         /* Move to next element */
 628:.\Generated_Source\PSoC5/USBFS_std.c ****         pTmp = &pTmp[1u];
 629:.\Generated_Source\PSoC5/USBFS_std.c ****         ep = pTmp->c;  /* For this table, c is the number of endpoints configurations  */
 630:.\Generated_Source\PSoC5/USBFS_std.c **** 
 631:.\Generated_Source\PSoC5/USBFS_std.c ****         #if (USBFS_EP_MANAGEMENT_MANUAL && USBFS_EP_ALLOC_DYNAMIC)
 632:.\Generated_Source\PSoC5/USBFS_std.c ****             /* Configure for dynamic EP memory allocation */
 633:.\Generated_Source\PSoC5/USBFS_std.c ****             /* p_list points the endpoint setting table. */
 634:.\Generated_Source\PSoC5/USBFS_std.c ****             pEP = (T_USBFS_EP_SETTINGS_BLOCK *) pTmp->p_list;
 635:.\Generated_Source\PSoC5/USBFS_std.c ****             
 636:.\Generated_Source\PSoC5/USBFS_std.c ****             for (i = 0u; i < ep; i++)
 637:.\Generated_Source\PSoC5/USBFS_std.c ****             {     
 638:.\Generated_Source\PSoC5/USBFS_std.c ****                 /* Compare current Alternate setting with EP Alt */
 639:.\Generated_Source\PSoC5/USBFS_std.c ****                 if (USBFS_interfaceSetting[pEP->interface] == pEP->altSetting)
 640:.\Generated_Source\PSoC5/USBFS_std.c ****                 {                                                          
 641:.\Generated_Source\PSoC5/USBFS_std.c ****                     curEp  = pEP->addr & USBFS_DIR_UNUSED;
 642:.\Generated_Source\PSoC5/USBFS_std.c ****                     epType = pEP->attributes & USBFS_EP_TYPE_MASK;
 643:.\Generated_Source\PSoC5/USBFS_std.c ****                     
 644:.\Generated_Source\PSoC5/USBFS_std.c ****                     USBFS_EP[curEp].addr       = pEP->addr;
 645:.\Generated_Source\PSoC5/USBFS_std.c ****                     USBFS_EP[curEp].attrib     = pEP->attributes;
 646:.\Generated_Source\PSoC5/USBFS_std.c ****                     USBFS_EP[curEp].bufferSize = pEP->bufferSize;
ARM GAS  C:\Users\Patrick\AppData\Local\Temp\ccvH7eQO.s 			page 16


 647:.\Generated_Source\PSoC5/USBFS_std.c **** 
 648:.\Generated_Source\PSoC5/USBFS_std.c ****                     if (0u != (pEP->addr & USBFS_DIR_IN))
 649:.\Generated_Source\PSoC5/USBFS_std.c ****                     {
 650:.\Generated_Source\PSoC5/USBFS_std.c ****                         /* IN Endpoint */
 651:.\Generated_Source\PSoC5/USBFS_std.c ****                         USBFS_EP[curEp].epMode     = USBFS_GET_ACTIVE_IN_EP_CR0_MODE(epType);
 652:.\Generated_Source\PSoC5/USBFS_std.c ****                         USBFS_EP[curEp].apiEpState = USBFS_EVENT_PENDING;
 653:.\Generated_Source\PSoC5/USBFS_std.c ****                     
 654:.\Generated_Source\PSoC5/USBFS_std.c ****                     #if (defined(USBFS_ENABLE_MIDI_STREAMING) && (USBFS_MIDI_IN_BUFF_SIZE > 0))
 655:.\Generated_Source\PSoC5/USBFS_std.c ****                         if ((pEP->bMisc == USBFS_CLASS_AUDIO) && (epType == USBFS_EP_TYPE_BULK))
 656:.\Generated_Source\PSoC5/USBFS_std.c ****                         {
 657:.\Generated_Source\PSoC5/USBFS_std.c ****                             USBFS_midi_in_ep = curEp;
 658:.\Generated_Source\PSoC5/USBFS_std.c ****                         }
 659:.\Generated_Source\PSoC5/USBFS_std.c ****                     #endif  /* (USBFS_ENABLE_MIDI_STREAMING) */
 660:.\Generated_Source\PSoC5/USBFS_std.c ****                     }
 661:.\Generated_Source\PSoC5/USBFS_std.c ****                     else
 662:.\Generated_Source\PSoC5/USBFS_std.c ****                     {
 663:.\Generated_Source\PSoC5/USBFS_std.c ****                         /* OUT Endpoint */
 664:.\Generated_Source\PSoC5/USBFS_std.c ****                         USBFS_EP[curEp].epMode     = USBFS_GET_ACTIVE_OUT_EP_CR0_MODE(epType);
 665:.\Generated_Source\PSoC5/USBFS_std.c ****                         USBFS_EP[curEp].apiEpState = USBFS_NO_EVENT_PENDING;
 666:.\Generated_Source\PSoC5/USBFS_std.c ****                         
 667:.\Generated_Source\PSoC5/USBFS_std.c ****                     #if (defined(USBFS_ENABLE_MIDI_STREAMING) && (USBFS_MIDI_OUT_BUFF_SIZE > 0))
 668:.\Generated_Source\PSoC5/USBFS_std.c ****                         if ((pEP->bMisc == USBFS_CLASS_AUDIO) && (epType == USBFS_EP_TYPE_BULK))
 669:.\Generated_Source\PSoC5/USBFS_std.c ****                         {
 670:.\Generated_Source\PSoC5/USBFS_std.c ****                             USBFS_midi_out_ep = curEp;
 671:.\Generated_Source\PSoC5/USBFS_std.c ****                         }
 672:.\Generated_Source\PSoC5/USBFS_std.c ****                     #endif  /* (USBFS_ENABLE_MIDI_STREAMING) */
 673:.\Generated_Source\PSoC5/USBFS_std.c ****                     }
 674:.\Generated_Source\PSoC5/USBFS_std.c **** 
 675:.\Generated_Source\PSoC5/USBFS_std.c ****                 #if(defined (USBFS_ENABLE_CDC_CLASS))
 676:.\Generated_Source\PSoC5/USBFS_std.c ****                     if((pEP->bMisc == USBFS_CLASS_CDC_DATA) ||(pEP->bMisc == USBFS_CLASS_CDC))
 677:.\Generated_Source\PSoC5/USBFS_std.c ****                     {
 678:.\Generated_Source\PSoC5/USBFS_std.c ****                         cdcComNums = USBFS_Cdc_EpInit(pEP, curEp, cdcComNums);
 679:.\Generated_Source\PSoC5/USBFS_std.c ****                     }
 680:.\Generated_Source\PSoC5/USBFS_std.c ****                 #endif  /* (USBFS_ENABLE_CDC_CLASS) */
 681:.\Generated_Source\PSoC5/USBFS_std.c ****                 }
 682:.\Generated_Source\PSoC5/USBFS_std.c ****                 
 683:.\Generated_Source\PSoC5/USBFS_std.c ****                 pEP = &pEP[1u];
 684:.\Generated_Source\PSoC5/USBFS_std.c ****             }
 685:.\Generated_Source\PSoC5/USBFS_std.c ****             
 686:.\Generated_Source\PSoC5/USBFS_std.c ****         #else
 687:.\Generated_Source\PSoC5/USBFS_std.c ****             for (i = USBFS_EP1; i < USBFS_MAX_EP; ++i)
 688:.\Generated_Source\PSoC5/USBFS_std.c ****             {
 689:.\Generated_Source\PSoC5/USBFS_std.c ****                 /* p_list points the endpoint setting table. */
 690:.\Generated_Source\PSoC5/USBFS_std.c ****                 pEP = (const T_USBFS_EP_SETTINGS_BLOCK CYCODE *) pTmp->p_list;
 691:.\Generated_Source\PSoC5/USBFS_std.c ****                 /* Find max length for each EP and select it (length could be different in differen
 692:.\Generated_Source\PSoC5/USBFS_std.c ****                 /* but other settings should be correct with regards to Interface alt Setting */
 693:.\Generated_Source\PSoC5/USBFS_std.c ****                 
 694:.\Generated_Source\PSoC5/USBFS_std.c ****                 for (curEp = 0u; curEp < ep; ++curEp)
 695:.\Generated_Source\PSoC5/USBFS_std.c ****                 {
 696:.\Generated_Source\PSoC5/USBFS_std.c ****                     if (i == (pEP->addr & USBFS_DIR_UNUSED))
 697:.\Generated_Source\PSoC5/USBFS_std.c ****                     {
 698:.\Generated_Source\PSoC5/USBFS_std.c ****                         /* Compare endpoint buffers size with current size to find greater. */
 699:.\Generated_Source\PSoC5/USBFS_std.c ****                         if (USBFS_EP[i].bufferSize < pEP->bufferSize)
 700:.\Generated_Source\PSoC5/USBFS_std.c ****                         {
 701:.\Generated_Source\PSoC5/USBFS_std.c ****                             USBFS_EP[i].bufferSize = pEP->bufferSize;
 702:.\Generated_Source\PSoC5/USBFS_std.c ****                         }
 703:.\Generated_Source\PSoC5/USBFS_std.c ****                         
ARM GAS  C:\Users\Patrick\AppData\Local\Temp\ccvH7eQO.s 			page 17


 704:.\Generated_Source\PSoC5/USBFS_std.c ****                         /* Compare current Alternate setting with EP Alt */
 705:.\Generated_Source\PSoC5/USBFS_std.c ****                         if (USBFS_interfaceSetting[pEP->interface] == pEP->altSetting)
 706:.\Generated_Source\PSoC5/USBFS_std.c ****                         {                            
 707:.\Generated_Source\PSoC5/USBFS_std.c ****                             USBFS_EP[i].addr = pEP->addr;
 708:.\Generated_Source\PSoC5/USBFS_std.c ****                             USBFS_EP[i].attrib = pEP->attributes;
 709:.\Generated_Source\PSoC5/USBFS_std.c ****                             
 710:.\Generated_Source\PSoC5/USBFS_std.c ****                             epType = pEP->attributes & USBFS_EP_TYPE_MASK;
 711:.\Generated_Source\PSoC5/USBFS_std.c ****                             
 712:.\Generated_Source\PSoC5/USBFS_std.c ****                             if (0u != (pEP->addr & USBFS_DIR_IN))
 713:.\Generated_Source\PSoC5/USBFS_std.c ****                             {
 714:.\Generated_Source\PSoC5/USBFS_std.c ****                                 /* IN Endpoint */
 715:.\Generated_Source\PSoC5/USBFS_std.c ****                                 USBFS_EP[i].epMode     = USBFS_GET_ACTIVE_IN_EP_CR0_MODE(epType);
 716:.\Generated_Source\PSoC5/USBFS_std.c ****                                 USBFS_EP[i].apiEpState = USBFS_EVENT_PENDING;
 717:.\Generated_Source\PSoC5/USBFS_std.c ****                                 
 718:.\Generated_Source\PSoC5/USBFS_std.c ****                             #if (defined(USBFS_ENABLE_MIDI_STREAMING) && (USBFS_MIDI_IN_BUFF_SIZE >
 719:.\Generated_Source\PSoC5/USBFS_std.c ****                                 if ((pEP->bMisc == USBFS_CLASS_AUDIO) && (epType == USBFS_EP_TYPE_B
 720:.\Generated_Source\PSoC5/USBFS_std.c ****                                 {
 721:.\Generated_Source\PSoC5/USBFS_std.c ****                                     USBFS_midi_in_ep = i;
 722:.\Generated_Source\PSoC5/USBFS_std.c ****                                 }
 723:.\Generated_Source\PSoC5/USBFS_std.c ****                             #endif  /* (USBFS_ENABLE_MIDI_STREAMING) */
 724:.\Generated_Source\PSoC5/USBFS_std.c ****                             }
 725:.\Generated_Source\PSoC5/USBFS_std.c ****                             else
 726:.\Generated_Source\PSoC5/USBFS_std.c ****                             {
 727:.\Generated_Source\PSoC5/USBFS_std.c ****                                 /* OUT Endpoint */
 728:.\Generated_Source\PSoC5/USBFS_std.c ****                                 USBFS_EP[i].epMode     = USBFS_GET_ACTIVE_OUT_EP_CR0_MODE(epType);
 729:.\Generated_Source\PSoC5/USBFS_std.c ****                                 USBFS_EP[i].apiEpState = USBFS_NO_EVENT_PENDING;
 730:.\Generated_Source\PSoC5/USBFS_std.c ****                                 
 731:.\Generated_Source\PSoC5/USBFS_std.c ****                             #if (defined(USBFS_ENABLE_MIDI_STREAMING) && (USBFS_MIDI_OUT_BUFF_SIZE 
 732:.\Generated_Source\PSoC5/USBFS_std.c ****                                 if ((pEP->bMisc == USBFS_CLASS_AUDIO) && (epType == USBFS_EP_TYPE_B
 733:.\Generated_Source\PSoC5/USBFS_std.c ****                                 {
 734:.\Generated_Source\PSoC5/USBFS_std.c ****                                     USBFS_midi_out_ep = i;
 735:.\Generated_Source\PSoC5/USBFS_std.c ****                                 }
 736:.\Generated_Source\PSoC5/USBFS_std.c ****                             #endif  /* (USBFS_ENABLE_MIDI_STREAMING) */
 737:.\Generated_Source\PSoC5/USBFS_std.c ****                             }
 738:.\Generated_Source\PSoC5/USBFS_std.c **** 
 739:.\Generated_Source\PSoC5/USBFS_std.c ****                         #if (defined(USBFS_ENABLE_CDC_CLASS))
 740:.\Generated_Source\PSoC5/USBFS_std.c ****                             if((pEP->bMisc == USBFS_CLASS_CDC_DATA) ||(pEP->bMisc == USBFS_CLASS_CD
 741:.\Generated_Source\PSoC5/USBFS_std.c ****                             {
 742:.\Generated_Source\PSoC5/USBFS_std.c ****                                 cdcComNums = USBFS_Cdc_EpInit(pEP, i, cdcComNums);
 743:.\Generated_Source\PSoC5/USBFS_std.c ****                             }
 744:.\Generated_Source\PSoC5/USBFS_std.c ****                         #endif  /* (USBFS_ENABLE_CDC_CLASS) */
 745:.\Generated_Source\PSoC5/USBFS_std.c **** 
 746:.\Generated_Source\PSoC5/USBFS_std.c ****                             #if (USBFS_EP_MANAGEMENT_DMA_AUTO)
 747:.\Generated_Source\PSoC5/USBFS_std.c ****                                 break;  /* Use first EP setting in Auto memory management */
 748:.\Generated_Source\PSoC5/USBFS_std.c ****                             #endif /* (USBFS_EP_MANAGEMENT_DMA_AUTO) */
 749:.\Generated_Source\PSoC5/USBFS_std.c ****                         }
 750:.\Generated_Source\PSoC5/USBFS_std.c ****                     }
 751:.\Generated_Source\PSoC5/USBFS_std.c ****                     
 752:.\Generated_Source\PSoC5/USBFS_std.c ****                     pEP = &pEP[1u];
 753:.\Generated_Source\PSoC5/USBFS_std.c ****                 }
 754:.\Generated_Source\PSoC5/USBFS_std.c ****             }
 755:.\Generated_Source\PSoC5/USBFS_std.c ****         #endif /*  (USBFS_EP_MANAGEMENT_MANUAL && USBFS_EP_ALLOC_DYNAMIC) */
 756:.\Generated_Source\PSoC5/USBFS_std.c **** 
 757:.\Generated_Source\PSoC5/USBFS_std.c ****         /* Init class array for each interface and interface number for each EP.
 758:.\Generated_Source\PSoC5/USBFS_std.c ****         *  It is used for handling Class specific requests directed to either an
 759:.\Generated_Source\PSoC5/USBFS_std.c ****         *  interface or the endpoint.
 760:.\Generated_Source\PSoC5/USBFS_std.c ****         */
ARM GAS  C:\Users\Patrick\AppData\Local\Temp\ccvH7eQO.s 			page 18


 761:.\Generated_Source\PSoC5/USBFS_std.c ****         /* p_list points the endpoint setting table. */
 762:.\Generated_Source\PSoC5/USBFS_std.c ****         pEP = (const T_USBFS_EP_SETTINGS_BLOCK CYCODE *) pTmp->p_list;
 763:.\Generated_Source\PSoC5/USBFS_std.c ****         for (i = 0u; i < ep; i++)
 764:.\Generated_Source\PSoC5/USBFS_std.c ****         {
 765:.\Generated_Source\PSoC5/USBFS_std.c ****             /* Configure interface number for each EP */
 766:.\Generated_Source\PSoC5/USBFS_std.c ****             USBFS_EP[pEP->addr & USBFS_DIR_UNUSED].interface = pEP->interface;
 767:.\Generated_Source\PSoC5/USBFS_std.c ****             pEP = &pEP[1u];
 768:.\Generated_Source\PSoC5/USBFS_std.c ****         }
 769:.\Generated_Source\PSoC5/USBFS_std.c ****         
 770:.\Generated_Source\PSoC5/USBFS_std.c ****         /* Init pointer on interface class table */
 771:.\Generated_Source\PSoC5/USBFS_std.c ****         USBFS_interfaceClass = USBFS_GetInterfaceClassTablePtr();
 772:.\Generated_Source\PSoC5/USBFS_std.c ****         
 773:.\Generated_Source\PSoC5/USBFS_std.c ****     /* Set the endpoint buffer addresses */
 774:.\Generated_Source\PSoC5/USBFS_std.c ****     #if (!USBFS_EP_MANAGEMENT_DMA_AUTO)
 775:.\Generated_Source\PSoC5/USBFS_std.c ****         buffCount = 0u;
 776:.\Generated_Source\PSoC5/USBFS_std.c ****         for (ep = USBFS_EP1; ep < USBFS_MAX_EP; ++ep)
 777:.\Generated_Source\PSoC5/USBFS_std.c ****         {
 778:.\Generated_Source\PSoC5/USBFS_std.c ****             USBFS_EP[ep].buffOffset = buffCount;        
 779:.\Generated_Source\PSoC5/USBFS_std.c ****             buffCount += USBFS_EP[ep].bufferSize;
 780:.\Generated_Source\PSoC5/USBFS_std.c ****             
 781:.\Generated_Source\PSoC5/USBFS_std.c ****         #if (USBFS_GEN_16BITS_EP_ACCESS)
 782:.\Generated_Source\PSoC5/USBFS_std.c ****             /* Align EP buffers to be event size to access 16-bits DR register. */
 783:.\Generated_Source\PSoC5/USBFS_std.c ****             buffCount += (0u != (buffCount & 0x01u)) ? 1u : 0u;
 784:.\Generated_Source\PSoC5/USBFS_std.c ****         #endif /* (USBFS_GEN_16BITS_EP_ACCESS) */            
 785:.\Generated_Source\PSoC5/USBFS_std.c ****         }
 786:.\Generated_Source\PSoC5/USBFS_std.c ****     #endif /* (!USBFS_EP_MANAGEMENT_DMA_AUTO) */
 787:.\Generated_Source\PSoC5/USBFS_std.c **** 
 788:.\Generated_Source\PSoC5/USBFS_std.c ****         /* Configure hardware registers */
 789:.\Generated_Source\PSoC5/USBFS_std.c ****         USBFS_ConfigReg();
 790:.\Generated_Source\PSoC5/USBFS_std.c ****     }
 791:.\Generated_Source\PSoC5/USBFS_std.c **** }
 792:.\Generated_Source\PSoC5/USBFS_std.c **** 
 793:.\Generated_Source\PSoC5/USBFS_std.c **** 
 794:.\Generated_Source\PSoC5/USBFS_std.c **** /*******************************************************************************
 795:.\Generated_Source\PSoC5/USBFS_std.c **** * Function Name: USBFS_ConfigAltChanged
 796:.\Generated_Source\PSoC5/USBFS_std.c **** ****************************************************************************//**
 797:.\Generated_Source\PSoC5/USBFS_std.c **** *
 798:.\Generated_Source\PSoC5/USBFS_std.c **** *  This routine update configuration for the required endpoints only.
 799:.\Generated_Source\PSoC5/USBFS_std.c **** *  It is called after SET_INTERFACE request when Static memory allocation used.
 800:.\Generated_Source\PSoC5/USBFS_std.c **** *
 801:.\Generated_Source\PSoC5/USBFS_std.c **** * \reentrant
 802:.\Generated_Source\PSoC5/USBFS_std.c **** *  No.
 803:.\Generated_Source\PSoC5/USBFS_std.c **** *
 804:.\Generated_Source\PSoC5/USBFS_std.c **** *******************************************************************************/
 805:.\Generated_Source\PSoC5/USBFS_std.c **** void USBFS_ConfigAltChanged(void) 
 806:.\Generated_Source\PSoC5/USBFS_std.c **** {
 807:.\Generated_Source\PSoC5/USBFS_std.c ****     uint8 ep;
 808:.\Generated_Source\PSoC5/USBFS_std.c ****     uint8 curEp;
 809:.\Generated_Source\PSoC5/USBFS_std.c ****     uint8 epType;
 810:.\Generated_Source\PSoC5/USBFS_std.c ****     uint8 i;
 811:.\Generated_Source\PSoC5/USBFS_std.c ****     uint8 interfaceNum;
 812:.\Generated_Source\PSoC5/USBFS_std.c **** 
 813:.\Generated_Source\PSoC5/USBFS_std.c ****     const T_USBFS_LUT CYCODE *pTmp;
 814:.\Generated_Source\PSoC5/USBFS_std.c ****     const T_USBFS_EP_SETTINGS_BLOCK CYCODE *pEP;
 815:.\Generated_Source\PSoC5/USBFS_std.c **** 
 816:.\Generated_Source\PSoC5/USBFS_std.c ****     /* Init Endpoints and Device Status if configured */
 817:.\Generated_Source\PSoC5/USBFS_std.c ****     if (USBFS_configuration > 0u)
ARM GAS  C:\Users\Patrick\AppData\Local\Temp\ccvH7eQO.s 			page 19


 818:.\Generated_Source\PSoC5/USBFS_std.c ****     {
 819:.\Generated_Source\PSoC5/USBFS_std.c ****         /* Get number of endpoints configurations (ep). */
 820:.\Generated_Source\PSoC5/USBFS_std.c ****         pTmp = USBFS_GetConfigTablePtr(USBFS_configuration - 1u);
 821:.\Generated_Source\PSoC5/USBFS_std.c ****         pTmp = &pTmp[1u];
 822:.\Generated_Source\PSoC5/USBFS_std.c ****         ep = pTmp->c;
 823:.\Generated_Source\PSoC5/USBFS_std.c **** 
 824:.\Generated_Source\PSoC5/USBFS_std.c ****         /* Get pointer to endpoints setting table (pEP). */
 825:.\Generated_Source\PSoC5/USBFS_std.c ****         pEP = (const T_USBFS_EP_SETTINGS_BLOCK CYCODE *) pTmp->p_list;
 826:.\Generated_Source\PSoC5/USBFS_std.c ****         
 827:.\Generated_Source\PSoC5/USBFS_std.c ****         /* Look through all possible endpoint configurations. Find endpoints 
 828:.\Generated_Source\PSoC5/USBFS_std.c ****         * which belong to current interface and alternate settings for 
 829:.\Generated_Source\PSoC5/USBFS_std.c ****         * re-configuration.
 830:.\Generated_Source\PSoC5/USBFS_std.c ****         */
 831:.\Generated_Source\PSoC5/USBFS_std.c ****         interfaceNum = USBFS_interfaceNumber;
 832:.\Generated_Source\PSoC5/USBFS_std.c ****         for (i = 0u; i < ep; i++)
 833:.\Generated_Source\PSoC5/USBFS_std.c ****         {
 834:.\Generated_Source\PSoC5/USBFS_std.c ****             /* Find endpoints which belong to current interface and alternate settings. */
 835:.\Generated_Source\PSoC5/USBFS_std.c ****             if ((interfaceNum == pEP->interface) && 
 836:.\Generated_Source\PSoC5/USBFS_std.c ****                 (USBFS_interfaceSetting[interfaceNum] == pEP->altSetting))
 837:.\Generated_Source\PSoC5/USBFS_std.c ****             {
 838:.\Generated_Source\PSoC5/USBFS_std.c ****                 curEp  = ((uint8) pEP->addr & USBFS_DIR_UNUSED);
 839:.\Generated_Source\PSoC5/USBFS_std.c ****                 epType = ((uint8) pEP->attributes & USBFS_EP_TYPE_MASK);
 840:.\Generated_Source\PSoC5/USBFS_std.c ****                 
 841:.\Generated_Source\PSoC5/USBFS_std.c ****                 /* Change the SIE mode for the selected EP to NAK ALL */
 842:.\Generated_Source\PSoC5/USBFS_std.c ****                 USBFS_EP[curEp].epToggle   = 0u;
 843:.\Generated_Source\PSoC5/USBFS_std.c ****                 USBFS_EP[curEp].addr       = pEP->addr;
 844:.\Generated_Source\PSoC5/USBFS_std.c ****                 USBFS_EP[curEp].attrib     = pEP->attributes;
 845:.\Generated_Source\PSoC5/USBFS_std.c ****                 USBFS_EP[curEp].bufferSize = pEP->bufferSize;
 846:.\Generated_Source\PSoC5/USBFS_std.c **** 
 847:.\Generated_Source\PSoC5/USBFS_std.c ****                 if (0u != (pEP->addr & USBFS_DIR_IN))
 848:.\Generated_Source\PSoC5/USBFS_std.c ****                 {
 849:.\Generated_Source\PSoC5/USBFS_std.c ****                     /* IN Endpoint */
 850:.\Generated_Source\PSoC5/USBFS_std.c ****                     USBFS_EP[curEp].epMode     = USBFS_GET_ACTIVE_IN_EP_CR0_MODE(epType);
 851:.\Generated_Source\PSoC5/USBFS_std.c ****                     USBFS_EP[curEp].apiEpState = USBFS_EVENT_PENDING;
 852:.\Generated_Source\PSoC5/USBFS_std.c ****                 }
 853:.\Generated_Source\PSoC5/USBFS_std.c ****                 else
 854:.\Generated_Source\PSoC5/USBFS_std.c ****                 {
 855:.\Generated_Source\PSoC5/USBFS_std.c ****                     /* OUT Endpoint */
 856:.\Generated_Source\PSoC5/USBFS_std.c ****                     USBFS_EP[curEp].epMode     = USBFS_GET_ACTIVE_OUT_EP_CR0_MODE(epType);
 857:.\Generated_Source\PSoC5/USBFS_std.c ****                     USBFS_EP[curEp].apiEpState = USBFS_NO_EVENT_PENDING;
 858:.\Generated_Source\PSoC5/USBFS_std.c ****                 }
 859:.\Generated_Source\PSoC5/USBFS_std.c ****                 
 860:.\Generated_Source\PSoC5/USBFS_std.c ****                 /* Make SIE to NAK any endpoint requests */
 861:.\Generated_Source\PSoC5/USBFS_std.c ****                 USBFS_SIE_EP_BASE.sieEp[curEp].epCr0 = USBFS_MODE_NAK_IN_OUT;
 862:.\Generated_Source\PSoC5/USBFS_std.c **** 
 863:.\Generated_Source\PSoC5/USBFS_std.c ****             #if (USBFS_EP_MANAGEMENT_DMA_AUTO)
 864:.\Generated_Source\PSoC5/USBFS_std.c ****                 /* Clear IN data ready. */
 865:.\Generated_Source\PSoC5/USBFS_std.c ****                 USBFS_ARB_EP_BASE.arbEp[curEp].epCfg &= (uint8) ~USBFS_ARB_EPX_CFG_IN_DATA_RDY;
 866:.\Generated_Source\PSoC5/USBFS_std.c **** 
 867:.\Generated_Source\PSoC5/USBFS_std.c ****                 /* Select endpoint number of reconfiguration */
 868:.\Generated_Source\PSoC5/USBFS_std.c ****                 USBFS_DYN_RECONFIG_REG = (uint8) ((curEp - 1u) << USBFS_DYN_RECONFIG_EP_SHIFT);
 869:.\Generated_Source\PSoC5/USBFS_std.c ****                 
 870:.\Generated_Source\PSoC5/USBFS_std.c ****                 /* Request for dynamic re-configuration of endpoint. */
 871:.\Generated_Source\PSoC5/USBFS_std.c ****                 USBFS_DYN_RECONFIG_REG |= USBFS_DYN_RECONFIG_ENABLE;
 872:.\Generated_Source\PSoC5/USBFS_std.c ****                 
 873:.\Generated_Source\PSoC5/USBFS_std.c ****                 /* Wait until block is ready for re-configuration */
 874:.\Generated_Source\PSoC5/USBFS_std.c ****                 while (0u == (USBFS_DYN_RECONFIG_REG & USBFS_DYN_RECONFIG_RDY_STS))
ARM GAS  C:\Users\Patrick\AppData\Local\Temp\ccvH7eQO.s 			page 20


 875:.\Generated_Source\PSoC5/USBFS_std.c ****                 {
 876:.\Generated_Source\PSoC5/USBFS_std.c ****                 }
 877:.\Generated_Source\PSoC5/USBFS_std.c ****                 
 878:.\Generated_Source\PSoC5/USBFS_std.c ****                 /* Once DYN_RECONFIG_RDY_STS bit is set, FW can change the EP configuration. */
 879:.\Generated_Source\PSoC5/USBFS_std.c ****                 /* Change EP Type with new direction */
 880:.\Generated_Source\PSoC5/USBFS_std.c ****                 if (0u != (pEP->addr & USBFS_DIR_IN))
 881:.\Generated_Source\PSoC5/USBFS_std.c ****                 {
 882:.\Generated_Source\PSoC5/USBFS_std.c ****                     /* Set endpoint type: 0 - IN and 1 - OUT. */
 883:.\Generated_Source\PSoC5/USBFS_std.c ****                     USBFS_EP_TYPE_REG &= (uint8) ~(uint8)((uint8) 0x01u << (curEp - 1u));
 884:.\Generated_Source\PSoC5/USBFS_std.c ****                     
 885:.\Generated_Source\PSoC5/USBFS_std.c ****                 #if (CY_PSOC4)
 886:.\Generated_Source\PSoC5/USBFS_std.c ****                     /* Clear DMA_TERMIN for IN endpoint */
 887:.\Generated_Source\PSoC5/USBFS_std.c ****                     USBFS_ARB_EP_BASE.arbEp[curEp].epIntEn &= (uint32) ~USBFS_ARB_EPX_INT_DMA_TERMI
 888:.\Generated_Source\PSoC5/USBFS_std.c ****                 #endif /* (CY_PSOC4) */
 889:.\Generated_Source\PSoC5/USBFS_std.c ****                 }
 890:.\Generated_Source\PSoC5/USBFS_std.c ****                 else
 891:.\Generated_Source\PSoC5/USBFS_std.c ****                 {
 892:.\Generated_Source\PSoC5/USBFS_std.c ****                     /* Set endpoint type: 0 - IN and 1- OUT. */
 893:.\Generated_Source\PSoC5/USBFS_std.c ****                     USBFS_EP_TYPE_REG |= (uint8) ((uint8) 0x01u << (curEp - 1u));
 894:.\Generated_Source\PSoC5/USBFS_std.c ****                     
 895:.\Generated_Source\PSoC5/USBFS_std.c ****                 #if (CY_PSOC4)
 896:.\Generated_Source\PSoC5/USBFS_std.c ****                     /* Set DMA_TERMIN for OUT endpoint */
 897:.\Generated_Source\PSoC5/USBFS_std.c ****                     USBFS_ARB_EP_BASE.arbEp[curEp].epIntEn |= (uint32) USBFS_ARB_EPX_INT_DMA_TERMIN
 898:.\Generated_Source\PSoC5/USBFS_std.c ****                 #endif /* (CY_PSOC4) */
 899:.\Generated_Source\PSoC5/USBFS_std.c ****                 }
 900:.\Generated_Source\PSoC5/USBFS_std.c ****                 
 901:.\Generated_Source\PSoC5/USBFS_std.c ****                 /* Complete dynamic re-configuration: all endpoint related status and signals 
 902:.\Generated_Source\PSoC5/USBFS_std.c ****                 * are set into the default state.
 903:.\Generated_Source\PSoC5/USBFS_std.c ****                 */
 904:.\Generated_Source\PSoC5/USBFS_std.c ****                 USBFS_DYN_RECONFIG_REG &= (uint8) ~USBFS_DYN_RECONFIG_ENABLE;
 905:.\Generated_Source\PSoC5/USBFS_std.c **** 
 906:.\Generated_Source\PSoC5/USBFS_std.c ****             #else
 907:.\Generated_Source\PSoC5/USBFS_std.c ****                 USBFS_SIE_EP_BASE.sieEp[curEp].epCnt0 = HI8(USBFS_EP[curEp].bufferSize);
 908:.\Generated_Source\PSoC5/USBFS_std.c ****                 USBFS_SIE_EP_BASE.sieEp[curEp].epCnt1 = LO8(USBFS_EP[curEp].bufferSize);
 909:.\Generated_Source\PSoC5/USBFS_std.c ****                 
 910:.\Generated_Source\PSoC5/USBFS_std.c ****                 #if (CY_PSOC4)
 911:.\Generated_Source\PSoC5/USBFS_std.c ****                     USBFS_ARB_EP16_BASE.arbEp[curEp].rwRa16  = (uint32) USBFS_EP[curEp].buffOffset;
 912:.\Generated_Source\PSoC5/USBFS_std.c ****                     USBFS_ARB_EP16_BASE.arbEp[curEp].rwWa16  = (uint32) USBFS_EP[curEp].buffOffset;
 913:.\Generated_Source\PSoC5/USBFS_std.c ****                 #else
 914:.\Generated_Source\PSoC5/USBFS_std.c ****                     USBFS_ARB_EP_BASE.arbEp[curEp].rwRa    = LO8(USBFS_EP[curEp].buffOffset);
 915:.\Generated_Source\PSoC5/USBFS_std.c ****                     USBFS_ARB_EP_BASE.arbEp[curEp].rwRaMsb = HI8(USBFS_EP[curEp].buffOffset);
 916:.\Generated_Source\PSoC5/USBFS_std.c ****                     USBFS_ARB_EP_BASE.arbEp[curEp].rwWa    = LO8(USBFS_EP[curEp].buffOffset);
 917:.\Generated_Source\PSoC5/USBFS_std.c ****                     USBFS_ARB_EP_BASE.arbEp[curEp].rwWaMsb = HI8(USBFS_EP[curEp].buffOffset);
 918:.\Generated_Source\PSoC5/USBFS_std.c ****                 #endif /* (CY_PSOC4) */                
 919:.\Generated_Source\PSoC5/USBFS_std.c ****             #endif /* (USBFS_EP_MANAGEMENT_DMA_AUTO) */
 920:.\Generated_Source\PSoC5/USBFS_std.c ****             }
 921:.\Generated_Source\PSoC5/USBFS_std.c ****             
 922:.\Generated_Source\PSoC5/USBFS_std.c ****             pEP = &pEP[1u]; /* Get next EP element */
 923:.\Generated_Source\PSoC5/USBFS_std.c ****         }
 924:.\Generated_Source\PSoC5/USBFS_std.c ****         
 925:.\Generated_Source\PSoC5/USBFS_std.c ****         /* The main loop has to re-enable DMA and OUT endpoint */
 926:.\Generated_Source\PSoC5/USBFS_std.c ****     }
 927:.\Generated_Source\PSoC5/USBFS_std.c **** }
 928:.\Generated_Source\PSoC5/USBFS_std.c **** 
 929:.\Generated_Source\PSoC5/USBFS_std.c **** 
 930:.\Generated_Source\PSoC5/USBFS_std.c **** /*******************************************************************************
 931:.\Generated_Source\PSoC5/USBFS_std.c **** * Function Name: USBFS_GetConfigTablePtr
ARM GAS  C:\Users\Patrick\AppData\Local\Temp\ccvH7eQO.s 			page 21


 932:.\Generated_Source\PSoC5/USBFS_std.c **** ****************************************************************************//**
 933:.\Generated_Source\PSoC5/USBFS_std.c **** *
 934:.\Generated_Source\PSoC5/USBFS_std.c **** *  This routine returns a pointer a configuration table entry
 935:.\Generated_Source\PSoC5/USBFS_std.c **** *
 936:.\Generated_Source\PSoC5/USBFS_std.c **** *  \param confIndex:  Configuration Index
 937:.\Generated_Source\PSoC5/USBFS_std.c **** *
 938:.\Generated_Source\PSoC5/USBFS_std.c **** * \return
 939:.\Generated_Source\PSoC5/USBFS_std.c **** *  Device Descriptor pointer or NULL when descriptor does not exist.
 940:.\Generated_Source\PSoC5/USBFS_std.c **** *
 941:.\Generated_Source\PSoC5/USBFS_std.c **** *******************************************************************************/
 942:.\Generated_Source\PSoC5/USBFS_std.c **** const T_USBFS_LUT CYCODE *USBFS_GetConfigTablePtr(uint8 confIndex)
 943:.\Generated_Source\PSoC5/USBFS_std.c ****                                                         
 944:.\Generated_Source\PSoC5/USBFS_std.c **** {
 206              		.loc 1 944 0
 207              		.cfi_startproc
 208              		@ args = 0, pretend = 0, frame = 0
 209              		@ frame_needed = 0, uses_anonymous_args = 0
 210              		@ link register save eliminated.
 211              	.LVL9:
 945:.\Generated_Source\PSoC5/USBFS_std.c ****     /* Device Table */
 946:.\Generated_Source\PSoC5/USBFS_std.c ****     const T_USBFS_LUT CYCODE *pTmp;
 947:.\Generated_Source\PSoC5/USBFS_std.c **** 
 948:.\Generated_Source\PSoC5/USBFS_std.c ****     pTmp = (const T_USBFS_LUT CYCODE *) USBFS_TABLE[USBFS_device].p_list;
 212              		.loc 1 948 0
 213 0000 074B     		ldr	r3, .L20
 214 0002 1B78     		ldrb	r3, [r3]	@ zero_extendqisi2
 215 0004 074A     		ldr	r2, .L20+4
 216 0006 02EBC302 		add	r2, r2, r3, lsl #3
 217 000a 5368     		ldr	r3, [r2, #4]
 218              	.LVL10:
 949:.\Generated_Source\PSoC5/USBFS_std.c **** 
 950:.\Generated_Source\PSoC5/USBFS_std.c ****     /* The first entry points to the Device Descriptor,
 951:.\Generated_Source\PSoC5/USBFS_std.c ****     *  the second entry point to the BOS Descriptor
 952:.\Generated_Source\PSoC5/USBFS_std.c ****     *  the rest configuration entries.
 953:.\Generated_Source\PSoC5/USBFS_std.c ****     *  Set pointer to the first Configuration Descriptor
 954:.\Generated_Source\PSoC5/USBFS_std.c ****     */
 955:.\Generated_Source\PSoC5/USBFS_std.c ****     pTmp = &pTmp[2u];
 956:.\Generated_Source\PSoC5/USBFS_std.c ****     /* For this table, c is the number of configuration descriptors  */
 957:.\Generated_Source\PSoC5/USBFS_std.c ****     if(confIndex >= pTmp->c)   /* Verify that required configuration descriptor exists */
 219              		.loc 1 957 0
 220 000c 1A7C     		ldrb	r2, [r3, #16]	@ zero_extendqisi2
 221 000e 8242     		cmp	r2, r0
 222 0010 03D9     		bls	.L19
 223 0012 03EBC003 		add	r3, r3, r0, lsl #3
 224              	.LVL11:
 958:.\Generated_Source\PSoC5/USBFS_std.c ****     {
 959:.\Generated_Source\PSoC5/USBFS_std.c ****         pTmp = (const T_USBFS_LUT CYCODE *) NULL;
 960:.\Generated_Source\PSoC5/USBFS_std.c ****     }
 961:.\Generated_Source\PSoC5/USBFS_std.c ****     else
 962:.\Generated_Source\PSoC5/USBFS_std.c ****     {
 963:.\Generated_Source\PSoC5/USBFS_std.c ****         pTmp = (const T_USBFS_LUT CYCODE *) pTmp[confIndex].p_list;
 225              		.loc 1 963 0
 226 0016 5869     		ldr	r0, [r3, #20]
 227              	.LVL12:
 228 0018 7047     		bx	lr
 229              	.LVL13:
 230              	.L19:
ARM GAS  C:\Users\Patrick\AppData\Local\Temp\ccvH7eQO.s 			page 22


 959:.\Generated_Source\PSoC5/USBFS_std.c ****     }
 231              		.loc 1 959 0
 232 001a 0020     		movs	r0, #0
 233              	.LVL14:
 964:.\Generated_Source\PSoC5/USBFS_std.c ****     }
 965:.\Generated_Source\PSoC5/USBFS_std.c **** 
 966:.\Generated_Source\PSoC5/USBFS_std.c ****     return (pTmp);
 967:.\Generated_Source\PSoC5/USBFS_std.c **** }
 234              		.loc 1 967 0
 235 001c 7047     		bx	lr
 236              	.L21:
 237 001e 00BF     		.align	2
 238              	.L20:
 239 0020 00000000 		.word	USBFS_device
 240 0024 00000000 		.word	USBFS_TABLE
 241              		.cfi_endproc
 242              	.LFE5:
 243              		.size	USBFS_GetConfigTablePtr, .-USBFS_GetConfigTablePtr
 244              		.section	.text.USBFS_ConfigAltChanged,"ax",%progbits
 245              		.align	2
 246              		.global	USBFS_ConfigAltChanged
 247              		.thumb
 248              		.thumb_func
 249              		.type	USBFS_ConfigAltChanged, %function
 250              	USBFS_ConfigAltChanged:
 251              	.LFB4:
 806:.\Generated_Source\PSoC5/USBFS_std.c ****     uint8 ep;
 252              		.loc 1 806 0
 253              		.cfi_startproc
 254              		@ args = 0, pretend = 0, frame = 0
 255              		@ frame_needed = 0, uses_anonymous_args = 0
 256 0000 F8B5     		push	{r3, r4, r5, r6, r7, lr}
 257              		.cfi_def_cfa_offset 24
 258              		.cfi_offset 3, -24
 259              		.cfi_offset 4, -20
 260              		.cfi_offset 5, -16
 261              		.cfi_offset 6, -12
 262              		.cfi_offset 7, -8
 263              		.cfi_offset 14, -4
 817:.\Generated_Source\PSoC5/USBFS_std.c ****     {
 264              		.loc 1 817 0
 265 0002 404B     		ldr	r3, .L34
 266 0004 1B78     		ldrb	r3, [r3]	@ zero_extendqisi2
 267 0006 13F0FF0F 		tst	r3, #255
 268 000a 79D0     		beq	.L22
 820:.\Generated_Source\PSoC5/USBFS_std.c ****         pTmp = &pTmp[1u];
 269              		.loc 1 820 0
 270 000c 3D4B     		ldr	r3, .L34
 271 000e 1878     		ldrb	r0, [r3]	@ zero_extendqisi2
 272 0010 0138     		subs	r0, r0, #1
 273 0012 C0B2     		uxtb	r0, r0
 274 0014 FFF7FEFF 		bl	USBFS_GetConfigTablePtr
 275              	.LVL15:
 822:.\Generated_Source\PSoC5/USBFS_std.c **** 
 276              		.loc 1 822 0
 277 0018 047A     		ldrb	r4, [r0, #8]	@ zero_extendqisi2
 278              	.LVL16:
ARM GAS  C:\Users\Patrick\AppData\Local\Temp\ccvH7eQO.s 			page 23


 825:.\Generated_Source\PSoC5/USBFS_std.c ****         
 279              		.loc 1 825 0
 280 001a C268     		ldr	r2, [r0, #12]
 281              	.LVL17:
 831:.\Generated_Source\PSoC5/USBFS_std.c ****         for (i = 0u; i < ep; i++)
 282              		.loc 1 831 0
 283 001c 3A4B     		ldr	r3, .L34+4
 284 001e 1878     		ldrb	r0, [r3]	@ zero_extendqisi2
 285              	.LVL18:
 286 0020 C0B2     		uxtb	r0, r0
 287              	.LVL19:
 832:.\Generated_Source\PSoC5/USBFS_std.c ****         {
 288              		.loc 1 832 0
 289 0022 0023     		movs	r3, #0
 290 0024 6AE0     		b	.L24
 291              	.LVL20:
 292              	.L30:
 835:.\Generated_Source\PSoC5/USBFS_std.c ****                 (USBFS_interfaceSetting[interfaceNum] == pEP->altSetting))
 293              		.loc 1 835 0
 294 0026 1178     		ldrb	r1, [r2]	@ zero_extendqisi2
 295 0028 8142     		cmp	r1, r0
 296 002a 64D1     		bne	.L25
 836:.\Generated_Source\PSoC5/USBFS_std.c ****             {
 297              		.loc 1 836 0 discriminator 1
 298 002c 3749     		ldr	r1, .L34+8
 299 002e 095C     		ldrb	r1, [r1, r0]	@ zero_extendqisi2
 300 0030 C9B2     		uxtb	r1, r1
 301 0032 5578     		ldrb	r5, [r2, #1]	@ zero_extendqisi2
 835:.\Generated_Source\PSoC5/USBFS_std.c ****                 (USBFS_interfaceSetting[interfaceNum] == pEP->altSetting))
 302              		.loc 1 835 0 discriminator 1
 303 0034 A942     		cmp	r1, r5
 304 0036 5ED1     		bne	.L25
 838:.\Generated_Source\PSoC5/USBFS_std.c ****                 epType = ((uint8) pEP->attributes & USBFS_EP_TYPE_MASK);
 305              		.loc 1 838 0
 306 0038 9178     		ldrb	r1, [r2, #2]	@ zero_extendqisi2
 307 003a 01F07F01 		and	r1, r1, #127
 308              	.LVL21:
 839:.\Generated_Source\PSoC5/USBFS_std.c ****                 
 309              		.loc 1 839 0
 310 003e D678     		ldrb	r6, [r2, #3]	@ zero_extendqisi2
 311 0040 06F00306 		and	r6, r6, #3
 312              	.LVL22:
 842:.\Generated_Source\PSoC5/USBFS_std.c ****                 USBFS_EP[curEp].addr       = pEP->addr;
 313              		.loc 1 842 0
 314 0044 DFF8C8E0 		ldr	lr, .L34+12
 315 0048 4D00     		lsls	r5, r1, #1
 316 004a 0D44     		add	r5, r5, r1
 317 004c AD00     		lsls	r5, r5, #2
 318 004e 0EEB0507 		add	r7, lr, r5
 319 0052 4FF0000C 		mov	ip, #0
 320 0056 87F803C0 		strb	ip, [r7, #3]
 843:.\Generated_Source\PSoC5/USBFS_std.c ****                 USBFS_EP[curEp].attrib     = pEP->attributes;
 321              		.loc 1 843 0
 322 005a 92F802C0 		ldrb	ip, [r2, #2]	@ zero_extendqisi2
 323 005e 87F804C0 		strb	ip, [r7, #4]
 844:.\Generated_Source\PSoC5/USBFS_std.c ****                 USBFS_EP[curEp].bufferSize = pEP->bufferSize;
 324              		.loc 1 844 0
ARM GAS  C:\Users\Patrick\AppData\Local\Temp\ccvH7eQO.s 			page 24


 325 0062 92F803C0 		ldrb	ip, [r2, #3]	@ zero_extendqisi2
 326 0066 0EF805C0 		strb	ip, [lr, r5]
 845:.\Generated_Source\PSoC5/USBFS_std.c **** 
 327              		.loc 1 845 0
 328 006a 9588     		ldrh	r5, [r2, #4]
 329 006c 3D81     		strh	r5, [r7, #8]	@ movhi
 847:.\Generated_Source\PSoC5/USBFS_std.c ****                 {
 330              		.loc 1 847 0
 331 006e 92F90250 		ldrsb	r5, [r2, #2]
 332 0072 002D     		cmp	r5, #0
 333 0074 0DDA     		bge	.L26
 850:.\Generated_Source\PSoC5/USBFS_std.c ****                     USBFS_EP[curEp].apiEpState = USBFS_EVENT_PENDING;
 334              		.loc 1 850 0
 335 0076 012E     		cmp	r6, #1
 336 0078 01D1     		bne	.L31
 337 007a 0727     		movs	r7, #7
 338 007c 00E0     		b	.L27
 339              	.L31:
 340 007e 0D27     		movs	r7, #13
 341              	.L27:
 850:.\Generated_Source\PSoC5/USBFS_std.c ****                     USBFS_EP[curEp].apiEpState = USBFS_EVENT_PENDING;
 342              		.loc 1 850 0 is_stmt 0 discriminator 4
 343 0080 4D00     		lsls	r5, r1, #1
 344 0082 0D44     		add	r5, r5, r1
 345 0084 AD00     		lsls	r5, r5, #2
 346 0086 224E     		ldr	r6, .L34+12
 347              	.LVL23:
 348 0088 3544     		add	r5, r5, r6
 349 008a 6F71     		strb	r7, [r5, #5]
 851:.\Generated_Source\PSoC5/USBFS_std.c ****                 }
 350              		.loc 1 851 0 is_stmt 1 discriminator 4
 351 008c 0126     		movs	r6, #1
 352 008e 6E70     		strb	r6, [r5, #1]
 353 0090 0CE0     		b	.L28
 354              	.LVL24:
 355              	.L26:
 856:.\Generated_Source\PSoC5/USBFS_std.c ****                     USBFS_EP[curEp].apiEpState = USBFS_NO_EVENT_PENDING;
 356              		.loc 1 856 0
 357 0092 012E     		cmp	r6, #1
 358 0094 01D1     		bne	.L32
 359 0096 0527     		movs	r7, #5
 360 0098 00E0     		b	.L29
 361              	.L32:
 362 009a 0927     		movs	r7, #9
 363              	.L29:
 856:.\Generated_Source\PSoC5/USBFS_std.c ****                     USBFS_EP[curEp].apiEpState = USBFS_NO_EVENT_PENDING;
 364              		.loc 1 856 0 is_stmt 0 discriminator 4
 365 009c 4D00     		lsls	r5, r1, #1
 366 009e 0D44     		add	r5, r5, r1
 367 00a0 AD00     		lsls	r5, r5, #2
 368 00a2 1B4E     		ldr	r6, .L34+12
 369              	.LVL25:
 370 00a4 3544     		add	r5, r5, r6
 371 00a6 6F71     		strb	r7, [r5, #5]
 857:.\Generated_Source\PSoC5/USBFS_std.c ****                 }
 372              		.loc 1 857 0 is_stmt 1 discriminator 4
 373 00a8 0026     		movs	r6, #0
ARM GAS  C:\Users\Patrick\AppData\Local\Temp\ccvH7eQO.s 			page 25


 374 00aa 6E70     		strb	r6, [r5, #1]
 375              	.L28:
 861:.\Generated_Source\PSoC5/USBFS_std.c **** 
 376              		.loc 1 861 0
 377 00ac DFF868E0 		ldr	lr, .L34+20
 378 00b0 0F01     		lsls	r7, r1, #4
 379 00b2 0EEB0706 		add	r6, lr, r7
 380 00b6 0125     		movs	r5, #1
 381 00b8 B570     		strb	r5, [r6, #2]
 907:.\Generated_Source\PSoC5/USBFS_std.c ****                 USBFS_SIE_EP_BASE.sieEp[curEp].epCnt1 = LO8(USBFS_EP[curEp].bufferSize);
 382              		.loc 1 907 0
 383 00ba 01FA05F5 		lsl	r5, r1, r5
 384 00be 2944     		add	r1, r1, r5
 385              	.LVL26:
 386 00c0 8900     		lsls	r1, r1, #2
 387 00c2 134D     		ldr	r5, .L34+12
 388 00c4 2944     		add	r1, r1, r5
 389 00c6 0D89     		ldrh	r5, [r1, #8]
 390 00c8 C5F30725 		ubfx	r5, r5, #8, #8
 391 00cc 0EF80750 		strb	r5, [lr, r7]
 908:.\Generated_Source\PSoC5/USBFS_std.c ****                 
 392              		.loc 1 908 0
 393 00d0 0D89     		ldrh	r5, [r1, #8]
 394 00d2 EDB2     		uxtb	r5, r5
 395 00d4 7570     		strb	r5, [r6, #1]
 914:.\Generated_Source\PSoC5/USBFS_std.c ****                     USBFS_ARB_EP_BASE.arbEp[curEp].rwRaMsb = HI8(USBFS_EP[curEp].buffOffset);
 396              		.loc 1 914 0
 397 00d6 CE88     		ldrh	r6, [r1, #6]
 398 00d8 F6B2     		uxtb	r6, r6
 399 00da 0E4D     		ldr	r5, .L34+16
 400 00dc 3D44     		add	r5, r5, r7
 401 00de AE71     		strb	r6, [r5, #6]
 915:.\Generated_Source\PSoC5/USBFS_std.c ****                     USBFS_ARB_EP_BASE.arbEp[curEp].rwWa    = LO8(USBFS_EP[curEp].buffOffset);
 402              		.loc 1 915 0
 403 00e0 CE88     		ldrh	r6, [r1, #6]
 404 00e2 C6F30726 		ubfx	r6, r6, #8, #8
 405 00e6 EE71     		strb	r6, [r5, #7]
 916:.\Generated_Source\PSoC5/USBFS_std.c ****                     USBFS_ARB_EP_BASE.arbEp[curEp].rwWaMsb = HI8(USBFS_EP[curEp].buffOffset);
 406              		.loc 1 916 0
 407 00e8 CE88     		ldrh	r6, [r1, #6]
 408 00ea F6B2     		uxtb	r6, r6
 409 00ec 2E71     		strb	r6, [r5, #4]
 917:.\Generated_Source\PSoC5/USBFS_std.c ****                 #endif /* (CY_PSOC4) */                
 410              		.loc 1 917 0
 411 00ee C988     		ldrh	r1, [r1, #6]
 412 00f0 C1F30721 		ubfx	r1, r1, #8, #8
 413 00f4 6971     		strb	r1, [r5, #5]
 414              	.L25:
 922:.\Generated_Source\PSoC5/USBFS_std.c ****         }
 415              		.loc 1 922 0 discriminator 2
 416 00f6 0832     		adds	r2, r2, #8
 417              	.LVL27:
 832:.\Generated_Source\PSoC5/USBFS_std.c ****         {
 418              		.loc 1 832 0 discriminator 2
 419 00f8 0133     		adds	r3, r3, #1
 420              	.LVL28:
 421 00fa DBB2     		uxtb	r3, r3
ARM GAS  C:\Users\Patrick\AppData\Local\Temp\ccvH7eQO.s 			page 26


 422              	.LVL29:
 423              	.L24:
 832:.\Generated_Source\PSoC5/USBFS_std.c ****         {
 424              		.loc 1 832 0 is_stmt 0 discriminator 1
 425 00fc A342     		cmp	r3, r4
 426 00fe 92D3     		bcc	.L30
 427              	.LVL30:
 428              	.L22:
 429 0100 F8BD     		pop	{r3, r4, r5, r6, r7, pc}
 430              	.L35:
 431 0102 00BF     		.align	2
 432              	.L34:
 433 0104 00000000 		.word	USBFS_configuration
 434 0108 00000000 		.word	USBFS_interfaceNumber
 435 010c 00000000 		.word	USBFS_interfaceSetting
 436 0110 00000000 		.word	USBFS_EP
 437 0114 70600040 		.word	1073766512
 438 0118 FC5F0040 		.word	1073766396
 439              		.cfi_endproc
 440              	.LFE4:
 441              		.size	USBFS_ConfigAltChanged, .-USBFS_ConfigAltChanged
 442              		.section	.text.USBFS_GetDeviceTablePtr,"ax",%progbits
 443              		.align	2
 444              		.global	USBFS_GetDeviceTablePtr
 445              		.thumb
 446              		.thumb_func
 447              		.type	USBFS_GetDeviceTablePtr, %function
 448              	USBFS_GetDeviceTablePtr:
 449              	.LFB6:
 968:.\Generated_Source\PSoC5/USBFS_std.c **** 
 969:.\Generated_Source\PSoC5/USBFS_std.c **** 
 970:.\Generated_Source\PSoC5/USBFS_std.c **** #if (USBFS_BOS_ENABLE)
 971:.\Generated_Source\PSoC5/USBFS_std.c ****     /*******************************************************************************
 972:.\Generated_Source\PSoC5/USBFS_std.c ****     * Function Name: USBFS_GetBOSPtr
 973:.\Generated_Source\PSoC5/USBFS_std.c ****     ****************************************************************************//**
 974:.\Generated_Source\PSoC5/USBFS_std.c ****     *
 975:.\Generated_Source\PSoC5/USBFS_std.c ****     *  This routine returns a pointer a BOS table entry
 976:.\Generated_Source\PSoC5/USBFS_std.c ****     *
 977:.\Generated_Source\PSoC5/USBFS_std.c ****     *  
 978:.\Generated_Source\PSoC5/USBFS_std.c ****     *
 979:.\Generated_Source\PSoC5/USBFS_std.c ****     * \return
 980:.\Generated_Source\PSoC5/USBFS_std.c ****     *  BOS Descriptor pointer or NULL when descriptor does not exist.
 981:.\Generated_Source\PSoC5/USBFS_std.c ****     *
 982:.\Generated_Source\PSoC5/USBFS_std.c ****     *******************************************************************************/
 983:.\Generated_Source\PSoC5/USBFS_std.c ****     const T_USBFS_LUT CYCODE *USBFS_GetBOSPtr(void)
 984:.\Generated_Source\PSoC5/USBFS_std.c ****                                                             
 985:.\Generated_Source\PSoC5/USBFS_std.c ****     {
 986:.\Generated_Source\PSoC5/USBFS_std.c ****         /* Device Table */
 987:.\Generated_Source\PSoC5/USBFS_std.c ****         const T_USBFS_LUT CYCODE *pTmp;
 988:.\Generated_Source\PSoC5/USBFS_std.c **** 
 989:.\Generated_Source\PSoC5/USBFS_std.c ****         pTmp = (const T_USBFS_LUT CYCODE *) USBFS_TABLE[USBFS_device].p_list;
 990:.\Generated_Source\PSoC5/USBFS_std.c **** 
 991:.\Generated_Source\PSoC5/USBFS_std.c ****         /* The first entry points to the Device Descriptor,
 992:.\Generated_Source\PSoC5/USBFS_std.c ****         *  the second entry points to the BOS Descriptor
 993:.\Generated_Source\PSoC5/USBFS_std.c ****         */
 994:.\Generated_Source\PSoC5/USBFS_std.c ****         pTmp = &pTmp[1u];
 995:.\Generated_Source\PSoC5/USBFS_std.c ****         pTmp = (const T_USBFS_LUT CYCODE *) pTmp->p_list;
ARM GAS  C:\Users\Patrick\AppData\Local\Temp\ccvH7eQO.s 			page 27


 996:.\Generated_Source\PSoC5/USBFS_std.c ****         return (pTmp);
 997:.\Generated_Source\PSoC5/USBFS_std.c ****     }
 998:.\Generated_Source\PSoC5/USBFS_std.c **** #endif /* (USBFS_BOS_ENABLE) */
 999:.\Generated_Source\PSoC5/USBFS_std.c **** 
1000:.\Generated_Source\PSoC5/USBFS_std.c **** 
1001:.\Generated_Source\PSoC5/USBFS_std.c **** /*******************************************************************************
1002:.\Generated_Source\PSoC5/USBFS_std.c **** * Function Name: USBFS_GetDeviceTablePtr
1003:.\Generated_Source\PSoC5/USBFS_std.c **** ****************************************************************************//**
1004:.\Generated_Source\PSoC5/USBFS_std.c **** *
1005:.\Generated_Source\PSoC5/USBFS_std.c **** *  This routine returns a pointer to the Device table
1006:.\Generated_Source\PSoC5/USBFS_std.c **** *
1007:.\Generated_Source\PSoC5/USBFS_std.c **** * \return
1008:.\Generated_Source\PSoC5/USBFS_std.c **** *  Device Table pointer
1009:.\Generated_Source\PSoC5/USBFS_std.c **** *
1010:.\Generated_Source\PSoC5/USBFS_std.c **** *******************************************************************************/
1011:.\Generated_Source\PSoC5/USBFS_std.c **** const T_USBFS_LUT CYCODE *USBFS_GetDeviceTablePtr(void)
1012:.\Generated_Source\PSoC5/USBFS_std.c ****                                                             
1013:.\Generated_Source\PSoC5/USBFS_std.c **** {
 450              		.loc 1 1013 0 is_stmt 1
 451              		.cfi_startproc
 452              		@ args = 0, pretend = 0, frame = 0
 453              		@ frame_needed = 0, uses_anonymous_args = 0
 454              		@ link register save eliminated.
1014:.\Generated_Source\PSoC5/USBFS_std.c ****     /* Device Table */
1015:.\Generated_Source\PSoC5/USBFS_std.c ****     return( (const T_USBFS_LUT CYCODE *) USBFS_TABLE[USBFS_device].p_list );
 455              		.loc 1 1015 0
 456 0000 034B     		ldr	r3, .L37
 457 0002 1A78     		ldrb	r2, [r3]	@ zero_extendqisi2
 458 0004 034B     		ldr	r3, .L37+4
 459 0006 03EBC203 		add	r3, r3, r2, lsl #3
1016:.\Generated_Source\PSoC5/USBFS_std.c **** }
 460              		.loc 1 1016 0
 461 000a 5868     		ldr	r0, [r3, #4]
 462 000c 7047     		bx	lr
 463              	.L38:
 464 000e 00BF     		.align	2
 465              	.L37:
 466 0010 00000000 		.word	USBFS_device
 467 0014 00000000 		.word	USBFS_TABLE
 468              		.cfi_endproc
 469              	.LFE6:
 470              		.size	USBFS_GetDeviceTablePtr, .-USBFS_GetDeviceTablePtr
 471              		.section	.text.USBFS_GetInterfaceClassTablePtr,"ax",%progbits
 472              		.align	2
 473              		.global	USBFS_GetInterfaceClassTablePtr
 474              		.thumb
 475              		.thumb_func
 476              		.type	USBFS_GetInterfaceClassTablePtr, %function
 477              	USBFS_GetInterfaceClassTablePtr:
 478              	.LFB7:
1017:.\Generated_Source\PSoC5/USBFS_std.c **** 
1018:.\Generated_Source\PSoC5/USBFS_std.c **** 
1019:.\Generated_Source\PSoC5/USBFS_std.c **** /*******************************************************************************
1020:.\Generated_Source\PSoC5/USBFS_std.c **** * Function Name: USB_GetInterfaceClassTablePtr
1021:.\Generated_Source\PSoC5/USBFS_std.c **** ****************************************************************************//**
1022:.\Generated_Source\PSoC5/USBFS_std.c **** *
1023:.\Generated_Source\PSoC5/USBFS_std.c **** *  This routine returns Interface Class table pointer, which contains
ARM GAS  C:\Users\Patrick\AppData\Local\Temp\ccvH7eQO.s 			page 28


1024:.\Generated_Source\PSoC5/USBFS_std.c **** *  the relation between interface number and interface class.
1025:.\Generated_Source\PSoC5/USBFS_std.c **** *
1026:.\Generated_Source\PSoC5/USBFS_std.c **** * \return
1027:.\Generated_Source\PSoC5/USBFS_std.c **** *  Interface Class table pointer.
1028:.\Generated_Source\PSoC5/USBFS_std.c **** *
1029:.\Generated_Source\PSoC5/USBFS_std.c **** *******************************************************************************/
1030:.\Generated_Source\PSoC5/USBFS_std.c **** const uint8 CYCODE *USBFS_GetInterfaceClassTablePtr(void)
1031:.\Generated_Source\PSoC5/USBFS_std.c ****                                                         
1032:.\Generated_Source\PSoC5/USBFS_std.c **** {
 479              		.loc 1 1032 0
 480              		.cfi_startproc
 481              		@ args = 0, pretend = 0, frame = 0
 482              		@ frame_needed = 0, uses_anonymous_args = 0
 483 0000 08B5     		push	{r3, lr}
 484              		.cfi_def_cfa_offset 8
 485              		.cfi_offset 3, -8
 486              		.cfi_offset 14, -4
1033:.\Generated_Source\PSoC5/USBFS_std.c ****     const T_USBFS_LUT CYCODE *pTmp;
1034:.\Generated_Source\PSoC5/USBFS_std.c ****     const uint8 CYCODE *pInterfaceClass;
1035:.\Generated_Source\PSoC5/USBFS_std.c ****     uint8 currentInterfacesNum;
1036:.\Generated_Source\PSoC5/USBFS_std.c **** 
1037:.\Generated_Source\PSoC5/USBFS_std.c ****     pTmp = USBFS_GetConfigTablePtr(USBFS_configuration - 1u);
 487              		.loc 1 1037 0
 488 0002 074B     		ldr	r3, .L43
 489 0004 1878     		ldrb	r0, [r3]	@ zero_extendqisi2
 490 0006 0138     		subs	r0, r0, #1
 491 0008 C0B2     		uxtb	r0, r0
 492 000a FFF7FEFF 		bl	USBFS_GetConfigTablePtr
 493              	.LVL31:
1038:.\Generated_Source\PSoC5/USBFS_std.c ****     if (pTmp != NULL)
 494              		.loc 1 1038 0
 495 000e 28B1     		cbz	r0, .L41
1039:.\Generated_Source\PSoC5/USBFS_std.c ****     {
1040:.\Generated_Source\PSoC5/USBFS_std.c ****         currentInterfacesNum  = ((const uint8 *) pTmp->p_list)[USBFS_CONFIG_DESCR_NUM_INTERFACES];
 496              		.loc 1 1040 0
 497 0010 4268     		ldr	r2, [r0, #4]
 498 0012 1279     		ldrb	r2, [r2, #4]	@ zero_extendqisi2
 499              	.LVL32:
1041:.\Generated_Source\PSoC5/USBFS_std.c ****         /* Third entry in the LUT starts the Interface Table pointers */
1042:.\Generated_Source\PSoC5/USBFS_std.c ****         /* The INTERFACE_CLASS table is located after all interfaces */
1043:.\Generated_Source\PSoC5/USBFS_std.c ****         pTmp = &pTmp[currentInterfacesNum + 2u];
 500              		.loc 1 1043 0
 501 0014 00EBC203 		add	r3, r0, r2, lsl #3
 502              	.LVL33:
1044:.\Generated_Source\PSoC5/USBFS_std.c ****         pInterfaceClass = (const uint8 CYCODE *) pTmp->p_list;
 503              		.loc 1 1044 0
 504 0018 5869     		ldr	r0, [r3, #20]
 505              	.LVL34:
 506 001a 08BD     		pop	{r3, pc}
 507              	.LVL35:
 508              	.L41:
1045:.\Generated_Source\PSoC5/USBFS_std.c ****     }
1046:.\Generated_Source\PSoC5/USBFS_std.c ****     else
1047:.\Generated_Source\PSoC5/USBFS_std.c ****     {
1048:.\Generated_Source\PSoC5/USBFS_std.c ****         pInterfaceClass = (const uint8 CYCODE *) NULL;
 509              		.loc 1 1048 0
 510 001c 0020     		movs	r0, #0
ARM GAS  C:\Users\Patrick\AppData\Local\Temp\ccvH7eQO.s 			page 29


 511              	.LVL36:
1049:.\Generated_Source\PSoC5/USBFS_std.c ****     }
1050:.\Generated_Source\PSoC5/USBFS_std.c **** 
1051:.\Generated_Source\PSoC5/USBFS_std.c ****     return (pInterfaceClass);
1052:.\Generated_Source\PSoC5/USBFS_std.c **** }
 512              		.loc 1 1052 0
 513 001e 08BD     		pop	{r3, pc}
 514              	.L44:
 515              		.align	2
 516              	.L43:
 517 0020 00000000 		.word	USBFS_configuration
 518              		.cfi_endproc
 519              	.LFE7:
 520              		.size	USBFS_GetInterfaceClassTablePtr, .-USBFS_GetInterfaceClassTablePtr
 521              		.section	.text.USBFS_Config,"ax",%progbits
 522              		.align	2
 523              		.global	USBFS_Config
 524              		.thumb
 525              		.thumb_func
 526              		.type	USBFS_Config, %function
 527              	USBFS_Config:
 528              	.LFB3:
 571:.\Generated_Source\PSoC5/USBFS_std.c ****     uint8 ep;
 529              		.loc 1 571 0
 530              		.cfi_startproc
 531              		@ args = 0, pretend = 0, frame = 0
 532              		@ frame_needed = 0, uses_anonymous_args = 0
 533              	.LVL37:
 534 0000 F8B5     		push	{r3, r4, r5, r6, r7, lr}
 535              		.cfi_def_cfa_offset 24
 536              		.cfi_offset 3, -24
 537              		.cfi_offset 4, -20
 538              		.cfi_offset 5, -16
 539              		.cfi_offset 6, -12
 540              		.cfi_offset 7, -8
 541              		.cfi_offset 14, -4
 542              	.LVL38:
 586:.\Generated_Source\PSoC5/USBFS_std.c ****     {
 543              		.loc 1 586 0
 544 0002 0022     		movs	r2, #0
 545 0004 0EE0     		b	.L46
 546              	.LVL39:
 547              	.L47:
 588:.\Generated_Source\PSoC5/USBFS_std.c ****         USBFS_EP[ep].hwEpState  = 0u;
 548              		.loc 1 588 0 discriminator 3
 549 0006 654E     		ldr	r6, .L71
 550 0008 5300     		lsls	r3, r2, #1
 551 000a 9D18     		adds	r5, r3, r2
 552 000c AD00     		lsls	r5, r5, #2
 553 000e 7419     		adds	r4, r6, r5
 554 0010 0021     		movs	r1, #0
 555 0012 7155     		strb	r1, [r6, r5]
 589:.\Generated_Source\PSoC5/USBFS_std.c ****         USBFS_EP[ep].epToggle   = 0u;
 556              		.loc 1 589 0 discriminator 3
 557 0014 A170     		strb	r1, [r4, #2]
 590:.\Generated_Source\PSoC5/USBFS_std.c ****         USBFS_EP[ep].bufferSize = 0u;
 558              		.loc 1 590 0 discriminator 3
ARM GAS  C:\Users\Patrick\AppData\Local\Temp\ccvH7eQO.s 			page 30


 559 0016 E170     		strb	r1, [r4, #3]
 591:.\Generated_Source\PSoC5/USBFS_std.c ****         USBFS_EP[ep].interface  = 0u;
 560              		.loc 1 591 0 discriminator 3
 561 0018 2181     		strh	r1, [r4, #8]	@ movhi
 592:.\Generated_Source\PSoC5/USBFS_std.c ****         USBFS_EP[ep].apiEpState = USBFS_NO_EVENT_PENDING;
 562              		.loc 1 592 0 discriminator 3
 563 001a A172     		strb	r1, [r4, #10]
 593:.\Generated_Source\PSoC5/USBFS_std.c ****         USBFS_EP[ep].epMode     = USBFS_MODE_DISABLE;   
 564              		.loc 1 593 0 discriminator 3
 565 001c 6170     		strb	r1, [r4, #1]
 594:.\Generated_Source\PSoC5/USBFS_std.c ****     }
 566              		.loc 1 594 0 discriminator 3
 567 001e 6171     		strb	r1, [r4, #5]
 586:.\Generated_Source\PSoC5/USBFS_std.c ****     {
 568              		.loc 1 586 0 discriminator 3
 569 0020 0132     		adds	r2, r2, #1
 570              	.LVL40:
 571 0022 D2B2     		uxtb	r2, r2
 572              	.LVL41:
 573              	.L46:
 586:.\Generated_Source\PSoC5/USBFS_std.c ****     {
 574              		.loc 1 586 0 is_stmt 0 discriminator 1
 575 0024 082A     		cmp	r2, #8
 576 0026 EED9     		bls	.L47
 598:.\Generated_Source\PSoC5/USBFS_std.c ****     {
 577              		.loc 1 598 0 is_stmt 1
 578 0028 40B9     		cbnz	r0, .L67
 579 002a 0AE0     		b	.L49
 580              	.LVL42:
 581              	.L50:
 602:.\Generated_Source\PSoC5/USBFS_std.c ****             USBFS_interfaceSettingLast[i] = 0u;
 582              		.loc 1 602 0 discriminator 3
 583 002c 0022     		movs	r2, #0
 584 002e 5C49     		ldr	r1, .L71+4
 585 0030 CA54     		strb	r2, [r1, r3]
 603:.\Generated_Source\PSoC5/USBFS_std.c ****         }
 586              		.loc 1 603 0 discriminator 3
 587 0032 5C49     		ldr	r1, .L71+8
 588 0034 CA54     		strb	r2, [r1, r3]
 600:.\Generated_Source\PSoC5/USBFS_std.c ****         {
 589              		.loc 1 600 0 discriminator 3
 590 0036 0133     		adds	r3, r3, #1
 591              	.LVL43:
 592 0038 DBB2     		uxtb	r3, r3
 593              	.LVL44:
 594 003a 00E0     		b	.L48
 595              	.LVL45:
 596              	.L67:
 597 003c 0023     		movs	r3, #0
 598              	.LVL46:
 599              	.L48:
 600:.\Generated_Source\PSoC5/USBFS_std.c ****         {
 600              		.loc 1 600 0 is_stmt 0 discriminator 1
 601 003e 002B     		cmp	r3, #0
 602 0040 F4D0     		beq	.L50
 603              	.LVL47:
 604              	.L49:
ARM GAS  C:\Users\Patrick\AppData\Local\Temp\ccvH7eQO.s 			page 31


 608:.\Generated_Source\PSoC5/USBFS_std.c ****     {
 605              		.loc 1 608 0 is_stmt 1
 606 0042 594B     		ldr	r3, .L71+12
 607 0044 1B78     		ldrb	r3, [r3]	@ zero_extendqisi2
 608 0046 13F0FF0F 		tst	r3, #255
 609 004a 00F0A580 		beq	.L45
 614:.\Generated_Source\PSoC5/USBFS_std.c ****         
 610              		.loc 1 614 0
 611 004e 564B     		ldr	r3, .L71+12
 612 0050 1878     		ldrb	r0, [r3]	@ zero_extendqisi2
 613              	.LVL48:
 614 0052 0138     		subs	r0, r0, #1
 615 0054 C0B2     		uxtb	r0, r0
 616 0056 FFF7FEFF 		bl	USBFS_GetConfigTablePtr
 617              	.LVL49:
 617:.\Generated_Source\PSoC5/USBFS_std.c ****         if ((pDescr[USBFS_CONFIG_DESCR_ATTRIB] & USBFS_CONFIG_DESCR_ATTRIB_SELF_POWERED) != 0u)
 618              		.loc 1 617 0
 619 005a 4368     		ldr	r3, [r0, #4]
 620              	.LVL50:
 618:.\Generated_Source\PSoC5/USBFS_std.c ****         {
 621              		.loc 1 618 0
 622 005c DB79     		ldrb	r3, [r3, #7]	@ zero_extendqisi2
 623              	.LVL51:
 624 005e 13F0400F 		tst	r3, #64
 625 0062 05D0     		beq	.L52
 620:.\Generated_Source\PSoC5/USBFS_std.c ****         }
 626              		.loc 1 620 0
 627 0064 514A     		ldr	r2, .L71+16
 628 0066 1378     		ldrb	r3, [r2]	@ zero_extendqisi2
 629 0068 43F00103 		orr	r3, r3, #1
 630 006c 1370     		strb	r3, [r2]
 631 006e 04E0     		b	.L53
 632              	.L52:
 624:.\Generated_Source\PSoC5/USBFS_std.c ****         }
 633              		.loc 1 624 0
 634 0070 4E4A     		ldr	r2, .L71+16
 635 0072 1378     		ldrb	r3, [r2]	@ zero_extendqisi2
 636 0074 03F0FE03 		and	r3, r3, #254
 637 0078 1370     		strb	r3, [r2]
 638              	.L53:
 639              	.LVL52:
 629:.\Generated_Source\PSoC5/USBFS_std.c **** 
 640              		.loc 1 629 0
 641 007a 057A     		ldrb	r5, [r0, #8]	@ zero_extendqisi2
 642              	.LVL53:
 687:.\Generated_Source\PSoC5/USBFS_std.c ****             {
 643              		.loc 1 687 0
 644 007c 0124     		movs	r4, #1
 645 007e 61E0     		b	.L54
 646              	.LVL54:
 647              	.L62:
 690:.\Generated_Source\PSoC5/USBFS_std.c ****                 /* Find max length for each EP and select it (length could be different in differen
 648              		.loc 1 690 0
 649 0080 C168     		ldr	r1, [r0, #12]
 650              	.LVL55:
 694:.\Generated_Source\PSoC5/USBFS_std.c ****                 {
 651              		.loc 1 694 0
ARM GAS  C:\Users\Patrick\AppData\Local\Temp\ccvH7eQO.s 			page 32


 652 0082 0023     		movs	r3, #0
 653 0084 5AE0     		b	.L55
 654              	.LVL56:
 655              	.L61:
 696:.\Generated_Source\PSoC5/USBFS_std.c ****                     {
 656              		.loc 1 696 0
 657 0086 8A78     		ldrb	r2, [r1, #2]	@ zero_extendqisi2
 658 0088 02F07F02 		and	r2, r2, #127
 659 008c 9442     		cmp	r4, r2
 660 008e 52D1     		bne	.L56
 699:.\Generated_Source\PSoC5/USBFS_std.c ****                         {
 661              		.loc 1 699 0
 662 0090 2646     		mov	r6, r4
 663 0092 04EB4402 		add	r2, r4, r4, lsl #1
 664 0096 9200     		lsls	r2, r2, #2
 665 0098 404F     		ldr	r7, .L71
 666 009a 3A44     		add	r2, r2, r7
 667 009c 1289     		ldrh	r2, [r2, #8]
 668 009e 92B2     		uxth	r2, r2
 669 00a0 8F88     		ldrh	r7, [r1, #4]
 670 00a2 BA42     		cmp	r2, r7
 671 00a4 06D2     		bcs	.L57
 701:.\Generated_Source\PSoC5/USBFS_std.c ****                         }
 672              		.loc 1 701 0
 673 00a6 04EB4402 		add	r2, r4, r4, lsl #1
 674 00aa 9200     		lsls	r2, r2, #2
 675 00ac DFF8ECE0 		ldr	lr, .L71
 676 00b0 7244     		add	r2, r2, lr
 677 00b2 1781     		strh	r7, [r2, #8]	@ movhi
 678              	.L57:
 705:.\Generated_Source\PSoC5/USBFS_std.c ****                         {                            
 679              		.loc 1 705 0
 680 00b4 0A78     		ldrb	r2, [r1]	@ zero_extendqisi2
 681 00b6 3A4F     		ldr	r7, .L71+4
 682 00b8 BA5C     		ldrb	r2, [r7, r2]	@ zero_extendqisi2
 683 00ba D2B2     		uxtb	r2, r2
 684 00bc 4F78     		ldrb	r7, [r1, #1]	@ zero_extendqisi2
 685 00be BA42     		cmp	r2, r7
 686 00c0 39D1     		bne	.L56
 707:.\Generated_Source\PSoC5/USBFS_std.c ****                             USBFS_EP[i].attrib = pEP->attributes;
 687              		.loc 1 707 0
 688 00c2 91F802C0 		ldrb	ip, [r1, #2]	@ zero_extendqisi2
 689 00c6 354F     		ldr	r7, .L71
 690 00c8 7200     		lsls	r2, r6, #1
 691 00ca 3244     		add	r2, r2, r6
 692 00cc 9200     		lsls	r2, r2, #2
 693 00ce 07EB020E 		add	lr, r7, r2
 694 00d2 8EF804C0 		strb	ip, [lr, #4]
 708:.\Generated_Source\PSoC5/USBFS_std.c ****                             
 695              		.loc 1 708 0
 696 00d6 91F803E0 		ldrb	lr, [r1, #3]	@ zero_extendqisi2
 697 00da 07F802E0 		strb	lr, [r7, r2]
 710:.\Generated_Source\PSoC5/USBFS_std.c ****                             
 698              		.loc 1 710 0
 699 00de CA78     		ldrb	r2, [r1, #3]	@ zero_extendqisi2
 700 00e0 02F00302 		and	r2, r2, #3
 701              	.LVL57:
ARM GAS  C:\Users\Patrick\AppData\Local\Temp\ccvH7eQO.s 			page 33


 712:.\Generated_Source\PSoC5/USBFS_std.c ****                             {
 702              		.loc 1 712 0
 703 00e4 91F90270 		ldrsb	r7, [r1, #2]
 704 00e8 002F     		cmp	r7, #0
 705 00ea 11DA     		bge	.L58
 715:.\Generated_Source\PSoC5/USBFS_std.c ****                                 USBFS_EP[i].apiEpState = USBFS_EVENT_PENDING;
 706              		.loc 1 715 0
 707 00ec 012A     		cmp	r2, #1
 708 00ee 02D1     		bne	.L68
 709 00f0 4FF0070C 		mov	ip, #7
 710 00f4 01E0     		b	.L59
 711              	.L68:
 712 00f6 4FF00D0C 		mov	ip, #13
 713              	.L59:
 715:.\Generated_Source\PSoC5/USBFS_std.c ****                                 USBFS_EP[i].apiEpState = USBFS_EVENT_PENDING;
 714              		.loc 1 715 0 is_stmt 0 discriminator 4
 715 00fa DFF8A0E0 		ldr	lr, .L71
 716 00fe 7200     		lsls	r2, r6, #1
 717              	.LVL58:
 718 0100 9719     		adds	r7, r2, r6
 719 0102 BF00     		lsls	r7, r7, #2
 720 0104 7744     		add	r7, r7, lr
 721 0106 87F805C0 		strb	ip, [r7, #5]
 722              	.LVL59:
 716:.\Generated_Source\PSoC5/USBFS_std.c ****                                 
 723              		.loc 1 716 0 is_stmt 1 discriminator 4
 724 010a 0122     		movs	r2, #1
 725 010c 7A70     		strb	r2, [r7, #1]
 726 010e 12E0     		b	.L56
 727              	.LVL60:
 728              	.L58:
 728:.\Generated_Source\PSoC5/USBFS_std.c ****                                 USBFS_EP[i].apiEpState = USBFS_NO_EVENT_PENDING;
 729              		.loc 1 728 0
 730 0110 012A     		cmp	r2, #1
 731 0112 02D1     		bne	.L69
 732 0114 4FF0050C 		mov	ip, #5
 733 0118 01E0     		b	.L60
 734              	.L69:
 735 011a 4FF0090C 		mov	ip, #9
 736              	.L60:
 728:.\Generated_Source\PSoC5/USBFS_std.c ****                                 USBFS_EP[i].apiEpState = USBFS_NO_EVENT_PENDING;
 737              		.loc 1 728 0 is_stmt 0 discriminator 4
 738 011e 1F4F     		ldr	r7, .L71
 739 0120 4FEA460E 		lsl	lr, r6, #1
 740 0124 0EEB0602 		add	r2, lr, r6
 741              	.LVL61:
 742 0128 9200     		lsls	r2, r2, #2
 743 012a 3A44     		add	r2, r2, r7
 744 012c 82F805C0 		strb	ip, [r2, #5]
 745              	.LVL62:
 729:.\Generated_Source\PSoC5/USBFS_std.c ****                                 
 746              		.loc 1 729 0 is_stmt 1 discriminator 4
 747 0130 1646     		mov	r6, r2
 748 0132 0022     		movs	r2, #0
 749 0134 7270     		strb	r2, [r6, #1]
 750              	.L56:
 752:.\Generated_Source\PSoC5/USBFS_std.c ****                 }
ARM GAS  C:\Users\Patrick\AppData\Local\Temp\ccvH7eQO.s 			page 34


 751              		.loc 1 752 0 discriminator 2
 752 0136 0831     		adds	r1, r1, #8
 753              	.LVL63:
 694:.\Generated_Source\PSoC5/USBFS_std.c ****                 {
 754              		.loc 1 694 0 discriminator 2
 755 0138 0133     		adds	r3, r3, #1
 756              	.LVL64:
 757 013a DBB2     		uxtb	r3, r3
 758              	.LVL65:
 759              	.L55:
 694:.\Generated_Source\PSoC5/USBFS_std.c ****                 {
 760              		.loc 1 694 0 is_stmt 0 discriminator 1
 761 013c AB42     		cmp	r3, r5
 762 013e A2D3     		bcc	.L61
 687:.\Generated_Source\PSoC5/USBFS_std.c ****             {
 763              		.loc 1 687 0 is_stmt 1 discriminator 2
 764 0140 0134     		adds	r4, r4, #1
 765              	.LVL66:
 766 0142 E4B2     		uxtb	r4, r4
 767              	.LVL67:
 768              	.L54:
 687:.\Generated_Source\PSoC5/USBFS_std.c ****             {
 769              		.loc 1 687 0 is_stmt 0 discriminator 1
 770 0144 082C     		cmp	r4, #8
 771 0146 9BD9     		bls	.L62
 762:.\Generated_Source\PSoC5/USBFS_std.c ****         for (i = 0u; i < ep; i++)
 772              		.loc 1 762 0 is_stmt 1
 773 0148 C068     		ldr	r0, [r0, #12]
 774              	.LVL68:
 763:.\Generated_Source\PSoC5/USBFS_std.c ****         {
 775              		.loc 1 763 0
 776 014a 0022     		movs	r2, #0
 777 014c 0CE0     		b	.L63
 778              	.LVL69:
 779              	.L64:
 766:.\Generated_Source\PSoC5/USBFS_std.c ****             pEP = &pEP[1u];
 780              		.loc 1 766 0 discriminator 3
 781 014e 8378     		ldrb	r3, [r0, #2]	@ zero_extendqisi2
 782 0150 03F07F03 		and	r3, r3, #127
 783 0154 10F8084B 		ldrb	r4, [r0], #8	@ zero_extendqisi2
 784              	.LVL70:
 785 0158 03EB4303 		add	r3, r3, r3, lsl #1
 786 015c 9B00     		lsls	r3, r3, #2
 787 015e 1449     		ldr	r1, .L71+20
 788 0160 0B44     		add	r3, r3, r1
 789 0162 9C70     		strb	r4, [r3, #2]
 790              	.LVL71:
 763:.\Generated_Source\PSoC5/USBFS_std.c ****         {
 791              		.loc 1 763 0 discriminator 3
 792 0164 0132     		adds	r2, r2, #1
 793              	.LVL72:
 794 0166 D2B2     		uxtb	r2, r2
 795              	.LVL73:
 796              	.L63:
 763:.\Generated_Source\PSoC5/USBFS_std.c ****         {
 797              		.loc 1 763 0 is_stmt 0 discriminator 1
 798 0168 AA42     		cmp	r2, r5
ARM GAS  C:\Users\Patrick\AppData\Local\Temp\ccvH7eQO.s 			page 35


 799 016a F0D3     		bcc	.L64
 771:.\Generated_Source\PSoC5/USBFS_std.c ****         
 800              		.loc 1 771 0 is_stmt 1
 801 016c FFF7FEFF 		bl	USBFS_GetInterfaceClassTablePtr
 802              	.LVL74:
 803 0170 104B     		ldr	r3, .L71+24
 804 0172 1860     		str	r0, [r3]
 805              	.LVL75:
 775:.\Generated_Source\PSoC5/USBFS_std.c ****         for (ep = USBFS_EP1; ep < USBFS_MAX_EP; ++ep)
 806              		.loc 1 775 0
 807 0174 0020     		movs	r0, #0
 776:.\Generated_Source\PSoC5/USBFS_std.c ****         {
 808              		.loc 1 776 0
 809 0176 0122     		movs	r2, #1
 810 0178 0AE0     		b	.L65
 811              	.LVL76:
 812              	.L66:
 778:.\Generated_Source\PSoC5/USBFS_std.c ****             buffCount += USBFS_EP[ep].bufferSize;
 813              		.loc 1 778 0 discriminator 3
 814 017a 084C     		ldr	r4, .L71
 815 017c 5300     		lsls	r3, r2, #1
 816 017e 9918     		adds	r1, r3, r2
 817 0180 8900     		lsls	r1, r1, #2
 818 0182 2144     		add	r1, r1, r4
 819 0184 C880     		strh	r0, [r1, #6]	@ movhi
 779:.\Generated_Source\PSoC5/USBFS_std.c ****             
 820              		.loc 1 779 0 discriminator 3
 821 0186 0B89     		ldrh	r3, [r1, #8]
 822 0188 1844     		add	r0, r0, r3
 823              	.LVL77:
 824 018a 80B2     		uxth	r0, r0
 825              	.LVL78:
 776:.\Generated_Source\PSoC5/USBFS_std.c ****         {
 826              		.loc 1 776 0 discriminator 3
 827 018c 0132     		adds	r2, r2, #1
 828              	.LVL79:
 829 018e D2B2     		uxtb	r2, r2
 830              	.LVL80:
 831              	.L65:
 776:.\Generated_Source\PSoC5/USBFS_std.c ****         {
 832              		.loc 1 776 0 is_stmt 0 discriminator 1
 833 0190 082A     		cmp	r2, #8
 834 0192 F2D9     		bls	.L66
 789:.\Generated_Source\PSoC5/USBFS_std.c ****     }
 835              		.loc 1 789 0 is_stmt 1
 836 0194 FFF7FEFF 		bl	USBFS_ConfigReg
 837              	.LVL81:
 838              	.L45:
 839 0198 F8BD     		pop	{r3, r4, r5, r6, r7, pc}
 840              	.L72:
 841 019a 00BF     		.align	2
 842              	.L71:
 843 019c 00000000 		.word	USBFS_EP
 844 01a0 00000000 		.word	USBFS_interfaceSetting
 845 01a4 00000000 		.word	USBFS_interfaceSettingLast
 846 01a8 00000000 		.word	USBFS_configuration
 847 01ac 00000000 		.word	USBFS_deviceStatus
ARM GAS  C:\Users\Patrick\AppData\Local\Temp\ccvH7eQO.s 			page 36


 848 01b0 08000000 		.word	USBFS_EP+8
 849 01b4 00000000 		.word	USBFS_interfaceClass
 850              		.cfi_endproc
 851              	.LFE3:
 852              		.size	USBFS_Config, .-USBFS_Config
 853              		.section	.text.USBFS_TerminateEP,"ax",%progbits
 854              		.align	2
 855              		.global	USBFS_TerminateEP
 856              		.thumb
 857              		.thumb_func
 858              		.type	USBFS_TerminateEP, %function
 859              	USBFS_TerminateEP:
 860              	.LFB8:
1053:.\Generated_Source\PSoC5/USBFS_std.c **** 
1054:.\Generated_Source\PSoC5/USBFS_std.c **** 
1055:.\Generated_Source\PSoC5/USBFS_std.c **** /*******************************************************************************
1056:.\Generated_Source\PSoC5/USBFS_std.c **** * Function Name: USBFS_TerminateEP
1057:.\Generated_Source\PSoC5/USBFS_std.c **** ****************************************************************************//**
1058:.\Generated_Source\PSoC5/USBFS_std.c **** *
1059:.\Generated_Source\PSoC5/USBFS_std.c **** *  This function terminates the specified USBFS endpoint.
1060:.\Generated_Source\PSoC5/USBFS_std.c **** *  This function should be used before endpoint reconfiguration.
1061:.\Generated_Source\PSoC5/USBFS_std.c **** *
1062:.\Generated_Source\PSoC5/USBFS_std.c **** *  \param ep Contains the data endpoint number.
1063:.\Generated_Source\PSoC5/USBFS_std.c **** *
1064:.\Generated_Source\PSoC5/USBFS_std.c **** *  \reentrant
1065:.\Generated_Source\PSoC5/USBFS_std.c **** *  No.
1066:.\Generated_Source\PSoC5/USBFS_std.c **** *
1067:.\Generated_Source\PSoC5/USBFS_std.c **** * \sideeffect
1068:.\Generated_Source\PSoC5/USBFS_std.c **** * 
1069:.\Generated_Source\PSoC5/USBFS_std.c **** * The device responds with a NAK for any transactions on the selected endpoint.
1070:.\Generated_Source\PSoC5/USBFS_std.c **** *   
1071:.\Generated_Source\PSoC5/USBFS_std.c **** *******************************************************************************/
1072:.\Generated_Source\PSoC5/USBFS_std.c **** void USBFS_TerminateEP(uint8 epNumber) 
1073:.\Generated_Source\PSoC5/USBFS_std.c **** {
 861              		.loc 1 1073 0
 862              		.cfi_startproc
 863              		@ args = 0, pretend = 0, frame = 0
 864              		@ frame_needed = 0, uses_anonymous_args = 0
 865              		@ link register save eliminated.
 866              	.LVL82:
1074:.\Generated_Source\PSoC5/USBFS_std.c ****     /* Get endpoint number */
1075:.\Generated_Source\PSoC5/USBFS_std.c ****     epNumber &= USBFS_DIR_UNUSED;
 867              		.loc 1 1075 0
 868 0000 00F07F00 		and	r0, r0, #127
 869              	.LVL83:
1076:.\Generated_Source\PSoC5/USBFS_std.c **** 
1077:.\Generated_Source\PSoC5/USBFS_std.c ****     if ((epNumber > USBFS_EP0) && (epNumber < USBFS_MAX_EP))
 870              		.loc 1 1077 0
 871 0004 431E     		subs	r3, r0, #1
 872 0006 DBB2     		uxtb	r3, r3
 873 0008 072B     		cmp	r3, #7
 874 000a 19D8     		bhi	.L73
1078:.\Generated_Source\PSoC5/USBFS_std.c ****     {
1079:.\Generated_Source\PSoC5/USBFS_std.c ****         /* Set the endpoint Halt */
1080:.\Generated_Source\PSoC5/USBFS_std.c ****         USBFS_EP[epNumber].hwEpState |= USBFS_ENDPOINT_STATUS_HALT;
 875              		.loc 1 1080 0
 876 000c 4300     		lsls	r3, r0, #1
ARM GAS  C:\Users\Patrick\AppData\Local\Temp\ccvH7eQO.s 			page 37


 877 000e 0344     		add	r3, r3, r0
 878 0010 9B00     		lsls	r3, r3, #2
 879 0012 0C4A     		ldr	r2, .L76
 880 0014 1344     		add	r3, r3, r2
 881 0016 9A78     		ldrb	r2, [r3, #2]	@ zero_extendqisi2
 882 0018 42F00102 		orr	r2, r2, #1
 883 001c 9A70     		strb	r2, [r3, #2]
1081:.\Generated_Source\PSoC5/USBFS_std.c **** 
1082:.\Generated_Source\PSoC5/USBFS_std.c ****         /* Clear the data toggle */
1083:.\Generated_Source\PSoC5/USBFS_std.c ****         USBFS_EP[epNumber].epToggle = 0u;
 884              		.loc 1 1083 0
 885 001e 0022     		movs	r2, #0
 886 0020 DA70     		strb	r2, [r3, #3]
1084:.\Generated_Source\PSoC5/USBFS_std.c ****         USBFS_EP[epNumber].apiEpState = USBFS_NO_EVENT_ALLOWED;
 887              		.loc 1 1084 0
 888 0022 0222     		movs	r2, #2
 889 0024 5A70     		strb	r2, [r3, #1]
1085:.\Generated_Source\PSoC5/USBFS_std.c **** 
1086:.\Generated_Source\PSoC5/USBFS_std.c ****         if ((USBFS_EP[epNumber].addr & USBFS_DIR_IN) != 0u)
 890              		.loc 1 1086 0
 891 0026 1B79     		ldrb	r3, [r3, #4]	@ zero_extendqisi2
 892 0028 13F0800F 		tst	r3, #128
 893 002c 04D0     		beq	.L75
1087:.\Generated_Source\PSoC5/USBFS_std.c ****         {   
1088:.\Generated_Source\PSoC5/USBFS_std.c ****             /* IN Endpoint */
1089:.\Generated_Source\PSoC5/USBFS_std.c ****             USBFS_SIE_EP_BASE.sieEp[epNumber].epCr0 = USBFS_MODE_NAK_IN;
 894              		.loc 1 1089 0
 895 002e 0001     		lsls	r0, r0, #4
 896              	.LVL84:
 897 0030 054B     		ldr	r3, .L76+4
 898 0032 0C22     		movs	r2, #12
 899 0034 1A54     		strb	r2, [r3, r0]
 900 0036 7047     		bx	lr
 901              	.LVL85:
 902              	.L75:
1090:.\Generated_Source\PSoC5/USBFS_std.c ****         }
1091:.\Generated_Source\PSoC5/USBFS_std.c ****         else
1092:.\Generated_Source\PSoC5/USBFS_std.c ****         {
1093:.\Generated_Source\PSoC5/USBFS_std.c ****             /* OUT Endpoint */
1094:.\Generated_Source\PSoC5/USBFS_std.c ****             USBFS_SIE_EP_BASE.sieEp[epNumber].epCr0 = USBFS_MODE_NAK_OUT;
 903              		.loc 1 1094 0
 904 0038 0001     		lsls	r0, r0, #4
 905              	.LVL86:
 906 003a 034B     		ldr	r3, .L76+4
 907 003c 0822     		movs	r2, #8
 908 003e 1A54     		strb	r2, [r3, r0]
 909              	.L73:
 910 0040 7047     		bx	lr
 911              	.L77:
 912 0042 00BF     		.align	2
 913              	.L76:
 914 0044 00000000 		.word	USBFS_EP
 915 0048 FE5F0040 		.word	1073766398
 916              		.cfi_endproc
 917              	.LFE8:
 918              		.size	USBFS_TerminateEP, .-USBFS_TerminateEP
 919              		.section	.text.USBFS_SetEndpointHalt,"ax",%progbits
ARM GAS  C:\Users\Patrick\AppData\Local\Temp\ccvH7eQO.s 			page 38


 920              		.align	2
 921              		.global	USBFS_SetEndpointHalt
 922              		.thumb
 923              		.thumb_func
 924              		.type	USBFS_SetEndpointHalt, %function
 925              	USBFS_SetEndpointHalt:
 926              	.LFB9:
1095:.\Generated_Source\PSoC5/USBFS_std.c ****         }
1096:.\Generated_Source\PSoC5/USBFS_std.c ****     }
1097:.\Generated_Source\PSoC5/USBFS_std.c **** }
1098:.\Generated_Source\PSoC5/USBFS_std.c **** 
1099:.\Generated_Source\PSoC5/USBFS_std.c **** 
1100:.\Generated_Source\PSoC5/USBFS_std.c **** /*******************************************************************************
1101:.\Generated_Source\PSoC5/USBFS_std.c **** * Function Name: USBFS_SetEndpointHalt
1102:.\Generated_Source\PSoC5/USBFS_std.c **** ****************************************************************************//**
1103:.\Generated_Source\PSoC5/USBFS_std.c **** *
1104:.\Generated_Source\PSoC5/USBFS_std.c **** *  This routine handles set endpoint halt.
1105:.\Generated_Source\PSoC5/USBFS_std.c **** *
1106:.\Generated_Source\PSoC5/USBFS_std.c **** * \return
1107:.\Generated_Source\PSoC5/USBFS_std.c **** *  requestHandled.
1108:.\Generated_Source\PSoC5/USBFS_std.c **** *
1109:.\Generated_Source\PSoC5/USBFS_std.c **** * \reentrant
1110:.\Generated_Source\PSoC5/USBFS_std.c **** *  No.
1111:.\Generated_Source\PSoC5/USBFS_std.c **** *
1112:.\Generated_Source\PSoC5/USBFS_std.c **** *******************************************************************************/
1113:.\Generated_Source\PSoC5/USBFS_std.c **** uint8 USBFS_SetEndpointHalt(void) 
1114:.\Generated_Source\PSoC5/USBFS_std.c **** {
 927              		.loc 1 1114 0
 928              		.cfi_startproc
 929              		@ args = 0, pretend = 0, frame = 0
 930              		@ frame_needed = 0, uses_anonymous_args = 0
 931 0000 08B5     		push	{r3, lr}
 932              		.cfi_def_cfa_offset 8
 933              		.cfi_offset 3, -8
 934              		.cfi_offset 14, -4
 935              	.LVL87:
1115:.\Generated_Source\PSoC5/USBFS_std.c ****     uint8 requestHandled = USBFS_FALSE;
1116:.\Generated_Source\PSoC5/USBFS_std.c ****     uint8 ep;
1117:.\Generated_Source\PSoC5/USBFS_std.c ****     
1118:.\Generated_Source\PSoC5/USBFS_std.c ****     /* Set endpoint halt */
1119:.\Generated_Source\PSoC5/USBFS_std.c ****     ep = USBFS_wIndexLoReg & USBFS_DIR_UNUSED;
 936              		.loc 1 1119 0
 937 0002 154B     		ldr	r3, .L84
 938 0004 1A79     		ldrb	r2, [r3, #4]	@ zero_extendqisi2
 939 0006 02F07F02 		and	r2, r2, #127
 940              	.LVL88:
1120:.\Generated_Source\PSoC5/USBFS_std.c **** 
1121:.\Generated_Source\PSoC5/USBFS_std.c ****     if ((ep > USBFS_EP0) && (ep < USBFS_MAX_EP))
 941              		.loc 1 1121 0
 942 000a 531E     		subs	r3, r2, #1
 943 000c DBB2     		uxtb	r3, r3
 944 000e 072B     		cmp	r3, #7
 945 0010 20D8     		bhi	.L82
1122:.\Generated_Source\PSoC5/USBFS_std.c ****     {
1123:.\Generated_Source\PSoC5/USBFS_std.c ****         /* Set the endpoint Halt */
1124:.\Generated_Source\PSoC5/USBFS_std.c ****         USBFS_EP[ep].hwEpState |= (USBFS_ENDPOINT_STATUS_HALT);
 946              		.loc 1 1124 0
ARM GAS  C:\Users\Patrick\AppData\Local\Temp\ccvH7eQO.s 			page 39


 947 0012 5300     		lsls	r3, r2, #1
 948 0014 1344     		add	r3, r3, r2
 949 0016 9B00     		lsls	r3, r3, #2
 950 0018 1049     		ldr	r1, .L84+4
 951 001a 0B44     		add	r3, r3, r1
 952 001c 9978     		ldrb	r1, [r3, #2]	@ zero_extendqisi2
 953 001e 41F00101 		orr	r1, r1, #1
 954 0022 9970     		strb	r1, [r3, #2]
1125:.\Generated_Source\PSoC5/USBFS_std.c **** 
1126:.\Generated_Source\PSoC5/USBFS_std.c ****         /* Clear the data toggle */
1127:.\Generated_Source\PSoC5/USBFS_std.c ****         USBFS_EP[ep].epToggle = 0u;
 955              		.loc 1 1127 0
 956 0024 0021     		movs	r1, #0
 957 0026 D970     		strb	r1, [r3, #3]
1128:.\Generated_Source\PSoC5/USBFS_std.c ****         USBFS_EP[ep].apiEpState |= USBFS_NO_EVENT_ALLOWED;
 958              		.loc 1 1128 0
 959 0028 5978     		ldrb	r1, [r3, #1]	@ zero_extendqisi2
 960 002a 41F00201 		orr	r1, r1, #2
 961 002e 5970     		strb	r1, [r3, #1]
1129:.\Generated_Source\PSoC5/USBFS_std.c **** 
1130:.\Generated_Source\PSoC5/USBFS_std.c ****         if ((USBFS_EP[ep].addr & USBFS_DIR_IN) != 0u)
 962              		.loc 1 1130 0
 963 0030 1B79     		ldrb	r3, [r3, #4]	@ zero_extendqisi2
 964 0032 13F0800F 		tst	r3, #128
 965 0036 05D0     		beq	.L80
1131:.\Generated_Source\PSoC5/USBFS_std.c ****         {
1132:.\Generated_Source\PSoC5/USBFS_std.c ****             /* IN Endpoint */
1133:.\Generated_Source\PSoC5/USBFS_std.c ****             USBFS_SIE_EP_BASE.sieEp[ep].epCr0 = (USBFS_MODE_STALL_DATA_EP | 
 966              		.loc 1 1133 0
 967 0038 1201     		lsls	r2, r2, #4
 968              	.LVL89:
 969 003a 094B     		ldr	r3, .L84+8
 970 003c 1344     		add	r3, r3, r2
 971 003e 8D22     		movs	r2, #141
 972 0040 9A70     		strb	r2, [r3, #2]
 973 0042 04E0     		b	.L81
 974              	.LVL90:
 975              	.L80:
1134:.\Generated_Source\PSoC5/USBFS_std.c ****                                                             USBFS_MODE_ACK_IN);
1135:.\Generated_Source\PSoC5/USBFS_std.c ****         }
1136:.\Generated_Source\PSoC5/USBFS_std.c ****         else
1137:.\Generated_Source\PSoC5/USBFS_std.c ****         {
1138:.\Generated_Source\PSoC5/USBFS_std.c ****             /* OUT Endpoint */
1139:.\Generated_Source\PSoC5/USBFS_std.c ****             USBFS_SIE_EP_BASE.sieEp[ep].epCr0 = (USBFS_MODE_STALL_DATA_EP | 
 976              		.loc 1 1139 0
 977 0044 1201     		lsls	r2, r2, #4
 978              	.LVL91:
 979 0046 064B     		ldr	r3, .L84+8
 980 0048 1344     		add	r3, r3, r2
 981 004a 8922     		movs	r2, #137
 982 004c 9A70     		strb	r2, [r3, #2]
 983              	.L81:
1140:.\Generated_Source\PSoC5/USBFS_std.c ****                                                             USBFS_MODE_ACK_OUT);
1141:.\Generated_Source\PSoC5/USBFS_std.c ****         }
1142:.\Generated_Source\PSoC5/USBFS_std.c ****         requestHandled = USBFS_InitNoDataControlTransfer();
 984              		.loc 1 1142 0
 985 004e FFF7FEFF 		bl	USBFS_InitNoDataControlTransfer
ARM GAS  C:\Users\Patrick\AppData\Local\Temp\ccvH7eQO.s 			page 40


 986              	.LVL92:
 987 0052 08BD     		pop	{r3, pc}
 988              	.LVL93:
 989              	.L82:
1115:.\Generated_Source\PSoC5/USBFS_std.c ****     uint8 ep;
 990              		.loc 1 1115 0
 991 0054 0020     		movs	r0, #0
 992              	.LVL94:
1143:.\Generated_Source\PSoC5/USBFS_std.c ****     }
1144:.\Generated_Source\PSoC5/USBFS_std.c **** 
1145:.\Generated_Source\PSoC5/USBFS_std.c ****     return (requestHandled);
1146:.\Generated_Source\PSoC5/USBFS_std.c **** }
 993              		.loc 1 1146 0
 994 0056 08BD     		pop	{r3, pc}
 995              	.L85:
 996              		.align	2
 997              	.L84:
 998 0058 00600040 		.word	1073766400
 999 005c 00000000 		.word	USBFS_EP
 1000 0060 FC5F0040 		.word	1073766396
 1001              		.cfi_endproc
 1002              	.LFE9:
 1003              		.size	USBFS_SetEndpointHalt, .-USBFS_SetEndpointHalt
 1004              		.section	.text.USBFS_ClearEndpointHalt,"ax",%progbits
 1005              		.align	2
 1006              		.global	USBFS_ClearEndpointHalt
 1007              		.thumb
 1008              		.thumb_func
 1009              		.type	USBFS_ClearEndpointHalt, %function
 1010              	USBFS_ClearEndpointHalt:
 1011              	.LFB10:
1147:.\Generated_Source\PSoC5/USBFS_std.c **** 
1148:.\Generated_Source\PSoC5/USBFS_std.c **** 
1149:.\Generated_Source\PSoC5/USBFS_std.c **** /*******************************************************************************
1150:.\Generated_Source\PSoC5/USBFS_std.c **** * Function Name: USBFS_ClearEndpointHalt
1151:.\Generated_Source\PSoC5/USBFS_std.c **** ****************************************************************************//**
1152:.\Generated_Source\PSoC5/USBFS_std.c **** *
1153:.\Generated_Source\PSoC5/USBFS_std.c **** *  This routine handles clear endpoint halt.
1154:.\Generated_Source\PSoC5/USBFS_std.c **** *
1155:.\Generated_Source\PSoC5/USBFS_std.c **** * \return
1156:.\Generated_Source\PSoC5/USBFS_std.c **** *  requestHandled.
1157:.\Generated_Source\PSoC5/USBFS_std.c **** *
1158:.\Generated_Source\PSoC5/USBFS_std.c **** * \reentrant
1159:.\Generated_Source\PSoC5/USBFS_std.c **** *  No.
1160:.\Generated_Source\PSoC5/USBFS_std.c **** *
1161:.\Generated_Source\PSoC5/USBFS_std.c **** *******************************************************************************/
1162:.\Generated_Source\PSoC5/USBFS_std.c **** uint8 USBFS_ClearEndpointHalt(void) 
1163:.\Generated_Source\PSoC5/USBFS_std.c **** {
 1012              		.loc 1 1163 0
 1013              		.cfi_startproc
 1014              		@ args = 0, pretend = 0, frame = 0
 1015              		@ frame_needed = 0, uses_anonymous_args = 0
 1016              	.LVL95:
1164:.\Generated_Source\PSoC5/USBFS_std.c ****     uint8 requestHandled = USBFS_FALSE;
1165:.\Generated_Source\PSoC5/USBFS_std.c ****     uint8 ep;
1166:.\Generated_Source\PSoC5/USBFS_std.c **** 
1167:.\Generated_Source\PSoC5/USBFS_std.c ****     /* Clear endpoint halt */
ARM GAS  C:\Users\Patrick\AppData\Local\Temp\ccvH7eQO.s 			page 41


1168:.\Generated_Source\PSoC5/USBFS_std.c ****     ep = USBFS_wIndexLoReg & USBFS_DIR_UNUSED;
 1017              		.loc 1 1168 0
 1018 0000 264B     		ldr	r3, .L95
 1019 0002 1B79     		ldrb	r3, [r3, #4]	@ zero_extendqisi2
 1020 0004 03F07F03 		and	r3, r3, #127
 1021              	.LVL96:
1169:.\Generated_Source\PSoC5/USBFS_std.c **** 
1170:.\Generated_Source\PSoC5/USBFS_std.c ****     if ((ep > USBFS_EP0) && (ep < USBFS_MAX_EP))
 1022              		.loc 1 1170 0
 1023 0008 5A1E     		subs	r2, r3, #1
 1024 000a D2B2     		uxtb	r2, r2
 1025 000c 072A     		cmp	r2, #7
 1026 000e 43D8     		bhi	.L92
1163:.\Generated_Source\PSoC5/USBFS_std.c ****     uint8 requestHandled = USBFS_FALSE;
 1027              		.loc 1 1163 0
 1028 0010 10B5     		push	{r4, lr}
 1029              		.cfi_def_cfa_offset 8
 1030              		.cfi_offset 4, -8
 1031              		.cfi_offset 14, -4
1171:.\Generated_Source\PSoC5/USBFS_std.c ****     {
1172:.\Generated_Source\PSoC5/USBFS_std.c ****         /* Clear the endpoint Halt */
1173:.\Generated_Source\PSoC5/USBFS_std.c ****         USBFS_EP[ep].hwEpState &= (uint8) ~USBFS_ENDPOINT_STATUS_HALT;
 1032              		.loc 1 1173 0
 1033 0012 5A00     		lsls	r2, r3, #1
 1034 0014 1A44     		add	r2, r2, r3
 1035 0016 9200     		lsls	r2, r2, #2
 1036 0018 2149     		ldr	r1, .L95+4
 1037 001a 0A44     		add	r2, r2, r1
 1038 001c 9178     		ldrb	r1, [r2, #2]	@ zero_extendqisi2
 1039 001e 01F0FE01 		and	r1, r1, #254
 1040 0022 9170     		strb	r1, [r2, #2]
1174:.\Generated_Source\PSoC5/USBFS_std.c **** 
1175:.\Generated_Source\PSoC5/USBFS_std.c ****         /* Clear the data toggle */
1176:.\Generated_Source\PSoC5/USBFS_std.c ****         USBFS_EP[ep].epToggle = 0u;
 1041              		.loc 1 1176 0
 1042 0024 0021     		movs	r1, #0
 1043 0026 D170     		strb	r1, [r2, #3]
1177:.\Generated_Source\PSoC5/USBFS_std.c ****         
1178:.\Generated_Source\PSoC5/USBFS_std.c ****         /* Clear toggle bit for already armed packet */
1179:.\Generated_Source\PSoC5/USBFS_std.c ****         USBFS_SIE_EP_BASE.sieEp[ep].epCnt0 = (uint8) ~(uint8)USBFS_EPX_CNT_DATA_TOGGLE;
 1044              		.loc 1 1179 0
 1045 0028 1901     		lsls	r1, r3, #4
 1046 002a 7F24     		movs	r4, #127
 1047 002c 1D48     		ldr	r0, .L95+8
 1048 002e 4454     		strb	r4, [r0, r1]
1180:.\Generated_Source\PSoC5/USBFS_std.c ****         
1181:.\Generated_Source\PSoC5/USBFS_std.c ****         /* Return API State as it was defined before */
1182:.\Generated_Source\PSoC5/USBFS_std.c ****         USBFS_EP[ep].apiEpState &= (uint8) ~USBFS_NO_EVENT_ALLOWED;
 1049              		.loc 1 1182 0
 1050 0030 5178     		ldrb	r1, [r2, #1]	@ zero_extendqisi2
 1051 0032 01F0FD01 		and	r1, r1, #253
 1052 0036 5170     		strb	r1, [r2, #1]
1183:.\Generated_Source\PSoC5/USBFS_std.c **** 
1184:.\Generated_Source\PSoC5/USBFS_std.c ****         if ((USBFS_EP[ep].addr & USBFS_DIR_IN) != 0u)
 1053              		.loc 1 1184 0
 1054 0038 1279     		ldrb	r2, [r2, #4]	@ zero_extendqisi2
 1055 003a 12F0800F 		tst	r2, #128
ARM GAS  C:\Users\Patrick\AppData\Local\Temp\ccvH7eQO.s 			page 42


 1056 003e 14D0     		beq	.L88
1185:.\Generated_Source\PSoC5/USBFS_std.c ****         {
1186:.\Generated_Source\PSoC5/USBFS_std.c ****             /* IN Endpoint */
1187:.\Generated_Source\PSoC5/USBFS_std.c ****             if(USBFS_EP[ep].apiEpState == USBFS_IN_BUFFER_EMPTY)
 1057              		.loc 1 1187 0
 1058 0040 03EB4302 		add	r2, r3, r3, lsl #1
 1059 0044 9200     		lsls	r2, r2, #2
 1060 0046 1649     		ldr	r1, .L95+4
 1061 0048 0A44     		add	r2, r2, r1
 1062 004a 5278     		ldrb	r2, [r2, #1]	@ zero_extendqisi2
 1063 004c D2B2     		uxtb	r2, r2
 1064 004e 012A     		cmp	r2, #1
 1065 0050 05D1     		bne	.L89
1188:.\Generated_Source\PSoC5/USBFS_std.c ****             {       
1189:.\Generated_Source\PSoC5/USBFS_std.c ****                 /* Wait for next packet from application */
1190:.\Generated_Source\PSoC5/USBFS_std.c ****                 USBFS_SIE_EP_BASE.sieEp[ep].epCr0 = USBFS_MODE_NAK_IN;
 1066              		.loc 1 1190 0
 1067 0052 1B01     		lsls	r3, r3, #4
 1068              	.LVL97:
 1069 0054 0246     		mov	r2, r0
 1070 0056 1A44     		add	r2, r2, r3
 1071 0058 0C23     		movs	r3, #12
 1072 005a 9370     		strb	r3, [r2, #2]
 1073 005c 19E0     		b	.L90
 1074              	.LVL98:
 1075              	.L89:
1191:.\Generated_Source\PSoC5/USBFS_std.c ****             }
1192:.\Generated_Source\PSoC5/USBFS_std.c ****             else    /* Continue armed transfer */
1193:.\Generated_Source\PSoC5/USBFS_std.c ****             {
1194:.\Generated_Source\PSoC5/USBFS_std.c ****                 USBFS_SIE_EP_BASE.sieEp[ep].epCr0 = USBFS_MODE_ACK_IN;
 1076              		.loc 1 1194 0
 1077 005e 1B01     		lsls	r3, r3, #4
 1078              	.LVL99:
 1079 0060 104A     		ldr	r2, .L95+8
 1080 0062 1A44     		add	r2, r2, r3
 1081 0064 0D23     		movs	r3, #13
 1082 0066 9370     		strb	r3, [r2, #2]
 1083 0068 13E0     		b	.L90
 1084              	.LVL100:
 1085              	.L88:
1195:.\Generated_Source\PSoC5/USBFS_std.c ****             }
1196:.\Generated_Source\PSoC5/USBFS_std.c ****         }
1197:.\Generated_Source\PSoC5/USBFS_std.c ****         else
1198:.\Generated_Source\PSoC5/USBFS_std.c ****         {
1199:.\Generated_Source\PSoC5/USBFS_std.c ****             /* OUT Endpoint */
1200:.\Generated_Source\PSoC5/USBFS_std.c ****             if (USBFS_EP[ep].apiEpState == USBFS_OUT_BUFFER_FULL)
 1086              		.loc 1 1200 0
 1087 006a 03EB4302 		add	r2, r3, r3, lsl #1
 1088 006e 9200     		lsls	r2, r2, #2
 1089 0070 0B49     		ldr	r1, .L95+4
 1090 0072 0A44     		add	r2, r2, r1
 1091 0074 5278     		ldrb	r2, [r2, #1]	@ zero_extendqisi2
 1092 0076 D2B2     		uxtb	r2, r2
 1093 0078 012A     		cmp	r2, #1
 1094 007a 05D1     		bne	.L91
1201:.\Generated_Source\PSoC5/USBFS_std.c ****             {       
1202:.\Generated_Source\PSoC5/USBFS_std.c ****                 /* Allow application to read full buffer */
ARM GAS  C:\Users\Patrick\AppData\Local\Temp\ccvH7eQO.s 			page 43


1203:.\Generated_Source\PSoC5/USBFS_std.c ****                 USBFS_SIE_EP_BASE.sieEp[ep].epCr0 = USBFS_MODE_NAK_OUT;
 1095              		.loc 1 1203 0
 1096 007c 1B01     		lsls	r3, r3, #4
 1097              	.LVL101:
 1098 007e 094A     		ldr	r2, .L95+8
 1099 0080 1A44     		add	r2, r2, r3
 1100 0082 0823     		movs	r3, #8
 1101 0084 9370     		strb	r3, [r2, #2]
 1102 0086 04E0     		b	.L90
 1103              	.LVL102:
 1104              	.L91:
1204:.\Generated_Source\PSoC5/USBFS_std.c ****             }
1205:.\Generated_Source\PSoC5/USBFS_std.c ****             else    /* Mark endpoint as empty, so it will be reloaded */
1206:.\Generated_Source\PSoC5/USBFS_std.c ****             {
1207:.\Generated_Source\PSoC5/USBFS_std.c ****                 USBFS_SIE_EP_BASE.sieEp[ep].epCr0 = USBFS_MODE_ACK_OUT;
 1105              		.loc 1 1207 0
 1106 0088 1B01     		lsls	r3, r3, #4
 1107              	.LVL103:
 1108 008a 064A     		ldr	r2, .L95+8
 1109 008c 1A44     		add	r2, r2, r3
 1110 008e 0923     		movs	r3, #9
 1111 0090 9370     		strb	r3, [r2, #2]
 1112              	.L90:
1208:.\Generated_Source\PSoC5/USBFS_std.c ****             }
1209:.\Generated_Source\PSoC5/USBFS_std.c ****         }
1210:.\Generated_Source\PSoC5/USBFS_std.c ****         
1211:.\Generated_Source\PSoC5/USBFS_std.c ****         requestHandled = USBFS_InitNoDataControlTransfer();
 1113              		.loc 1 1211 0
 1114 0092 FFF7FEFF 		bl	USBFS_InitNoDataControlTransfer
 1115              	.LVL104:
 1116 0096 10BD     		pop	{r4, pc}
 1117              	.LVL105:
 1118              	.L92:
 1119              		.cfi_def_cfa_offset 0
 1120              		.cfi_restore 4
 1121              		.cfi_restore 14
1164:.\Generated_Source\PSoC5/USBFS_std.c ****     uint8 ep;
 1122              		.loc 1 1164 0
 1123 0098 0020     		movs	r0, #0
 1124 009a 7047     		bx	lr
 1125              	.L96:
 1126              		.align	2
 1127              	.L95:
 1128 009c 00600040 		.word	1073766400
 1129 00a0 00000000 		.word	USBFS_EP
 1130 00a4 FC5F0040 		.word	1073766396
 1131              		.cfi_endproc
 1132              	.LFE10:
 1133              		.size	USBFS_ClearEndpointHalt, .-USBFS_ClearEndpointHalt
 1134              		.section	.text.USBFS_ValidateAlternateSetting,"ax",%progbits
 1135              		.align	2
 1136              		.global	USBFS_ValidateAlternateSetting
 1137              		.thumb
 1138              		.thumb_func
 1139              		.type	USBFS_ValidateAlternateSetting, %function
 1140              	USBFS_ValidateAlternateSetting:
 1141              	.LFB11:
ARM GAS  C:\Users\Patrick\AppData\Local\Temp\ccvH7eQO.s 			page 44


1212:.\Generated_Source\PSoC5/USBFS_std.c ****     }
1213:.\Generated_Source\PSoC5/USBFS_std.c **** 
1214:.\Generated_Source\PSoC5/USBFS_std.c ****     return(requestHandled);
1215:.\Generated_Source\PSoC5/USBFS_std.c **** }
1216:.\Generated_Source\PSoC5/USBFS_std.c **** 
1217:.\Generated_Source\PSoC5/USBFS_std.c **** 
1218:.\Generated_Source\PSoC5/USBFS_std.c **** /*******************************************************************************
1219:.\Generated_Source\PSoC5/USBFS_std.c **** * Function Name: USBFS_ValidateAlternateSetting
1220:.\Generated_Source\PSoC5/USBFS_std.c **** ****************************************************************************//**
1221:.\Generated_Source\PSoC5/USBFS_std.c **** *
1222:.\Generated_Source\PSoC5/USBFS_std.c **** *  Validates (and records) a SET INTERFACE request.
1223:.\Generated_Source\PSoC5/USBFS_std.c **** *
1224:.\Generated_Source\PSoC5/USBFS_std.c **** * \return
1225:.\Generated_Source\PSoC5/USBFS_std.c **** *  requestHandled.
1226:.\Generated_Source\PSoC5/USBFS_std.c **** *
1227:.\Generated_Source\PSoC5/USBFS_std.c **** * \reentrant
1228:.\Generated_Source\PSoC5/USBFS_std.c **** *  No.
1229:.\Generated_Source\PSoC5/USBFS_std.c **** *
1230:.\Generated_Source\PSoC5/USBFS_std.c **** *******************************************************************************/
1231:.\Generated_Source\PSoC5/USBFS_std.c **** uint8 USBFS_ValidateAlternateSetting(void) 
1232:.\Generated_Source\PSoC5/USBFS_std.c **** {
 1142              		.loc 1 1232 0
 1143              		.cfi_startproc
 1144              		@ args = 0, pretend = 0, frame = 0
 1145              		@ frame_needed = 0, uses_anonymous_args = 0
 1146 0000 10B5     		push	{r4, lr}
 1147              		.cfi_def_cfa_offset 8
 1148              		.cfi_offset 4, -8
 1149              		.cfi_offset 14, -4
 1150              	.LVL106:
1233:.\Generated_Source\PSoC5/USBFS_std.c ****     uint8 requestHandled = USBFS_FALSE;
1234:.\Generated_Source\PSoC5/USBFS_std.c ****     
1235:.\Generated_Source\PSoC5/USBFS_std.c ****     uint8 interfaceNum;
1236:.\Generated_Source\PSoC5/USBFS_std.c ****     uint8 curInterfacesNum;
1237:.\Generated_Source\PSoC5/USBFS_std.c ****     const T_USBFS_LUT CYCODE *pTmp;
1238:.\Generated_Source\PSoC5/USBFS_std.c ****     
1239:.\Generated_Source\PSoC5/USBFS_std.c ****     /* Get interface number from the request. */
1240:.\Generated_Source\PSoC5/USBFS_std.c ****     interfaceNum = (uint8) USBFS_wIndexLoReg;
 1151              		.loc 1 1240 0
 1152 0002 0E4B     		ldr	r3, .L102
 1153 0004 1C79     		ldrb	r4, [r3, #4]	@ zero_extendqisi2
 1154 0006 E4B2     		uxtb	r4, r4
 1155              	.LVL107:
1241:.\Generated_Source\PSoC5/USBFS_std.c ****     
1242:.\Generated_Source\PSoC5/USBFS_std.c ****     /* Get number of interfaces for current configuration. */
1243:.\Generated_Source\PSoC5/USBFS_std.c ****     pTmp = USBFS_GetConfigTablePtr(USBFS_configuration - 1u);
 1156              		.loc 1 1243 0
 1157 0008 0D4B     		ldr	r3, .L102+4
 1158 000a 1878     		ldrb	r0, [r3]	@ zero_extendqisi2
 1159 000c 0138     		subs	r0, r0, #1
 1160 000e C0B2     		uxtb	r0, r0
 1161 0010 FFF7FEFF 		bl	USBFS_GetConfigTablePtr
 1162              	.LVL108:
1244:.\Generated_Source\PSoC5/USBFS_std.c ****     curInterfacesNum  = ((const uint8 *) pTmp->p_list)[USBFS_CONFIG_DESCR_NUM_INTERFACES];
 1163              		.loc 1 1244 0
 1164 0014 4368     		ldr	r3, [r0, #4]
 1165 0016 1B79     		ldrb	r3, [r3, #4]	@ zero_extendqisi2
ARM GAS  C:\Users\Patrick\AppData\Local\Temp\ccvH7eQO.s 			page 45


 1166              	.LVL109:
1245:.\Generated_Source\PSoC5/USBFS_std.c **** 
1246:.\Generated_Source\PSoC5/USBFS_std.c ****     /* Validate that interface number is within range. */
1247:.\Generated_Source\PSoC5/USBFS_std.c ****     if ((interfaceNum <= curInterfacesNum) || (interfaceNum <= USBFS_MAX_INTERFACES_NUMBER))
 1167              		.loc 1 1247 0
 1168 0018 9C42     		cmp	r4, r3
 1169 001a 01D9     		bls	.L98
 1170              		.loc 1 1247 0 is_stmt 0 discriminator 1
 1171 001c 012C     		cmp	r4, #1
 1172 001e 0AD8     		bhi	.L100
 1173              	.L98:
1248:.\Generated_Source\PSoC5/USBFS_std.c ****     {
1249:.\Generated_Source\PSoC5/USBFS_std.c ****         /* Save current and new alternate settings (come with request) to make 
1250:.\Generated_Source\PSoC5/USBFS_std.c ****         * desicion about following endpoint re-configuration.
1251:.\Generated_Source\PSoC5/USBFS_std.c ****         */
1252:.\Generated_Source\PSoC5/USBFS_std.c ****         USBFS_interfaceSettingLast[interfaceNum] = USBFS_interfaceSetting[interfaceNum];
 1174              		.loc 1 1252 0 is_stmt 1
 1175 0020 084A     		ldr	r2, .L102+8
 1176 0022 135D     		ldrb	r3, [r2, r4]	@ zero_extendqisi2
 1177              	.LVL110:
 1178 0024 DBB2     		uxtb	r3, r3
 1179 0026 0849     		ldr	r1, .L102+12
 1180 0028 0B55     		strb	r3, [r1, r4]
1253:.\Generated_Source\PSoC5/USBFS_std.c ****         USBFS_interfaceSetting[interfaceNum]     = (uint8) USBFS_wValueLoReg;
 1181              		.loc 1 1253 0
 1182 002a 044B     		ldr	r3, .L102
 1183 002c 9B78     		ldrb	r3, [r3, #2]	@ zero_extendqisi2
 1184 002e DBB2     		uxtb	r3, r3
 1185 0030 1355     		strb	r3, [r2, r4]
 1186              	.LVL111:
1254:.\Generated_Source\PSoC5/USBFS_std.c ****         
1255:.\Generated_Source\PSoC5/USBFS_std.c ****         requestHandled = USBFS_TRUE;
 1187              		.loc 1 1255 0
 1188 0032 0120     		movs	r0, #1
 1189              	.LVL112:
 1190 0034 10BD     		pop	{r4, pc}
 1191              	.LVL113:
 1192              	.L100:
1233:.\Generated_Source\PSoC5/USBFS_std.c ****     
 1193              		.loc 1 1233 0
 1194 0036 0020     		movs	r0, #0
 1195              	.LVL114:
1256:.\Generated_Source\PSoC5/USBFS_std.c ****     }
1257:.\Generated_Source\PSoC5/USBFS_std.c **** 
1258:.\Generated_Source\PSoC5/USBFS_std.c ****     return (requestHandled);
1259:.\Generated_Source\PSoC5/USBFS_std.c **** }
 1196              		.loc 1 1259 0
 1197 0038 10BD     		pop	{r4, pc}
 1198              	.LVL115:
 1199              	.L103:
 1200 003a 00BF     		.align	2
 1201              	.L102:
 1202 003c 00600040 		.word	1073766400
 1203 0040 00000000 		.word	USBFS_configuration
 1204 0044 00000000 		.word	USBFS_interfaceSetting
 1205 0048 00000000 		.word	USBFS_interfaceSettingLast
 1206              		.cfi_endproc
ARM GAS  C:\Users\Patrick\AppData\Local\Temp\ccvH7eQO.s 			page 46


 1207              	.LFE11:
 1208              		.size	USBFS_ValidateAlternateSetting, .-USBFS_ValidateAlternateSetting
 1209              		.section	.text.USBFS_HandleStandardRqst,"ax",%progbits
 1210              		.align	2
 1211              		.global	USBFS_HandleStandardRqst
 1212              		.thumb
 1213              		.thumb_func
 1214              		.type	USBFS_HandleStandardRqst, %function
 1215              	USBFS_HandleStandardRqst:
 1216              	.LFB0:
  85:.\Generated_Source\PSoC5/USBFS_std.c ****     uint8 requestHandled = USBFS_FALSE;
 1217              		.loc 1 85 0
 1218              		.cfi_startproc
 1219              		@ args = 0, pretend = 0, frame = 0
 1220              		@ frame_needed = 0, uses_anonymous_args = 0
 1221 0000 10B5     		push	{r4, lr}
 1222              		.cfi_def_cfa_offset 8
 1223              		.cfi_offset 4, -8
 1224              		.cfi_offset 14, -4
 1225              	.LVL116:
  89:.\Generated_Source\PSoC5/USBFS_std.c **** 
 1226              		.loc 1 89 0
 1227 0002 994B     		ldr	r3, .L160
 1228 0004 1B78     		ldrb	r3, [r3]	@ zero_extendqisi2
 1229 0006 DBB2     		uxtb	r3, r3
 1230              	.LVL117:
 102:.\Generated_Source\PSoC5/USBFS_std.c **** 
 1231              		.loc 1 102 0
 1232 0008 0021     		movs	r1, #0
 1233 000a 984A     		ldr	r2, .L160+4
 1234 000c 1180     		strh	r1, [r2]	@ movhi
 104:.\Generated_Source\PSoC5/USBFS_std.c ****     {
 1235              		.loc 1 104 0
 1236 000e 13F0800F 		tst	r3, #128
 1237 0012 00F0A980 		beq	.L105
 107:.\Generated_Source\PSoC5/USBFS_std.c ****         {
 1238              		.loc 1 107 0
 1239 0016 944A     		ldr	r2, .L160
 1240 0018 5278     		ldrb	r2, [r2, #1]	@ zero_extendqisi2
 1241 001a D2B2     		uxtb	r2, r2
 1242 001c 0A2A     		cmp	r2, #10
 1243 001e 00F26E81 		bhi	.L138
 1244 0022 DFE812F0 		tbh	[pc, r2, lsl #1]
 1245              	.L108:
 1246 0026 6500     		.2byte	(.L107-.L108)/2
 1247 0028 6C01     		.2byte	(.L138-.L108)/2
 1248 002a 6C01     		.2byte	(.L138-.L108)/2
 1249 002c 6C01     		.2byte	(.L138-.L108)/2
 1250 002e 6C01     		.2byte	(.L138-.L108)/2
 1251 0030 6C01     		.2byte	(.L138-.L108)/2
 1252 0032 0B00     		.2byte	(.L109-.L108)/2
 1253 0034 6C01     		.2byte	(.L138-.L108)/2
 1254 0036 8E00     		.2byte	(.L110-.L108)/2
 1255 0038 6C01     		.2byte	(.L138-.L108)/2
 1256 003a 9600     		.2byte	(.L111-.L108)/2
 1257              		.p2align 1
 1258              	.L109:
ARM GAS  C:\Users\Patrick\AppData\Local\Temp\ccvH7eQO.s 			page 47


 110:.\Generated_Source\PSoC5/USBFS_std.c ****                 {
 1259              		.loc 1 110 0
 1260 003c 8A4B     		ldr	r3, .L160
 1261              	.LVL118:
 1262 003e DB78     		ldrb	r3, [r3, #3]	@ zero_extendqisi2
 1263 0040 DBB2     		uxtb	r3, r3
 1264 0042 012B     		cmp	r3, #1
 1265 0044 09D1     		bne	.L112
 112:.\Generated_Source\PSoC5/USBFS_std.c ****                     USBFS_currentTD.pData = (volatile uint8 *)pTmp->p_list;
 1266              		.loc 1 112 0
 1267 0046 FFF7FEFF 		bl	USBFS_GetDeviceTablePtr
 1268              	.LVL119:
 113:.\Generated_Source\PSoC5/USBFS_std.c ****                     USBFS_currentTD.count = USBFS_DEVICE_DESCR_LENGTH;
 1269              		.loc 1 113 0
 1270 004a 4268     		ldr	r2, [r0, #4]
 1271 004c 874B     		ldr	r3, .L160+4
 1272 004e 5A60     		str	r2, [r3, #4]
 114:.\Generated_Source\PSoC5/USBFS_std.c ****                     
 1273              		.loc 1 114 0
 1274 0050 1222     		movs	r2, #18
 1275 0052 1A80     		strh	r2, [r3]	@ movhi
 116:.\Generated_Source\PSoC5/USBFS_std.c ****                 }
 1276              		.loc 1 116 0
 1277 0054 FFF7FEFF 		bl	USBFS_InitControlRead
 1278              	.LVL120:
 1279 0058 10BD     		pop	{r4, pc}
 1280              	.LVL121:
 1281              	.L112:
 118:.\Generated_Source\PSoC5/USBFS_std.c ****                 {
 1282              		.loc 1 118 0
 1283 005a 834B     		ldr	r3, .L160
 1284 005c DB78     		ldrb	r3, [r3, #3]	@ zero_extendqisi2
 1285 005e DBB2     		uxtb	r3, r3
 1286 0060 022B     		cmp	r3, #2
 1287 0062 13D1     		bne	.L113
 120:.\Generated_Source\PSoC5/USBFS_std.c ****                     
 1288              		.loc 1 120 0
 1289 0064 804B     		ldr	r3, .L160
 1290 0066 9878     		ldrb	r0, [r3, #2]	@ zero_extendqisi2
 1291 0068 FFF7FEFF 		bl	USBFS_GetConfigTablePtr
 1292              	.LVL122:
 123:.\Generated_Source\PSoC5/USBFS_std.c ****                     {
 1293              		.loc 1 123 0
 1294 006c 0028     		cmp	r0, #0
 1295 006e 00F04881 		beq	.L139
 125:.\Generated_Source\PSoC5/USBFS_std.c ****                         USBFS_currentTD.count = (uint16)((uint16)(USBFS_currentTD.pData)[USBFS_CONF
 1296              		.loc 1 125 0
 1297 0072 4268     		ldr	r2, [r0, #4]
 1298 0074 7D4B     		ldr	r3, .L160+4
 1299 0076 5A60     		str	r2, [r3, #4]
 126:.\Generated_Source\PSoC5/USBFS_std.c ****                                                                             (USBFS_currentTD.pData)
 1300              		.loc 1 126 0
 1301 0078 5A68     		ldr	r2, [r3, #4]
 1302 007a D178     		ldrb	r1, [r2, #3]	@ zero_extendqisi2
 127:.\Generated_Source\PSoC5/USBFS_std.c ****                         requestHandled  = USBFS_InitControlRead();
 1303              		.loc 1 127 0
 1304 007c 5A68     		ldr	r2, [r3, #4]
ARM GAS  C:\Users\Patrick\AppData\Local\Temp\ccvH7eQO.s 			page 48


 1305 007e 9278     		ldrb	r2, [r2, #2]	@ zero_extendqisi2
 126:.\Generated_Source\PSoC5/USBFS_std.c ****                                                                             (USBFS_currentTD.pData)
 1306              		.loc 1 126 0
 1307 0080 42EA0122 		orr	r2, r2, r1, lsl #8
 1308 0084 1A80     		strh	r2, [r3]	@ movhi
 128:.\Generated_Source\PSoC5/USBFS_std.c ****                     }
 1309              		.loc 1 128 0
 1310 0086 FFF7FEFF 		bl	USBFS_InitControlRead
 1311              	.LVL123:
 1312 008a 10BD     		pop	{r4, pc}
 1313              	.LVL124:
 1314              	.L113:
 149:.\Generated_Source\PSoC5/USBFS_std.c ****                 {
 1315              		.loc 1 149 0
 1316 008c 764B     		ldr	r3, .L160
 1317 008e DB78     		ldrb	r3, [r3, #3]	@ zero_extendqisi2
 1318 0090 DBB2     		uxtb	r3, r3
 1319 0092 032B     		cmp	r3, #3
 1320 0094 05D0     		beq	.L140
 1321 0096 28E0     		b	.L155
 1322              	.LVL125:
 1323              	.L117:
 159:.\Generated_Source\PSoC5/USBFS_std.c ****                         /* Move to next string descriptor */
 1324              		.loc 1 159 0
 1325 0098 0A78     		ldrb	r2, [r1]	@ zero_extendqisi2
 1326              	.LVL126:
 161:.\Generated_Source\PSoC5/USBFS_std.c ****                         nStr++;
 1327              		.loc 1 161 0
 1328 009a 1144     		add	r1, r1, r2
 1329              	.LVL127:
 162:.\Generated_Source\PSoC5/USBFS_std.c ****                     }
 1330              		.loc 1 162 0
 1331 009c 0133     		adds	r3, r3, #1
 1332              	.LVL128:
 1333 009e DBB2     		uxtb	r3, r3
 1334              	.LVL129:
 1335 00a0 01E0     		b	.L114
 1336              	.LVL130:
 1337              	.L140:
 1338 00a2 0023     		movs	r3, #0
 1339 00a4 7249     		ldr	r1, .L160+8
 1340              	.LVL131:
 1341              	.L114:
 156:.\Generated_Source\PSoC5/USBFS_std.c ****                     {
 1342              		.loc 1 156 0
 1343 00a6 704A     		ldr	r2, .L160
 1344 00a8 9278     		ldrb	r2, [r2, #2]	@ zero_extendqisi2
 1345 00aa D2B2     		uxtb	r2, r2
 1346 00ac 9A42     		cmp	r2, r3
 1347 00ae 03D9     		bls	.L116
 156:.\Generated_Source\PSoC5/USBFS_std.c ****                     {
 1348              		.loc 1 156 0 is_stmt 0 discriminator 1
 1349 00b0 0A78     		ldrb	r2, [r1]	@ zero_extendqisi2
 1350 00b2 12F0FF0F 		tst	r2, #255
 1351 00b6 EFD1     		bne	.L117
 1352              	.L116:
 176:.\Generated_Source\PSoC5/USBFS_std.c ****                         (USBFS_wValueLoReg == USBFS_DEVICE0_DESCR[USBFS_DEVICE_DESCR_SN_SHIFT]))
ARM GAS  C:\Users\Patrick\AppData\Local\Temp\ccvH7eQO.s 			page 49


 1353              		.loc 1 176 0 is_stmt 1
 1354 00b8 6B4B     		ldr	r3, .L160
 1355              	.LVL132:
 1356 00ba 9B78     		ldrb	r3, [r3, #2]	@ zero_extendqisi2
 1357 00bc 13F0FF0F 		tst	r3, #255
 1358 00c0 07D0     		beq	.L118
 177:.\Generated_Source\PSoC5/USBFS_std.c ****                     {
 1359              		.loc 1 177 0 discriminator 1
 1360 00c2 694B     		ldr	r3, .L160
 1361 00c4 9B78     		ldrb	r3, [r3, #2]	@ zero_extendqisi2
 1362 00c6 DBB2     		uxtb	r3, r3
 1363 00c8 6A4A     		ldr	r2, .L160+12
 1364 00ca 127C     		ldrb	r2, [r2, #16]	@ zero_extendqisi2
 176:.\Generated_Source\PSoC5/USBFS_std.c ****                         (USBFS_wValueLoReg == USBFS_DEVICE0_DESCR[USBFS_DEVICE_DESCR_SN_SHIFT]))
 1365              		.loc 1 176 0 discriminator 1
 1366 00cc 9342     		cmp	r3, r2
 1367 00ce 00D1     		bne	.L118
 194:.\Generated_Source\PSoC5/USBFS_std.c ****                     #endif  /* (USBFS_ENABLE_IDSN_STRING) */
 1368              		.loc 1 194 0
 1369 00d0 6949     		ldr	r1, .L160+16
 1370              	.LVL133:
 1371              	.L118:
 199:.\Generated_Source\PSoC5/USBFS_std.c ****                     {
 1372              		.loc 1 199 0
 1373 00d2 0B78     		ldrb	r3, [r1]	@ zero_extendqisi2
 1374 00d4 13F0FF0F 		tst	r3, #255
 1375 00d8 00F01581 		beq	.L142
 201:.\Generated_Source\PSoC5/USBFS_std.c ****                         USBFS_currentTD.pData = pStr;
 1376              		.loc 1 201 0
 1377 00dc 0B78     		ldrb	r3, [r1]	@ zero_extendqisi2
 1378 00de 634A     		ldr	r2, .L160+4
 1379 00e0 1380     		strh	r3, [r2]	@ movhi
 202:.\Generated_Source\PSoC5/USBFS_std.c ****                         requestHandled  = USBFS_InitControlRead();
 1380              		.loc 1 202 0
 1381 00e2 5160     		str	r1, [r2, #4]
 203:.\Generated_Source\PSoC5/USBFS_std.c ****                     }
 1382              		.loc 1 203 0
 1383 00e4 FFF7FEFF 		bl	USBFS_InitControlRead
 1384              	.LVL134:
 1385 00e8 10BD     		pop	{r4, pc}
 1386              	.LVL135:
 1387              	.L155:
 209:.\Generated_Source\PSoC5/USBFS_std.c ****                 }
 1388              		.loc 1 209 0
 1389 00ea FFF7FEFF 		bl	USBFS_DispatchClassRqst
 1390              	.LVL136:
 1391 00ee 10BD     		pop	{r4, pc}
 1392              	.LVL137:
 1393              	.L107:
 214:.\Generated_Source\PSoC5/USBFS_std.c ****                 {
 1394              		.loc 1 214 0
 1395 00f0 13F00303 		ands	r3, r3, #3
 1396              	.LVL138:
 1397 00f4 17D0     		beq	.L119
 1398 00f6 022B     		cmp	r3, #2
 1399 00f8 40F00781 		bne	.L156
 217:.\Generated_Source\PSoC5/USBFS_std.c ****                         USBFS_tBuffer[0u]     = USBFS_EP[USBFS_wIndexLoReg & USBFS_DIR_UNUSED].hwEp
ARM GAS  C:\Users\Patrick\AppData\Local\Temp\ccvH7eQO.s 			page 50


 1400              		.loc 1 217 0
 1401 00fc 5B49     		ldr	r1, .L160+4
 1402 00fe 0B80     		strh	r3, [r1]	@ movhi
 218:.\Generated_Source\PSoC5/USBFS_std.c ****                         USBFS_tBuffer[1u]     = 0u;
 1403              		.loc 1 218 0
 1404 0100 594B     		ldr	r3, .L160
 1405 0102 1B79     		ldrb	r3, [r3, #4]	@ zero_extendqisi2
 1406 0104 03F07F03 		and	r3, r3, #127
 1407 0108 03EB4303 		add	r3, r3, r3, lsl #1
 1408 010c 9B00     		lsls	r3, r3, #2
 1409 010e 5B4A     		ldr	r2, .L160+20
 1410 0110 1344     		add	r3, r3, r2
 1411 0112 9A78     		ldrb	r2, [r3, #2]	@ zero_extendqisi2
 1412 0114 D2B2     		uxtb	r2, r2
 1413 0116 5A4B     		ldr	r3, .L160+24
 1414 0118 1A70     		strb	r2, [r3]
 219:.\Generated_Source\PSoC5/USBFS_std.c ****                         USBFS_currentTD.pData = &USBFS_tBuffer[0u];
 1415              		.loc 1 219 0
 1416 011a 0022     		movs	r2, #0
 1417 011c 5A70     		strb	r2, [r3, #1]
 220:.\Generated_Source\PSoC5/USBFS_std.c ****                         
 1418              		.loc 1 220 0
 1419 011e 4B60     		str	r3, [r1, #4]
 222:.\Generated_Source\PSoC5/USBFS_std.c ****                         break;
 1420              		.loc 1 222 0
 1421 0120 FFF7FEFF 		bl	USBFS_InitControlRead
 1422              	.LVL139:
 223:.\Generated_Source\PSoC5/USBFS_std.c ****                     case USBFS_RQST_RCPT_DEV:
 1423              		.loc 1 223 0
 1424 0124 10BD     		pop	{r4, pc}
 1425              	.LVL140:
 1426              	.L119:
 225:.\Generated_Source\PSoC5/USBFS_std.c ****                         USBFS_tBuffer[0u]     = USBFS_deviceStatus;
 1427              		.loc 1 225 0
 1428 0126 5149     		ldr	r1, .L160+4
 1429 0128 0223     		movs	r3, #2
 1430 012a 0B80     		strh	r3, [r1]	@ movhi
 226:.\Generated_Source\PSoC5/USBFS_std.c ****                         USBFS_tBuffer[1u]     = 0u;
 1431              		.loc 1 226 0
 1432 012c 554B     		ldr	r3, .L160+28
 1433 012e 1A78     		ldrb	r2, [r3]	@ zero_extendqisi2
 1434 0130 D2B2     		uxtb	r2, r2
 1435 0132 534B     		ldr	r3, .L160+24
 1436 0134 1A70     		strb	r2, [r3]
 227:.\Generated_Source\PSoC5/USBFS_std.c ****                         USBFS_currentTD.pData = &USBFS_tBuffer[0u];
 1437              		.loc 1 227 0
 1438 0136 0022     		movs	r2, #0
 1439 0138 5A70     		strb	r2, [r3, #1]
 228:.\Generated_Source\PSoC5/USBFS_std.c ****                         
 1440              		.loc 1 228 0
 1441 013a 4B60     		str	r3, [r1, #4]
 230:.\Generated_Source\PSoC5/USBFS_std.c ****                         break;
 1442              		.loc 1 230 0
 1443 013c FFF7FEFF 		bl	USBFS_InitControlRead
 1444              	.LVL141:
 231:.\Generated_Source\PSoC5/USBFS_std.c ****                     default:    /* requestHandled is initialized as FALSE by default */
 1445              		.loc 1 231 0
ARM GAS  C:\Users\Patrick\AppData\Local\Temp\ccvH7eQO.s 			page 51


 1446 0140 10BD     		pop	{r4, pc}
 1447              	.LVL142:
 1448              	.L110:
 238:.\Generated_Source\PSoC5/USBFS_std.c ****                 USBFS_currentTD.pData = (volatile uint8 *) &USBFS_configuration;
 1449              		.loc 1 238 0
 1450 0142 4A4B     		ldr	r3, .L160+4
 1451              	.LVL143:
 1452 0144 0122     		movs	r2, #1
 1453 0146 1A80     		strh	r2, [r3]	@ movhi
 239:.\Generated_Source\PSoC5/USBFS_std.c ****                 requestHandled  = USBFS_InitControlRead();
 1454              		.loc 1 239 0
 1455 0148 4F4A     		ldr	r2, .L160+32
 1456 014a 5A60     		str	r2, [r3, #4]
 240:.\Generated_Source\PSoC5/USBFS_std.c ****                 break;
 1457              		.loc 1 240 0
 1458 014c FFF7FEFF 		bl	USBFS_InitControlRead
 1459              	.LVL144:
 241:.\Generated_Source\PSoC5/USBFS_std.c ****                 
 1460              		.loc 1 241 0
 1461 0150 10BD     		pop	{r4, pc}
 1462              	.LVL145:
 1463              	.L111:
 244:.\Generated_Source\PSoC5/USBFS_std.c ****                 USBFS_currentTD.pData = (volatile uint8 *) &USBFS_interfaceSetting[USBFS_wIndexLoRe
 1464              		.loc 1 244 0
 1465 0152 464A     		ldr	r2, .L160+4
 1466 0154 0123     		movs	r3, #1
 1467              	.LVL146:
 1468 0156 1380     		strh	r3, [r2]	@ movhi
 245:.\Generated_Source\PSoC5/USBFS_std.c ****                 requestHandled  = USBFS_InitControlRead();
 1469              		.loc 1 245 0
 1470 0158 434B     		ldr	r3, .L160
 1471 015a 1B79     		ldrb	r3, [r3, #4]	@ zero_extendqisi2
 1472 015c 4B49     		ldr	r1, .L160+36
 1473 015e 0B44     		add	r3, r3, r1
 1474 0160 5360     		str	r3, [r2, #4]
 246:.\Generated_Source\PSoC5/USBFS_std.c ****                 break;
 1475              		.loc 1 246 0
 1476 0162 FFF7FEFF 		bl	USBFS_InitControlRead
 1477              	.LVL147:
 247:.\Generated_Source\PSoC5/USBFS_std.c ****                 
 1478              		.loc 1 247 0
 1479 0166 10BD     		pop	{r4, pc}
 1480              	.LVL148:
 1481              	.L105:
 256:.\Generated_Source\PSoC5/USBFS_std.c ****         {
 1482              		.loc 1 256 0
 1483 0168 3F4A     		ldr	r2, .L160
 1484 016a 5278     		ldrb	r2, [r2, #1]	@ zero_extendqisi2
 1485 016c 013A     		subs	r2, r2, #1
 1486 016e 0A2A     		cmp	r2, #10
 1487 0170 00F2CD80 		bhi	.L144
 1488 0174 DFE812F0 		tbh	[pc, r2, lsl #1]
 1489              	.L122:
 1490 0178 4B00     		.2byte	(.L121-.L122)/2
 1491 017a CB00     		.2byte	(.L144-.L122)/2
 1492 017c 9600     		.2byte	(.L123-.L122)/2
 1493 017e CB00     		.2byte	(.L144-.L122)/2
ARM GAS  C:\Users\Patrick\AppData\Local\Temp\ccvH7eQO.s 			page 52


 1494 0180 0B00     		.2byte	(.L124-.L122)/2
 1495 0182 CB00     		.2byte	(.L144-.L122)/2
 1496 0184 CB00     		.2byte	(.L144-.L122)/2
 1497 0186 CB00     		.2byte	(.L144-.L122)/2
 1498 0188 1300     		.2byte	(.L125-.L122)/2
 1499 018a CB00     		.2byte	(.L144-.L122)/2
 1500 018c 3000     		.2byte	(.L126-.L122)/2
 1501              		.p2align 1
 1502              	.L124:
 260:.\Generated_Source\PSoC5/USBFS_std.c ****                 requestHandled = USBFS_InitNoDataControlTransfer();
 1503              		.loc 1 260 0
 1504 018e 364B     		ldr	r3, .L160
 1505              	.LVL149:
 1506 0190 9B78     		ldrb	r3, [r3, #2]	@ zero_extendqisi2
 1507 0192 DBB2     		uxtb	r3, r3
 1508 0194 3E4A     		ldr	r2, .L160+40
 1509 0196 1370     		strb	r3, [r2]
 261:.\Generated_Source\PSoC5/USBFS_std.c ****                 break;
 1510              		.loc 1 261 0
 1511 0198 FFF7FEFF 		bl	USBFS_InitNoDataControlTransfer
 1512              	.LVL150:
 262:.\Generated_Source\PSoC5/USBFS_std.c ****                 
 1513              		.loc 1 262 0
 1514 019c 10BD     		pop	{r4, pc}
 1515              	.LVL151:
 1516              	.L125:
 265:.\Generated_Source\PSoC5/USBFS_std.c ****                 
 1517              		.loc 1 265 0
 1518 019e 324B     		ldr	r3, .L160
 1519              	.LVL152:
 1520 01a0 9B78     		ldrb	r3, [r3, #2]	@ zero_extendqisi2
 1521              	.LVL153:
 268:.\Generated_Source\PSoC5/USBFS_std.c ****                 {
 1522              		.loc 1 268 0
 1523 01a2 03F0FF04 		and	r4, r3, #255
 1524 01a6 1BB1     		cbz	r3, .L127
 270:.\Generated_Source\PSoC5/USBFS_std.c ****                 }
 1525              		.loc 1 270 0
 1526 01a8 601E     		subs	r0, r4, #1
 1527 01aa C0B2     		uxtb	r0, r0
 1528 01ac FFF7FEFF 		bl	USBFS_GetConfigTablePtr
 1529              	.LVL154:
 1530              	.L127:
 274:.\Generated_Source\PSoC5/USBFS_std.c ****                 {
 1531              		.loc 1 274 0
 1532 01b0 04B1     		cbz	r4, .L128
 274:.\Generated_Source\PSoC5/USBFS_std.c ****                 {
 1533              		.loc 1 274 0 is_stmt 0 discriminator 1
 1534 01b2 10B9     		cbnz	r0, .L129
 1535              	.L128:
 274:.\Generated_Source\PSoC5/USBFS_std.c ****                 {
 1536              		.loc 1 274 0 discriminator 3
 1537 01b4 002C     		cmp	r4, #0
 1538 01b6 40F0AC80 		bne	.L145
 1539              	.L129:
 277:.\Generated_Source\PSoC5/USBFS_std.c ****                     {
 1540              		.loc 1 277 0 is_stmt 1
ARM GAS  C:\Users\Patrick\AppData\Local\Temp\ccvH7eQO.s 			page 53


 1541 01ba 334B     		ldr	r3, .L160+32
 1542 01bc 1B78     		ldrb	r3, [r3]	@ zero_extendqisi2
 1543 01be DBB2     		uxtb	r3, r3
 1544 01c0 9C42     		cmp	r4, r3
 1545 01c2 06D0     		beq	.L130
 279:.\Generated_Source\PSoC5/USBFS_std.c ****                         USBFS_configurationChanged = USBFS_TRUE;
 1546              		.loc 1 279 0
 1547 01c4 304B     		ldr	r3, .L160+32
 1548 01c6 1C70     		strb	r4, [r3]
 280:.\Generated_Source\PSoC5/USBFS_std.c ****                         USBFS_Config(USBFS_TRUE);
 1549              		.loc 1 280 0
 1550 01c8 0120     		movs	r0, #1
 1551              	.LVL155:
 1552 01ca 324B     		ldr	r3, .L160+44
 1553 01cc 1870     		strb	r0, [r3]
 281:.\Generated_Source\PSoC5/USBFS_std.c ****                     }
 1554              		.loc 1 281 0
 1555 01ce FFF7FEFF 		bl	USBFS_Config
 1556              	.LVL156:
 1557              	.L130:
 283:.\Generated_Source\PSoC5/USBFS_std.c ****                 }
 1558              		.loc 1 283 0
 1559 01d2 FFF7FEFF 		bl	USBFS_InitNoDataControlTransfer
 1560              	.LVL157:
 1561 01d6 10BD     		pop	{r4, pc}
 1562              	.LVL158:
 1563              	.L126:
 288:.\Generated_Source\PSoC5/USBFS_std.c ****                 {
 1564              		.loc 1 288 0
 1565 01d8 FFF7FEFF 		bl	USBFS_ValidateAlternateSetting
 1566              	.LVL159:
 1567 01dc 0028     		cmp	r0, #0
 1568 01de 00F09A80 		beq	.L146
 291:.\Generated_Source\PSoC5/USBFS_std.c ****                     USBFS_interfaceNumber = (uint8) USBFS_wIndexLoReg;
 1569              		.loc 1 291 0
 1570 01e2 214A     		ldr	r2, .L160
 1571 01e4 1379     		ldrb	r3, [r2, #4]	@ zero_extendqisi2
 1572 01e6 DBB2     		uxtb	r3, r3
 1573              	.LVL160:
 292:.\Generated_Source\PSoC5/USBFS_std.c ****                      
 1574              		.loc 1 292 0
 1575 01e8 1279     		ldrb	r2, [r2, #4]	@ zero_extendqisi2
 1576 01ea D2B2     		uxtb	r2, r2
 1577 01ec 2A49     		ldr	r1, .L160+48
 1578 01ee 0A70     		strb	r2, [r1]
 295:.\Generated_Source\PSoC5/USBFS_std.c ****                     {
 1579              		.loc 1 295 0
 1580 01f0 2A4A     		ldr	r2, .L160+52
 1581 01f2 D25C     		ldrb	r2, [r2, r3]	@ zero_extendqisi2
 1582 01f4 2549     		ldr	r1, .L160+36
 1583 01f6 C95C     		ldrb	r1, [r1, r3]	@ zero_extendqisi2
 1584 01f8 D3B2     		uxtb	r3, r2
 1585              	.LVL161:
 1586 01fa 8B42     		cmp	r3, r1
 1587 01fc 04D0     		beq	.L131
 297:.\Generated_Source\PSoC5/USBFS_std.c ****                     
 1588              		.loc 1 297 0
ARM GAS  C:\Users\Patrick\AppData\Local\Temp\ccvH7eQO.s 			page 54


 1589 01fe 0122     		movs	r2, #1
 1590 0200 244B     		ldr	r3, .L160+44
 1591 0202 1A70     		strb	r2, [r3]
 303:.\Generated_Source\PSoC5/USBFS_std.c ****                     #endif /* (USBFS_EP_MANAGEMENT_MANUAL && USBFS_EP_ALLOC_DYNAMIC) */
 1592              		.loc 1 303 0
 1593 0204 FFF7FEFF 		bl	USBFS_ConfigAltChanged
 1594              	.LVL162:
 1595              	.L131:
 307:.\Generated_Source\PSoC5/USBFS_std.c ****                 }
 1596              		.loc 1 307 0
 1597 0208 FFF7FEFF 		bl	USBFS_InitNoDataControlTransfer
 1598              	.LVL163:
 1599 020c 10BD     		pop	{r4, pc}
 1600              	.LVL164:
 1601              	.L121:
 312:.\Generated_Source\PSoC5/USBFS_std.c ****                 {
 1602              		.loc 1 312 0
 1603 020e 03F00303 		and	r3, r3, #3
 1604              	.LVL165:
 1605 0212 012B     		cmp	r3, #1
 1606 0214 17D0     		beq	.L132
 1607 0216 4BB1     		cbz	r3, .L133
 1608 0218 022B     		cmp	r3, #2
 1609 021a 7ED1     		bne	.L157
 315:.\Generated_Source\PSoC5/USBFS_std.c ****                         {
 1610              		.loc 1 315 0
 1611 021c 124B     		ldr	r3, .L160
 1612 021e 9B78     		ldrb	r3, [r3, #2]	@ zero_extendqisi2
 1613 0220 13F0FF0F 		tst	r3, #255
 1614 0224 7BD1     		bne	.L148
 317:.\Generated_Source\PSoC5/USBFS_std.c ****                         }
 1615              		.loc 1 317 0
 1616 0226 FFF7FEFF 		bl	USBFS_ClearEndpointHalt
 1617              	.LVL166:
 1618 022a 10BD     		pop	{r4, pc}
 1619              	.LVL167:
 1620              	.L133:
 322:.\Generated_Source\PSoC5/USBFS_std.c ****                         {
 1621              		.loc 1 322 0
 1622 022c 0E4B     		ldr	r3, .L160
 1623 022e 9B78     		ldrb	r3, [r3, #2]	@ zero_extendqisi2
 1624 0230 DBB2     		uxtb	r3, r3
 1625 0232 012B     		cmp	r3, #1
 1626 0234 75D1     		bne	.L149
 324:.\Generated_Source\PSoC5/USBFS_std.c ****                             requestHandled = USBFS_InitNoDataControlTransfer();
 1627              		.loc 1 324 0
 1628 0236 134A     		ldr	r2, .L160+28
 1629 0238 1378     		ldrb	r3, [r2]	@ zero_extendqisi2
 1630 023a 03F0FD03 		and	r3, r3, #253
 1631 023e 1370     		strb	r3, [r2]
 325:.\Generated_Source\PSoC5/USBFS_std.c ****                         }
 1632              		.loc 1 325 0
 1633 0240 FFF7FEFF 		bl	USBFS_InitNoDataControlTransfer
 1634              	.LVL168:
 1635 0244 10BD     		pop	{r4, pc}
 1636              	.LVL169:
 1637              	.L132:
ARM GAS  C:\Users\Patrick\AppData\Local\Temp\ccvH7eQO.s 			page 55


 330:.\Generated_Source\PSoC5/USBFS_std.c ****                         {
 1638              		.loc 1 330 0
 1639 0246 084B     		ldr	r3, .L160
 1640 0248 1B79     		ldrb	r3, [r3, #4]	@ zero_extendqisi2
 1641 024a 13F0FF0F 		tst	r3, #255
 1642 024e 6AD1     		bne	.L150
 332:.\Generated_Source\PSoC5/USBFS_std.c ****                             requestHandled = USBFS_InitNoDataControlTransfer();
 1643              		.loc 1 332 0
 1644 0250 054B     		ldr	r3, .L160
 1645 0252 9878     		ldrb	r0, [r3, #2]	@ zero_extendqisi2
 1646 0254 1B79     		ldrb	r3, [r3, #4]	@ zero_extendqisi2
 1647 0256 DBB2     		uxtb	r3, r3
 1648 0258 1149     		ldr	r1, .L160+56
 1649 025a CA5C     		ldrb	r2, [r1, r3]	@ zero_extendqisi2
 1650 025c 22EA0002 		bic	r2, r2, r0
 1651 0260 CA54     		strb	r2, [r1, r3]
 333:.\Generated_Source\PSoC5/USBFS_std.c ****                         }
 1652              		.loc 1 333 0
 1653 0262 FFF7FEFF 		bl	USBFS_InitNoDataControlTransfer
 1654              	.LVL170:
 1655 0266 10BD     		pop	{r4, pc}
 1656              	.L161:
 1657              		.align	2
 1658              	.L160:
 1659 0268 00600040 		.word	1073766400
 1660 026c 00000000 		.word	USBFS_currentTD
 1661 0270 00000000 		.word	USBFS_STRING_DESCRIPTORS
 1662 0274 00000000 		.word	USBFS_DEVICE0_DESCR
 1663 0278 00000000 		.word	USBFS_SN_STRING_DESCRIPTOR
 1664 027c 00000000 		.word	USBFS_EP
 1665 0280 00000000 		.word	.LANCHOR0
 1666 0284 00000000 		.word	USBFS_deviceStatus
 1667 0288 00000000 		.word	USBFS_configuration
 1668 028c 00000000 		.word	USBFS_interfaceSetting
 1669 0290 00000000 		.word	USBFS_deviceAddress
 1670 0294 00000000 		.word	USBFS_configurationChanged
 1671 0298 00000000 		.word	USBFS_interfaceNumber
 1672 029c 00000000 		.word	USBFS_interfaceSettingLast
 1673 02a0 00000000 		.word	USBFS_interfaceStatus
 1674              	.LVL171:
 1675              	.L123:
 342:.\Generated_Source\PSoC5/USBFS_std.c ****                 {
 1676              		.loc 1 342 0
 1677 02a4 03F00303 		and	r3, r3, #3
 1678              	.LVL172:
 1679 02a8 012B     		cmp	r3, #1
 1680 02aa 17D0     		beq	.L135
 1681 02ac 4BB1     		cbz	r3, .L136
 1682 02ae 022B     		cmp	r3, #2
 1683 02b0 3BD1     		bne	.L158
 345:.\Generated_Source\PSoC5/USBFS_std.c ****                         {
 1684              		.loc 1 345 0
 1685 02b2 224B     		ldr	r3, .L162
 1686 02b4 9B78     		ldrb	r3, [r3, #2]	@ zero_extendqisi2
 1687 02b6 13F0FF0F 		tst	r3, #255
 1688 02ba 38D1     		bne	.L152
 347:.\Generated_Source\PSoC5/USBFS_std.c ****                         }
ARM GAS  C:\Users\Patrick\AppData\Local\Temp\ccvH7eQO.s 			page 56


 1689              		.loc 1 347 0
 1690 02bc FFF7FEFF 		bl	USBFS_SetEndpointHalt
 1691              	.LVL173:
 1692 02c0 10BD     		pop	{r4, pc}
 1693              	.LVL174:
 1694              	.L136:
 353:.\Generated_Source\PSoC5/USBFS_std.c ****                         {
 1695              		.loc 1 353 0
 1696 02c2 1E4B     		ldr	r3, .L162
 1697 02c4 9B78     		ldrb	r3, [r3, #2]	@ zero_extendqisi2
 1698 02c6 DBB2     		uxtb	r3, r3
 1699 02c8 012B     		cmp	r3, #1
 1700 02ca 32D1     		bne	.L153
 355:.\Generated_Source\PSoC5/USBFS_std.c ****                             requestHandled = USBFS_InitNoDataControlTransfer();
 1701              		.loc 1 355 0
 1702 02cc 1C4A     		ldr	r2, .L162+4
 1703 02ce 1378     		ldrb	r3, [r2]	@ zero_extendqisi2
 1704 02d0 43F00203 		orr	r3, r3, #2
 1705 02d4 1370     		strb	r3, [r2]
 356:.\Generated_Source\PSoC5/USBFS_std.c ****                         }
 1706              		.loc 1 356 0
 1707 02d6 FFF7FEFF 		bl	USBFS_InitNoDataControlTransfer
 1708              	.LVL175:
 1709 02da 10BD     		pop	{r4, pc}
 1710              	.LVL176:
 1711              	.L135:
 362:.\Generated_Source\PSoC5/USBFS_std.c ****                         {
 1712              		.loc 1 362 0
 1713 02dc 174B     		ldr	r3, .L162
 1714 02de 1B79     		ldrb	r3, [r3, #4]	@ zero_extendqisi2
 1715 02e0 13F0FF0F 		tst	r3, #255
 1716 02e4 27D1     		bne	.L154
 364:.\Generated_Source\PSoC5/USBFS_std.c ****                             requestHandled = USBFS_InitNoDataControlTransfer();
 1717              		.loc 1 364 0
 1718 02e6 154B     		ldr	r3, .L162
 1719 02e8 9878     		ldrb	r0, [r3, #2]	@ zero_extendqisi2
 1720 02ea 1B79     		ldrb	r3, [r3, #4]	@ zero_extendqisi2
 1721 02ec DBB2     		uxtb	r3, r3
 1722 02ee 1549     		ldr	r1, .L162+8
 1723 02f0 CA5C     		ldrb	r2, [r1, r3]	@ zero_extendqisi2
 1724 02f2 22EA0002 		bic	r2, r2, r0
 1725 02f6 CA54     		strb	r2, [r1, r3]
 365:.\Generated_Source\PSoC5/USBFS_std.c ****                         }
 1726              		.loc 1 365 0
 1727 02f8 FFF7FEFF 		bl	USBFS_InitNoDataControlTransfer
 1728              	.LVL177:
 1729 02fc 10BD     		pop	{r4, pc}
 1730              	.LVL178:
 1731              	.L138:
  86:.\Generated_Source\PSoC5/USBFS_std.c ****     uint8 interfaceNumber;
 1732              		.loc 1 86 0
 1733 02fe 0020     		movs	r0, #0
 1734 0300 10BD     		pop	{r4, pc}
 1735              	.LVL179:
 1736              	.L139:
 1737 0302 0020     		movs	r0, #0
 1738              	.LVL180:
ARM GAS  C:\Users\Patrick\AppData\Local\Temp\ccvH7eQO.s 			page 57


 1739 0304 10BD     		pop	{r4, pc}
 1740              	.LVL181:
 1741              	.L142:
 1742 0306 0020     		movs	r0, #0
 1743 0308 10BD     		pop	{r4, pc}
 1744              	.LVL182:
 1745              	.L156:
 1746 030a 0020     		movs	r0, #0
 1747 030c 10BD     		pop	{r4, pc}
 1748              	.LVL183:
 1749              	.L144:
 1750 030e 0020     		movs	r0, #0
 1751 0310 10BD     		pop	{r4, pc}
 1752              	.LVL184:
 1753              	.L145:
 1754 0312 0020     		movs	r0, #0
 1755              	.LVL185:
 1756 0314 10BD     		pop	{r4, pc}
 1757              	.L146:
 1758 0316 0020     		movs	r0, #0
 1759 0318 10BD     		pop	{r4, pc}
 1760              	.L157:
 1761 031a 0020     		movs	r0, #0
 1762 031c 10BD     		pop	{r4, pc}
 1763              	.L148:
 1764 031e 0020     		movs	r0, #0
 1765 0320 10BD     		pop	{r4, pc}
 1766              	.L149:
 1767 0322 0020     		movs	r0, #0
 1768 0324 10BD     		pop	{r4, pc}
 1769              	.L150:
 1770 0326 0020     		movs	r0, #0
 1771 0328 10BD     		pop	{r4, pc}
 1772              	.L158:
 1773 032a 0020     		movs	r0, #0
 1774 032c 10BD     		pop	{r4, pc}
 1775              	.L152:
 1776 032e 0020     		movs	r0, #0
 1777 0330 10BD     		pop	{r4, pc}
 1778              	.L153:
 1779 0332 0020     		movs	r0, #0
 1780 0334 10BD     		pop	{r4, pc}
 1781              	.L154:
 1782 0336 0020     		movs	r0, #0
 1783              	.LVL186:
 380:.\Generated_Source\PSoC5/USBFS_std.c **** 
 1784              		.loc 1 380 0
 1785 0338 10BD     		pop	{r4, pc}
 1786              	.L163:
 1787 033a 00BF     		.align	2
 1788              	.L162:
 1789 033c 00600040 		.word	1073766400
 1790 0340 00000000 		.word	USBFS_deviceStatus
 1791 0344 00000000 		.word	USBFS_interfaceStatus
 1792              		.cfi_endproc
 1793              	.LFE0:
 1794              		.size	USBFS_HandleStandardRqst, .-USBFS_HandleStandardRqst
ARM GAS  C:\Users\Patrick\AppData\Local\Temp\ccvH7eQO.s 			page 58


 1795              		.bss
 1796              		.align	2
 1797              		.set	.LANCHOR0,. + 0
 1798              		.type	USBFS_tBuffer.5070, %object
 1799              		.size	USBFS_tBuffer.5070, 2
 1800              	USBFS_tBuffer.5070:
 1801 0000 0000     		.space	2
 1802 0002 0000     		.text
 1803              	.Letext0:
 1804              		.file 2 ".\\Generated_Source\\PSoC5\\cytypes.h"
 1805              		.file 3 ".\\Generated_Source\\PSoC5\\USBFS.h"
 1806              		.file 4 ".\\Generated_Source\\PSoC5\\USBFS_pvt.h"
 1807              		.section	.debug_info,"",%progbits
 1808              	.Ldebug_info0:
 1809 0000 1D0A0000 		.4byte	0xa1d
 1810 0004 0400     		.2byte	0x4
 1811 0006 00000000 		.4byte	.Ldebug_abbrev0
 1812 000a 04       		.byte	0x4
 1813 000b 01       		.uleb128 0x1
 1814 000c EE050000 		.4byte	.LASF109
 1815 0010 01       		.byte	0x1
 1816 0011 B5040000 		.4byte	.LASF110
 1817 0015 0F040000 		.4byte	.LASF111
 1818 0019 00000000 		.4byte	.Ldebug_ranges0+0
 1819 001d 00000000 		.4byte	0
 1820 0021 00000000 		.4byte	.Ldebug_line0
 1821 0025 02       		.uleb128 0x2
 1822 0026 01       		.byte	0x1
 1823 0027 06       		.byte	0x6
 1824 0028 D5000000 		.4byte	.LASF0
 1825 002c 02       		.uleb128 0x2
 1826 002d 01       		.byte	0x1
 1827 002e 08       		.byte	0x8
 1828 002f 63040000 		.4byte	.LASF1
 1829 0033 02       		.uleb128 0x2
 1830 0034 02       		.byte	0x2
 1831 0035 05       		.byte	0x5
 1832 0036 83040000 		.4byte	.LASF2
 1833 003a 02       		.uleb128 0x2
 1834 003b 02       		.byte	0x2
 1835 003c 07       		.byte	0x7
 1836 003d 49020000 		.4byte	.LASF3
 1837 0041 02       		.uleb128 0x2
 1838 0042 04       		.byte	0x4
 1839 0043 05       		.byte	0x5
 1840 0044 72010000 		.4byte	.LASF4
 1841 0048 02       		.uleb128 0x2
 1842 0049 04       		.byte	0x4
 1843 004a 07       		.byte	0x7
 1844 004b 17020000 		.4byte	.LASF5
 1845 004f 02       		.uleb128 0x2
 1846 0050 08       		.byte	0x8
 1847 0051 05       		.byte	0x5
 1848 0052 C7000000 		.4byte	.LASF6
 1849 0056 02       		.uleb128 0x2
 1850 0057 08       		.byte	0x8
 1851 0058 07       		.byte	0x7
ARM GAS  C:\Users\Patrick\AppData\Local\Temp\ccvH7eQO.s 			page 59


 1852 0059 5C000000 		.4byte	.LASF7
 1853 005d 03       		.uleb128 0x3
 1854 005e 04       		.byte	0x4
 1855 005f 05       		.byte	0x5
 1856 0060 696E7400 		.ascii	"int\000"
 1857 0064 02       		.uleb128 0x2
 1858 0065 04       		.byte	0x4
 1859 0066 07       		.byte	0x7
 1860 0067 0A020000 		.4byte	.LASF8
 1861 006b 04       		.uleb128 0x4
 1862 006c 7B010000 		.4byte	.LASF9
 1863 0070 02       		.byte	0x2
 1864 0071 9201     		.2byte	0x192
 1865 0073 2C000000 		.4byte	0x2c
 1866 0077 04       		.uleb128 0x4
 1867 0078 13000000 		.4byte	.LASF10
 1868 007c 02       		.byte	0x2
 1869 007d 9301     		.2byte	0x193
 1870 007f 3A000000 		.4byte	0x3a
 1871 0083 02       		.uleb128 0x2
 1872 0084 04       		.byte	0x4
 1873 0085 04       		.byte	0x4
 1874 0086 C3030000 		.4byte	.LASF11
 1875 008a 02       		.uleb128 0x2
 1876 008b 08       		.byte	0x8
 1877 008c 04       		.byte	0x4
 1878 008d 8F010000 		.4byte	.LASF12
 1879 0091 02       		.uleb128 0x2
 1880 0092 01       		.byte	0x1
 1881 0093 08       		.byte	0x8
 1882 0094 61050000 		.4byte	.LASF13
 1883 0098 04       		.uleb128 0x4
 1884 0099 0A040000 		.4byte	.LASF14
 1885 009d 02       		.byte	0x2
 1886 009e 3C02     		.2byte	0x23c
 1887 00a0 A4000000 		.4byte	0xa4
 1888 00a4 05       		.uleb128 0x5
 1889 00a5 6B000000 		.4byte	0x6b
 1890 00a9 02       		.uleb128 0x2
 1891 00aa 04       		.byte	0x4
 1892 00ab 07       		.byte	0x7
 1893 00ac 02030000 		.4byte	.LASF15
 1894 00b0 06       		.uleb128 0x6
 1895 00b1 0C       		.byte	0xc
 1896 00b2 03       		.byte	0x3
 1897 00b3 93       		.byte	0x93
 1898 00b4 25010000 		.4byte	0x125
 1899 00b8 07       		.uleb128 0x7
 1900 00b9 27030000 		.4byte	.LASF16
 1901 00bd 03       		.byte	0x3
 1902 00be 95       		.byte	0x95
 1903 00bf 6B000000 		.4byte	0x6b
 1904 00c3 00       		.byte	0
 1905 00c4 07       		.uleb128 0x7
 1906 00c5 E2030000 		.4byte	.LASF17
 1907 00c9 03       		.byte	0x3
 1908 00ca 96       		.byte	0x96
ARM GAS  C:\Users\Patrick\AppData\Local\Temp\ccvH7eQO.s 			page 60


 1909 00cb 6B000000 		.4byte	0x6b
 1910 00cf 01       		.byte	0x1
 1911 00d0 07       		.uleb128 0x7
 1912 00d1 EC020000 		.4byte	.LASF18
 1913 00d5 03       		.byte	0x3
 1914 00d6 97       		.byte	0x97
 1915 00d7 6B000000 		.4byte	0x6b
 1916 00db 02       		.byte	0x2
 1917 00dc 07       		.uleb128 0x7
 1918 00dd 81010000 		.4byte	.LASF19
 1919 00e1 03       		.byte	0x3
 1920 00e2 98       		.byte	0x98
 1921 00e3 6B000000 		.4byte	0x6b
 1922 00e7 03       		.byte	0x3
 1923 00e8 07       		.uleb128 0x7
 1924 00e9 73000000 		.4byte	.LASF20
 1925 00ed 03       		.byte	0x3
 1926 00ee 99       		.byte	0x99
 1927 00ef 6B000000 		.4byte	0x6b
 1928 00f3 04       		.byte	0x4
 1929 00f4 07       		.uleb128 0x7
 1930 00f5 E5010000 		.4byte	.LASF21
 1931 00f9 03       		.byte	0x3
 1932 00fa 9A       		.byte	0x9a
 1933 00fb 6B000000 		.4byte	0x6b
 1934 00ff 05       		.byte	0x5
 1935 0100 07       		.uleb128 0x7
 1936 0101 95050000 		.4byte	.LASF22
 1937 0105 03       		.byte	0x3
 1938 0106 9B       		.byte	0x9b
 1939 0107 77000000 		.4byte	0x77
 1940 010b 06       		.byte	0x6
 1941 010c 07       		.uleb128 0x7
 1942 010d 66050000 		.4byte	.LASF23
 1943 0111 03       		.byte	0x3
 1944 0112 9C       		.byte	0x9c
 1945 0113 77000000 		.4byte	0x77
 1946 0117 08       		.byte	0x8
 1947 0118 07       		.uleb128 0x7
 1948 0119 8D020000 		.4byte	.LASF24
 1949 011d 03       		.byte	0x3
 1950 011e 9D       		.byte	0x9d
 1951 011f 6B000000 		.4byte	0x6b
 1952 0123 0A       		.byte	0xa
 1953 0124 00       		.byte	0
 1954 0125 08       		.uleb128 0x8
 1955 0126 09050000 		.4byte	.LASF25
 1956 012a 03       		.byte	0x3
 1957 012b 9E       		.byte	0x9e
 1958 012c B0000000 		.4byte	0xb0
 1959 0130 06       		.uleb128 0x6
 1960 0131 08       		.byte	0x8
 1961 0132 03       		.byte	0x3
 1962 0133 A0       		.byte	0xa0
 1963 0134 81010000 		.4byte	0x181
 1964 0138 07       		.uleb128 0x7
 1965 0139 8D020000 		.4byte	.LASF24
ARM GAS  C:\Users\Patrick\AppData\Local\Temp\ccvH7eQO.s 			page 61


 1966 013d 03       		.byte	0x3
 1967 013e A2       		.byte	0xa2
 1968 013f 6B000000 		.4byte	0x6b
 1969 0143 00       		.byte	0
 1970 0144 07       		.uleb128 0x7
 1971 0145 56050000 		.4byte	.LASF26
 1972 0149 03       		.byte	0x3
 1973 014a A3       		.byte	0xa3
 1974 014b 6B000000 		.4byte	0x6b
 1975 014f 01       		.byte	0x1
 1976 0150 07       		.uleb128 0x7
 1977 0151 73000000 		.4byte	.LASF20
 1978 0155 03       		.byte	0x3
 1979 0156 A4       		.byte	0xa4
 1980 0157 6B000000 		.4byte	0x6b
 1981 015b 02       		.byte	0x2
 1982 015c 07       		.uleb128 0x7
 1983 015d 4B050000 		.4byte	.LASF27
 1984 0161 03       		.byte	0x3
 1985 0162 A5       		.byte	0xa5
 1986 0163 6B000000 		.4byte	0x6b
 1987 0167 03       		.byte	0x3
 1988 0168 07       		.uleb128 0x7
 1989 0169 66050000 		.4byte	.LASF23
 1990 016d 03       		.byte	0x3
 1991 016e A6       		.byte	0xa6
 1992 016f 77000000 		.4byte	0x77
 1993 0173 04       		.byte	0x4
 1994 0174 07       		.uleb128 0x7
 1995 0175 99060000 		.4byte	.LASF28
 1996 0179 03       		.byte	0x3
 1997 017a A7       		.byte	0xa7
 1998 017b 6B000000 		.4byte	0x6b
 1999 017f 06       		.byte	0x6
 2000 0180 00       		.byte	0
 2001 0181 08       		.uleb128 0x8
 2002 0182 9B010000 		.4byte	.LASF29
 2003 0186 03       		.byte	0x3
 2004 0187 A8       		.byte	0xa8
 2005 0188 30010000 		.4byte	0x130
 2006 018c 06       		.uleb128 0x6
 2007 018d 04       		.byte	0x4
 2008 018e 03       		.byte	0x3
 2009 018f AA       		.byte	0xaa
 2010 0190 AD010000 		.4byte	0x1ad
 2011 0194 07       		.uleb128 0x7
 2012 0195 E7050000 		.4byte	.LASF30
 2013 0199 03       		.byte	0x3
 2014 019a AC       		.byte	0xac
 2015 019b 6B000000 		.4byte	0x6b
 2016 019f 00       		.byte	0
 2017 01a0 07       		.uleb128 0x7
 2018 01a1 DB050000 		.4byte	.LASF31
 2019 01a5 03       		.byte	0x3
 2020 01a6 AD       		.byte	0xad
 2021 01a7 77000000 		.4byte	0x77
 2022 01ab 02       		.byte	0x2
ARM GAS  C:\Users\Patrick\AppData\Local\Temp\ccvH7eQO.s 			page 62


 2023 01ac 00       		.byte	0
 2024 01ad 08       		.uleb128 0x8
 2025 01ae 82030000 		.4byte	.LASF32
 2026 01b2 03       		.byte	0x3
 2027 01b3 AE       		.byte	0xae
 2028 01b4 8C010000 		.4byte	0x18c
 2029 01b8 06       		.uleb128 0x6
 2030 01b9 0C       		.byte	0xc
 2031 01ba 03       		.byte	0x3
 2032 01bb B0       		.byte	0xb0
 2033 01bc E5010000 		.4byte	0x1e5
 2034 01c0 07       		.uleb128 0x7
 2035 01c1 0D000000 		.4byte	.LASF33
 2036 01c5 03       		.byte	0x3
 2037 01c6 B2       		.byte	0xb2
 2038 01c7 77000000 		.4byte	0x77
 2039 01cb 00       		.byte	0
 2040 01cc 07       		.uleb128 0x7
 2041 01cd CB010000 		.4byte	.LASF34
 2042 01d1 03       		.byte	0x3
 2043 01d2 B3       		.byte	0xb3
 2044 01d3 E5010000 		.4byte	0x1e5
 2045 01d7 04       		.byte	0x4
 2046 01d8 07       		.uleb128 0x7
 2047 01d9 00000000 		.4byte	.LASF35
 2048 01dd 03       		.byte	0x3
 2049 01de B4       		.byte	0xb4
 2050 01df EB010000 		.4byte	0x1eb
 2051 01e3 08       		.byte	0x8
 2052 01e4 00       		.byte	0
 2053 01e5 09       		.uleb128 0x9
 2054 01e6 04       		.byte	0x4
 2055 01e7 A4000000 		.4byte	0xa4
 2056 01eb 09       		.uleb128 0x9
 2057 01ec 04       		.byte	0x4
 2058 01ed AD010000 		.4byte	0x1ad
 2059 01f1 08       		.uleb128 0x8
 2060 01f2 8D040000 		.4byte	.LASF36
 2061 01f6 03       		.byte	0x3
 2062 01f7 B5       		.byte	0xb5
 2063 01f8 B8010000 		.4byte	0x1b8
 2064 01fc 06       		.uleb128 0x6
 2065 01fd 08       		.byte	0x8
 2066 01fe 03       		.byte	0x3
 2067 01ff B7       		.byte	0xb7
 2068 0200 1B020000 		.4byte	0x21b
 2069 0204 0A       		.uleb128 0xa
 2070 0205 6300     		.ascii	"c\000"
 2071 0207 03       		.byte	0x3
 2072 0208 B9       		.byte	0xb9
 2073 0209 6B000000 		.4byte	0x6b
 2074 020d 00       		.byte	0
 2075 020e 07       		.uleb128 0x7
 2076 020f 16030000 		.4byte	.LASF37
 2077 0213 03       		.byte	0x3
 2078 0214 BA       		.byte	0xba
 2079 0215 1B020000 		.4byte	0x21b
ARM GAS  C:\Users\Patrick\AppData\Local\Temp\ccvH7eQO.s 			page 63


 2080 0219 04       		.byte	0x4
 2081 021a 00       		.byte	0
 2082 021b 09       		.uleb128 0x9
 2083 021c 04       		.byte	0x4
 2084 021d 21020000 		.4byte	0x221
 2085 0221 0B       		.uleb128 0xb
 2086 0222 08       		.uleb128 0x8
 2087 0223 F9060000 		.4byte	.LASF38
 2088 0227 03       		.byte	0x3
 2089 0228 BB       		.byte	0xbb
 2090 0229 FC010000 		.4byte	0x1fc
 2091 022d 06       		.uleb128 0x6
 2092 022e 08       		.byte	0x8
 2093 022f 03       		.byte	0x3
 2094 0230 CB       		.byte	0xcb
 2095 0231 42020000 		.4byte	0x242
 2096 0235 07       		.uleb128 0x7
 2097 0236 92060000 		.4byte	.LASF39
 2098 023a 03       		.byte	0x3
 2099 023b CD       		.byte	0xcd
 2100 023c 42020000 		.4byte	0x242
 2101 0240 00       		.byte	0
 2102 0241 00       		.byte	0
 2103 0242 0C       		.uleb128 0xc
 2104 0243 6B000000 		.4byte	0x6b
 2105 0247 52020000 		.4byte	0x252
 2106 024b 0D       		.uleb128 0xd
 2107 024c A9000000 		.4byte	0xa9
 2108 0250 07       		.byte	0x7
 2109 0251 00       		.byte	0
 2110 0252 08       		.uleb128 0x8
 2111 0253 78000000 		.4byte	.LASF40
 2112 0257 03       		.byte	0x3
 2113 0258 CE       		.byte	0xce
 2114 0259 2D020000 		.4byte	0x22d
 2115 025d 06       		.uleb128 0x6
 2116 025e 10       		.byte	0x10
 2117 025f 03       		.byte	0x3
 2118 0260 DA       		.byte	0xda
 2119 0261 96020000 		.4byte	0x296
 2120 0265 07       		.uleb128 0x7
 2121 0266 5D030000 		.4byte	.LASF41
 2122 026a 03       		.byte	0x3
 2123 026b DC       		.byte	0xdc
 2124 026c 6B000000 		.4byte	0x6b
 2125 0270 00       		.byte	0
 2126 0271 07       		.uleb128 0x7
 2127 0272 64030000 		.4byte	.LASF42
 2128 0276 03       		.byte	0x3
 2129 0277 DD       		.byte	0xdd
 2130 0278 6B000000 		.4byte	0x6b
 2131 027c 01       		.byte	0x1
 2132 027d 07       		.uleb128 0x7
 2133 027e 9C030000 		.4byte	.LASF43
 2134 0282 03       		.byte	0x3
 2135 0283 DE       		.byte	0xde
 2136 0284 6B000000 		.4byte	0x6b
ARM GAS  C:\Users\Patrick\AppData\Local\Temp\ccvH7eQO.s 			page 64


 2137 0288 02       		.byte	0x2
 2138 0289 0A       		.uleb128 0xa
 2139 028a 67617000 		.ascii	"gap\000"
 2140 028e 03       		.byte	0x3
 2141 028f DF       		.byte	0xdf
 2142 0290 96020000 		.4byte	0x296
 2143 0294 03       		.byte	0x3
 2144 0295 00       		.byte	0
 2145 0296 0C       		.uleb128 0xc
 2146 0297 6B000000 		.4byte	0x6b
 2147 029b A6020000 		.4byte	0x2a6
 2148 029f 0D       		.uleb128 0xd
 2149 02a0 A9000000 		.4byte	0xa9
 2150 02a4 0C       		.byte	0xc
 2151 02a5 00       		.byte	0
 2152 02a6 08       		.uleb128 0x8
 2153 02a7 63020000 		.4byte	.LASF44
 2154 02ab 03       		.byte	0x3
 2155 02ac E0       		.byte	0xe0
 2156 02ad 5D020000 		.4byte	0x25d
 2157 02b1 06       		.uleb128 0x6
 2158 02b2 10       		.byte	0x10
 2159 02b3 03       		.byte	0x3
 2160 02b4 EC       		.byte	0xec
 2161 02b5 32030000 		.4byte	0x332
 2162 02b9 07       		.uleb128 0x7
 2163 02ba 8E000000 		.4byte	.LASF45
 2164 02be 03       		.byte	0x3
 2165 02bf EE       		.byte	0xee
 2166 02c0 6B000000 		.4byte	0x6b
 2167 02c4 00       		.byte	0
 2168 02c5 07       		.uleb128 0x7
 2169 02c6 BD060000 		.4byte	.LASF46
 2170 02ca 03       		.byte	0x3
 2171 02cb EF       		.byte	0xef
 2172 02cc 6B000000 		.4byte	0x6b
 2173 02d0 01       		.byte	0x1
 2174 02d1 07       		.uleb128 0x7
 2175 02d2 96010000 		.4byte	.LASF47
 2176 02d6 03       		.byte	0x3
 2177 02d7 F0       		.byte	0xf0
 2178 02d8 6B000000 		.4byte	0x6b
 2179 02dc 02       		.byte	0x2
 2180 02dd 07       		.uleb128 0x7
 2181 02de 01020000 		.4byte	.LASF48
 2182 02e2 03       		.byte	0x3
 2183 02e3 F1       		.byte	0xf1
 2184 02e4 6B000000 		.4byte	0x6b
 2185 02e8 03       		.byte	0x3
 2186 02e9 07       		.uleb128 0x7
 2187 02ea 8A010000 		.4byte	.LASF49
 2188 02ee 03       		.byte	0x3
 2189 02ef F2       		.byte	0xf2
 2190 02f0 6B000000 		.4byte	0x6b
 2191 02f4 04       		.byte	0x4
 2192 02f5 07       		.uleb128 0x7
 2193 02f6 9F060000 		.4byte	.LASF50
ARM GAS  C:\Users\Patrick\AppData\Local\Temp\ccvH7eQO.s 			page 65


 2194 02fa 03       		.byte	0x3
 2195 02fb F3       		.byte	0xf3
 2196 02fc 6B000000 		.4byte	0x6b
 2197 0300 05       		.byte	0x5
 2198 0301 07       		.uleb128 0x7
 2199 0302 B0040000 		.4byte	.LASF51
 2200 0306 03       		.byte	0x3
 2201 0307 F4       		.byte	0xf4
 2202 0308 6B000000 		.4byte	0x6b
 2203 030c 06       		.byte	0x6
 2204 030d 07       		.uleb128 0x7
 2205 030e 55030000 		.4byte	.LASF52
 2206 0312 03       		.byte	0x3
 2207 0313 F5       		.byte	0xf5
 2208 0314 6B000000 		.4byte	0x6b
 2209 0318 07       		.byte	0x7
 2210 0319 07       		.uleb128 0x7
 2211 031a 7C060000 		.4byte	.LASF53
 2212 031e 03       		.byte	0x3
 2213 031f F6       		.byte	0xf6
 2214 0320 6B000000 		.4byte	0x6b
 2215 0324 08       		.byte	0x8
 2216 0325 0A       		.uleb128 0xa
 2217 0326 67617000 		.ascii	"gap\000"
 2218 032a 03       		.byte	0x3
 2219 032b F7       		.byte	0xf7
 2220 032c 32030000 		.4byte	0x332
 2221 0330 09       		.byte	0x9
 2222 0331 00       		.byte	0
 2223 0332 0C       		.uleb128 0xc
 2224 0333 6B000000 		.4byte	0x6b
 2225 0337 42030000 		.4byte	0x342
 2226 033b 0D       		.uleb128 0xd
 2227 033c A9000000 		.4byte	0xa9
 2228 0340 06       		.byte	0x6
 2229 0341 00       		.byte	0
 2230 0342 08       		.uleb128 0x8
 2231 0343 4E010000 		.4byte	.LASF54
 2232 0347 03       		.byte	0x3
 2233 0348 F8       		.byte	0xf8
 2234 0349 B1020000 		.4byte	0x2b1
 2235 034d 0E       		.uleb128 0xe
 2236 034e 90       		.byte	0x90
 2237 034f 03       		.byte	0x3
 2238 0350 1401     		.2byte	0x114
 2239 0352 64030000 		.4byte	0x364
 2240 0356 0F       		.uleb128 0xf
 2241 0357 0B030000 		.4byte	.LASF55
 2242 035b 03       		.byte	0x3
 2243 035c 1601     		.2byte	0x116
 2244 035e 64030000 		.4byte	0x364
 2245 0362 00       		.byte	0
 2246 0363 00       		.byte	0
 2247 0364 0C       		.uleb128 0xc
 2248 0365 A6020000 		.4byte	0x2a6
 2249 0369 74030000 		.4byte	0x374
 2250 036d 0D       		.uleb128 0xd
ARM GAS  C:\Users\Patrick\AppData\Local\Temp\ccvH7eQO.s 			page 66


 2251 036e A9000000 		.4byte	0xa9
 2252 0372 08       		.byte	0x8
 2253 0373 00       		.byte	0
 2254 0374 04       		.uleb128 0x4
 2255 0375 94000000 		.4byte	.LASF56
 2256 0379 03       		.byte	0x3
 2257 037a 1701     		.2byte	0x117
 2258 037c 4D030000 		.4byte	0x34d
 2259 0380 0E       		.uleb128 0xe
 2260 0381 90       		.byte	0x90
 2261 0382 03       		.byte	0x3
 2262 0383 1A01     		.2byte	0x11a
 2263 0385 97030000 		.4byte	0x397
 2264 0389 0F       		.uleb128 0xf
 2265 038a 87020000 		.4byte	.LASF57
 2266 038e 03       		.byte	0x3
 2267 038f 1C01     		.2byte	0x11c
 2268 0391 97030000 		.4byte	0x397
 2269 0395 00       		.byte	0
 2270 0396 00       		.byte	0
 2271 0397 0C       		.uleb128 0xc
 2272 0398 42030000 		.4byte	0x342
 2273 039c A7030000 		.4byte	0x3a7
 2274 03a0 0D       		.uleb128 0xd
 2275 03a1 A9000000 		.4byte	0xa9
 2276 03a5 08       		.byte	0x8
 2277 03a6 00       		.byte	0
 2278 03a7 04       		.uleb128 0x4
 2279 03a8 A9000000 		.4byte	.LASF58
 2280 03ac 03       		.byte	0x3
 2281 03ad 1D01     		.2byte	0x11d
 2282 03af 80030000 		.4byte	0x380
 2283 03b3 10       		.uleb128 0x10
 2284 03b4 62010000 		.4byte	.LASF59
 2285 03b8 01       		.byte	0x1
 2286 03b9 B501     		.2byte	0x1b5
 2287 03bb 00000000 		.4byte	.LFB1
 2288 03bf A4000000 		.4byte	.LFE1-.LFB1
 2289 03c3 01       		.uleb128 0x1
 2290 03c4 9C       		.byte	0x9c
 2291 03c5 D9030000 		.4byte	0x3d9
 2292 03c9 11       		.uleb128 0x11
 2293 03ca 657000   		.ascii	"ep\000"
 2294 03cd 01       		.byte	0x1
 2295 03ce B701     		.2byte	0x1b7
 2296 03d0 6B000000 		.4byte	0x6b
 2297 03d4 00000000 		.4byte	.LLST0
 2298 03d8 00       		.byte	0
 2299 03d9 10       		.uleb128 0x10
 2300 03da 71040000 		.4byte	.LASF60
 2301 03de 01       		.byte	0x1
 2302 03df 1402     		.2byte	0x214
 2303 03e1 00000000 		.4byte	.LFB2
 2304 03e5 40000000 		.4byte	.LFE2-.LFB2
 2305 03e9 01       		.uleb128 0x1
 2306 03ea 9C       		.byte	0x9c
 2307 03eb FE030000 		.4byte	0x3fe
ARM GAS  C:\Users\Patrick\AppData\Local\Temp\ccvH7eQO.s 			page 67


 2308 03ef 11       		.uleb128 0x11
 2309 03f0 6900     		.ascii	"i\000"
 2310 03f2 01       		.byte	0x1
 2311 03f3 1602     		.2byte	0x216
 2312 03f5 6B000000 		.4byte	0x6b
 2313 03f9 2A000000 		.4byte	.LLST1
 2314 03fd 00       		.byte	0
 2315 03fe 12       		.uleb128 0x12
 2316 03ff 98040000 		.4byte	.LASF66
 2317 0403 01       		.byte	0x1
 2318 0404 AE03     		.2byte	0x3ae
 2319 0406 39040000 		.4byte	0x439
 2320 040a 00000000 		.4byte	.LFB5
 2321 040e 28000000 		.4byte	.LFE5-.LFB5
 2322 0412 01       		.uleb128 0x1
 2323 0413 9C       		.byte	0x9c
 2324 0414 39040000 		.4byte	0x439
 2325 0418 13       		.uleb128 0x13
 2326 0419 52000000 		.4byte	.LASF71
 2327 041d 01       		.byte	0x1
 2328 041e AE03     		.2byte	0x3ae
 2329 0420 6B000000 		.4byte	0x6b
 2330 0424 54000000 		.4byte	.LLST2
 2331 0428 14       		.uleb128 0x14
 2332 0429 11030000 		.4byte	.LASF61
 2333 042d 01       		.byte	0x1
 2334 042e B203     		.2byte	0x3b2
 2335 0430 39040000 		.4byte	0x439
 2336 0434 8E000000 		.4byte	.LLST3
 2337 0438 00       		.byte	0
 2338 0439 09       		.uleb128 0x9
 2339 043a 04       		.byte	0x4
 2340 043b 3F040000 		.4byte	0x43f
 2341 043f 15       		.uleb128 0x15
 2342 0440 22020000 		.4byte	0x222
 2343 0444 10       		.uleb128 0x10
 2344 0445 6B030000 		.4byte	.LASF62
 2345 0449 01       		.byte	0x1
 2346 044a 2503     		.2byte	0x325
 2347 044c 00000000 		.4byte	.LFB4
 2348 0450 1C010000 		.4byte	.LFE4-.LFB4
 2349 0454 01       		.uleb128 0x1
 2350 0455 9C       		.byte	0x9c
 2351 0456 D1040000 		.4byte	0x4d1
 2352 045a 11       		.uleb128 0x11
 2353 045b 657000   		.ascii	"ep\000"
 2354 045e 01       		.byte	0x1
 2355 045f 2703     		.2byte	0x327
 2356 0461 6B000000 		.4byte	0x6b
 2357 0465 C6000000 		.4byte	.LLST4
 2358 0469 14       		.uleb128 0x14
 2359 046a E6020000 		.4byte	.LASF63
 2360 046e 01       		.byte	0x1
 2361 046f 2803     		.2byte	0x328
 2362 0471 6B000000 		.4byte	0x6b
 2363 0475 D9000000 		.4byte	.LLST5
 2364 0479 14       		.uleb128 0x14
ARM GAS  C:\Users\Patrick\AppData\Local\Temp\ccvH7eQO.s 			page 68


 2365 047a EC010000 		.4byte	.LASF64
 2366 047e 01       		.byte	0x1
 2367 047f 2903     		.2byte	0x329
 2368 0481 6B000000 		.4byte	0x6b
 2369 0485 EC000000 		.4byte	.LLST6
 2370 0489 11       		.uleb128 0x11
 2371 048a 6900     		.ascii	"i\000"
 2372 048c 01       		.byte	0x1
 2373 048d 2A03     		.2byte	0x32a
 2374 048f 6B000000 		.4byte	0x6b
 2375 0493 0A010000 		.4byte	.LLST7
 2376 0497 14       		.uleb128 0x14
 2377 0498 A2030000 		.4byte	.LASF65
 2378 049c 01       		.byte	0x1
 2379 049d 2B03     		.2byte	0x32b
 2380 049f 6B000000 		.4byte	0x6b
 2381 04a3 34010000 		.4byte	.LLST8
 2382 04a7 14       		.uleb128 0x14
 2383 04a8 11030000 		.4byte	.LASF61
 2384 04ac 01       		.byte	0x1
 2385 04ad 2D03     		.2byte	0x32d
 2386 04af 39040000 		.4byte	0x439
 2387 04b3 47010000 		.4byte	.LLST9
 2388 04b7 11       		.uleb128 0x11
 2389 04b8 70455000 		.ascii	"pEP\000"
 2390 04bc 01       		.byte	0x1
 2391 04bd 2E03     		.2byte	0x32e
 2392 04bf D1040000 		.4byte	0x4d1
 2393 04c3 5C010000 		.4byte	.LLST10
 2394 04c7 16       		.uleb128 0x16
 2395 04c8 18000000 		.4byte	.LVL15
 2396 04cc FE030000 		.4byte	0x3fe
 2397 04d0 00       		.byte	0
 2398 04d1 09       		.uleb128 0x9
 2399 04d2 04       		.byte	0x4
 2400 04d3 D7040000 		.4byte	0x4d7
 2401 04d7 15       		.uleb128 0x15
 2402 04d8 81010000 		.4byte	0x181
 2403 04dc 17       		.uleb128 0x17
 2404 04dd A0050000 		.4byte	.LASF112
 2405 04e1 01       		.byte	0x1
 2406 04e2 F303     		.2byte	0x3f3
 2407 04e4 39040000 		.4byte	0x439
 2408 04e8 00000000 		.4byte	.LFB6
 2409 04ec 18000000 		.4byte	.LFE6-.LFB6
 2410 04f0 01       		.uleb128 0x1
 2411 04f1 9C       		.byte	0x9c
 2412 04f2 12       		.uleb128 0x12
 2413 04f3 29020000 		.4byte	.LASF67
 2414 04f7 01       		.byte	0x1
 2415 04f8 0604     		.2byte	0x406
 2416 04fa 46050000 		.4byte	0x546
 2417 04fe 00000000 		.4byte	.LFB7
 2418 0502 24000000 		.4byte	.LFE7-.LFB7
 2419 0506 01       		.uleb128 0x1
 2420 0507 9C       		.byte	0x9c
 2421 0508 46050000 		.4byte	0x546
ARM GAS  C:\Users\Patrick\AppData\Local\Temp\ccvH7eQO.s 			page 69


 2422 050c 14       		.uleb128 0x14
 2423 050d 11030000 		.4byte	.LASF61
 2424 0511 01       		.byte	0x1
 2425 0512 0904     		.2byte	0x409
 2426 0514 39040000 		.4byte	0x439
 2427 0518 6F010000 		.4byte	.LLST11
 2428 051c 14       		.uleb128 0x14
 2429 051d 77020000 		.4byte	.LASF68
 2430 0521 01       		.byte	0x1
 2431 0522 0A04     		.2byte	0x40a
 2432 0524 46050000 		.4byte	0x546
 2433 0528 9F010000 		.4byte	.LLST12
 2434 052c 14       		.uleb128 0x14
 2435 052d 80050000 		.4byte	.LASF69
 2436 0531 01       		.byte	0x1
 2437 0532 0B04     		.2byte	0x40b
 2438 0534 6B000000 		.4byte	0x6b
 2439 0538 BD010000 		.4byte	.LLST13
 2440 053c 16       		.uleb128 0x16
 2441 053d 0E000000 		.4byte	.LVL31
 2442 0541 FE030000 		.4byte	0x3fe
 2443 0545 00       		.byte	0
 2444 0546 09       		.uleb128 0x9
 2445 0547 04       		.byte	0x4
 2446 0548 4C050000 		.4byte	0x54c
 2447 054c 15       		.uleb128 0x15
 2448 054d 6B000000 		.4byte	0x6b
 2449 0551 10       		.uleb128 0x10
 2450 0552 41010000 		.4byte	.LASF70
 2451 0556 01       		.byte	0x1
 2452 0557 3A02     		.2byte	0x23a
 2453 0559 00000000 		.4byte	.LFB3
 2454 055d B8010000 		.4byte	.LFE3-.LFB3
 2455 0561 01       		.uleb128 0x1
 2456 0562 9C       		.byte	0x9c
 2457 0563 10060000 		.4byte	0x610
 2458 0567 13       		.uleb128 0x13
 2459 0568 EF000000 		.4byte	.LASF72
 2460 056c 01       		.byte	0x1
 2461 056d 3A02     		.2byte	0x23a
 2462 056f 6B000000 		.4byte	0x6b
 2463 0573 D0010000 		.4byte	.LLST14
 2464 0577 11       		.uleb128 0x11
 2465 0578 657000   		.ascii	"ep\000"
 2466 057b 01       		.byte	0x1
 2467 057c 3C02     		.2byte	0x23c
 2468 057e 6B000000 		.4byte	0x6b
 2469 0582 F1010000 		.4byte	.LLST15
 2470 0586 14       		.uleb128 0x14
 2471 0587 E6020000 		.4byte	.LASF63
 2472 058b 01       		.byte	0x1
 2473 058c 3D02     		.2byte	0x23d
 2474 058e 6B000000 		.4byte	0x6b
 2475 0592 53020000 		.4byte	.LLST16
 2476 0596 11       		.uleb128 0x11
 2477 0597 6900     		.ascii	"i\000"
 2478 0599 01       		.byte	0x1
ARM GAS  C:\Users\Patrick\AppData\Local\Temp\ccvH7eQO.s 			page 70


 2479 059a 3E02     		.2byte	0x23e
 2480 059c 6B000000 		.4byte	0x6b
 2481 05a0 7D020000 		.4byte	.LLST17
 2482 05a4 14       		.uleb128 0x14
 2483 05a5 EC010000 		.4byte	.LASF64
 2484 05a9 01       		.byte	0x1
 2485 05aa 3F02     		.2byte	0x23f
 2486 05ac 6B000000 		.4byte	0x6b
 2487 05b0 EA020000 		.4byte	.LLST18
 2488 05b4 14       		.uleb128 0x14
 2489 05b5 5C020000 		.4byte	.LASF73
 2490 05b9 01       		.byte	0x1
 2491 05ba 4002     		.2byte	0x240
 2492 05bc 46050000 		.4byte	0x546
 2493 05c0 2A030000 		.4byte	.LLST19
 2494 05c4 14       		.uleb128 0x14
 2495 05c5 1D030000 		.4byte	.LASF74
 2496 05c9 01       		.byte	0x1
 2497 05ca 4302     		.2byte	0x243
 2498 05cc 77000000 		.4byte	0x77
 2499 05d0 49030000 		.4byte	.LLST20
 2500 05d4 14       		.uleb128 0x14
 2501 05d5 11030000 		.4byte	.LASF61
 2502 05d9 01       		.byte	0x1
 2503 05da 4602     		.2byte	0x246
 2504 05dc 39040000 		.4byte	0x439
 2505 05e0 7F030000 		.4byte	.LLST21
 2506 05e4 11       		.uleb128 0x11
 2507 05e5 70455000 		.ascii	"pEP\000"
 2508 05e9 01       		.byte	0x1
 2509 05ea 4702     		.2byte	0x247
 2510 05ec D1040000 		.4byte	0x4d1
 2511 05f0 9F030000 		.4byte	.LLST22
 2512 05f4 16       		.uleb128 0x16
 2513 05f5 5A000000 		.4byte	.LVL49
 2514 05f9 FE030000 		.4byte	0x3fe
 2515 05fd 16       		.uleb128 0x16
 2516 05fe 70010000 		.4byte	.LVL74
 2517 0602 F2040000 		.4byte	0x4f2
 2518 0606 16       		.uleb128 0x16
 2519 0607 98010000 		.4byte	.LVL81
 2520 060b B3030000 		.4byte	0x3b3
 2521 060f 00       		.byte	0
 2522 0610 10       		.uleb128 0x10
 2523 0611 1A000000 		.4byte	.LASF75
 2524 0615 01       		.byte	0x1
 2525 0616 3004     		.2byte	0x430
 2526 0618 00000000 		.4byte	.LFB8
 2527 061c 4C000000 		.4byte	.LFE8-.LFB8
 2528 0620 01       		.uleb128 0x1
 2529 0621 9C       		.byte	0x9c
 2530 0622 37060000 		.4byte	0x637
 2531 0626 13       		.uleb128 0x13
 2532 0627 BE000000 		.4byte	.LASF76
 2533 062b 01       		.byte	0x1
 2534 062c 3004     		.2byte	0x430
 2535 062e 6B000000 		.4byte	0x6b
ARM GAS  C:\Users\Patrick\AppData\Local\Temp\ccvH7eQO.s 			page 71


 2536 0632 D5030000 		.4byte	.LLST23
 2537 0636 00       		.byte	0
 2538 0637 12       		.uleb128 0x12
 2539 0638 B5010000 		.4byte	.LASF77
 2540 063c 01       		.byte	0x1
 2541 063d 5904     		.2byte	0x459
 2542 063f 6B000000 		.4byte	0x6b
 2543 0643 00000000 		.4byte	.LFB9
 2544 0647 64000000 		.4byte	.LFE9-.LFB9
 2545 064b 01       		.uleb128 0x1
 2546 064c 9C       		.byte	0x9c
 2547 064d 7A060000 		.4byte	0x67a
 2548 0651 14       		.uleb128 0x14
 2549 0652 71050000 		.4byte	.LASF78
 2550 0656 01       		.byte	0x1
 2551 0657 5B04     		.2byte	0x45b
 2552 0659 6B000000 		.4byte	0x6b
 2553 065d FE030000 		.4byte	.LLST24
 2554 0661 11       		.uleb128 0x11
 2555 0662 657000   		.ascii	"ep\000"
 2556 0665 01       		.byte	0x1
 2557 0666 5C04     		.2byte	0x45c
 2558 0668 6B000000 		.4byte	0x6b
 2559 066c 34040000 		.4byte	.LLST25
 2560 0670 16       		.uleb128 0x16
 2561 0671 52000000 		.4byte	.LVL92
 2562 0675 FE090000 		.4byte	0x9fe
 2563 0679 00       		.byte	0
 2564 067a 12       		.uleb128 0x12
 2565 067b 13010000 		.4byte	.LASF79
 2566 067f 01       		.byte	0x1
 2567 0680 8A04     		.2byte	0x48a
 2568 0682 6B000000 		.4byte	0x6b
 2569 0686 00000000 		.4byte	.LFB10
 2570 068a A8000000 		.4byte	.LFE10-.LFB10
 2571 068e 01       		.uleb128 0x1
 2572 068f 9C       		.byte	0x9c
 2573 0690 BD060000 		.4byte	0x6bd
 2574 0694 14       		.uleb128 0x14
 2575 0695 71050000 		.4byte	.LASF78
 2576 0699 01       		.byte	0x1
 2577 069a 8C04     		.2byte	0x48c
 2578 069c 6B000000 		.4byte	0x6b
 2579 06a0 5D040000 		.4byte	.LLST26
 2580 06a4 11       		.uleb128 0x11
 2581 06a5 657000   		.ascii	"ep\000"
 2582 06a8 01       		.byte	0x1
 2583 06a9 8D04     		.2byte	0x48d
 2584 06ab 6B000000 		.4byte	0x6b
 2585 06af 88040000 		.4byte	.LLST27
 2586 06b3 16       		.uleb128 0x16
 2587 06b4 96000000 		.4byte	.LVL104
 2588 06b8 FE090000 		.4byte	0x9fe
 2589 06bc 00       		.byte	0
 2590 06bd 12       		.uleb128 0x12
 2591 06be 97020000 		.4byte	.LASF80
 2592 06c2 01       		.byte	0x1
ARM GAS  C:\Users\Patrick\AppData\Local\Temp\ccvH7eQO.s 			page 72


 2593 06c3 CF04     		.2byte	0x4cf
 2594 06c5 6B000000 		.4byte	0x6b
 2595 06c9 00000000 		.4byte	.LFB11
 2596 06cd 4C000000 		.4byte	.LFE11-.LFB11
 2597 06d1 01       		.uleb128 0x1
 2598 06d2 9C       		.byte	0x9c
 2599 06d3 21070000 		.4byte	0x721
 2600 06d7 14       		.uleb128 0x14
 2601 06d8 71050000 		.4byte	.LASF78
 2602 06dc 01       		.byte	0x1
 2603 06dd D104     		.2byte	0x4d1
 2604 06df 6B000000 		.4byte	0x6b
 2605 06e3 C7040000 		.4byte	.LLST28
 2606 06e7 14       		.uleb128 0x14
 2607 06e8 A2030000 		.4byte	.LASF65
 2608 06ec 01       		.byte	0x1
 2609 06ed D304     		.2byte	0x4d3
 2610 06ef 6B000000 		.4byte	0x6b
 2611 06f3 FE040000 		.4byte	.LLST29
 2612 06f7 14       		.uleb128 0x14
 2613 06f8 81060000 		.4byte	.LASF81
 2614 06fc 01       		.byte	0x1
 2615 06fd D404     		.2byte	0x4d4
 2616 06ff 6B000000 		.4byte	0x6b
 2617 0703 11050000 		.4byte	.LLST30
 2618 0707 14       		.uleb128 0x14
 2619 0708 11030000 		.4byte	.LASF61
 2620 070c 01       		.byte	0x1
 2621 070d D504     		.2byte	0x4d5
 2622 070f 39040000 		.4byte	0x439
 2623 0713 3E050000 		.4byte	.LLST31
 2624 0717 16       		.uleb128 0x16
 2625 0718 14000000 		.4byte	.LVL108
 2626 071c FE030000 		.4byte	0x3fe
 2627 0720 00       		.byte	0
 2628 0721 18       		.uleb128 0x18
 2629 0722 E0060000 		.4byte	.LASF82
 2630 0726 01       		.byte	0x1
 2631 0727 54       		.byte	0x54
 2632 0728 6B000000 		.4byte	0x6b
 2633 072c 00000000 		.4byte	.LFB0
 2634 0730 48030000 		.4byte	.LFE0-.LFB0
 2635 0734 01       		.uleb128 0x1
 2636 0735 9C       		.byte	0x9c
 2637 0736 A8080000 		.4byte	0x8a8
 2638 073a 19       		.uleb128 0x19
 2639 073b 71050000 		.4byte	.LASF78
 2640 073f 01       		.byte	0x1
 2641 0740 56       		.byte	0x56
 2642 0741 6B000000 		.4byte	0x6b
 2643 0745 5C050000 		.4byte	.LLST32
 2644 0749 19       		.uleb128 0x19
 2645 074a B8050000 		.4byte	.LASF83
 2646 074e 01       		.byte	0x1
 2647 074f 57       		.byte	0x57
 2648 0750 6B000000 		.4byte	0x6b
 2649 0754 02070000 		.4byte	.LLST33
ARM GAS  C:\Users\Patrick\AppData\Local\Temp\ccvH7eQO.s 			page 73


 2650 0758 19       		.uleb128 0x19
 2651 0759 ED030000 		.4byte	.LASF84
 2652 075d 01       		.byte	0x1
 2653 075e 58       		.byte	0x58
 2654 075f 6B000000 		.4byte	0x6b
 2655 0763 15070000 		.4byte	.LLST34
 2656 0767 19       		.uleb128 0x19
 2657 0768 F3010000 		.4byte	.LASF85
 2658 076c 01       		.byte	0x1
 2659 076d 59       		.byte	0x59
 2660 076e 6B000000 		.4byte	0x6b
 2661 0772 28070000 		.4byte	.LLST35
 2662 0776 19       		.uleb128 0x19
 2663 0777 05040000 		.4byte	.LASF86
 2664 077b 01       		.byte	0x1
 2665 077c 5C       		.byte	0x5c
 2666 077d E5010000 		.4byte	0x1e5
 2667 0781 A9070000 		.4byte	.LLST36
 2668 0785 19       		.uleb128 0x19
 2669 0786 E2050000 		.4byte	.LASF87
 2670 078a 01       		.byte	0x1
 2671 078b 5E       		.byte	0x5e
 2672 078c 6B000000 		.4byte	0x6b
 2673 0790 02080000 		.4byte	.LLST37
 2674 0794 19       		.uleb128 0x19
 2675 0795 F6020000 		.4byte	.LASF88
 2676 0799 01       		.byte	0x1
 2677 079a 5F       		.byte	0x5f
 2678 079b 6B000000 		.4byte	0x6b
 2679 079f 2B080000 		.4byte	.LLST38
 2680 07a3 1A       		.uleb128 0x1a
 2681 07a4 E1000000 		.4byte	.LASF89
 2682 07a8 01       		.byte	0x1
 2683 07a9 63       		.byte	0x63
 2684 07aa B8080000 		.4byte	0x8b8
 2685 07ae 05       		.uleb128 0x5
 2686 07af 03       		.byte	0x3
 2687 07b0 00000000 		.4byte	USBFS_tBuffer.5070
 2688 07b4 19       		.uleb128 0x19
 2689 07b5 11030000 		.4byte	.LASF61
 2690 07b9 01       		.byte	0x1
 2691 07ba 64       		.byte	0x64
 2692 07bb 39040000 		.4byte	0x439
 2693 07bf 3E080000 		.4byte	.LLST39
 2694 07c3 16       		.uleb128 0x16
 2695 07c4 4A000000 		.4byte	.LVL119
 2696 07c8 DC040000 		.4byte	0x4dc
 2697 07cc 16       		.uleb128 0x16
 2698 07cd 58000000 		.4byte	.LVL120
 2699 07d1 090A0000 		.4byte	0xa09
 2700 07d5 16       		.uleb128 0x16
 2701 07d6 6C000000 		.4byte	.LVL122
 2702 07da FE030000 		.4byte	0x3fe
 2703 07de 16       		.uleb128 0x16
 2704 07df 8A000000 		.4byte	.LVL123
 2705 07e3 090A0000 		.4byte	0xa09
 2706 07e7 16       		.uleb128 0x16
ARM GAS  C:\Users\Patrick\AppData\Local\Temp\ccvH7eQO.s 			page 74


 2707 07e8 E8000000 		.4byte	.LVL134
 2708 07ec 090A0000 		.4byte	0xa09
 2709 07f0 16       		.uleb128 0x16
 2710 07f1 EE000000 		.4byte	.LVL136
 2711 07f5 140A0000 		.4byte	0xa14
 2712 07f9 16       		.uleb128 0x16
 2713 07fa 24010000 		.4byte	.LVL139
 2714 07fe 090A0000 		.4byte	0xa09
 2715 0802 16       		.uleb128 0x16
 2716 0803 40010000 		.4byte	.LVL141
 2717 0807 090A0000 		.4byte	0xa09
 2718 080b 16       		.uleb128 0x16
 2719 080c 50010000 		.4byte	.LVL144
 2720 0810 090A0000 		.4byte	0xa09
 2721 0814 16       		.uleb128 0x16
 2722 0815 66010000 		.4byte	.LVL147
 2723 0819 090A0000 		.4byte	0xa09
 2724 081d 16       		.uleb128 0x16
 2725 081e 9C010000 		.4byte	.LVL150
 2726 0822 FE090000 		.4byte	0x9fe
 2727 0826 1B       		.uleb128 0x1b
 2728 0827 B0010000 		.4byte	.LVL154
 2729 082b FE030000 		.4byte	0x3fe
 2730 082f 3A080000 		.4byte	0x83a
 2731 0833 1C       		.uleb128 0x1c
 2732 0834 01       		.uleb128 0x1
 2733 0835 50       		.byte	0x50
 2734 0836 02       		.uleb128 0x2
 2735 0837 74       		.byte	0x74
 2736 0838 7F       		.sleb128 -1
 2737 0839 00       		.byte	0
 2738 083a 1B       		.uleb128 0x1b
 2739 083b D2010000 		.4byte	.LVL156
 2740 083f 51050000 		.4byte	0x551
 2741 0843 4D080000 		.4byte	0x84d
 2742 0847 1C       		.uleb128 0x1c
 2743 0848 01       		.uleb128 0x1
 2744 0849 50       		.byte	0x50
 2745 084a 01       		.uleb128 0x1
 2746 084b 31       		.byte	0x31
 2747 084c 00       		.byte	0
 2748 084d 16       		.uleb128 0x16
 2749 084e D6010000 		.4byte	.LVL157
 2750 0852 FE090000 		.4byte	0x9fe
 2751 0856 16       		.uleb128 0x16
 2752 0857 DC010000 		.4byte	.LVL159
 2753 085b BD060000 		.4byte	0x6bd
 2754 085f 16       		.uleb128 0x16
 2755 0860 08020000 		.4byte	.LVL162
 2756 0864 44040000 		.4byte	0x444
 2757 0868 16       		.uleb128 0x16
 2758 0869 0C020000 		.4byte	.LVL163
 2759 086d FE090000 		.4byte	0x9fe
 2760 0871 16       		.uleb128 0x16
 2761 0872 2A020000 		.4byte	.LVL166
 2762 0876 7A060000 		.4byte	0x67a
 2763 087a 16       		.uleb128 0x16
ARM GAS  C:\Users\Patrick\AppData\Local\Temp\ccvH7eQO.s 			page 75


 2764 087b 44020000 		.4byte	.LVL168
 2765 087f FE090000 		.4byte	0x9fe
 2766 0883 16       		.uleb128 0x16
 2767 0884 66020000 		.4byte	.LVL170
 2768 0888 FE090000 		.4byte	0x9fe
 2769 088c 16       		.uleb128 0x16
 2770 088d C0020000 		.4byte	.LVL173
 2771 0891 37060000 		.4byte	0x637
 2772 0895 16       		.uleb128 0x16
 2773 0896 DA020000 		.4byte	.LVL175
 2774 089a FE090000 		.4byte	0x9fe
 2775 089e 16       		.uleb128 0x16
 2776 089f FC020000 		.4byte	.LVL177
 2777 08a3 FE090000 		.4byte	0x9fe
 2778 08a7 00       		.byte	0
 2779 08a8 0C       		.uleb128 0xc
 2780 08a9 6B000000 		.4byte	0x6b
 2781 08ad B8080000 		.4byte	0x8b8
 2782 08b1 0D       		.uleb128 0xd
 2783 08b2 A9000000 		.4byte	0xa9
 2784 08b6 01       		.byte	0x1
 2785 08b7 00       		.byte	0
 2786 08b8 05       		.uleb128 0x5
 2787 08b9 A8080000 		.4byte	0x8a8
 2788 08bd 1D       		.uleb128 0x1d
 2789 08be 3E050000 		.4byte	.LASF90
 2790 08c2 03       		.byte	0x3
 2791 08c3 D802     		.2byte	0x2d8
 2792 08c5 A4000000 		.4byte	0xa4
 2793 08c9 1D       		.uleb128 0x1d
 2794 08ca D1010000 		.4byte	.LASF91
 2795 08ce 03       		.byte	0x3
 2796 08cf DA02     		.2byte	0x2da
 2797 08d1 A4000000 		.4byte	0xa4
 2798 08d5 1D       		.uleb128 0x1d
 2799 08d6 B6020000 		.4byte	.LASF92
 2800 08da 03       		.byte	0x3
 2801 08db DB02     		.2byte	0x2db
 2802 08dd A4000000 		.4byte	0xa4
 2803 08e1 1D       		.uleb128 0x1d
 2804 08e2 C8050000 		.4byte	.LASF93
 2805 08e6 03       		.byte	0x3
 2806 08e7 DC02     		.2byte	0x2dc
 2807 08e9 A4000000 		.4byte	0xa4
 2808 08ed 0C       		.uleb128 0xc
 2809 08ee 6B000000 		.4byte	0x6b
 2810 08f2 FD080000 		.4byte	0x8fd
 2811 08f6 0D       		.uleb128 0xd
 2812 08f7 A9000000 		.4byte	0xa9
 2813 08fb 11       		.byte	0x11
 2814 08fc 00       		.byte	0
 2815 08fd 1E       		.uleb128 0x1e
 2816 08fe AF030000 		.4byte	.LASF94
 2817 0902 04       		.byte	0x4
 2818 0903 61       		.byte	0x61
 2819 0904 08090000 		.4byte	0x908
 2820 0908 15       		.uleb128 0x15
ARM GAS  C:\Users\Patrick\AppData\Local\Temp\ccvH7eQO.s 			page 76


 2821 0909 ED080000 		.4byte	0x8ed
 2822 090d 0C       		.uleb128 0xc
 2823 090e 22020000 		.4byte	0x222
 2824 0912 1D090000 		.4byte	0x91d
 2825 0916 0D       		.uleb128 0xd
 2826 0917 A9000000 		.4byte	0xa9
 2827 091b 00       		.byte	0
 2828 091c 00       		.byte	0
 2829 091d 1E       		.uleb128 0x1e
 2830 091e 2E030000 		.4byte	.LASF95
 2831 0922 04       		.byte	0x4
 2832 0923 68       		.byte	0x68
 2833 0924 28090000 		.4byte	0x928
 2834 0928 15       		.uleb128 0x15
 2835 0929 0D090000 		.4byte	0x90d
 2836 092d 0C       		.uleb128 0xc
 2837 092e 6B000000 		.4byte	0x6b
 2838 0932 3D090000 		.4byte	0x93d
 2839 0936 0D       		.uleb128 0xd
 2840 0937 A9000000 		.4byte	0xa9
 2841 093b 09       		.byte	0x9
 2842 093c 00       		.byte	0
 2843 093d 1E       		.uleb128 0x1e
 2844 093e 3A030000 		.4byte	.LASF96
 2845 0942 04       		.byte	0x4
 2846 0943 69       		.byte	0x69
 2847 0944 48090000 		.4byte	0x948
 2848 0948 15       		.uleb128 0x15
 2849 0949 2D090000 		.4byte	0x92d
 2850 094d 0C       		.uleb128 0xc
 2851 094e 6B000000 		.4byte	0x6b
 2852 0952 5D090000 		.4byte	0x95d
 2853 0956 0D       		.uleb128 0xd
 2854 0957 A9000000 		.4byte	0xa9
 2855 095b 52       		.byte	0x52
 2856 095c 00       		.byte	0
 2857 095d 1E       		.uleb128 0x1e
 2858 095e C9030000 		.4byte	.LASF97
 2859 0962 04       		.byte	0x4
 2860 0963 6A       		.byte	0x6a
 2861 0964 68090000 		.4byte	0x968
 2862 0968 15       		.uleb128 0x15
 2863 0969 4D090000 		.4byte	0x94d
 2864 096d 1E       		.uleb128 0x1e
 2865 096e 2B010000 		.4byte	.LASF98
 2866 0972 04       		.byte	0x4
 2867 0973 7D       		.byte	0x7d
 2868 0974 A4000000 		.4byte	0xa4
 2869 0978 0C       		.uleb128 0xc
 2870 0979 6B000000 		.4byte	0x6b
 2871 097d 88090000 		.4byte	0x988
 2872 0981 0D       		.uleb128 0xd
 2873 0982 A9000000 		.4byte	0xa9
 2874 0986 00       		.byte	0
 2875 0987 00       		.byte	0
 2876 0988 1E       		.uleb128 0x1e
 2877 0989 DA040000 		.4byte	.LASF99
ARM GAS  C:\Users\Patrick\AppData\Local\Temp\ccvH7eQO.s 			page 77


 2878 098d 04       		.byte	0x4
 2879 098e 7E       		.byte	0x7e
 2880 098f 93090000 		.4byte	0x993
 2881 0993 05       		.uleb128 0x5
 2882 0994 78090000 		.4byte	0x978
 2883 0998 1E       		.uleb128 0x1e
 2884 0999 C5060000 		.4byte	.LASF100
 2885 099d 04       		.byte	0x4
 2886 099e 7F       		.byte	0x7f
 2887 099f A3090000 		.4byte	0x9a3
 2888 09a3 05       		.uleb128 0x5
 2889 09a4 78090000 		.4byte	0x978
 2890 09a8 1E       		.uleb128 0x1e
 2891 09a9 FF000000 		.4byte	.LASF101
 2892 09ad 04       		.byte	0x4
 2893 09ae 80       		.byte	0x80
 2894 09af A4000000 		.4byte	0xa4
 2895 09b3 1E       		.uleb128 0x1e
 2896 09b4 A7060000 		.4byte	.LASF102
 2897 09b8 04       		.byte	0x4
 2898 09b9 81       		.byte	0x81
 2899 09ba BE090000 		.4byte	0x9be
 2900 09be 05       		.uleb128 0x5
 2901 09bf 78090000 		.4byte	0x978
 2902 09c3 1E       		.uleb128 0x1e
 2903 09c4 D1020000 		.4byte	.LASF103
 2904 09c8 04       		.byte	0x4
 2905 09c9 82       		.byte	0x82
 2906 09ca 46050000 		.4byte	0x546
 2907 09ce 0C       		.uleb128 0xc
 2908 09cf 25010000 		.4byte	0x125
 2909 09d3 DE090000 		.4byte	0x9de
 2910 09d7 0D       		.uleb128 0xd
 2911 09d8 A9000000 		.4byte	0xa9
 2912 09dc 08       		.byte	0x8
 2913 09dd 00       		.byte	0
 2914 09de 1E       		.uleb128 0x1e
 2915 09df FC030000 		.4byte	.LASF104
 2916 09e3 04       		.byte	0x4
 2917 09e4 84       		.byte	0x84
 2918 09e5 E9090000 		.4byte	0x9e9
 2919 09e9 05       		.uleb128 0x5
 2920 09ea CE090000 		.4byte	0x9ce
 2921 09ee 1E       		.uleb128 0x1e
 2922 09ef 2C000000 		.4byte	.LASF105
 2923 09f3 04       		.byte	0x4
 2924 09f4 85       		.byte	0x85
 2925 09f5 F9090000 		.4byte	0x9f9
 2926 09f9 05       		.uleb128 0x5
 2927 09fa F1010000 		.4byte	0x1f1
 2928 09fe 1F       		.uleb128 0x1f
 2929 09ff 1E050000 		.4byte	.LASF106
 2930 0a03 04       		.byte	0x4
 2931 0a04 BE       		.byte	0xbe
 2932 0a05 6B000000 		.4byte	0x6b
 2933 0a09 1F       		.uleb128 0x1f
 2934 0a0a 3C000000 		.4byte	.LASF107
ARM GAS  C:\Users\Patrick\AppData\Local\Temp\ccvH7eQO.s 			page 78


 2935 0a0e 04       		.byte	0x4
 2936 0a0f B4       		.byte	0xb4
 2937 0a10 6B000000 		.4byte	0x6b
 2938 0a14 20       		.uleb128 0x20
 2939 0a15 F1040000 		.4byte	.LASF108
 2940 0a19 04       		.byte	0x4
 2941 0a1a 5901     		.2byte	0x159
 2942 0a1c 6B000000 		.4byte	0x6b
 2943 0a20 00       		.byte	0
 2944              		.section	.debug_abbrev,"",%progbits
 2945              	.Ldebug_abbrev0:
 2946 0000 01       		.uleb128 0x1
 2947 0001 11       		.uleb128 0x11
 2948 0002 01       		.byte	0x1
 2949 0003 25       		.uleb128 0x25
 2950 0004 0E       		.uleb128 0xe
 2951 0005 13       		.uleb128 0x13
 2952 0006 0B       		.uleb128 0xb
 2953 0007 03       		.uleb128 0x3
 2954 0008 0E       		.uleb128 0xe
 2955 0009 1B       		.uleb128 0x1b
 2956 000a 0E       		.uleb128 0xe
 2957 000b 55       		.uleb128 0x55
 2958 000c 17       		.uleb128 0x17
 2959 000d 11       		.uleb128 0x11
 2960 000e 01       		.uleb128 0x1
 2961 000f 10       		.uleb128 0x10
 2962 0010 17       		.uleb128 0x17
 2963 0011 00       		.byte	0
 2964 0012 00       		.byte	0
 2965 0013 02       		.uleb128 0x2
 2966 0014 24       		.uleb128 0x24
 2967 0015 00       		.byte	0
 2968 0016 0B       		.uleb128 0xb
 2969 0017 0B       		.uleb128 0xb
 2970 0018 3E       		.uleb128 0x3e
 2971 0019 0B       		.uleb128 0xb
 2972 001a 03       		.uleb128 0x3
 2973 001b 0E       		.uleb128 0xe
 2974 001c 00       		.byte	0
 2975 001d 00       		.byte	0
 2976 001e 03       		.uleb128 0x3
 2977 001f 24       		.uleb128 0x24
 2978 0020 00       		.byte	0
 2979 0021 0B       		.uleb128 0xb
 2980 0022 0B       		.uleb128 0xb
 2981 0023 3E       		.uleb128 0x3e
 2982 0024 0B       		.uleb128 0xb
 2983 0025 03       		.uleb128 0x3
 2984 0026 08       		.uleb128 0x8
 2985 0027 00       		.byte	0
 2986 0028 00       		.byte	0
 2987 0029 04       		.uleb128 0x4
 2988 002a 16       		.uleb128 0x16
 2989 002b 00       		.byte	0
 2990 002c 03       		.uleb128 0x3
 2991 002d 0E       		.uleb128 0xe
ARM GAS  C:\Users\Patrick\AppData\Local\Temp\ccvH7eQO.s 			page 79


 2992 002e 3A       		.uleb128 0x3a
 2993 002f 0B       		.uleb128 0xb
 2994 0030 3B       		.uleb128 0x3b
 2995 0031 05       		.uleb128 0x5
 2996 0032 49       		.uleb128 0x49
 2997 0033 13       		.uleb128 0x13
 2998 0034 00       		.byte	0
 2999 0035 00       		.byte	0
 3000 0036 05       		.uleb128 0x5
 3001 0037 35       		.uleb128 0x35
 3002 0038 00       		.byte	0
 3003 0039 49       		.uleb128 0x49
 3004 003a 13       		.uleb128 0x13
 3005 003b 00       		.byte	0
 3006 003c 00       		.byte	0
 3007 003d 06       		.uleb128 0x6
 3008 003e 13       		.uleb128 0x13
 3009 003f 01       		.byte	0x1
 3010 0040 0B       		.uleb128 0xb
 3011 0041 0B       		.uleb128 0xb
 3012 0042 3A       		.uleb128 0x3a
 3013 0043 0B       		.uleb128 0xb
 3014 0044 3B       		.uleb128 0x3b
 3015 0045 0B       		.uleb128 0xb
 3016 0046 01       		.uleb128 0x1
 3017 0047 13       		.uleb128 0x13
 3018 0048 00       		.byte	0
 3019 0049 00       		.byte	0
 3020 004a 07       		.uleb128 0x7
 3021 004b 0D       		.uleb128 0xd
 3022 004c 00       		.byte	0
 3023 004d 03       		.uleb128 0x3
 3024 004e 0E       		.uleb128 0xe
 3025 004f 3A       		.uleb128 0x3a
 3026 0050 0B       		.uleb128 0xb
 3027 0051 3B       		.uleb128 0x3b
 3028 0052 0B       		.uleb128 0xb
 3029 0053 49       		.uleb128 0x49
 3030 0054 13       		.uleb128 0x13
 3031 0055 38       		.uleb128 0x38
 3032 0056 0B       		.uleb128 0xb
 3033 0057 00       		.byte	0
 3034 0058 00       		.byte	0
 3035 0059 08       		.uleb128 0x8
 3036 005a 16       		.uleb128 0x16
 3037 005b 00       		.byte	0
 3038 005c 03       		.uleb128 0x3
 3039 005d 0E       		.uleb128 0xe
 3040 005e 3A       		.uleb128 0x3a
 3041 005f 0B       		.uleb128 0xb
 3042 0060 3B       		.uleb128 0x3b
 3043 0061 0B       		.uleb128 0xb
 3044 0062 49       		.uleb128 0x49
 3045 0063 13       		.uleb128 0x13
 3046 0064 00       		.byte	0
 3047 0065 00       		.byte	0
 3048 0066 09       		.uleb128 0x9
ARM GAS  C:\Users\Patrick\AppData\Local\Temp\ccvH7eQO.s 			page 80


 3049 0067 0F       		.uleb128 0xf
 3050 0068 00       		.byte	0
 3051 0069 0B       		.uleb128 0xb
 3052 006a 0B       		.uleb128 0xb
 3053 006b 49       		.uleb128 0x49
 3054 006c 13       		.uleb128 0x13
 3055 006d 00       		.byte	0
 3056 006e 00       		.byte	0
 3057 006f 0A       		.uleb128 0xa
 3058 0070 0D       		.uleb128 0xd
 3059 0071 00       		.byte	0
 3060 0072 03       		.uleb128 0x3
 3061 0073 08       		.uleb128 0x8
 3062 0074 3A       		.uleb128 0x3a
 3063 0075 0B       		.uleb128 0xb
 3064 0076 3B       		.uleb128 0x3b
 3065 0077 0B       		.uleb128 0xb
 3066 0078 49       		.uleb128 0x49
 3067 0079 13       		.uleb128 0x13
 3068 007a 38       		.uleb128 0x38
 3069 007b 0B       		.uleb128 0xb
 3070 007c 00       		.byte	0
 3071 007d 00       		.byte	0
 3072 007e 0B       		.uleb128 0xb
 3073 007f 26       		.uleb128 0x26
 3074 0080 00       		.byte	0
 3075 0081 00       		.byte	0
 3076 0082 00       		.byte	0
 3077 0083 0C       		.uleb128 0xc
 3078 0084 01       		.uleb128 0x1
 3079 0085 01       		.byte	0x1
 3080 0086 49       		.uleb128 0x49
 3081 0087 13       		.uleb128 0x13
 3082 0088 01       		.uleb128 0x1
 3083 0089 13       		.uleb128 0x13
 3084 008a 00       		.byte	0
 3085 008b 00       		.byte	0
 3086 008c 0D       		.uleb128 0xd
 3087 008d 21       		.uleb128 0x21
 3088 008e 00       		.byte	0
 3089 008f 49       		.uleb128 0x49
 3090 0090 13       		.uleb128 0x13
 3091 0091 2F       		.uleb128 0x2f
 3092 0092 0B       		.uleb128 0xb
 3093 0093 00       		.byte	0
 3094 0094 00       		.byte	0
 3095 0095 0E       		.uleb128 0xe
 3096 0096 13       		.uleb128 0x13
 3097 0097 01       		.byte	0x1
 3098 0098 0B       		.uleb128 0xb
 3099 0099 0B       		.uleb128 0xb
 3100 009a 3A       		.uleb128 0x3a
 3101 009b 0B       		.uleb128 0xb
 3102 009c 3B       		.uleb128 0x3b
 3103 009d 05       		.uleb128 0x5
 3104 009e 01       		.uleb128 0x1
 3105 009f 13       		.uleb128 0x13
ARM GAS  C:\Users\Patrick\AppData\Local\Temp\ccvH7eQO.s 			page 81


 3106 00a0 00       		.byte	0
 3107 00a1 00       		.byte	0
 3108 00a2 0F       		.uleb128 0xf
 3109 00a3 0D       		.uleb128 0xd
 3110 00a4 00       		.byte	0
 3111 00a5 03       		.uleb128 0x3
 3112 00a6 0E       		.uleb128 0xe
 3113 00a7 3A       		.uleb128 0x3a
 3114 00a8 0B       		.uleb128 0xb
 3115 00a9 3B       		.uleb128 0x3b
 3116 00aa 05       		.uleb128 0x5
 3117 00ab 49       		.uleb128 0x49
 3118 00ac 13       		.uleb128 0x13
 3119 00ad 38       		.uleb128 0x38
 3120 00ae 0B       		.uleb128 0xb
 3121 00af 00       		.byte	0
 3122 00b0 00       		.byte	0
 3123 00b1 10       		.uleb128 0x10
 3124 00b2 2E       		.uleb128 0x2e
 3125 00b3 01       		.byte	0x1
 3126 00b4 3F       		.uleb128 0x3f
 3127 00b5 19       		.uleb128 0x19
 3128 00b6 03       		.uleb128 0x3
 3129 00b7 0E       		.uleb128 0xe
 3130 00b8 3A       		.uleb128 0x3a
 3131 00b9 0B       		.uleb128 0xb
 3132 00ba 3B       		.uleb128 0x3b
 3133 00bb 05       		.uleb128 0x5
 3134 00bc 27       		.uleb128 0x27
 3135 00bd 19       		.uleb128 0x19
 3136 00be 11       		.uleb128 0x11
 3137 00bf 01       		.uleb128 0x1
 3138 00c0 12       		.uleb128 0x12
 3139 00c1 06       		.uleb128 0x6
 3140 00c2 40       		.uleb128 0x40
 3141 00c3 18       		.uleb128 0x18
 3142 00c4 9742     		.uleb128 0x2117
 3143 00c6 19       		.uleb128 0x19
 3144 00c7 01       		.uleb128 0x1
 3145 00c8 13       		.uleb128 0x13
 3146 00c9 00       		.byte	0
 3147 00ca 00       		.byte	0
 3148 00cb 11       		.uleb128 0x11
 3149 00cc 34       		.uleb128 0x34
 3150 00cd 00       		.byte	0
 3151 00ce 03       		.uleb128 0x3
 3152 00cf 08       		.uleb128 0x8
 3153 00d0 3A       		.uleb128 0x3a
 3154 00d1 0B       		.uleb128 0xb
 3155 00d2 3B       		.uleb128 0x3b
 3156 00d3 05       		.uleb128 0x5
 3157 00d4 49       		.uleb128 0x49
 3158 00d5 13       		.uleb128 0x13
 3159 00d6 02       		.uleb128 0x2
 3160 00d7 17       		.uleb128 0x17
 3161 00d8 00       		.byte	0
 3162 00d9 00       		.byte	0
ARM GAS  C:\Users\Patrick\AppData\Local\Temp\ccvH7eQO.s 			page 82


 3163 00da 12       		.uleb128 0x12
 3164 00db 2E       		.uleb128 0x2e
 3165 00dc 01       		.byte	0x1
 3166 00dd 3F       		.uleb128 0x3f
 3167 00de 19       		.uleb128 0x19
 3168 00df 03       		.uleb128 0x3
 3169 00e0 0E       		.uleb128 0xe
 3170 00e1 3A       		.uleb128 0x3a
 3171 00e2 0B       		.uleb128 0xb
 3172 00e3 3B       		.uleb128 0x3b
 3173 00e4 05       		.uleb128 0x5
 3174 00e5 27       		.uleb128 0x27
 3175 00e6 19       		.uleb128 0x19
 3176 00e7 49       		.uleb128 0x49
 3177 00e8 13       		.uleb128 0x13
 3178 00e9 11       		.uleb128 0x11
 3179 00ea 01       		.uleb128 0x1
 3180 00eb 12       		.uleb128 0x12
 3181 00ec 06       		.uleb128 0x6
 3182 00ed 40       		.uleb128 0x40
 3183 00ee 18       		.uleb128 0x18
 3184 00ef 9742     		.uleb128 0x2117
 3185 00f1 19       		.uleb128 0x19
 3186 00f2 01       		.uleb128 0x1
 3187 00f3 13       		.uleb128 0x13
 3188 00f4 00       		.byte	0
 3189 00f5 00       		.byte	0
 3190 00f6 13       		.uleb128 0x13
 3191 00f7 05       		.uleb128 0x5
 3192 00f8 00       		.byte	0
 3193 00f9 03       		.uleb128 0x3
 3194 00fa 0E       		.uleb128 0xe
 3195 00fb 3A       		.uleb128 0x3a
 3196 00fc 0B       		.uleb128 0xb
 3197 00fd 3B       		.uleb128 0x3b
 3198 00fe 05       		.uleb128 0x5
 3199 00ff 49       		.uleb128 0x49
 3200 0100 13       		.uleb128 0x13
 3201 0101 02       		.uleb128 0x2
 3202 0102 17       		.uleb128 0x17
 3203 0103 00       		.byte	0
 3204 0104 00       		.byte	0
 3205 0105 14       		.uleb128 0x14
 3206 0106 34       		.uleb128 0x34
 3207 0107 00       		.byte	0
 3208 0108 03       		.uleb128 0x3
 3209 0109 0E       		.uleb128 0xe
 3210 010a 3A       		.uleb128 0x3a
 3211 010b 0B       		.uleb128 0xb
 3212 010c 3B       		.uleb128 0x3b
 3213 010d 05       		.uleb128 0x5
 3214 010e 49       		.uleb128 0x49
 3215 010f 13       		.uleb128 0x13
 3216 0110 02       		.uleb128 0x2
 3217 0111 17       		.uleb128 0x17
 3218 0112 00       		.byte	0
 3219 0113 00       		.byte	0
ARM GAS  C:\Users\Patrick\AppData\Local\Temp\ccvH7eQO.s 			page 83


 3220 0114 15       		.uleb128 0x15
 3221 0115 26       		.uleb128 0x26
 3222 0116 00       		.byte	0
 3223 0117 49       		.uleb128 0x49
 3224 0118 13       		.uleb128 0x13
 3225 0119 00       		.byte	0
 3226 011a 00       		.byte	0
 3227 011b 16       		.uleb128 0x16
 3228 011c 898201   		.uleb128 0x4109
 3229 011f 00       		.byte	0
 3230 0120 11       		.uleb128 0x11
 3231 0121 01       		.uleb128 0x1
 3232 0122 31       		.uleb128 0x31
 3233 0123 13       		.uleb128 0x13
 3234 0124 00       		.byte	0
 3235 0125 00       		.byte	0
 3236 0126 17       		.uleb128 0x17
 3237 0127 2E       		.uleb128 0x2e
 3238 0128 00       		.byte	0
 3239 0129 3F       		.uleb128 0x3f
 3240 012a 19       		.uleb128 0x19
 3241 012b 03       		.uleb128 0x3
 3242 012c 0E       		.uleb128 0xe
 3243 012d 3A       		.uleb128 0x3a
 3244 012e 0B       		.uleb128 0xb
 3245 012f 3B       		.uleb128 0x3b
 3246 0130 05       		.uleb128 0x5
 3247 0131 27       		.uleb128 0x27
 3248 0132 19       		.uleb128 0x19
 3249 0133 49       		.uleb128 0x49
 3250 0134 13       		.uleb128 0x13
 3251 0135 11       		.uleb128 0x11
 3252 0136 01       		.uleb128 0x1
 3253 0137 12       		.uleb128 0x12
 3254 0138 06       		.uleb128 0x6
 3255 0139 40       		.uleb128 0x40
 3256 013a 18       		.uleb128 0x18
 3257 013b 9742     		.uleb128 0x2117
 3258 013d 19       		.uleb128 0x19
 3259 013e 00       		.byte	0
 3260 013f 00       		.byte	0
 3261 0140 18       		.uleb128 0x18
 3262 0141 2E       		.uleb128 0x2e
 3263 0142 01       		.byte	0x1
 3264 0143 3F       		.uleb128 0x3f
 3265 0144 19       		.uleb128 0x19
 3266 0145 03       		.uleb128 0x3
 3267 0146 0E       		.uleb128 0xe
 3268 0147 3A       		.uleb128 0x3a
 3269 0148 0B       		.uleb128 0xb
 3270 0149 3B       		.uleb128 0x3b
 3271 014a 0B       		.uleb128 0xb
 3272 014b 27       		.uleb128 0x27
 3273 014c 19       		.uleb128 0x19
 3274 014d 49       		.uleb128 0x49
 3275 014e 13       		.uleb128 0x13
 3276 014f 11       		.uleb128 0x11
ARM GAS  C:\Users\Patrick\AppData\Local\Temp\ccvH7eQO.s 			page 84


 3277 0150 01       		.uleb128 0x1
 3278 0151 12       		.uleb128 0x12
 3279 0152 06       		.uleb128 0x6
 3280 0153 40       		.uleb128 0x40
 3281 0154 18       		.uleb128 0x18
 3282 0155 9742     		.uleb128 0x2117
 3283 0157 19       		.uleb128 0x19
 3284 0158 01       		.uleb128 0x1
 3285 0159 13       		.uleb128 0x13
 3286 015a 00       		.byte	0
 3287 015b 00       		.byte	0
 3288 015c 19       		.uleb128 0x19
 3289 015d 34       		.uleb128 0x34
 3290 015e 00       		.byte	0
 3291 015f 03       		.uleb128 0x3
 3292 0160 0E       		.uleb128 0xe
 3293 0161 3A       		.uleb128 0x3a
 3294 0162 0B       		.uleb128 0xb
 3295 0163 3B       		.uleb128 0x3b
 3296 0164 0B       		.uleb128 0xb
 3297 0165 49       		.uleb128 0x49
 3298 0166 13       		.uleb128 0x13
 3299 0167 02       		.uleb128 0x2
 3300 0168 17       		.uleb128 0x17
 3301 0169 00       		.byte	0
 3302 016a 00       		.byte	0
 3303 016b 1A       		.uleb128 0x1a
 3304 016c 34       		.uleb128 0x34
 3305 016d 00       		.byte	0
 3306 016e 03       		.uleb128 0x3
 3307 016f 0E       		.uleb128 0xe
 3308 0170 3A       		.uleb128 0x3a
 3309 0171 0B       		.uleb128 0xb
 3310 0172 3B       		.uleb128 0x3b
 3311 0173 0B       		.uleb128 0xb
 3312 0174 49       		.uleb128 0x49
 3313 0175 13       		.uleb128 0x13
 3314 0176 02       		.uleb128 0x2
 3315 0177 18       		.uleb128 0x18
 3316 0178 00       		.byte	0
 3317 0179 00       		.byte	0
 3318 017a 1B       		.uleb128 0x1b
 3319 017b 898201   		.uleb128 0x4109
 3320 017e 01       		.byte	0x1
 3321 017f 11       		.uleb128 0x11
 3322 0180 01       		.uleb128 0x1
 3323 0181 31       		.uleb128 0x31
 3324 0182 13       		.uleb128 0x13
 3325 0183 01       		.uleb128 0x1
 3326 0184 13       		.uleb128 0x13
 3327 0185 00       		.byte	0
 3328 0186 00       		.byte	0
 3329 0187 1C       		.uleb128 0x1c
 3330 0188 8A8201   		.uleb128 0x410a
 3331 018b 00       		.byte	0
 3332 018c 02       		.uleb128 0x2
 3333 018d 18       		.uleb128 0x18
ARM GAS  C:\Users\Patrick\AppData\Local\Temp\ccvH7eQO.s 			page 85


 3334 018e 9142     		.uleb128 0x2111
 3335 0190 18       		.uleb128 0x18
 3336 0191 00       		.byte	0
 3337 0192 00       		.byte	0
 3338 0193 1D       		.uleb128 0x1d
 3339 0194 34       		.uleb128 0x34
 3340 0195 00       		.byte	0
 3341 0196 03       		.uleb128 0x3
 3342 0197 0E       		.uleb128 0xe
 3343 0198 3A       		.uleb128 0x3a
 3344 0199 0B       		.uleb128 0xb
 3345 019a 3B       		.uleb128 0x3b
 3346 019b 05       		.uleb128 0x5
 3347 019c 49       		.uleb128 0x49
 3348 019d 13       		.uleb128 0x13
 3349 019e 3F       		.uleb128 0x3f
 3350 019f 19       		.uleb128 0x19
 3351 01a0 3C       		.uleb128 0x3c
 3352 01a1 19       		.uleb128 0x19
 3353 01a2 00       		.byte	0
 3354 01a3 00       		.byte	0
 3355 01a4 1E       		.uleb128 0x1e
 3356 01a5 34       		.uleb128 0x34
 3357 01a6 00       		.byte	0
 3358 01a7 03       		.uleb128 0x3
 3359 01a8 0E       		.uleb128 0xe
 3360 01a9 3A       		.uleb128 0x3a
 3361 01aa 0B       		.uleb128 0xb
 3362 01ab 3B       		.uleb128 0x3b
 3363 01ac 0B       		.uleb128 0xb
 3364 01ad 49       		.uleb128 0x49
 3365 01ae 13       		.uleb128 0x13
 3366 01af 3F       		.uleb128 0x3f
 3367 01b0 19       		.uleb128 0x19
 3368 01b1 3C       		.uleb128 0x3c
 3369 01b2 19       		.uleb128 0x19
 3370 01b3 00       		.byte	0
 3371 01b4 00       		.byte	0
 3372 01b5 1F       		.uleb128 0x1f
 3373 01b6 2E       		.uleb128 0x2e
 3374 01b7 00       		.byte	0
 3375 01b8 3F       		.uleb128 0x3f
 3376 01b9 19       		.uleb128 0x19
 3377 01ba 03       		.uleb128 0x3
 3378 01bb 0E       		.uleb128 0xe
 3379 01bc 3A       		.uleb128 0x3a
 3380 01bd 0B       		.uleb128 0xb
 3381 01be 3B       		.uleb128 0x3b
 3382 01bf 0B       		.uleb128 0xb
 3383 01c0 27       		.uleb128 0x27
 3384 01c1 19       		.uleb128 0x19
 3385 01c2 49       		.uleb128 0x49
 3386 01c3 13       		.uleb128 0x13
 3387 01c4 3C       		.uleb128 0x3c
 3388 01c5 19       		.uleb128 0x19
 3389 01c6 00       		.byte	0
 3390 01c7 00       		.byte	0
ARM GAS  C:\Users\Patrick\AppData\Local\Temp\ccvH7eQO.s 			page 86


 3391 01c8 20       		.uleb128 0x20
 3392 01c9 2E       		.uleb128 0x2e
 3393 01ca 00       		.byte	0
 3394 01cb 3F       		.uleb128 0x3f
 3395 01cc 19       		.uleb128 0x19
 3396 01cd 03       		.uleb128 0x3
 3397 01ce 0E       		.uleb128 0xe
 3398 01cf 3A       		.uleb128 0x3a
 3399 01d0 0B       		.uleb128 0xb
 3400 01d1 3B       		.uleb128 0x3b
 3401 01d2 05       		.uleb128 0x5
 3402 01d3 27       		.uleb128 0x27
 3403 01d4 19       		.uleb128 0x19
 3404 01d5 49       		.uleb128 0x49
 3405 01d6 13       		.uleb128 0x13
 3406 01d7 3C       		.uleb128 0x3c
 3407 01d8 19       		.uleb128 0x19
 3408 01d9 00       		.byte	0
 3409 01da 00       		.byte	0
 3410 01db 00       		.byte	0
 3411              		.section	.debug_loc,"",%progbits
 3412              	.Ldebug_loc0:
 3413              	.LLST0:
 3414 0000 02000000 		.4byte	.LVL0
 3415 0004 06000000 		.4byte	.LVL1
 3416 0008 0200     		.2byte	0x2
 3417 000a 31       		.byte	0x31
 3418 000b 9F       		.byte	0x9f
 3419 000c 06000000 		.4byte	.LVL1
 3420 0010 80000000 		.4byte	.LVL2
 3421 0014 0100     		.2byte	0x1
 3422 0016 52       		.byte	0x52
 3423 0017 82000000 		.4byte	.LVL3
 3424 001b 88000000 		.4byte	.LVL4
 3425 001f 0100     		.2byte	0x1
 3426 0021 52       		.byte	0x52
 3427 0022 00000000 		.4byte	0
 3428 0026 00000000 		.4byte	0
 3429              	.LLST1:
 3430 002a 00000000 		.4byte	.LVL5
 3431 002e 04000000 		.4byte	.LVL6
 3432 0032 0200     		.2byte	0x2
 3433 0034 31       		.byte	0x31
 3434 0035 9F       		.byte	0x9f
 3435 0036 04000000 		.4byte	.LVL6
 3436 003a 34000000 		.4byte	.LVL7
 3437 003e 0100     		.2byte	0x1
 3438 0040 53       		.byte	0x53
 3439 0041 36000000 		.4byte	.LVL8
 3440 0045 40000000 		.4byte	.LFE2
 3441 0049 0100     		.2byte	0x1
 3442 004b 53       		.byte	0x53
 3443 004c 00000000 		.4byte	0
 3444 0050 00000000 		.4byte	0
 3445              	.LLST2:
 3446 0054 00000000 		.4byte	.LVL9
 3447 0058 18000000 		.4byte	.LVL12
ARM GAS  C:\Users\Patrick\AppData\Local\Temp\ccvH7eQO.s 			page 87


 3448 005c 0100     		.2byte	0x1
 3449 005e 50       		.byte	0x50
 3450 005f 18000000 		.4byte	.LVL12
 3451 0063 1A000000 		.4byte	.LVL13
 3452 0067 0400     		.2byte	0x4
 3453 0069 F3       		.byte	0xf3
 3454 006a 01       		.uleb128 0x1
 3455 006b 50       		.byte	0x50
 3456 006c 9F       		.byte	0x9f
 3457 006d 1A000000 		.4byte	.LVL13
 3458 0071 1C000000 		.4byte	.LVL14
 3459 0075 0100     		.2byte	0x1
 3460 0077 50       		.byte	0x50
 3461 0078 1C000000 		.4byte	.LVL14
 3462 007c 28000000 		.4byte	.LFE5
 3463 0080 0400     		.2byte	0x4
 3464 0082 F3       		.byte	0xf3
 3465 0083 01       		.uleb128 0x1
 3466 0084 50       		.byte	0x50
 3467 0085 9F       		.byte	0x9f
 3468 0086 00000000 		.4byte	0
 3469 008a 00000000 		.4byte	0
 3470              	.LLST3:
 3471 008e 0C000000 		.4byte	.LVL10
 3472 0092 16000000 		.4byte	.LVL11
 3473 0096 0300     		.2byte	0x3
 3474 0098 73       		.byte	0x73
 3475 0099 10       		.sleb128 16
 3476 009a 9F       		.byte	0x9f
 3477 009b 18000000 		.4byte	.LVL12
 3478 009f 1A000000 		.4byte	.LVL13
 3479 00a3 0100     		.2byte	0x1
 3480 00a5 50       		.byte	0x50
 3481 00a6 1A000000 		.4byte	.LVL13
 3482 00aa 1C000000 		.4byte	.LVL14
 3483 00ae 0300     		.2byte	0x3
 3484 00b0 73       		.byte	0x73
 3485 00b1 10       		.sleb128 16
 3486 00b2 9F       		.byte	0x9f
 3487 00b3 1C000000 		.4byte	.LVL14
 3488 00b7 28000000 		.4byte	.LFE5
 3489 00bb 0100     		.2byte	0x1
 3490 00bd 50       		.byte	0x50
 3491 00be 00000000 		.4byte	0
 3492 00c2 00000000 		.4byte	0
 3493              	.LLST4:
 3494 00c6 1A000000 		.4byte	.LVL16
 3495 00ca 00010000 		.4byte	.LVL30
 3496 00ce 0100     		.2byte	0x1
 3497 00d0 54       		.byte	0x54
 3498 00d1 00000000 		.4byte	0
 3499 00d5 00000000 		.4byte	0
 3500              	.LLST5:
 3501 00d9 3E000000 		.4byte	.LVL21
 3502 00dd C0000000 		.4byte	.LVL26
 3503 00e1 0100     		.2byte	0x1
 3504 00e3 51       		.byte	0x51
ARM GAS  C:\Users\Patrick\AppData\Local\Temp\ccvH7eQO.s 			page 88


 3505 00e4 00000000 		.4byte	0
 3506 00e8 00000000 		.4byte	0
 3507              	.LLST6:
 3508 00ec 44000000 		.4byte	.LVL22
 3509 00f0 88000000 		.4byte	.LVL23
 3510 00f4 0100     		.2byte	0x1
 3511 00f6 56       		.byte	0x56
 3512 00f7 92000000 		.4byte	.LVL24
 3513 00fb A4000000 		.4byte	.LVL25
 3514 00ff 0100     		.2byte	0x1
 3515 0101 56       		.byte	0x56
 3516 0102 00000000 		.4byte	0
 3517 0106 00000000 		.4byte	0
 3518              	.LLST7:
 3519 010a 22000000 		.4byte	.LVL19
 3520 010e 26000000 		.4byte	.LVL20
 3521 0112 0200     		.2byte	0x2
 3522 0114 30       		.byte	0x30
 3523 0115 9F       		.byte	0x9f
 3524 0116 26000000 		.4byte	.LVL20
 3525 011a FA000000 		.4byte	.LVL28
 3526 011e 0100     		.2byte	0x1
 3527 0120 53       		.byte	0x53
 3528 0121 FC000000 		.4byte	.LVL29
 3529 0125 00010000 		.4byte	.LVL30
 3530 0129 0100     		.2byte	0x1
 3531 012b 53       		.byte	0x53
 3532 012c 00000000 		.4byte	0
 3533 0130 00000000 		.4byte	0
 3534              	.LLST8:
 3535 0134 22000000 		.4byte	.LVL19
 3536 0138 00010000 		.4byte	.LVL30
 3537 013c 0100     		.2byte	0x1
 3538 013e 50       		.byte	0x50
 3539 013f 00000000 		.4byte	0
 3540 0143 00000000 		.4byte	0
 3541              	.LLST9:
 3542 0147 18000000 		.4byte	.LVL15
 3543 014b 20000000 		.4byte	.LVL18
 3544 014f 0300     		.2byte	0x3
 3545 0151 70       		.byte	0x70
 3546 0152 08       		.sleb128 8
 3547 0153 9F       		.byte	0x9f
 3548 0154 00000000 		.4byte	0
 3549 0158 00000000 		.4byte	0
 3550              	.LLST10:
 3551 015c 1C000000 		.4byte	.LVL17
 3552 0160 00010000 		.4byte	.LVL30
 3553 0164 0100     		.2byte	0x1
 3554 0166 52       		.byte	0x52
 3555 0167 00000000 		.4byte	0
 3556 016b 00000000 		.4byte	0
 3557              	.LLST11:
 3558 016f 0E000000 		.4byte	.LVL31
 3559 0173 18000000 		.4byte	.LVL33
 3560 0177 0100     		.2byte	0x1
 3561 0179 50       		.byte	0x50
ARM GAS  C:\Users\Patrick\AppData\Local\Temp\ccvH7eQO.s 			page 89


 3562 017a 18000000 		.4byte	.LVL33
 3563 017e 1A000000 		.4byte	.LVL34
 3564 0182 0800     		.2byte	0x8
 3565 0184 72       		.byte	0x72
 3566 0185 02       		.sleb128 2
 3567 0186 33       		.byte	0x33
 3568 0187 24       		.byte	0x24
 3569 0188 70       		.byte	0x70
 3570 0189 00       		.sleb128 0
 3571 018a 22       		.byte	0x22
 3572 018b 9F       		.byte	0x9f
 3573 018c 1C000000 		.4byte	.LVL35
 3574 0190 1E000000 		.4byte	.LVL36
 3575 0194 0100     		.2byte	0x1
 3576 0196 50       		.byte	0x50
 3577 0197 00000000 		.4byte	0
 3578 019b 00000000 		.4byte	0
 3579              	.LLST12:
 3580 019f 1A000000 		.4byte	.LVL34
 3581 01a3 1C000000 		.4byte	.LVL35
 3582 01a7 0100     		.2byte	0x1
 3583 01a9 50       		.byte	0x50
 3584 01aa 1E000000 		.4byte	.LVL36
 3585 01ae 24000000 		.4byte	.LFE7
 3586 01b2 0100     		.2byte	0x1
 3587 01b4 50       		.byte	0x50
 3588 01b5 00000000 		.4byte	0
 3589 01b9 00000000 		.4byte	0
 3590              	.LLST13:
 3591 01bd 14000000 		.4byte	.LVL32
 3592 01c1 1C000000 		.4byte	.LVL35
 3593 01c5 0100     		.2byte	0x1
 3594 01c7 52       		.byte	0x52
 3595 01c8 00000000 		.4byte	0
 3596 01cc 00000000 		.4byte	0
 3597              	.LLST14:
 3598 01d0 00000000 		.4byte	.LVL37
 3599 01d4 52000000 		.4byte	.LVL48
 3600 01d8 0100     		.2byte	0x1
 3601 01da 50       		.byte	0x50
 3602 01db 52000000 		.4byte	.LVL48
 3603 01df B8010000 		.4byte	.LFE3
 3604 01e3 0400     		.2byte	0x4
 3605 01e5 F3       		.byte	0xf3
 3606 01e6 01       		.uleb128 0x1
 3607 01e7 50       		.byte	0x50
 3608 01e8 9F       		.byte	0x9f
 3609 01e9 00000000 		.4byte	0
 3610 01ed 00000000 		.4byte	0
 3611              	.LLST15:
 3612 01f1 02000000 		.4byte	.LVL38
 3613 01f5 06000000 		.4byte	.LVL39
 3614 01f9 0200     		.2byte	0x2
 3615 01fb 30       		.byte	0x30
 3616 01fc 9F       		.byte	0x9f
 3617 01fd 06000000 		.4byte	.LVL39
 3618 0201 22000000 		.4byte	.LVL40
ARM GAS  C:\Users\Patrick\AppData\Local\Temp\ccvH7eQO.s 			page 90


 3619 0205 0100     		.2byte	0x1
 3620 0207 52       		.byte	0x52
 3621 0208 24000000 		.4byte	.LVL41
 3622 020c 2C000000 		.4byte	.LVL42
 3623 0210 0100     		.2byte	0x1
 3624 0212 52       		.byte	0x52
 3625 0213 3C000000 		.4byte	.LVL45
 3626 0217 3E000000 		.4byte	.LVL46
 3627 021b 0100     		.2byte	0x1
 3628 021d 52       		.byte	0x52
 3629 021e 7C000000 		.4byte	.LVL53
 3630 0222 74010000 		.4byte	.LVL75
 3631 0226 0100     		.2byte	0x1
 3632 0228 55       		.byte	0x55
 3633 0229 74010000 		.4byte	.LVL75
 3634 022d 7A010000 		.4byte	.LVL76
 3635 0231 0200     		.2byte	0x2
 3636 0233 31       		.byte	0x31
 3637 0234 9F       		.byte	0x9f
 3638 0235 7A010000 		.4byte	.LVL76
 3639 0239 8E010000 		.4byte	.LVL79
 3640 023d 0100     		.2byte	0x1
 3641 023f 52       		.byte	0x52
 3642 0240 90010000 		.4byte	.LVL80
 3643 0244 97010000 		.4byte	.LVL81-1
 3644 0248 0100     		.2byte	0x1
 3645 024a 52       		.byte	0x52
 3646 024b 00000000 		.4byte	0
 3647 024f 00000000 		.4byte	0
 3648              	.LLST16:
 3649 0253 82000000 		.4byte	.LVL55
 3650 0257 86000000 		.4byte	.LVL56
 3651 025b 0200     		.2byte	0x2
 3652 025d 30       		.byte	0x30
 3653 025e 9F       		.byte	0x9f
 3654 025f 86000000 		.4byte	.LVL56
 3655 0263 3A010000 		.4byte	.LVL64
 3656 0267 0100     		.2byte	0x1
 3657 0269 53       		.byte	0x53
 3658 026a 3C010000 		.4byte	.LVL65
 3659 026e 44010000 		.4byte	.LVL67
 3660 0272 0100     		.2byte	0x1
 3661 0274 53       		.byte	0x53
 3662 0275 00000000 		.4byte	0
 3663 0279 00000000 		.4byte	0
 3664              	.LLST17:
 3665 027d 2C000000 		.4byte	.LVL42
 3666 0281 38000000 		.4byte	.LVL43
 3667 0285 0100     		.2byte	0x1
 3668 0287 53       		.byte	0x53
 3669 0288 3A000000 		.4byte	.LVL44
 3670 028c 3C000000 		.4byte	.LVL45
 3671 0290 0100     		.2byte	0x1
 3672 0292 53       		.byte	0x53
 3673 0293 3E000000 		.4byte	.LVL46
 3674 0297 42000000 		.4byte	.LVL47
 3675 029b 0100     		.2byte	0x1
ARM GAS  C:\Users\Patrick\AppData\Local\Temp\ccvH7eQO.s 			page 91


 3676 029d 53       		.byte	0x53
 3677 029e 7C000000 		.4byte	.LVL53
 3678 02a2 80000000 		.4byte	.LVL54
 3679 02a6 0200     		.2byte	0x2
 3680 02a8 31       		.byte	0x31
 3681 02a9 9F       		.byte	0x9f
 3682 02aa 80000000 		.4byte	.LVL54
 3683 02ae 42010000 		.4byte	.LVL66
 3684 02b2 0100     		.2byte	0x1
 3685 02b4 54       		.byte	0x54
 3686 02b5 44010000 		.4byte	.LVL67
 3687 02b9 4A010000 		.4byte	.LVL68
 3688 02bd 0100     		.2byte	0x1
 3689 02bf 54       		.byte	0x54
 3690 02c0 4A010000 		.4byte	.LVL68
 3691 02c4 4E010000 		.4byte	.LVL69
 3692 02c8 0200     		.2byte	0x2
 3693 02ca 30       		.byte	0x30
 3694 02cb 9F       		.byte	0x9f
 3695 02cc 4E010000 		.4byte	.LVL69
 3696 02d0 66010000 		.4byte	.LVL72
 3697 02d4 0100     		.2byte	0x1
 3698 02d6 52       		.byte	0x52
 3699 02d7 68010000 		.4byte	.LVL73
 3700 02db 6F010000 		.4byte	.LVL74-1
 3701 02df 0100     		.2byte	0x1
 3702 02e1 52       		.byte	0x52
 3703 02e2 00000000 		.4byte	0
 3704 02e6 00000000 		.4byte	0
 3705              	.LLST18:
 3706 02ea E4000000 		.4byte	.LVL57
 3707 02ee 00010000 		.4byte	.LVL58
 3708 02f2 0100     		.2byte	0x1
 3709 02f4 52       		.byte	0x52
 3710 02f5 00010000 		.4byte	.LVL58
 3711 02f9 0A010000 		.4byte	.LVL59
 3712 02fd 0700     		.2byte	0x7
 3713 02ff 71       		.byte	0x71
 3714 0300 03       		.sleb128 3
 3715 0301 94       		.byte	0x94
 3716 0302 01       		.byte	0x1
 3717 0303 33       		.byte	0x33
 3718 0304 1A       		.byte	0x1a
 3719 0305 9F       		.byte	0x9f
 3720 0306 10010000 		.4byte	.LVL60
 3721 030a 28010000 		.4byte	.LVL61
 3722 030e 0100     		.2byte	0x1
 3723 0310 52       		.byte	0x52
 3724 0311 28010000 		.4byte	.LVL61
 3725 0315 30010000 		.4byte	.LVL62
 3726 0319 0700     		.2byte	0x7
 3727 031b 71       		.byte	0x71
 3728 031c 03       		.sleb128 3
 3729 031d 94       		.byte	0x94
 3730 031e 01       		.byte	0x1
 3731 031f 33       		.byte	0x33
 3732 0320 1A       		.byte	0x1a
ARM GAS  C:\Users\Patrick\AppData\Local\Temp\ccvH7eQO.s 			page 92


 3733 0321 9F       		.byte	0x9f
 3734 0322 00000000 		.4byte	0
 3735 0326 00000000 		.4byte	0
 3736              	.LLST19:
 3737 032a 5C000000 		.4byte	.LVL50
 3738 032e 5E000000 		.4byte	.LVL51
 3739 0332 0100     		.2byte	0x1
 3740 0334 53       		.byte	0x53
 3741 0335 5E000000 		.4byte	.LVL51
 3742 0339 80000000 		.4byte	.LVL54
 3743 033d 0200     		.2byte	0x2
 3744 033f 70       		.byte	0x70
 3745 0340 04       		.sleb128 4
 3746 0341 00000000 		.4byte	0
 3747 0345 00000000 		.4byte	0
 3748              	.LLST20:
 3749 0349 02000000 		.4byte	.LVL38
 3750 034d 7A010000 		.4byte	.LVL76
 3751 0351 0200     		.2byte	0x2
 3752 0353 30       		.byte	0x30
 3753 0354 9F       		.byte	0x9f
 3754 0355 7A010000 		.4byte	.LVL76
 3755 0359 8A010000 		.4byte	.LVL77
 3756 035d 0100     		.2byte	0x1
 3757 035f 50       		.byte	0x50
 3758 0360 8A010000 		.4byte	.LVL77
 3759 0364 8C010000 		.4byte	.LVL78
 3760 0368 0200     		.2byte	0x2
 3761 036a 71       		.byte	0x71
 3762 036b 06       		.sleb128 6
 3763 036c 8C010000 		.4byte	.LVL78
 3764 0370 97010000 		.4byte	.LVL81-1
 3765 0374 0100     		.2byte	0x1
 3766 0376 50       		.byte	0x50
 3767 0377 00000000 		.4byte	0
 3768 037b 00000000 		.4byte	0
 3769              	.LLST21:
 3770 037f 5A000000 		.4byte	.LVL49
 3771 0383 7A000000 		.4byte	.LVL52
 3772 0387 0100     		.2byte	0x1
 3773 0389 50       		.byte	0x50
 3774 038a 7A000000 		.4byte	.LVL52
 3775 038e 4A010000 		.4byte	.LVL68
 3776 0392 0300     		.2byte	0x3
 3777 0394 70       		.byte	0x70
 3778 0395 08       		.sleb128 8
 3779 0396 9F       		.byte	0x9f
 3780 0397 00000000 		.4byte	0
 3781 039b 00000000 		.4byte	0
 3782              	.LLST22:
 3783 039f 82000000 		.4byte	.LVL55
 3784 03a3 44010000 		.4byte	.LVL67
 3785 03a7 0100     		.2byte	0x1
 3786 03a9 51       		.byte	0x51
 3787 03aa 4A010000 		.4byte	.LVL68
 3788 03ae 58010000 		.4byte	.LVL70
 3789 03b2 0100     		.2byte	0x1
ARM GAS  C:\Users\Patrick\AppData\Local\Temp\ccvH7eQO.s 			page 93


 3790 03b4 50       		.byte	0x50
 3791 03b5 58010000 		.4byte	.LVL70
 3792 03b9 64010000 		.4byte	.LVL71
 3793 03bd 0300     		.2byte	0x3
 3794 03bf 70       		.byte	0x70
 3795 03c0 78       		.sleb128 -8
 3796 03c1 9F       		.byte	0x9f
 3797 03c2 64010000 		.4byte	.LVL71
 3798 03c6 6F010000 		.4byte	.LVL74-1
 3799 03ca 0100     		.2byte	0x1
 3800 03cc 50       		.byte	0x50
 3801 03cd 00000000 		.4byte	0
 3802 03d1 00000000 		.4byte	0
 3803              	.LLST23:
 3804 03d5 00000000 		.4byte	.LVL82
 3805 03d9 04000000 		.4byte	.LVL83
 3806 03dd 0100     		.2byte	0x1
 3807 03df 50       		.byte	0x50
 3808 03e0 04000000 		.4byte	.LVL83
 3809 03e4 30000000 		.4byte	.LVL84
 3810 03e8 0100     		.2byte	0x1
 3811 03ea 50       		.byte	0x50
 3812 03eb 38000000 		.4byte	.LVL85
 3813 03ef 3A000000 		.4byte	.LVL86
 3814 03f3 0100     		.2byte	0x1
 3815 03f5 50       		.byte	0x50
 3816 03f6 00000000 		.4byte	0
 3817 03fa 00000000 		.4byte	0
 3818              	.LLST24:
 3819 03fe 02000000 		.4byte	.LVL87
 3820 0402 52000000 		.4byte	.LVL92
 3821 0406 0200     		.2byte	0x2
 3822 0408 30       		.byte	0x30
 3823 0409 9F       		.byte	0x9f
 3824 040a 52000000 		.4byte	.LVL92
 3825 040e 54000000 		.4byte	.LVL93
 3826 0412 0100     		.2byte	0x1
 3827 0414 50       		.byte	0x50
 3828 0415 54000000 		.4byte	.LVL93
 3829 0419 56000000 		.4byte	.LVL94
 3830 041d 0200     		.2byte	0x2
 3831 041f 30       		.byte	0x30
 3832 0420 9F       		.byte	0x9f
 3833 0421 56000000 		.4byte	.LVL94
 3834 0425 64000000 		.4byte	.LFE9
 3835 0429 0100     		.2byte	0x1
 3836 042b 50       		.byte	0x50
 3837 042c 00000000 		.4byte	0
 3838 0430 00000000 		.4byte	0
 3839              	.LLST25:
 3840 0434 0A000000 		.4byte	.LVL88
 3841 0438 3A000000 		.4byte	.LVL89
 3842 043c 0100     		.2byte	0x1
 3843 043e 52       		.byte	0x52
 3844 043f 44000000 		.4byte	.LVL90
 3845 0443 46000000 		.4byte	.LVL91
 3846 0447 0100     		.2byte	0x1
ARM GAS  C:\Users\Patrick\AppData\Local\Temp\ccvH7eQO.s 			page 94


 3847 0449 52       		.byte	0x52
 3848 044a 54000000 		.4byte	.LVL93
 3849 044e 64000000 		.4byte	.LFE9
 3850 0452 0100     		.2byte	0x1
 3851 0454 52       		.byte	0x52
 3852 0455 00000000 		.4byte	0
 3853 0459 00000000 		.4byte	0
 3854              	.LLST26:
 3855 045d 00000000 		.4byte	.LVL95
 3856 0461 96000000 		.4byte	.LVL104
 3857 0465 0200     		.2byte	0x2
 3858 0467 30       		.byte	0x30
 3859 0468 9F       		.byte	0x9f
 3860 0469 96000000 		.4byte	.LVL104
 3861 046d 98000000 		.4byte	.LVL105
 3862 0471 0100     		.2byte	0x1
 3863 0473 50       		.byte	0x50
 3864 0474 98000000 		.4byte	.LVL105
 3865 0478 A8000000 		.4byte	.LFE10
 3866 047c 0200     		.2byte	0x2
 3867 047e 30       		.byte	0x30
 3868 047f 9F       		.byte	0x9f
 3869 0480 00000000 		.4byte	0
 3870 0484 00000000 		.4byte	0
 3871              	.LLST27:
 3872 0488 08000000 		.4byte	.LVL96
 3873 048c 54000000 		.4byte	.LVL97
 3874 0490 0100     		.2byte	0x1
 3875 0492 53       		.byte	0x53
 3876 0493 5E000000 		.4byte	.LVL98
 3877 0497 60000000 		.4byte	.LVL99
 3878 049b 0100     		.2byte	0x1
 3879 049d 53       		.byte	0x53
 3880 049e 6A000000 		.4byte	.LVL100
 3881 04a2 7E000000 		.4byte	.LVL101
 3882 04a6 0100     		.2byte	0x1
 3883 04a8 53       		.byte	0x53
 3884 04a9 88000000 		.4byte	.LVL102
 3885 04ad 8A000000 		.4byte	.LVL103
 3886 04b1 0100     		.2byte	0x1
 3887 04b3 53       		.byte	0x53
 3888 04b4 98000000 		.4byte	.LVL105
 3889 04b8 A8000000 		.4byte	.LFE10
 3890 04bc 0100     		.2byte	0x1
 3891 04be 53       		.byte	0x53
 3892 04bf 00000000 		.4byte	0
 3893 04c3 00000000 		.4byte	0
 3894              	.LLST28:
 3895 04c7 02000000 		.4byte	.LVL106
 3896 04cb 32000000 		.4byte	.LVL111
 3897 04cf 0200     		.2byte	0x2
 3898 04d1 30       		.byte	0x30
 3899 04d2 9F       		.byte	0x9f
 3900 04d3 32000000 		.4byte	.LVL111
 3901 04d7 36000000 		.4byte	.LVL113
 3902 04db 0200     		.2byte	0x2
 3903 04dd 31       		.byte	0x31
ARM GAS  C:\Users\Patrick\AppData\Local\Temp\ccvH7eQO.s 			page 95


 3904 04de 9F       		.byte	0x9f
 3905 04df 36000000 		.4byte	.LVL113
 3906 04e3 38000000 		.4byte	.LVL114
 3907 04e7 0200     		.2byte	0x2
 3908 04e9 30       		.byte	0x30
 3909 04ea 9F       		.byte	0x9f
 3910 04eb 38000000 		.4byte	.LVL114
 3911 04ef 4C000000 		.4byte	.LFE11
 3912 04f3 0100     		.2byte	0x1
 3913 04f5 50       		.byte	0x50
 3914 04f6 00000000 		.4byte	0
 3915 04fa 00000000 		.4byte	0
 3916              	.LLST29:
 3917 04fe 08000000 		.4byte	.LVL107
 3918 0502 3A000000 		.4byte	.LVL115
 3919 0506 0100     		.2byte	0x1
 3920 0508 54       		.byte	0x54
 3921 0509 00000000 		.4byte	0
 3922 050d 00000000 		.4byte	0
 3923              	.LLST30:
 3924 0511 18000000 		.4byte	.LVL109
 3925 0515 24000000 		.4byte	.LVL110
 3926 0519 0100     		.2byte	0x1
 3927 051b 53       		.byte	0x53
 3928 051c 24000000 		.4byte	.LVL110
 3929 0520 34000000 		.4byte	.LVL112
 3930 0524 0500     		.2byte	0x5
 3931 0526 70       		.byte	0x70
 3932 0527 04       		.sleb128 4
 3933 0528 06       		.byte	0x6
 3934 0529 23       		.byte	0x23
 3935 052a 04       		.uleb128 0x4
 3936 052b 36000000 		.4byte	.LVL113
 3937 052f 4C000000 		.4byte	.LFE11
 3938 0533 0100     		.2byte	0x1
 3939 0535 53       		.byte	0x53
 3940 0536 00000000 		.4byte	0
 3941 053a 00000000 		.4byte	0
 3942              	.LLST31:
 3943 053e 14000000 		.4byte	.LVL108
 3944 0542 34000000 		.4byte	.LVL112
 3945 0546 0100     		.2byte	0x1
 3946 0548 50       		.byte	0x50
 3947 0549 36000000 		.4byte	.LVL113
 3948 054d 38000000 		.4byte	.LVL114
 3949 0551 0100     		.2byte	0x1
 3950 0553 50       		.byte	0x50
 3951 0554 00000000 		.4byte	0
 3952 0558 00000000 		.4byte	0
 3953              	.LLST32:
 3954 055c 02000000 		.4byte	.LVL116
 3955 0560 58000000 		.4byte	.LVL120
 3956 0564 0200     		.2byte	0x2
 3957 0566 30       		.byte	0x30
 3958 0567 9F       		.byte	0x9f
 3959 0568 58000000 		.4byte	.LVL120
 3960 056c 5A000000 		.4byte	.LVL121
ARM GAS  C:\Users\Patrick\AppData\Local\Temp\ccvH7eQO.s 			page 96


 3961 0570 0100     		.2byte	0x1
 3962 0572 50       		.byte	0x50
 3963 0573 5A000000 		.4byte	.LVL121
 3964 0577 8A000000 		.4byte	.LVL123
 3965 057b 0200     		.2byte	0x2
 3966 057d 30       		.byte	0x30
 3967 057e 9F       		.byte	0x9f
 3968 057f 8A000000 		.4byte	.LVL123
 3969 0583 8C000000 		.4byte	.LVL124
 3970 0587 0100     		.2byte	0x1
 3971 0589 50       		.byte	0x50
 3972 058a 8C000000 		.4byte	.LVL124
 3973 058e E8000000 		.4byte	.LVL134
 3974 0592 0200     		.2byte	0x2
 3975 0594 30       		.byte	0x30
 3976 0595 9F       		.byte	0x9f
 3977 0596 E8000000 		.4byte	.LVL134
 3978 059a EA000000 		.4byte	.LVL135
 3979 059e 0100     		.2byte	0x1
 3980 05a0 50       		.byte	0x50
 3981 05a1 EA000000 		.4byte	.LVL135
 3982 05a5 EE000000 		.4byte	.LVL136
 3983 05a9 0200     		.2byte	0x2
 3984 05ab 30       		.byte	0x30
 3985 05ac 9F       		.byte	0x9f
 3986 05ad EE000000 		.4byte	.LVL136
 3987 05b1 F0000000 		.4byte	.LVL137
 3988 05b5 0100     		.2byte	0x1
 3989 05b7 50       		.byte	0x50
 3990 05b8 F0000000 		.4byte	.LVL137
 3991 05bc 24010000 		.4byte	.LVL139
 3992 05c0 0200     		.2byte	0x2
 3993 05c2 30       		.byte	0x30
 3994 05c3 9F       		.byte	0x9f
 3995 05c4 24010000 		.4byte	.LVL139
 3996 05c8 26010000 		.4byte	.LVL140
 3997 05cc 0100     		.2byte	0x1
 3998 05ce 50       		.byte	0x50
 3999 05cf 26010000 		.4byte	.LVL140
 4000 05d3 40010000 		.4byte	.LVL141
 4001 05d7 0200     		.2byte	0x2
 4002 05d9 30       		.byte	0x30
 4003 05da 9F       		.byte	0x9f
 4004 05db 40010000 		.4byte	.LVL141
 4005 05df 42010000 		.4byte	.LVL142
 4006 05e3 0100     		.2byte	0x1
 4007 05e5 50       		.byte	0x50
 4008 05e6 42010000 		.4byte	.LVL142
 4009 05ea 50010000 		.4byte	.LVL144
 4010 05ee 0200     		.2byte	0x2
 4011 05f0 30       		.byte	0x30
 4012 05f1 9F       		.byte	0x9f
 4013 05f2 50010000 		.4byte	.LVL144
 4014 05f6 52010000 		.4byte	.LVL145
 4015 05fa 0100     		.2byte	0x1
 4016 05fc 50       		.byte	0x50
 4017 05fd 52010000 		.4byte	.LVL145
ARM GAS  C:\Users\Patrick\AppData\Local\Temp\ccvH7eQO.s 			page 97


 4018 0601 66010000 		.4byte	.LVL147
 4019 0605 0200     		.2byte	0x2
 4020 0607 30       		.byte	0x30
 4021 0608 9F       		.byte	0x9f
 4022 0609 66010000 		.4byte	.LVL147
 4023 060d 68010000 		.4byte	.LVL148
 4024 0611 0100     		.2byte	0x1
 4025 0613 50       		.byte	0x50
 4026 0614 68010000 		.4byte	.LVL148
 4027 0618 9C010000 		.4byte	.LVL150
 4028 061c 0200     		.2byte	0x2
 4029 061e 30       		.byte	0x30
 4030 061f 9F       		.byte	0x9f
 4031 0620 9C010000 		.4byte	.LVL150
 4032 0624 9E010000 		.4byte	.LVL151
 4033 0628 0100     		.2byte	0x1
 4034 062a 50       		.byte	0x50
 4035 062b 9E010000 		.4byte	.LVL151
 4036 062f D6010000 		.4byte	.LVL157
 4037 0633 0200     		.2byte	0x2
 4038 0635 30       		.byte	0x30
 4039 0636 9F       		.byte	0x9f
 4040 0637 D6010000 		.4byte	.LVL157
 4041 063b D8010000 		.4byte	.LVL158
 4042 063f 0100     		.2byte	0x1
 4043 0641 50       		.byte	0x50
 4044 0642 D8010000 		.4byte	.LVL158
 4045 0646 0C020000 		.4byte	.LVL163
 4046 064a 0200     		.2byte	0x2
 4047 064c 30       		.byte	0x30
 4048 064d 9F       		.byte	0x9f
 4049 064e 0C020000 		.4byte	.LVL163
 4050 0652 0E020000 		.4byte	.LVL164
 4051 0656 0100     		.2byte	0x1
 4052 0658 50       		.byte	0x50
 4053 0659 0E020000 		.4byte	.LVL164
 4054 065d 2A020000 		.4byte	.LVL166
 4055 0661 0200     		.2byte	0x2
 4056 0663 30       		.byte	0x30
 4057 0664 9F       		.byte	0x9f
 4058 0665 2A020000 		.4byte	.LVL166
 4059 0669 2C020000 		.4byte	.LVL167
 4060 066d 0100     		.2byte	0x1
 4061 066f 50       		.byte	0x50
 4062 0670 2C020000 		.4byte	.LVL167
 4063 0674 44020000 		.4byte	.LVL168
 4064 0678 0200     		.2byte	0x2
 4065 067a 30       		.byte	0x30
 4066 067b 9F       		.byte	0x9f
 4067 067c 44020000 		.4byte	.LVL168
 4068 0680 46020000 		.4byte	.LVL169
 4069 0684 0100     		.2byte	0x1
 4070 0686 50       		.byte	0x50
 4071 0687 46020000 		.4byte	.LVL169
 4072 068b 66020000 		.4byte	.LVL170
 4073 068f 0200     		.2byte	0x2
 4074 0691 30       		.byte	0x30
ARM GAS  C:\Users\Patrick\AppData\Local\Temp\ccvH7eQO.s 			page 98


 4075 0692 9F       		.byte	0x9f
 4076 0693 66020000 		.4byte	.LVL170
 4077 0697 A4020000 		.4byte	.LVL171
 4078 069b 0100     		.2byte	0x1
 4079 069d 50       		.byte	0x50
 4080 069e A4020000 		.4byte	.LVL171
 4081 06a2 C0020000 		.4byte	.LVL173
 4082 06a6 0200     		.2byte	0x2
 4083 06a8 30       		.byte	0x30
 4084 06a9 9F       		.byte	0x9f
 4085 06aa C0020000 		.4byte	.LVL173
 4086 06ae C2020000 		.4byte	.LVL174
 4087 06b2 0100     		.2byte	0x1
 4088 06b4 50       		.byte	0x50
 4089 06b5 C2020000 		.4byte	.LVL174
 4090 06b9 DA020000 		.4byte	.LVL175
 4091 06bd 0200     		.2byte	0x2
 4092 06bf 30       		.byte	0x30
 4093 06c0 9F       		.byte	0x9f
 4094 06c1 DA020000 		.4byte	.LVL175
 4095 06c5 DC020000 		.4byte	.LVL176
 4096 06c9 0100     		.2byte	0x1
 4097 06cb 50       		.byte	0x50
 4098 06cc DC020000 		.4byte	.LVL176
 4099 06d0 FC020000 		.4byte	.LVL177
 4100 06d4 0200     		.2byte	0x2
 4101 06d6 30       		.byte	0x30
 4102 06d7 9F       		.byte	0x9f
 4103 06d8 FC020000 		.4byte	.LVL177
 4104 06dc FE020000 		.4byte	.LVL178
 4105 06e0 0100     		.2byte	0x1
 4106 06e2 50       		.byte	0x50
 4107 06e3 FE020000 		.4byte	.LVL178
 4108 06e7 38030000 		.4byte	.LVL186
 4109 06eb 0200     		.2byte	0x2
 4110 06ed 30       		.byte	0x30
 4111 06ee 9F       		.byte	0x9f
 4112 06ef 38030000 		.4byte	.LVL186
 4113 06f3 48030000 		.4byte	.LFE0
 4114 06f7 0100     		.2byte	0x1
 4115 06f9 50       		.byte	0x50
 4116 06fa 00000000 		.4byte	0
 4117 06fe 00000000 		.4byte	0
 4118              	.LLST33:
 4119 0702 E8010000 		.4byte	.LVL160
 4120 0706 FA010000 		.4byte	.LVL161
 4121 070a 0100     		.2byte	0x1
 4122 070c 53       		.byte	0x53
 4123 070d 00000000 		.4byte	0
 4124 0711 00000000 		.4byte	0
 4125              	.LLST34:
 4126 0715 A2010000 		.4byte	.LVL153
 4127 0719 AF010000 		.4byte	.LVL154-1
 4128 071d 0100     		.2byte	0x1
 4129 071f 53       		.byte	0x53
 4130 0720 00000000 		.4byte	0
 4131 0724 00000000 		.4byte	0
ARM GAS  C:\Users\Patrick\AppData\Local\Temp\ccvH7eQO.s 			page 99


 4132              	.LLST35:
 4133 0728 08000000 		.4byte	.LVL117
 4134 072c 3E000000 		.4byte	.LVL118
 4135 0730 0100     		.2byte	0x1
 4136 0732 53       		.byte	0x53
 4137 0733 F0000000 		.4byte	.LVL137
 4138 0737 F4000000 		.4byte	.LVL138
 4139 073b 0100     		.2byte	0x1
 4140 073d 53       		.byte	0x53
 4141 073e 42010000 		.4byte	.LVL142
 4142 0742 44010000 		.4byte	.LVL143
 4143 0746 0100     		.2byte	0x1
 4144 0748 53       		.byte	0x53
 4145 0749 52010000 		.4byte	.LVL145
 4146 074d 56010000 		.4byte	.LVL146
 4147 0751 0100     		.2byte	0x1
 4148 0753 53       		.byte	0x53
 4149 0754 68010000 		.4byte	.LVL148
 4150 0758 90010000 		.4byte	.LVL149
 4151 075c 0100     		.2byte	0x1
 4152 075e 53       		.byte	0x53
 4153 075f 9E010000 		.4byte	.LVL151
 4154 0763 A0010000 		.4byte	.LVL152
 4155 0767 0100     		.2byte	0x1
 4156 0769 53       		.byte	0x53
 4157 076a D8010000 		.4byte	.LVL158
 4158 076e DB010000 		.4byte	.LVL159-1
 4159 0772 0100     		.2byte	0x1
 4160 0774 53       		.byte	0x53
 4161 0775 0E020000 		.4byte	.LVL164
 4162 0779 12020000 		.4byte	.LVL165
 4163 077d 0100     		.2byte	0x1
 4164 077f 53       		.byte	0x53
 4165 0780 A4020000 		.4byte	.LVL171
 4166 0784 A8020000 		.4byte	.LVL172
 4167 0788 0100     		.2byte	0x1
 4168 078a 53       		.byte	0x53
 4169 078b FE020000 		.4byte	.LVL178
 4170 078f 02030000 		.4byte	.LVL179
 4171 0793 0100     		.2byte	0x1
 4172 0795 53       		.byte	0x53
 4173 0796 0E030000 		.4byte	.LVL183
 4174 079a 12030000 		.4byte	.LVL184
 4175 079e 0100     		.2byte	0x1
 4176 07a0 53       		.byte	0x53
 4177 07a1 00000000 		.4byte	0
 4178 07a5 00000000 		.4byte	0
 4179              	.LLST36:
 4180 07a9 08000000 		.4byte	.LVL117
 4181 07ad 98000000 		.4byte	.LVL125
 4182 07b1 0200     		.2byte	0x2
 4183 07b3 30       		.byte	0x30
 4184 07b4 9F       		.byte	0x9f
 4185 07b5 98000000 		.4byte	.LVL125
 4186 07b9 A2000000 		.4byte	.LVL130
 4187 07bd 0100     		.2byte	0x1
 4188 07bf 51       		.byte	0x51
ARM GAS  C:\Users\Patrick\AppData\Local\Temp\ccvH7eQO.s 			page 100


 4189 07c0 A2000000 		.4byte	.LVL130
 4190 07c4 A6000000 		.4byte	.LVL131
 4191 07c8 0200     		.2byte	0x2
 4192 07ca 30       		.byte	0x30
 4193 07cb 9F       		.byte	0x9f
 4194 07cc A6000000 		.4byte	.LVL131
 4195 07d0 E7000000 		.4byte	.LVL134-1
 4196 07d4 0100     		.2byte	0x1
 4197 07d6 51       		.byte	0x51
 4198 07d7 EA000000 		.4byte	.LVL135
 4199 07db 06030000 		.4byte	.LVL181
 4200 07df 0200     		.2byte	0x2
 4201 07e1 30       		.byte	0x30
 4202 07e2 9F       		.byte	0x9f
 4203 07e3 06030000 		.4byte	.LVL181
 4204 07e7 0A030000 		.4byte	.LVL182
 4205 07eb 0100     		.2byte	0x1
 4206 07ed 51       		.byte	0x51
 4207 07ee 0A030000 		.4byte	.LVL182
 4208 07f2 48030000 		.4byte	.LFE0
 4209 07f6 0200     		.2byte	0x2
 4210 07f8 30       		.byte	0x30
 4211 07f9 9F       		.byte	0x9f
 4212 07fa 00000000 		.4byte	0
 4213 07fe 00000000 		.4byte	0
 4214              	.LLST37:
 4215 0802 98000000 		.4byte	.LVL125
 4216 0806 9E000000 		.4byte	.LVL128
 4217 080a 0100     		.2byte	0x1
 4218 080c 53       		.byte	0x53
 4219 080d A0000000 		.4byte	.LVL129
 4220 0811 A2000000 		.4byte	.LVL130
 4221 0815 0100     		.2byte	0x1
 4222 0817 53       		.byte	0x53
 4223 0818 A6000000 		.4byte	.LVL131
 4224 081c BA000000 		.4byte	.LVL132
 4225 0820 0100     		.2byte	0x1
 4226 0822 53       		.byte	0x53
 4227 0823 00000000 		.4byte	0
 4228 0827 00000000 		.4byte	0
 4229              	.LLST38:
 4230 082b 9A000000 		.4byte	.LVL126
 4231 082f A2000000 		.4byte	.LVL130
 4232 0833 0100     		.2byte	0x1
 4233 0835 52       		.byte	0x52
 4234 0836 00000000 		.4byte	0
 4235 083a 00000000 		.4byte	0
 4236              	.LLST39:
 4237 083e 4A000000 		.4byte	.LVL119
 4238 0842 57000000 		.4byte	.LVL120-1
 4239 0846 0100     		.2byte	0x1
 4240 0848 50       		.byte	0x50
 4241 0849 6C000000 		.4byte	.LVL122
 4242 084d 89000000 		.4byte	.LVL123-1
 4243 0851 0100     		.2byte	0x1
 4244 0853 50       		.byte	0x50
 4245 0854 B0010000 		.4byte	.LVL154
ARM GAS  C:\Users\Patrick\AppData\Local\Temp\ccvH7eQO.s 			page 101


 4246 0858 CA010000 		.4byte	.LVL155
 4247 085c 0100     		.2byte	0x1
 4248 085e 50       		.byte	0x50
 4249 085f 02030000 		.4byte	.LVL179
 4250 0863 04030000 		.4byte	.LVL180
 4251 0867 0100     		.2byte	0x1
 4252 0869 50       		.byte	0x50
 4253 086a 12030000 		.4byte	.LVL184
 4254 086e 14030000 		.4byte	.LVL185
 4255 0872 0100     		.2byte	0x1
 4256 0874 50       		.byte	0x50
 4257 0875 00000000 		.4byte	0
 4258 0879 00000000 		.4byte	0
 4259              		.section	.debug_aranges,"",%progbits
 4260 0000 74000000 		.4byte	0x74
 4261 0004 0200     		.2byte	0x2
 4262 0006 00000000 		.4byte	.Ldebug_info0
 4263 000a 04       		.byte	0x4
 4264 000b 00       		.byte	0
 4265 000c 0000     		.2byte	0
 4266 000e 0000     		.2byte	0
 4267 0010 00000000 		.4byte	.LFB1
 4268 0014 A4000000 		.4byte	.LFE1-.LFB1
 4269 0018 00000000 		.4byte	.LFB2
 4270 001c 40000000 		.4byte	.LFE2-.LFB2
 4271 0020 00000000 		.4byte	.LFB5
 4272 0024 28000000 		.4byte	.LFE5-.LFB5
 4273 0028 00000000 		.4byte	.LFB4
 4274 002c 1C010000 		.4byte	.LFE4-.LFB4
 4275 0030 00000000 		.4byte	.LFB6
 4276 0034 18000000 		.4byte	.LFE6-.LFB6
 4277 0038 00000000 		.4byte	.LFB7
 4278 003c 24000000 		.4byte	.LFE7-.LFB7
 4279 0040 00000000 		.4byte	.LFB3
 4280 0044 B8010000 		.4byte	.LFE3-.LFB3
 4281 0048 00000000 		.4byte	.LFB8
 4282 004c 4C000000 		.4byte	.LFE8-.LFB8
 4283 0050 00000000 		.4byte	.LFB9
 4284 0054 64000000 		.4byte	.LFE9-.LFB9
 4285 0058 00000000 		.4byte	.LFB10
 4286 005c A8000000 		.4byte	.LFE10-.LFB10
 4287 0060 00000000 		.4byte	.LFB11
 4288 0064 4C000000 		.4byte	.LFE11-.LFB11
 4289 0068 00000000 		.4byte	.LFB0
 4290 006c 48030000 		.4byte	.LFE0-.LFB0
 4291 0070 00000000 		.4byte	0
 4292 0074 00000000 		.4byte	0
 4293              		.section	.debug_ranges,"",%progbits
 4294              	.Ldebug_ranges0:
 4295 0000 00000000 		.4byte	.LFB1
 4296 0004 A4000000 		.4byte	.LFE1
 4297 0008 00000000 		.4byte	.LFB2
 4298 000c 40000000 		.4byte	.LFE2
 4299 0010 00000000 		.4byte	.LFB5
 4300 0014 28000000 		.4byte	.LFE5
 4301 0018 00000000 		.4byte	.LFB4
 4302 001c 1C010000 		.4byte	.LFE4
ARM GAS  C:\Users\Patrick\AppData\Local\Temp\ccvH7eQO.s 			page 102


 4303 0020 00000000 		.4byte	.LFB6
 4304 0024 18000000 		.4byte	.LFE6
 4305 0028 00000000 		.4byte	.LFB7
 4306 002c 24000000 		.4byte	.LFE7
 4307 0030 00000000 		.4byte	.LFB3
 4308 0034 B8010000 		.4byte	.LFE3
 4309 0038 00000000 		.4byte	.LFB8
 4310 003c 4C000000 		.4byte	.LFE8
 4311 0040 00000000 		.4byte	.LFB9
 4312 0044 64000000 		.4byte	.LFE9
 4313 0048 00000000 		.4byte	.LFB10
 4314 004c A8000000 		.4byte	.LFE10
 4315 0050 00000000 		.4byte	.LFB11
 4316 0054 4C000000 		.4byte	.LFE11
 4317 0058 00000000 		.4byte	.LFB0
 4318 005c 48030000 		.4byte	.LFE0
 4319 0060 00000000 		.4byte	0
 4320 0064 00000000 		.4byte	0
 4321              		.section	.debug_line,"",%progbits
 4322              	.Ldebug_line0:
 4323 0000 73030000 		.section	.debug_str,"MS",%progbits,1
 4323      02006200 
 4323      00000201 
 4323      FB0E0D00 
 4323      01010101 
 4324              	.LASF35:
 4325 0000 70537461 		.ascii	"pStatusBlock\000"
 4325      74757342 
 4325      6C6F636B 
 4325      00
 4326              	.LASF33:
 4327 000d 636F756E 		.ascii	"count\000"
 4327      7400
 4328              	.LASF10:
 4329 0013 75696E74 		.ascii	"uint16\000"
 4329      313600
 4330              	.LASF75:
 4331 001a 55534246 		.ascii	"USBFS_TerminateEP\000"
 4331      535F5465 
 4331      726D696E 
 4331      61746545 
 4331      5000
 4332              	.LASF105:
 4333 002c 55534246 		.ascii	"USBFS_currentTD\000"
 4333      535F6375 
 4333      7272656E 
 4333      74544400 
 4334              	.LASF107:
 4335 003c 55534246 		.ascii	"USBFS_InitControlRead\000"
 4335      535F496E 
 4335      6974436F 
 4335      6E74726F 
 4335      6C526561 
 4336              	.LASF71:
 4337 0052 636F6E66 		.ascii	"confIndex\000"
 4337      496E6465 
 4337      7800
ARM GAS  C:\Users\Patrick\AppData\Local\Temp\ccvH7eQO.s 			page 103


 4338              	.LASF7:
 4339 005c 6C6F6E67 		.ascii	"long long unsigned int\000"
 4339      206C6F6E 
 4339      6720756E 
 4339      7369676E 
 4339      65642069 
 4340              	.LASF20:
 4341 0073 61646472 		.ascii	"addr\000"
 4341      00
 4342              	.LASF40:
 4343 0078 55534246 		.ascii	"USBFS_ep0_data_struct\000"
 4343      535F6570 
 4343      305F6461 
 4343      74615F73 
 4343      74727563 
 4344              	.LASF45:
 4345 008e 65704366 		.ascii	"epCfg\000"
 4345      6700
 4346              	.LASF56:
 4347 0094 55534246 		.ascii	"USBFS_sie_eps_struct\000"
 4347      535F7369 
 4347      655F6570 
 4347      735F7374 
 4347      72756374 
 4348              	.LASF58:
 4349 00a9 55534246 		.ascii	"USBFS_arb_eps_struct\000"
 4349      535F6172 
 4349      625F6570 
 4349      735F7374 
 4349      72756374 
 4350              	.LASF76:
 4351 00be 65704E75 		.ascii	"epNumber\000"
 4351      6D626572 
 4351      00
 4352              	.LASF6:
 4353 00c7 6C6F6E67 		.ascii	"long long int\000"
 4353      206C6F6E 
 4353      6720696E 
 4353      7400
 4354              	.LASF0:
 4355 00d5 7369676E 		.ascii	"signed char\000"
 4355      65642063 
 4355      68617200 
 4356              	.LASF89:
 4357 00e1 55534246 		.ascii	"USBFS_tBuffer\000"
 4357      535F7442 
 4357      75666665 
 4357      7200
 4358              	.LASF72:
 4359 00ef 636C6561 		.ascii	"clearAltSetting\000"
 4359      72416C74 
 4359      53657474 
 4359      696E6700 
 4360              	.LASF101:
 4361 00ff 55534246 		.ascii	"USBFS_deviceAddress\000"
 4361      535F6465 
 4361      76696365 
ARM GAS  C:\Users\Patrick\AppData\Local\Temp\ccvH7eQO.s 			page 104


 4361      41646472 
 4361      65737300 
 4362              	.LASF79:
 4363 0113 55534246 		.ascii	"USBFS_ClearEndpointHalt\000"
 4363      535F436C 
 4363      65617245 
 4363      6E64706F 
 4363      696E7448 
 4364              	.LASF98:
 4365 012b 55534246 		.ascii	"USBFS_interfaceNumber\000"
 4365      535F696E 
 4365      74657266 
 4365      6163654E 
 4365      756D6265 
 4366              	.LASF70:
 4367 0141 55534246 		.ascii	"USBFS_Config\000"
 4367      535F436F 
 4367      6E666967 
 4367      00
 4368              	.LASF54:
 4369 014e 55534246 		.ascii	"USBFS_arb_ep_struct\000"
 4369      535F6172 
 4369      625F6570 
 4369      5F737472 
 4369      75637400 
 4370              	.LASF59:
 4371 0162 55534246 		.ascii	"USBFS_ConfigReg\000"
 4371      535F436F 
 4371      6E666967 
 4371      52656700 
 4372              	.LASF4:
 4373 0172 6C6F6E67 		.ascii	"long int\000"
 4373      20696E74 
 4373      00
 4374              	.LASF9:
 4375 017b 75696E74 		.ascii	"uint8\000"
 4375      3800
 4376              	.LASF19:
 4377 0181 6570546F 		.ascii	"epToggle\000"
 4377      67676C65 
 4377      00
 4378              	.LASF49:
 4379 018a 72775761 		.ascii	"rwWa\000"
 4379      00
 4380              	.LASF12:
 4381 018f 646F7562 		.ascii	"double\000"
 4381      6C6500
 4382              	.LASF47:
 4383 0196 65705372 		.ascii	"epSr\000"
 4383      00
 4384              	.LASF29:
 4385 019b 545F5553 		.ascii	"T_USBFS_EP_SETTINGS_BLOCK\000"
 4385      4246535F 
 4385      45505F53 
 4385      45545449 
 4385      4E47535F 
 4386              	.LASF77:
ARM GAS  C:\Users\Patrick\AppData\Local\Temp\ccvH7eQO.s 			page 105


 4387 01b5 55534246 		.ascii	"USBFS_SetEndpointHalt\000"
 4387      535F5365 
 4387      74456E64 
 4387      706F696E 
 4387      7448616C 
 4388              	.LASF34:
 4389 01cb 70446174 		.ascii	"pData\000"
 4389      6100
 4390              	.LASF91:
 4391 01d1 55534246 		.ascii	"USBFS_configuration\000"
 4391      535F636F 
 4391      6E666967 
 4391      75726174 
 4391      696F6E00 
 4392              	.LASF21:
 4393 01e5 65704D6F 		.ascii	"epMode\000"
 4393      646500
 4394              	.LASF64:
 4395 01ec 65705479 		.ascii	"epType\000"
 4395      706500
 4396              	.LASF85:
 4397 01f3 626D5265 		.ascii	"bmRequestType\000"
 4397      71756573 
 4397      74547970 
 4397      6500
 4398              	.LASF48:
 4399 0201 72657365 		.ascii	"reserved\000"
 4399      72766564 
 4399      00
 4400              	.LASF8:
 4401 020a 756E7369 		.ascii	"unsigned int\000"
 4401      676E6564 
 4401      20696E74 
 4401      00
 4402              	.LASF5:
 4403 0217 6C6F6E67 		.ascii	"long unsigned int\000"
 4403      20756E73 
 4403      69676E65 
 4403      6420696E 
 4403      7400
 4404              	.LASF67:
 4405 0229 55534246 		.ascii	"USBFS_GetInterfaceClassTablePtr\000"
 4405      535F4765 
 4405      74496E74 
 4405      65726661 
 4405      6365436C 
 4406              	.LASF3:
 4407 0249 73686F72 		.ascii	"short unsigned int\000"
 4407      7420756E 
 4407      7369676E 
 4407      65642069 
 4407      6E7400
 4408              	.LASF73:
 4409 025c 70446573 		.ascii	"pDescr\000"
 4409      637200
 4410              	.LASF44:
 4411 0263 55534246 		.ascii	"USBFS_sie_ep_struct\000"
ARM GAS  C:\Users\Patrick\AppData\Local\Temp\ccvH7eQO.s 			page 106


 4411      535F7369 
 4411      655F6570 
 4411      5F737472 
 4411      75637400 
 4412              	.LASF68:
 4413 0277 70496E74 		.ascii	"pInterfaceClass\000"
 4413      65726661 
 4413      6365436C 
 4413      61737300 
 4414              	.LASF57:
 4415 0287 61726245 		.ascii	"arbEp\000"
 4415      7000
 4416              	.LASF24:
 4417 028d 696E7465 		.ascii	"interface\000"
 4417      72666163 
 4417      6500
 4418              	.LASF80:
 4419 0297 55534246 		.ascii	"USBFS_ValidateAlternateSetting\000"
 4419      535F5661 
 4419      6C696461 
 4419      7465416C 
 4419      7465726E 
 4420              	.LASF92:
 4421 02b6 55534246 		.ascii	"USBFS_configurationChanged\000"
 4421      535F636F 
 4421      6E666967 
 4421      75726174 
 4421      696F6E43 
 4422              	.LASF103:
 4423 02d1 55534246 		.ascii	"USBFS_interfaceClass\000"
 4423      535F696E 
 4423      74657266 
 4423      61636543 
 4423      6C617373 
 4424              	.LASF63:
 4425 02e6 63757245 		.ascii	"curEp\000"
 4425      7000
 4426              	.LASF18:
 4427 02ec 68774570 		.ascii	"hwEpState\000"
 4427      53746174 
 4427      6500
 4428              	.LASF88:
 4429 02f6 64657363 		.ascii	"descrLength\000"
 4429      724C656E 
 4429      67746800 
 4430              	.LASF15:
 4431 0302 73697A65 		.ascii	"sizetype\000"
 4431      74797065 
 4431      00
 4432              	.LASF55:
 4433 030b 73696545 		.ascii	"sieEp\000"
 4433      7000
 4434              	.LASF61:
 4435 0311 70546D70 		.ascii	"pTmp\000"
 4435      00
 4436              	.LASF37:
 4437 0316 705F6C69 		.ascii	"p_list\000"
ARM GAS  C:\Users\Patrick\AppData\Local\Temp\ccvH7eQO.s 			page 107


 4437      737400
 4438              	.LASF74:
 4439 031d 62756666 		.ascii	"buffCount\000"
 4439      436F756E 
 4439      7400
 4440              	.LASF16:
 4441 0327 61747472 		.ascii	"attrib\000"
 4441      696200
 4442              	.LASF95:
 4443 032e 55534246 		.ascii	"USBFS_TABLE\000"
 4443      535F5441 
 4443      424C4500 
 4444              	.LASF96:
 4445 033a 55534246 		.ascii	"USBFS_SN_STRING_DESCRIPTOR\000"
 4445      535F534E 
 4445      5F535452 
 4445      494E475F 
 4445      44455343 
 4446              	.LASF52:
 4447 0355 72775261 		.ascii	"rwRaMsb\000"
 4447      4D736200 
 4448              	.LASF41:
 4449 035d 6570436E 		.ascii	"epCnt0\000"
 4449      743000
 4450              	.LASF42:
 4451 0364 6570436E 		.ascii	"epCnt1\000"
 4451      743100
 4452              	.LASF62:
 4453 036b 55534246 		.ascii	"USBFS_ConfigAltChanged\000"
 4453      535F436F 
 4453      6E666967 
 4453      416C7443 
 4453      68616E67 
 4454              	.LASF32:
 4455 0382 545F5553 		.ascii	"T_USBFS_XFER_STATUS_BLOCK\000"
 4455      4246535F 
 4455      58464552 
 4455      5F535441 
 4455      5455535F 
 4456              	.LASF43:
 4457 039c 65704372 		.ascii	"epCr0\000"
 4457      3000
 4458              	.LASF65:
 4459 03a2 696E7465 		.ascii	"interfaceNum\000"
 4459      72666163 
 4459      654E756D 
 4459      00
 4460              	.LASF94:
 4461 03af 55534246 		.ascii	"USBFS_DEVICE0_DESCR\000"
 4461      535F4445 
 4461      56494345 
 4461      305F4445 
 4461      53435200 
 4462              	.LASF11:
 4463 03c3 666C6F61 		.ascii	"float\000"
 4463      7400
 4464              	.LASF97:
ARM GAS  C:\Users\Patrick\AppData\Local\Temp\ccvH7eQO.s 			page 108


 4465 03c9 55534246 		.ascii	"USBFS_STRING_DESCRIPTORS\000"
 4465      535F5354 
 4465      52494E47 
 4465      5F444553 
 4465      43524950 
 4466              	.LASF17:
 4467 03e2 61706945 		.ascii	"apiEpState\000"
 4467      70537461 
 4467      746500
 4468              	.LASF84:
 4469 03ed 636F6E66 		.ascii	"configurationN\000"
 4469      69677572 
 4469      6174696F 
 4469      6E4E00
 4470              	.LASF104:
 4471 03fc 55534246 		.ascii	"USBFS_EP\000"
 4471      535F4550 
 4471      00
 4472              	.LASF86:
 4473 0405 70537472 		.ascii	"pStr\000"
 4473      00
 4474              	.LASF14:
 4475 040a 72656738 		.ascii	"reg8\000"
 4475      00
 4476              	.LASF111:
 4477 040f 433A5C55 		.ascii	"C:\\Users\\Patrick\\Documents\\GitHub\\PSoC 5LP FIl"
 4477      73657273 
 4477      5C506174 
 4477      7269636B 
 4477      5C446F63 
 4478 043d 65735C43 		.ascii	"es\\C-CAN_PSoC_DevKit\\Bootloader.cydsn\000"
 4478      2D43414E 
 4478      5F50536F 
 4478      435F4465 
 4478      764B6974 
 4479              	.LASF1:
 4480 0463 756E7369 		.ascii	"unsigned char\000"
 4480      676E6564 
 4480      20636861 
 4480      7200
 4481              	.LASF60:
 4482 0471 55534246 		.ascii	"USBFS_EpStateInit\000"
 4482      535F4570 
 4482      53746174 
 4482      65496E69 
 4482      7400
 4483              	.LASF2:
 4484 0483 73686F72 		.ascii	"short int\000"
 4484      7420696E 
 4484      7400
 4485              	.LASF36:
 4486 048d 545F5553 		.ascii	"T_USBFS_TD\000"
 4486      4246535F 
 4486      544400
 4487              	.LASF66:
 4488 0498 55534246 		.ascii	"USBFS_GetConfigTablePtr\000"
 4488      535F4765 
ARM GAS  C:\Users\Patrick\AppData\Local\Temp\ccvH7eQO.s 			page 109


 4488      74436F6E 
 4488      66696754 
 4488      61626C65 
 4489              	.LASF51:
 4490 04b0 72775261 		.ascii	"rwRa\000"
 4490      00
 4491              	.LASF110:
 4492 04b5 2E5C4765 		.ascii	".\\Generated_Source\\PSoC5\\USBFS_std.c\000"
 4492      6E657261 
 4492      7465645F 
 4492      536F7572 
 4492      63655C50 
 4493              	.LASF99:
 4494 04da 55534246 		.ascii	"USBFS_interfaceSetting\000"
 4494      535F696E 
 4494      74657266 
 4494      61636553 
 4494      65747469 
 4495              	.LASF108:
 4496 04f1 55534246 		.ascii	"USBFS_DispatchClassRqst\000"
 4496      535F4469 
 4496      73706174 
 4496      6368436C 
 4496      61737352 
 4497              	.LASF25:
 4498 0509 545F5553 		.ascii	"T_USBFS_EP_CTL_BLOCK\000"
 4498      4246535F 
 4498      45505F43 
 4498      544C5F42 
 4498      4C4F434B 
 4499              	.LASF106:
 4500 051e 55534246 		.ascii	"USBFS_InitNoDataControlTransfer\000"
 4500      535F496E 
 4500      69744E6F 
 4500      44617461 
 4500      436F6E74 
 4501              	.LASF90:
 4502 053e 55534246 		.ascii	"USBFS_device\000"
 4502      535F6465 
 4502      76696365 
 4502      00
 4503              	.LASF27:
 4504 054b 61747472 		.ascii	"attributes\000"
 4504      69627574 
 4504      657300
 4505              	.LASF26:
 4506 0556 616C7453 		.ascii	"altSetting\000"
 4506      65747469 
 4506      6E6700
 4507              	.LASF13:
 4508 0561 63686172 		.ascii	"char\000"
 4508      00
 4509              	.LASF23:
 4510 0566 62756666 		.ascii	"bufferSize\000"
 4510      65725369 
 4510      7A6500
 4511              	.LASF78:
ARM GAS  C:\Users\Patrick\AppData\Local\Temp\ccvH7eQO.s 			page 110


 4512 0571 72657175 		.ascii	"requestHandled\000"
 4512      65737448 
 4512      616E646C 
 4512      656400
 4513              	.LASF69:
 4514 0580 63757272 		.ascii	"currentInterfacesNum\000"
 4514      656E7449 
 4514      6E746572 
 4514      66616365 
 4514      734E756D 
 4515              	.LASF22:
 4516 0595 62756666 		.ascii	"buffOffset\000"
 4516      4F666673 
 4516      657400
 4517              	.LASF112:
 4518 05a0 55534246 		.ascii	"USBFS_GetDeviceTablePtr\000"
 4518      535F4765 
 4518      74446576 
 4518      69636554 
 4518      61626C65 
 4519              	.LASF83:
 4520 05b8 696E7465 		.ascii	"interfaceNumber\000"
 4520      72666163 
 4520      654E756D 
 4520      62657200 
 4521              	.LASF93:
 4522 05c8 55534246 		.ascii	"USBFS_deviceStatus\000"
 4522      535F6465 
 4522      76696365 
 4522      53746174 
 4522      757300
 4523              	.LASF31:
 4524 05db 6C656E67 		.ascii	"length\000"
 4524      746800
 4525              	.LASF87:
 4526 05e2 6E537472 		.ascii	"nStr\000"
 4526      00
 4527              	.LASF30:
 4528 05e7 73746174 		.ascii	"status\000"
 4528      757300
 4529              	.LASF109:
 4530 05ee 474E5520 		.ascii	"GNU C 4.9.3 20150303 (release) [ARM/embedded-4_9-br"
 4530      4320342E 
 4530      392E3320 
 4530      32303135 
 4530      30333033 
 4531 0621 616E6368 		.ascii	"anch revision 221220] -mcpu=cortex-m3 -mthumb -g -O"
 4531      20726576 
 4531      6973696F 
 4531      6E203232 
 4531      31323230 
 4532 0654 67202D66 		.ascii	"g -ffunction-sections -ffat-lto-objects\000"
 4532      66756E63 
 4532      74696F6E 
 4532      2D736563 
 4532      74696F6E 
 4533              	.LASF53:
ARM GAS  C:\Users\Patrick\AppData\Local\Temp\ccvH7eQO.s 			page 111


 4534 067c 72774472 		.ascii	"rwDr\000"
 4534      00
 4535              	.LASF81:
 4536 0681 63757249 		.ascii	"curInterfacesNum\000"
 4536      6E746572 
 4536      66616365 
 4536      734E756D 
 4536      00
 4537              	.LASF39:
 4538 0692 65704461 		.ascii	"epData\000"
 4538      746100
 4539              	.LASF28:
 4540 0699 624D6973 		.ascii	"bMisc\000"
 4540      6300
 4541              	.LASF50:
 4542 069f 72775761 		.ascii	"rwWaMsb\000"
 4542      4D736200 
 4543              	.LASF102:
 4544 06a7 55534246 		.ascii	"USBFS_interfaceStatus\000"
 4544      535F696E 
 4544      74657266 
 4544      61636553 
 4544      74617475 
 4545              	.LASF46:
 4546 06bd 6570496E 		.ascii	"epIntEn\000"
 4546      74456E00 
 4547              	.LASF100:
 4548 06c5 55534246 		.ascii	"USBFS_interfaceSettingLast\000"
 4548      535F696E 
 4548      74657266 
 4548      61636553 
 4548      65747469 
 4549              	.LASF82:
 4550 06e0 55534246 		.ascii	"USBFS_HandleStandardRqst\000"
 4550      535F4861 
 4550      6E646C65 
 4550      5374616E 
 4550      64617264 
 4551              	.LASF38:
 4552 06f9 545F5553 		.ascii	"T_USBFS_LUT\000"
 4552      4246535F 
 4552      4C555400 
 4553              		.ident	"GCC: (GNU Tools for ARM Embedded Processors) 4.9.3 20150303 (release) [ARM/embedded-4_9-br
