ARM GAS  C:\Users\Patrick\AppData\Local\Temp\cc4CvmVx.s 			page 1


   1              		.syntax unified
   2              		.cpu cortex-m3
   3              		.fpu softvfp
   4              		.eabi_attribute 20, 1
   5              		.eabi_attribute 21, 1
   6              		.eabi_attribute 23, 3
   7              		.eabi_attribute 24, 1
   8              		.eabi_attribute 25, 1
   9              		.eabi_attribute 26, 1
  10              		.eabi_attribute 30, 1
  11              		.eabi_attribute 34, 1
  12              		.eabi_attribute 18, 4
  13              		.thumb
  14              		.file	"USBFS.c"
  15              		.text
  16              	.Ltext0:
  17              		.cfi_sections	.debug_frame
  18              		.section	.text.USBFS_Init,"ax",%progbits
  19              		.align	2
  20              		.global	USBFS_Init
  21              		.thumb
  22              		.thumb_func
  23              		.type	USBFS_Init, %function
  24              	USBFS_Init:
  25              	.LFB1:
  26              		.file 1 ".\\Generated_Source\\PSoC5\\USBFS.c"
   1:.\Generated_Source\PSoC5/USBFS.c **** /***************************************************************************//**
   2:.\Generated_Source\PSoC5/USBFS.c **** * \file USBFS.c
   3:.\Generated_Source\PSoC5/USBFS.c **** * \version 3.0
   4:.\Generated_Source\PSoC5/USBFS.c **** *
   5:.\Generated_Source\PSoC5/USBFS.c **** * \brief
   6:.\Generated_Source\PSoC5/USBFS.c **** *  This file contains the global USBFS API functions.
   7:.\Generated_Source\PSoC5/USBFS.c **** *
   8:.\Generated_Source\PSoC5/USBFS.c **** * Note:
   9:.\Generated_Source\PSoC5/USBFS.c **** *  Many of the functions use an endpoint number. SRAM arrays are sized with 9
  10:.\Generated_Source\PSoC5/USBFS.c **** *  elements, so they are indexed directly by epNumber.  The SIE and ARB
  11:.\Generated_Source\PSoC5/USBFS.c **** *  registers are indexed by variations of epNumber - 1.
  12:.\Generated_Source\PSoC5/USBFS.c **** *
  13:.\Generated_Source\PSoC5/USBFS.c **** ********************************************************************************
  14:.\Generated_Source\PSoC5/USBFS.c **** * \copyright
  15:.\Generated_Source\PSoC5/USBFS.c **** * Copyright 2008-2015, Cypress Semiconductor Corporation.  All rights reserved.
  16:.\Generated_Source\PSoC5/USBFS.c **** * You may use this file only in accordance with the license, terms, conditions,
  17:.\Generated_Source\PSoC5/USBFS.c **** * disclaimers, and limitations in the end user license agreement accompanying
  18:.\Generated_Source\PSoC5/USBFS.c **** * the software package with which this file was provided.
  19:.\Generated_Source\PSoC5/USBFS.c **** *******************************************************************************/
  20:.\Generated_Source\PSoC5/USBFS.c **** 
  21:.\Generated_Source\PSoC5/USBFS.c **** #include "USBFS_pvt.h"
  22:.\Generated_Source\PSoC5/USBFS.c **** #include "USBFS_cydmac.h"
  23:.\Generated_Source\PSoC5/USBFS.c **** #include "USBFS_hid.h"
  24:.\Generated_Source\PSoC5/USBFS.c **** 
  25:.\Generated_Source\PSoC5/USBFS.c **** 
  26:.\Generated_Source\PSoC5/USBFS.c **** /***************************************
  27:.\Generated_Source\PSoC5/USBFS.c **** * Global data allocation
  28:.\Generated_Source\PSoC5/USBFS.c **** ***************************************/
  29:.\Generated_Source\PSoC5/USBFS.c **** 
  30:.\Generated_Source\PSoC5/USBFS.c **** /** Indicates whether the USBFS has been initialized. The variable is
  31:.\Generated_Source\PSoC5/USBFS.c **** * initialized to 0 after device reset and set to 1 the first time USBFS_Start()
ARM GAS  C:\Users\Patrick\AppData\Local\Temp\cc4CvmVx.s 			page 2


  32:.\Generated_Source\PSoC5/USBFS.c **** * is called. This allows the Component to restart without reinitialization after
  33:.\Generated_Source\PSoC5/USBFS.c **** * the first call to the USBFS_Start() routine.
  34:.\Generated_Source\PSoC5/USBFS.c **** * If re-initialization of the Component is required, the variable should be set
  35:.\Generated_Source\PSoC5/USBFS.c **** * to 0 before the USBFS_Start() routine is called. Alternatively, the USBFS can
  36:.\Generated_Source\PSoC5/USBFS.c **** * be reinitialized by calling both USBFS_Init() and USBFS_InitComponent()
  37:.\Generated_Source\PSoC5/USBFS.c **** * functions.
  38:.\Generated_Source\PSoC5/USBFS.c **** */
  39:.\Generated_Source\PSoC5/USBFS.c **** uint8 USBFS_initVar = 0u;
  40:.\Generated_Source\PSoC5/USBFS.c **** 
  41:.\Generated_Source\PSoC5/USBFS.c **** #if (USBFS_EP_MANAGEMENT_DMA)
  42:.\Generated_Source\PSoC5/USBFS.c ****     #if (CY_PSOC4)
  43:.\Generated_Source\PSoC5/USBFS.c ****         static void USBFS_InitEpDma(void);
  44:.\Generated_Source\PSoC5/USBFS.c **** 
  45:.\Generated_Source\PSoC5/USBFS.c ****         /* DMA chanels assigend for endpoints. */
  46:.\Generated_Source\PSoC5/USBFS.c ****         const uint8 USBFS_DmaChan[USBFS_MAX_EP] =
  47:.\Generated_Source\PSoC5/USBFS.c ****         {
  48:.\Generated_Source\PSoC5/USBFS.c ****             0u,
  49:.\Generated_Source\PSoC5/USBFS.c ****             0u,
  50:.\Generated_Source\PSoC5/USBFS.c ****             0u,
  51:.\Generated_Source\PSoC5/USBFS.c ****             0u,
  52:.\Generated_Source\PSoC5/USBFS.c ****             0u,
  53:.\Generated_Source\PSoC5/USBFS.c ****             0u,
  54:.\Generated_Source\PSoC5/USBFS.c ****             0u,
  55:.\Generated_Source\PSoC5/USBFS.c ****             0u,
  56:.\Generated_Source\PSoC5/USBFS.c ****             0u,
  57:.\Generated_Source\PSoC5/USBFS.c ****         };        
  58:.\Generated_Source\PSoC5/USBFS.c ****     #else
  59:.\Generated_Source\PSoC5/USBFS.c ****         /* DMA chanels assigend for endpoints. */
  60:.\Generated_Source\PSoC5/USBFS.c ****         uint8 USBFS_DmaChan[USBFS_MAX_EP];
  61:.\Generated_Source\PSoC5/USBFS.c ****         
  62:.\Generated_Source\PSoC5/USBFS.c ****         /* DMA TDs require for PSoC 3/5LP operation. */
  63:.\Generated_Source\PSoC5/USBFS.c ****         uint8 USBFS_DmaTd[USBFS_MAX_EP];
  64:.\Generated_Source\PSoC5/USBFS.c ****     #endif /* (CY_PSOC4) */
  65:.\Generated_Source\PSoC5/USBFS.c **** #endif /* (USBFS_EP_MANAGEMENT_DMA) */
  66:.\Generated_Source\PSoC5/USBFS.c **** 
  67:.\Generated_Source\PSoC5/USBFS.c **** #if (USBFS_EP_MANAGEMENT_DMA_AUTO)
  68:.\Generated_Source\PSoC5/USBFS.c **** #if (CY_PSOC4)
  69:.\Generated_Source\PSoC5/USBFS.c ****     /* Number of DMA bursts. */
  70:.\Generated_Source\PSoC5/USBFS.c ****     uint8  USBFS_DmaEpBurstCnt   [USBFS_MAX_EP];
  71:.\Generated_Source\PSoC5/USBFS.c ****     
  72:.\Generated_Source\PSoC5/USBFS.c ****     /* Number of bytes to transfer in last DMA burst. */
  73:.\Generated_Source\PSoC5/USBFS.c ****     uint8  USBFS_DmaEpLastBurstEl[USBFS_MAX_EP];
  74:.\Generated_Source\PSoC5/USBFS.c **** 
  75:.\Generated_Source\PSoC5/USBFS.c ****     /* Storage for arrays above. */
  76:.\Generated_Source\PSoC5/USBFS.c ****     uint8  USBFS_DmaEpBurstCntBackup  [USBFS_MAX_EP];
  77:.\Generated_Source\PSoC5/USBFS.c ****     uint32 USBFS_DmaEpBufferAddrBackup[USBFS_MAX_EP];
  78:.\Generated_Source\PSoC5/USBFS.c ****      
  79:.\Generated_Source\PSoC5/USBFS.c ****     /* DMA trigger mux output for usb.dma_req[0-7]. */
  80:.\Generated_Source\PSoC5/USBFS.c ****     const uint8 USBFS_DmaReqOut[USBFS_MAX_EP] =
  81:.\Generated_Source\PSoC5/USBFS.c ****     {
  82:.\Generated_Source\PSoC5/USBFS.c ****         0u,
  83:.\Generated_Source\PSoC5/USBFS.c ****         USBFS_ep1_dma__TR_OUTPUT,
  84:.\Generated_Source\PSoC5/USBFS.c ****         USBFS_ep2_dma__TR_OUTPUT,
  85:.\Generated_Source\PSoC5/USBFS.c ****         0u,
  86:.\Generated_Source\PSoC5/USBFS.c ****         0u,
  87:.\Generated_Source\PSoC5/USBFS.c ****         0u,
  88:.\Generated_Source\PSoC5/USBFS.c ****         0u,
ARM GAS  C:\Users\Patrick\AppData\Local\Temp\cc4CvmVx.s 			page 3


  89:.\Generated_Source\PSoC5/USBFS.c ****         0u,
  90:.\Generated_Source\PSoC5/USBFS.c ****         0u,
  91:.\Generated_Source\PSoC5/USBFS.c ****     };
  92:.\Generated_Source\PSoC5/USBFS.c **** 
  93:.\Generated_Source\PSoC5/USBFS.c ****     /* DMA trigger mux output for usb.dma_burstend[0-7]. */
  94:.\Generated_Source\PSoC5/USBFS.c ****     const uint8 USBFS_DmaBurstEndOut[USBFS_MAX_EP] =
  95:.\Generated_Source\PSoC5/USBFS.c ****     {
  96:.\Generated_Source\PSoC5/USBFS.c ****         0u,
  97:.\Generated_Source\PSoC5/USBFS.c ****         USBFS_BURSTEND_0_TR_OUTPUT,
  98:.\Generated_Source\PSoC5/USBFS.c ****         USBFS_BURSTEND_1_TR_OUTPUT,
  99:.\Generated_Source\PSoC5/USBFS.c ****         USBFS_BURSTEND_2_TR_OUTPUT,
 100:.\Generated_Source\PSoC5/USBFS.c ****         USBFS_BURSTEND_3_TR_OUTPUT,
 101:.\Generated_Source\PSoC5/USBFS.c ****         USBFS_BURSTEND_4_TR_OUTPUT,
 102:.\Generated_Source\PSoC5/USBFS.c ****         USBFS_BURSTEND_5_TR_OUTPUT,
 103:.\Generated_Source\PSoC5/USBFS.c ****         USBFS_BURSTEND_6_TR_OUTPUT,
 104:.\Generated_Source\PSoC5/USBFS.c ****         USBFS_BURSTEND_7_TR_OUTPUT
 105:.\Generated_Source\PSoC5/USBFS.c ****     };
 106:.\Generated_Source\PSoC5/USBFS.c ****     
 107:.\Generated_Source\PSoC5/USBFS.c **** #else
 108:.\Generated_Source\PSoC5/USBFS.c ****     #if (USBFS_EP_DMA_AUTO_OPT == 0u)
 109:.\Generated_Source\PSoC5/USBFS.c ****         static uint8 clearInDataRdyStatus = USBFS_ARB_EPX_CFG_DEFAULT;
 110:.\Generated_Source\PSoC5/USBFS.c ****         uint8 USBFS_DmaNextTd[USBFS_MAX_EP];
 111:.\Generated_Source\PSoC5/USBFS.c ****         const uint8 USBFS_epX_TD_TERMOUT_EN[USBFS_MAX_EP] =
 112:.\Generated_Source\PSoC5/USBFS.c ****         {
 113:.\Generated_Source\PSoC5/USBFS.c ****             0u,
 114:.\Generated_Source\PSoC5/USBFS.c ****             0u,
 115:.\Generated_Source\PSoC5/USBFS.c ****             0u,
 116:.\Generated_Source\PSoC5/USBFS.c ****             0u,
 117:.\Generated_Source\PSoC5/USBFS.c ****             0u,
 118:.\Generated_Source\PSoC5/USBFS.c ****             0u,
 119:.\Generated_Source\PSoC5/USBFS.c ****             0u,
 120:.\Generated_Source\PSoC5/USBFS.c ****             0u,
 121:.\Generated_Source\PSoC5/USBFS.c ****             0u,
 122:.\Generated_Source\PSoC5/USBFS.c ****         };
 123:.\Generated_Source\PSoC5/USBFS.c **** 
 124:.\Generated_Source\PSoC5/USBFS.c ****         volatile uint16 USBFS_inLength[USBFS_MAX_EP];
 125:.\Generated_Source\PSoC5/USBFS.c ****         const uint8 *USBFS_inDataPointer[USBFS_MAX_EP];
 126:.\Generated_Source\PSoC5/USBFS.c ****         volatile uint8 USBFS_inBufFull[USBFS_MAX_EP];
 127:.\Generated_Source\PSoC5/USBFS.c ****     #endif /* (USBFS_EP_DMA_AUTO_OPT == 0u) */
 128:.\Generated_Source\PSoC5/USBFS.c **** #endif /* (CY_PSOC4) */
 129:.\Generated_Source\PSoC5/USBFS.c **** #endif /* (USBFS_EP_MANAGEMENT_DMA_AUTO) */
 130:.\Generated_Source\PSoC5/USBFS.c **** 
 131:.\Generated_Source\PSoC5/USBFS.c **** 
 132:.\Generated_Source\PSoC5/USBFS.c **** /*******************************************************************************
 133:.\Generated_Source\PSoC5/USBFS.c **** * Function Name: USBFS_Start
 134:.\Generated_Source\PSoC5/USBFS.c **** ****************************************************************************//**
 135:.\Generated_Source\PSoC5/USBFS.c **** *
 136:.\Generated_Source\PSoC5/USBFS.c **** *   This function performs all required initialization for the USBFS component.
 137:.\Generated_Source\PSoC5/USBFS.c **** *   After this function call, the USB device initiates communication with the
 138:.\Generated_Source\PSoC5/USBFS.c **** *   host by pull-up D+ line. This is the preferred method to begin component
 139:.\Generated_Source\PSoC5/USBFS.c **** *   operation.
 140:.\Generated_Source\PSoC5/USBFS.c **** *
 141:.\Generated_Source\PSoC5/USBFS.c **** *   Note that global interrupts have to be enabled because interrupts are
 142:.\Generated_Source\PSoC5/USBFS.c **** *   required for USBFS component operation.
 143:.\Generated_Source\PSoC5/USBFS.c **** *
 144:.\Generated_Source\PSoC5/USBFS.c **** *   PSoC 4200L devices: when USBFS component configured to DMA with Automatic
 145:.\Generated_Source\PSoC5/USBFS.c **** *   Buffer Management, the DMA interrupt priority is changed to the highest
ARM GAS  C:\Users\Patrick\AppData\Local\Temp\cc4CvmVx.s 			page 4


 146:.\Generated_Source\PSoC5/USBFS.c **** *   (priority 0) inside this function.
 147:.\Generated_Source\PSoC5/USBFS.c **** *
 148:.\Generated_Source\PSoC5/USBFS.c **** *   PSoC 3/PSoC 5LP devices: when USBFS component configured to DMA with
 149:.\Generated_Source\PSoC5/USBFS.c **** *   Automatic Buffer Management, the Arbiter interrupt priority is changed to
 150:.\Generated_Source\PSoC5/USBFS.c **** *   the highest (priority 0) inside this function.
 151:.\Generated_Source\PSoC5/USBFS.c **** *
 152:.\Generated_Source\PSoC5/USBFS.c **** *  \param device
 153:.\Generated_Source\PSoC5/USBFS.c **** *          Contains the device number of the desired device descriptor.
 154:.\Generated_Source\PSoC5/USBFS.c **** *          The device number can be found in the Device Descriptor Tab of
 155:.\Generated_Source\PSoC5/USBFS.c **** *          "Configure" dialog, under the settings of desired Device Descriptor,
 156:.\Generated_Source\PSoC5/USBFS.c **** *          in the "Device Number" field.
 157:.\Generated_Source\PSoC5/USBFS.c **** *  \param mode:
 158:.\Generated_Source\PSoC5/USBFS.c **** *   The operating voltage. This determines whether the voltage regulator
 159:.\Generated_Source\PSoC5/USBFS.c **** *   is enabled for 5V operation or if pass through mode is used for 3.3V
 160:.\Generated_Source\PSoC5/USBFS.c **** *   operation. Symbolic names and their associated values are given in the
 161:.\Generated_Source\PSoC5/USBFS.c **** *   following list.
 162:.\Generated_Source\PSoC5/USBFS.c **** *
 163:.\Generated_Source\PSoC5/USBFS.c **** *       *USBFS_3V_OPERATION* - Disable voltage regulator and pass-
 164:.\Generated_Source\PSoC5/USBFS.c **** *                                      through Vcc for pull-up
 165:.\Generated_Source\PSoC5/USBFS.c **** *
 166:.\Generated_Source\PSoC5/USBFS.c **** *       *USBFS_5V_OPERATION* - Enable voltage regulator and use
 167:.\Generated_Source\PSoC5/USBFS.c **** *                                      regulator for pull-up
 168:.\Generated_Source\PSoC5/USBFS.c **** *
 169:.\Generated_Source\PSoC5/USBFS.c **** *       *USBFS_DWR_POWER_OPERATION* - Enable or disable the voltage
 170:.\Generated_Source\PSoC5/USBFS.c **** *                                      regulator depending on the power supply
 171:.\Generated_Source\PSoC5/USBFS.c **** *                                      voltage configuration in the DWR tab.
 172:.\Generated_Source\PSoC5/USBFS.c **** *                                      For PSoC 3/5LP devices, the VDDD supply
 173:.\Generated_Source\PSoC5/USBFS.c **** *                                      voltage is considered and for PSoC 4A-L,
 174:.\Generated_Source\PSoC5/USBFS.c **** *                                      the VBUS supply voltage is considered.*
 175:.\Generated_Source\PSoC5/USBFS.c **** * \globalvars
 176:.\Generated_Source\PSoC5/USBFS.c **** *  \ref USBFS_initVar
 177:.\Generated_Source\PSoC5/USBFS.c **** *
 178:.\Generated_Source\PSoC5/USBFS.c **** * \sideeffect
 179:.\Generated_Source\PSoC5/USBFS.c **** *   This function will reset all communication states to default.
 180:.\Generated_Source\PSoC5/USBFS.c **** *
 181:.\Generated_Source\PSoC5/USBFS.c **** * \reentrant
 182:.\Generated_Source\PSoC5/USBFS.c **** *  No.
 183:.\Generated_Source\PSoC5/USBFS.c **** *
 184:.\Generated_Source\PSoC5/USBFS.c **** *******************************************************************************/
 185:.\Generated_Source\PSoC5/USBFS.c **** void USBFS_Start(uint8 device, uint8 mode) 
 186:.\Generated_Source\PSoC5/USBFS.c **** {
 187:.\Generated_Source\PSoC5/USBFS.c ****     if (0u == USBFS_initVar)
 188:.\Generated_Source\PSoC5/USBFS.c ****     {
 189:.\Generated_Source\PSoC5/USBFS.c ****         USBFS_Init();
 190:.\Generated_Source\PSoC5/USBFS.c ****         USBFS_initVar = 1u;
 191:.\Generated_Source\PSoC5/USBFS.c ****     }
 192:.\Generated_Source\PSoC5/USBFS.c **** 
 193:.\Generated_Source\PSoC5/USBFS.c ****     USBFS_InitComponent(device, mode);
 194:.\Generated_Source\PSoC5/USBFS.c **** }
 195:.\Generated_Source\PSoC5/USBFS.c **** 
 196:.\Generated_Source\PSoC5/USBFS.c **** 
 197:.\Generated_Source\PSoC5/USBFS.c **** /*******************************************************************************
 198:.\Generated_Source\PSoC5/USBFS.c **** * Function Name: USBFS_Init
 199:.\Generated_Source\PSoC5/USBFS.c **** ****************************************************************************//**
 200:.\Generated_Source\PSoC5/USBFS.c **** *
 201:.\Generated_Source\PSoC5/USBFS.c **** * This function initializes or restores the component according to the
 202:.\Generated_Source\PSoC5/USBFS.c **** * customizer Configure dialog settings. It is not necessary to call
ARM GAS  C:\Users\Patrick\AppData\Local\Temp\cc4CvmVx.s 			page 5


 203:.\Generated_Source\PSoC5/USBFS.c **** * USBFS_Init() because the USBFS_Start() routine calls
 204:.\Generated_Source\PSoC5/USBFS.c **** * this function and is the preferred method to begin component operation.
 205:.\Generated_Source\PSoC5/USBFS.c **** *
 206:.\Generated_Source\PSoC5/USBFS.c **** * \reentrant
 207:.\Generated_Source\PSoC5/USBFS.c **** *  No.
 208:.\Generated_Source\PSoC5/USBFS.c **** *
 209:.\Generated_Source\PSoC5/USBFS.c **** *******************************************************************************/
 210:.\Generated_Source\PSoC5/USBFS.c **** void USBFS_Init(void) 
 211:.\Generated_Source\PSoC5/USBFS.c **** {
  27              		.loc 1 211 0
  28              		.cfi_startproc
  29              		@ args = 0, pretend = 0, frame = 0
  30              		@ frame_needed = 0, uses_anonymous_args = 0
  31 0000 F8B5     		push	{r3, r4, r5, r6, r7, lr}
  32              		.cfi_def_cfa_offset 24
  33              		.cfi_offset 3, -24
  34              		.cfi_offset 4, -20
  35              		.cfi_offset 5, -16
  36              		.cfi_offset 6, -12
  37              		.cfi_offset 7, -8
  38              		.cfi_offset 14, -4
 212:.\Generated_Source\PSoC5/USBFS.c **** #if (CY_PSOC4)
 213:.\Generated_Source\PSoC5/USBFS.c ****     /* Enable clock to USB IP. */
 214:.\Generated_Source\PSoC5/USBFS.c ****     USBFS_USB_CLK_EN_REG = USBFS_USB_CLK_CSR_CLK_EN;
 215:.\Generated_Source\PSoC5/USBFS.c **** 
 216:.\Generated_Source\PSoC5/USBFS.c ****     /* The internal regulator (CR1.REG_ENABLE) is enabled in
 217:.\Generated_Source\PSoC5/USBFS.c ****     * USBFS_InitComponent() if it is required.
 218:.\Generated_Source\PSoC5/USBFS.c ****     */
 219:.\Generated_Source\PSoC5/USBFS.c **** 
 220:.\Generated_Source\PSoC5/USBFS.c ****     /* Enable USBIO control on drive mode of D+ and D- pins. */
 221:.\Generated_Source\PSoC5/USBFS.c ****     USBFS_USBIO_CR1_REG &= ~ (uint32) USBFS_USBIO_CR1_IOMODE;
 222:.\Generated_Source\PSoC5/USBFS.c **** 
 223:.\Generated_Source\PSoC5/USBFS.c ****     /* Set number of LF CLK to detect UBS bus reset. */
 224:.\Generated_Source\PSoC5/USBFS.c ****     USBFS_BUS_RST_CNT_REG = USBFS_DEFUALT_BUS_RST_CNT;
 225:.\Generated_Source\PSoC5/USBFS.c **** 
 226:.\Generated_Source\PSoC5/USBFS.c ****     /* Select VBUS detection source and clear PHY isolate. The application level
 227:.\Generated_Source\PSoC5/USBFS.c ****     * must ensure that VBUS is valid. There is no need to wait 2us before VBUS is valid.
 228:.\Generated_Source\PSoC5/USBFS.c ****     */
 229:.\Generated_Source\PSoC5/USBFS.c ****     USBFS_POWER_CTRL_REG = USBFS_DEFAULT_POWER_CTRL_VBUS;
 230:.\Generated_Source\PSoC5/USBFS.c **** 
 231:.\Generated_Source\PSoC5/USBFS.c ****     /* Enable PHY detector and single-ended and differential receivers. */
 232:.\Generated_Source\PSoC5/USBFS.c ****     USBFS_POWER_CTRL_REG |= USBFS_DEFAULT_POWER_CTRL_PHY;
 233:.\Generated_Source\PSoC5/USBFS.c **** 
 234:.\Generated_Source\PSoC5/USBFS.c ****     /* Suspend clear sequence. */
 235:.\Generated_Source\PSoC5/USBFS.c ****     USBFS_POWER_CTRL_REG &= (uint32) ~USBFS_POWER_CTRL_SUSPEND;
 236:.\Generated_Source\PSoC5/USBFS.c ****     CyDelayUs(USBFS_WAIT_SUSPEND_DEL_DISABLE);
 237:.\Generated_Source\PSoC5/USBFS.c ****     USBFS_POWER_CTRL_REG &= (uint32) ~USBFS_POWER_CTRL_SUSPEND_DEL;
 238:.\Generated_Source\PSoC5/USBFS.c **** 
 239:.\Generated_Source\PSoC5/USBFS.c ****     /* Sets IMO lock options and clear all other bits. */
 240:.\Generated_Source\PSoC5/USBFS.c ****     USBFS_CR1_REG = USBFS_DEFUALT_CR1;
 241:.\Generated_Source\PSoC5/USBFS.c **** 
 242:.\Generated_Source\PSoC5/USBFS.c ****     /* Configure level (hi, lo, med) for each interrupt source. */
 243:.\Generated_Source\PSoC5/USBFS.c ****     USBFS_INTR_LVL_SEL_REG = USBFS_DEFAULT_INTR_LVL_SEL;
 244:.\Generated_Source\PSoC5/USBFS.c **** 
 245:.\Generated_Source\PSoC5/USBFS.c ****     /* Configure interrupt sources from: SOF, Bus Reset and EP0. */
 246:.\Generated_Source\PSoC5/USBFS.c ****     USBFS_INTR_SIE_MASK_REG = USBFS_DEFAULT_INTR_SIE_MASK;
 247:.\Generated_Source\PSoC5/USBFS.c **** 
ARM GAS  C:\Users\Patrick\AppData\Local\Temp\cc4CvmVx.s 			page 6


 248:.\Generated_Source\PSoC5/USBFS.c **** #else
 249:.\Generated_Source\PSoC5/USBFS.c ****     uint8 enableInterrupts = CyEnterCriticalSection();
  39              		.loc 1 249 0
  40 0002 FFF7FEFF 		bl	CyEnterCriticalSection
  41              	.LVL0:
  42 0006 0646     		mov	r6, r0
  43              	.LVL1:
 250:.\Generated_Source\PSoC5/USBFS.c **** 
 251:.\Generated_Source\PSoC5/USBFS.c **** #if (USBFS_EP_MANAGEMENT_DMA)
 252:.\Generated_Source\PSoC5/USBFS.c ****     uint16 i;
 253:.\Generated_Source\PSoC5/USBFS.c **** #endif /* (USBFS_EP_MANAGEMENT_DMA) */
 254:.\Generated_Source\PSoC5/USBFS.c **** 
 255:.\Generated_Source\PSoC5/USBFS.c ****     /* Enable USB block. */
 256:.\Generated_Source\PSoC5/USBFS.c ****     USBFS_PM_ACT_CFG_REG |= USBFS_PM_ACT_EN_FSUSB;
  44              		.loc 1 256 0
  45 0008 384A     		ldr	r2, .L3
  46 000a 1378     		ldrb	r3, [r2]	@ zero_extendqisi2
  47 000c 43F00103 		orr	r3, r3, #1
  48 0010 1370     		strb	r3, [r2]
 257:.\Generated_Source\PSoC5/USBFS.c ****     /* Enable USB block for Standby Power Mode. */
 258:.\Generated_Source\PSoC5/USBFS.c ****     USBFS_PM_STBY_CFG_REG |= USBFS_PM_STBY_EN_FSUSB;
  49              		.loc 1 258 0
  50 0012 1032     		adds	r2, r2, #16
  51 0014 1378     		ldrb	r3, [r2]	@ zero_extendqisi2
  52 0016 43F00103 		orr	r3, r3, #1
  53 001a 1370     		strb	r3, [r2]
 259:.\Generated_Source\PSoC5/USBFS.c **** 
 260:.\Generated_Source\PSoC5/USBFS.c ****     /* Enable core clock. */
 261:.\Generated_Source\PSoC5/USBFS.c ****     USBFS_USB_CLK_EN_REG = USBFS_USB_CLK_ENABLE;
  54              		.loc 1 261 0
  55 001c 0125     		movs	r5, #1
  56 001e 344B     		ldr	r3, .L3+4
  57 0020 1D70     		strb	r5, [r3]
 262:.\Generated_Source\PSoC5/USBFS.c **** 
 263:.\Generated_Source\PSoC5/USBFS.c ****     USBFS_CR1_REG = USBFS_CR1_ENABLE_LOCK;
  58              		.loc 1 263 0
  59 0022 0227     		movs	r7, #2
  60 0024 943B     		subs	r3, r3, #148
  61 0026 1F70     		strb	r7, [r3]
 264:.\Generated_Source\PSoC5/USBFS.c **** 
 265:.\Generated_Source\PSoC5/USBFS.c ****     /* ENABLING USBIO PADS IN USB MODE FROM I/O MODE. */
 266:.\Generated_Source\PSoC5/USBFS.c ****     /* Ensure USB transmit enable is low (USB_USBIO_CR0.ten). - Manual Transmission - Disabled. */
 267:.\Generated_Source\PSoC5/USBFS.c ****     USBFS_USBIO_CR0_REG &= (uint8) ~USBFS_USBIO_CR0_TEN;
  62              		.loc 1 267 0
  63 0028 02F5E252 		add	r2, r2, #7232
  64 002c 1B32     		adds	r2, r2, #27
  65 002e 1378     		ldrb	r3, [r2]	@ zero_extendqisi2
  66 0030 03F07F03 		and	r3, r3, #127
  67 0034 1370     		strb	r3, [r2]
 268:.\Generated_Source\PSoC5/USBFS.c ****     CyDelayUs(USBFS_WAIT_REG_STABILITY_50NS);  /* ~50ns delay. */
  68              		.loc 1 268 0
  69 0036 0020     		movs	r0, #0
  70 0038 FFF7FEFF 		bl	CyDelayUs
  71              	.LVL2:
 269:.\Generated_Source\PSoC5/USBFS.c ****     /* Disable USBIO by asserting PM.USB_CR0.fsusbio_pd_n(Inverted.
 270:.\Generated_Source\PSoC5/USBFS.c ****     *  high. These bits will be set low by the power manager out-of-reset.
 271:.\Generated_Source\PSoC5/USBFS.c ****     *  Also confirm USBIO pull-up is disabled.
ARM GAS  C:\Users\Patrick\AppData\Local\Temp\cc4CvmVx.s 			page 7


 272:.\Generated_Source\PSoC5/USBFS.c ****     */
 273:.\Generated_Source\PSoC5/USBFS.c ****     USBFS_PM_USB_CR0_REG &= (uint8) ~(USBFS_PM_USB_CR0_PD_N |
  72              		.loc 1 273 0
  73 003c 2D4C     		ldr	r4, .L3+8
  74 003e 2378     		ldrb	r3, [r4]	@ zero_extendqisi2
  75 0040 03F0F903 		and	r3, r3, #249
  76 0044 2370     		strb	r3, [r4]
 274:.\Generated_Source\PSoC5/USBFS.c ****                                                  USBFS_PM_USB_CR0_PD_PULLUP_N);
 275:.\Generated_Source\PSoC5/USBFS.c **** 
 276:.\Generated_Source\PSoC5/USBFS.c ****     /* Select IOMODE to USB mode. */
 277:.\Generated_Source\PSoC5/USBFS.c ****     USBFS_USBIO_CR1_REG &= (uint8) ~USBFS_USBIO_CR1_IOMODE;
  77              		.loc 1 277 0
  78 0046 2C4A     		ldr	r2, .L3+12
  79 0048 1378     		ldrb	r3, [r2]	@ zero_extendqisi2
  80 004a 03F0DF03 		and	r3, r3, #223
  81 004e 1370     		strb	r3, [r2]
 278:.\Generated_Source\PSoC5/USBFS.c **** 
 279:.\Generated_Source\PSoC5/USBFS.c ****     /* Enable USBIO reference by setting PM.USB_CR0.fsusbio_ref_en. */
 280:.\Generated_Source\PSoC5/USBFS.c ****     USBFS_PM_USB_CR0_REG |= USBFS_PM_USB_CR0_REF_EN;
  82              		.loc 1 280 0
  83 0050 2378     		ldrb	r3, [r4]	@ zero_extendqisi2
  84 0052 2B43     		orrs	r3, r3, r5
  85 0054 2370     		strb	r3, [r4]
 281:.\Generated_Source\PSoC5/USBFS.c ****     /* Reference is available for 1us after regulator is enabled. */
 282:.\Generated_Source\PSoC5/USBFS.c ****     CyDelayUs(USBFS_WAIT_REG_STABILITY_1US);
  86              		.loc 1 282 0
  87 0056 2846     		mov	r0, r5
  88 0058 FFF7FEFF 		bl	CyDelayUs
  89              	.LVL3:
 283:.\Generated_Source\PSoC5/USBFS.c ****     /* OR 40us after power is restored. */
 284:.\Generated_Source\PSoC5/USBFS.c ****     CyDelayUs(USBFS_WAIT_VREF_RESTORE);
  90              		.loc 1 284 0
  91 005c 2820     		movs	r0, #40
  92 005e FFF7FEFF 		bl	CyDelayUs
  93              	.LVL4:
 285:.\Generated_Source\PSoC5/USBFS.c ****     /* Ensure single-ended disable bits are low (PRT15.INP_DIS[7:6])(input receiver enabled). */
 286:.\Generated_Source\PSoC5/USBFS.c ****     USBFS_DM_INP_DIS_REG &= (uint8) ~USBFS_DM_MASK;
  94              		.loc 1 286 0
  95 0062 264B     		ldr	r3, .L3+16
  96 0064 1A78     		ldrb	r2, [r3]	@ zero_extendqisi2
  97 0066 02F07F02 		and	r2, r2, #127
  98 006a 1A70     		strb	r2, [r3]
 287:.\Generated_Source\PSoC5/USBFS.c ****     USBFS_DP_INP_DIS_REG &= (uint8) ~USBFS_DP_MASK;
  99              		.loc 1 287 0
 100 006c 1A78     		ldrb	r2, [r3]	@ zero_extendqisi2
 101 006e 02F0BF02 		and	r2, r2, #191
 102 0072 1A70     		strb	r2, [r3]
 288:.\Generated_Source\PSoC5/USBFS.c **** 
 289:.\Generated_Source\PSoC5/USBFS.c ****     /* Enable USBIO. */
 290:.\Generated_Source\PSoC5/USBFS.c ****     USBFS_PM_USB_CR0_REG |= USBFS_PM_USB_CR0_PD_N;
 103              		.loc 1 290 0
 104 0074 2378     		ldrb	r3, [r4]	@ zero_extendqisi2
 105 0076 3B43     		orrs	r3, r3, r7
 106 0078 2370     		strb	r3, [r4]
 291:.\Generated_Source\PSoC5/USBFS.c ****     CyDelayUs(USBFS_WAIT_PD_PULLUP_N_ENABLE);
 107              		.loc 1 291 0
 108 007a 3846     		mov	r0, r7
ARM GAS  C:\Users\Patrick\AppData\Local\Temp\cc4CvmVx.s 			page 8


 109 007c FFF7FEFF 		bl	CyDelayUs
 110              	.LVL5:
 292:.\Generated_Source\PSoC5/USBFS.c ****     /* Set USBIO pull-up enable. */
 293:.\Generated_Source\PSoC5/USBFS.c ****     USBFS_PM_USB_CR0_REG |= USBFS_PM_USB_CR0_PD_PULLUP_N;
 111              		.loc 1 293 0
 112 0080 2378     		ldrb	r3, [r4]	@ zero_extendqisi2
 113 0082 43F00403 		orr	r3, r3, #4
 114 0086 2370     		strb	r3, [r4]
 294:.\Generated_Source\PSoC5/USBFS.c **** 
 295:.\Generated_Source\PSoC5/USBFS.c ****     /* Reset Arbiter Write Address register for endpoint 1. */
 296:.\Generated_Source\PSoC5/USBFS.c ****     CY_SET_REG8(USBFS_ARB_RW1_WA_PTR,     0u);
 115              		.loc 1 296 0
 116 0088 0024     		movs	r4, #0
 117 008a 1D4B     		ldr	r3, .L3+20
 118 008c 1C70     		strb	r4, [r3]
 297:.\Generated_Source\PSoC5/USBFS.c ****     CY_SET_REG8(USBFS_ARB_RW1_WA_MSB_PTR, 0u);
 119              		.loc 1 297 0
 120 008e 0133     		adds	r3, r3, #1
 121 0090 1C70     		strb	r4, [r3]
 298:.\Generated_Source\PSoC5/USBFS.c **** 
 299:.\Generated_Source\PSoC5/USBFS.c **** #if (USBFS_EP_MANAGEMENT_DMA)
 300:.\Generated_Source\PSoC5/USBFS.c ****     /* Initialize transfer descriptor. This will be used to detect DMA state - initialized or not. 
 301:.\Generated_Source\PSoC5/USBFS.c ****     for (i = 0u; i < USBFS_MAX_EP; ++i)
 302:.\Generated_Source\PSoC5/USBFS.c ****     {
 303:.\Generated_Source\PSoC5/USBFS.c ****         USBFS_DmaTd[i] = DMA_INVALID_TD;
 304:.\Generated_Source\PSoC5/USBFS.c **** 
 305:.\Generated_Source\PSoC5/USBFS.c ****     #if (USBFS_EP_MANAGEMENT_DMA_AUTO && (USBFS_EP_DMA_AUTO_OPT == 0u))
 306:.\Generated_Source\PSoC5/USBFS.c ****         USBFS_DmaNextTd[i] = DMA_INVALID_TD;
 307:.\Generated_Source\PSoC5/USBFS.c ****     #endif /* (USBFS_EP_MANAGEMENT_DMA_AUTO && (USBFS_EP_DMA_AUTO_OPT == 0u)) */
 308:.\Generated_Source\PSoC5/USBFS.c ****     }
 309:.\Generated_Source\PSoC5/USBFS.c **** #endif /* (USBFS_EP_MANAGEMENT_DMA) */
 310:.\Generated_Source\PSoC5/USBFS.c **** 
 311:.\Generated_Source\PSoC5/USBFS.c ****     CyExitCriticalSection(enableInterrupts);
 122              		.loc 1 311 0
 123 0092 3046     		mov	r0, r6
 124 0094 FFF7FEFF 		bl	CyExitCriticalSection
 125              	.LVL6:
 312:.\Generated_Source\PSoC5/USBFS.c **** #endif /* (CY_PSOC4) */
 313:.\Generated_Source\PSoC5/USBFS.c **** 
 314:.\Generated_Source\PSoC5/USBFS.c ****     /* Configure interrupts from USB block. */
 315:.\Generated_Source\PSoC5/USBFS.c **** #if (CY_PSOC4)
 316:.\Generated_Source\PSoC5/USBFS.c ****     /* Configure hi_int: set handler and priority. */
 317:.\Generated_Source\PSoC5/USBFS.c ****     CyIntSetPriority     (USBFS_INTR_HI_VECT_NUM,  USBFS_INTR_HI_PRIORITY);
 318:.\Generated_Source\PSoC5/USBFS.c ****     (void) CyIntSetVector(USBFS_INTR_HI_VECT_NUM, &USBFS_INTR_HI_ISR);
 319:.\Generated_Source\PSoC5/USBFS.c **** 
 320:.\Generated_Source\PSoC5/USBFS.c ****     /* Configure lo_int: set handler and priority. */
 321:.\Generated_Source\PSoC5/USBFS.c ****     CyIntSetPriority     (USBFS_INTR_LO_VECT_NUM,  USBFS_INTR_LO_PRIORITY);
 322:.\Generated_Source\PSoC5/USBFS.c ****     (void) CyIntSetVector(USBFS_INTR_LO_VECT_NUM, &USBFS_INTR_LO_ISR);
 323:.\Generated_Source\PSoC5/USBFS.c **** 
 324:.\Generated_Source\PSoC5/USBFS.c ****     /* Configure med_int: set handler and priority (routed through DSI). */
 325:.\Generated_Source\PSoC5/USBFS.c ****     CyIntSetPriority     (USBFS_INTR_MED_VECT_NUM,  USBFS_INTR_MED_PRIORITY);
 326:.\Generated_Source\PSoC5/USBFS.c ****     (void) CyIntSetVector(USBFS_INTR_MED_VECT_NUM, &USBFS_INTR_MED_ISR);
 327:.\Generated_Source\PSoC5/USBFS.c **** 
 328:.\Generated_Source\PSoC5/USBFS.c **** #else
 329:.\Generated_Source\PSoC5/USBFS.c ****     /* Set bus reset interrupt. */
 330:.\Generated_Source\PSoC5/USBFS.c ****     CyIntSetPriority(USBFS_BUS_RESET_VECT_NUM, USBFS_BUS_RESET_PRIOR);
 126              		.loc 1 330 0
ARM GAS  C:\Users\Patrick\AppData\Local\Temp\cc4CvmVx.s 			page 9


 127 0098 1720     		movs	r0, #23
 128 009a 0721     		movs	r1, #7
 129 009c FFF7FEFF 		bl	CyIntSetPriority
 130              	.LVL7:
 331:.\Generated_Source\PSoC5/USBFS.c ****     (void) CyIntSetVector(USBFS_BUS_RESET_VECT_NUM,   &USBFS_BUS_RESET_ISR);
 131              		.loc 1 331 0
 132 00a0 1720     		movs	r0, #23
 133 00a2 1849     		ldr	r1, .L3+24
 134 00a4 FFF7FEFF 		bl	CyIntSetVector
 135              	.LVL8:
 332:.\Generated_Source\PSoC5/USBFS.c **** 
 333:.\Generated_Source\PSoC5/USBFS.c ****     /* Set Control Endpoint Interrupt. */
 334:.\Generated_Source\PSoC5/USBFS.c ****     CyIntSetPriority(USBFS_EP_0_VECT_NUM, USBFS_EP_0_PRIOR);
 136              		.loc 1 334 0
 137 00a8 1820     		movs	r0, #24
 138 00aa 0721     		movs	r1, #7
 139 00ac FFF7FEFF 		bl	CyIntSetPriority
 140              	.LVL9:
 335:.\Generated_Source\PSoC5/USBFS.c ****     (void) CyIntSetVector(USBFS_EP_0_VECT_NUM,   &USBFS_EP_0_ISR);
 141              		.loc 1 335 0
 142 00b0 1820     		movs	r0, #24
 143 00b2 1549     		ldr	r1, .L3+28
 144 00b4 FFF7FEFF 		bl	CyIntSetVector
 145              	.LVL10:
 336:.\Generated_Source\PSoC5/USBFS.c **** 
 337:.\Generated_Source\PSoC5/USBFS.c ****     /* Set SOF interrupt. */
 338:.\Generated_Source\PSoC5/USBFS.c ****     #if (USBFS_SOF_ISR_ACTIVE)
 339:.\Generated_Source\PSoC5/USBFS.c ****         CyIntSetPriority     (USBFS_SOF_VECT_NUM,  USBFS_SOF_PRIOR);
 340:.\Generated_Source\PSoC5/USBFS.c ****         (void) CyIntSetVector(USBFS_SOF_VECT_NUM, &USBFS_SOF_ISR);
 341:.\Generated_Source\PSoC5/USBFS.c ****     #endif /* (USBFS_SOF_ISR_ACTIVE) */
 342:.\Generated_Source\PSoC5/USBFS.c **** 
 343:.\Generated_Source\PSoC5/USBFS.c ****     /* Set Data Endpoint 1 Interrupt. */
 344:.\Generated_Source\PSoC5/USBFS.c ****     #if (USBFS_EP1_ISR_ACTIVE)
 345:.\Generated_Source\PSoC5/USBFS.c ****         CyIntSetPriority     (USBFS_EP_1_VECT_NUM,  USBFS_EP_1_PRIOR);
 146              		.loc 1 345 0
 147 00b8 2046     		mov	r0, r4
 148 00ba 0721     		movs	r1, #7
 149 00bc FFF7FEFF 		bl	CyIntSetPriority
 150              	.LVL11:
 346:.\Generated_Source\PSoC5/USBFS.c ****         (void) CyIntSetVector(USBFS_EP_1_VECT_NUM,  &USBFS_EP_1_ISR);
 151              		.loc 1 346 0
 152 00c0 2046     		mov	r0, r4
 153 00c2 1249     		ldr	r1, .L3+32
 154 00c4 FFF7FEFF 		bl	CyIntSetVector
 155              	.LVL12:
 347:.\Generated_Source\PSoC5/USBFS.c ****     #endif /* (USBFS_EP1_ISR_ACTIVE) */
 348:.\Generated_Source\PSoC5/USBFS.c **** 
 349:.\Generated_Source\PSoC5/USBFS.c ****     /* Set Data Endpoint 2 Interrupt. */
 350:.\Generated_Source\PSoC5/USBFS.c ****     #if (USBFS_EP2_ISR_ACTIVE)
 351:.\Generated_Source\PSoC5/USBFS.c ****         CyIntSetPriority     (USBFS_EP_2_VECT_NUM,  USBFS_EP_2_PRIOR);
 156              		.loc 1 351 0
 157 00c8 2846     		mov	r0, r5
 158 00ca 0721     		movs	r1, #7
 159 00cc FFF7FEFF 		bl	CyIntSetPriority
 160              	.LVL13:
 352:.\Generated_Source\PSoC5/USBFS.c ****         (void) CyIntSetVector(USBFS_EP_2_VECT_NUM, &USBFS_EP_2_ISR);
 161              		.loc 1 352 0
ARM GAS  C:\Users\Patrick\AppData\Local\Temp\cc4CvmVx.s 			page 10


 162 00d0 2846     		mov	r0, r5
 163 00d2 0F49     		ldr	r1, .L3+36
 164 00d4 FFF7FEFF 		bl	CyIntSetVector
 165              	.LVL14:
 353:.\Generated_Source\PSoC5/USBFS.c ****     #endif /* (USBFS_EP2_ISR_ACTIVE) */
 354:.\Generated_Source\PSoC5/USBFS.c **** 
 355:.\Generated_Source\PSoC5/USBFS.c ****     /* Set Data Endpoint 3 Interrupt. */
 356:.\Generated_Source\PSoC5/USBFS.c ****     #if (USBFS_EP3_ISR_ACTIVE)
 357:.\Generated_Source\PSoC5/USBFS.c ****         CyIntSetPriority     (USBFS_EP_3_VECT_NUM,  USBFS_EP_3_PRIOR);
 358:.\Generated_Source\PSoC5/USBFS.c ****         (void) CyIntSetVector(USBFS_EP_3_VECT_NUM, &USBFS_EP_3_ISR);
 359:.\Generated_Source\PSoC5/USBFS.c ****     #endif /* (USBFS_EP3_ISR_ACTIVE) */
 360:.\Generated_Source\PSoC5/USBFS.c **** 
 361:.\Generated_Source\PSoC5/USBFS.c ****     /* Set Data Endpoint 4 Interrupt. */
 362:.\Generated_Source\PSoC5/USBFS.c ****     #if (USBFS_EP4_ISR_ACTIVE)
 363:.\Generated_Source\PSoC5/USBFS.c ****         CyIntSetPriority     (USBFS_EP_4_VECT_NUM,  USBFS_EP_4_PRIOR);
 364:.\Generated_Source\PSoC5/USBFS.c ****         (void) CyIntSetVector(USBFS_EP_4_VECT_NUM, &USBFS_EP_4_ISR);
 365:.\Generated_Source\PSoC5/USBFS.c ****     #endif /* (USBFS_EP4_ISR_ACTIVE) */
 366:.\Generated_Source\PSoC5/USBFS.c **** 
 367:.\Generated_Source\PSoC5/USBFS.c ****     /* Set Data Endpoint 5 Interrupt. */
 368:.\Generated_Source\PSoC5/USBFS.c ****     #if (USBFS_EP5_ISR_ACTIVE)
 369:.\Generated_Source\PSoC5/USBFS.c ****         CyIntSetPriority     (USBFS_EP_5_VECT_NUM,  USBFS_EP_5_PRIOR);
 370:.\Generated_Source\PSoC5/USBFS.c ****         (void) CyIntSetVector(USBFS_EP_5_VECT_NUM, &USBFS_EP_5_ISR);
 371:.\Generated_Source\PSoC5/USBFS.c ****     #endif /* (USBFS_EP5_ISR_ACTIVE) */
 372:.\Generated_Source\PSoC5/USBFS.c **** 
 373:.\Generated_Source\PSoC5/USBFS.c ****     /* Set Data Endpoint 6 Interrupt. */
 374:.\Generated_Source\PSoC5/USBFS.c ****     #if (USBFS_EP6_ISR_ACTIVE)
 375:.\Generated_Source\PSoC5/USBFS.c ****         CyIntSetPriority     (USBFS_EP_6_VECT_NUM,  USBFS_EP_6_PRIOR);
 376:.\Generated_Source\PSoC5/USBFS.c ****         (void) CyIntSetVector(USBFS_EP_6_VECT_NUM, &USBFS_EP_6_ISR);
 377:.\Generated_Source\PSoC5/USBFS.c ****     #endif /* (USBFS_EP6_ISR_ACTIVE) */
 378:.\Generated_Source\PSoC5/USBFS.c **** 
 379:.\Generated_Source\PSoC5/USBFS.c ****      /* Set Data Endpoint 7 Interrupt. */
 380:.\Generated_Source\PSoC5/USBFS.c ****     #if (USBFS_EP7_ISR_ACTIVE)
 381:.\Generated_Source\PSoC5/USBFS.c ****         CyIntSetPriority     (USBFS_EP_7_VECT_NUM,  USBFS_EP_7_PRIOR);
 382:.\Generated_Source\PSoC5/USBFS.c ****         (void) CyIntSetVector(USBFS_EP_7_VECT_NUM, &USBFS_EP_7_ISR);
 383:.\Generated_Source\PSoC5/USBFS.c ****     #endif /* (USBFS_EP7_ISR_ACTIVE) */
 384:.\Generated_Source\PSoC5/USBFS.c **** 
 385:.\Generated_Source\PSoC5/USBFS.c ****     /* Set Data Endpoint 8 Interrupt. */
 386:.\Generated_Source\PSoC5/USBFS.c ****     #if (USBFS_EP8_ISR_ACTIVE)
 387:.\Generated_Source\PSoC5/USBFS.c ****         CyIntSetPriority     (USBFS_EP_8_VECT_NUM,  USBFS_EP_8_PRIOR);
 388:.\Generated_Source\PSoC5/USBFS.c ****         (void) CyIntSetVector(USBFS_EP_8_VECT_NUM, &USBFS_EP_8_ISR);
 389:.\Generated_Source\PSoC5/USBFS.c ****     #endif /* (USBFS_EP8_ISR_ACTIVE) */
 390:.\Generated_Source\PSoC5/USBFS.c **** 
 391:.\Generated_Source\PSoC5/USBFS.c ****     /* Set ARB Interrupt. */
 392:.\Generated_Source\PSoC5/USBFS.c ****     #if (USBFS_EP_MANAGEMENT_DMA && USBFS_ARB_ISR_ACTIVE)
 393:.\Generated_Source\PSoC5/USBFS.c ****         CyIntSetPriority     (USBFS_ARB_VECT_NUM,  USBFS_ARB_PRIOR);
 394:.\Generated_Source\PSoC5/USBFS.c ****         (void) CyIntSetVector(USBFS_ARB_VECT_NUM, &USBFS_ARB_ISR);
 395:.\Generated_Source\PSoC5/USBFS.c ****     #endif /* (USBFS_EP_MANAGEMENT_DMA && USBFS_ARB_ISR_ACTIVE) */
 396:.\Generated_Source\PSoC5/USBFS.c **** #endif /* (CY_PSOC4) */
 397:.\Generated_Source\PSoC5/USBFS.c **** 
 398:.\Generated_Source\PSoC5/USBFS.c ****     /* Common: Configure GPIO interrupt for wakeup. */
 399:.\Generated_Source\PSoC5/USBFS.c **** #if (USBFS_DP_ISR_ACTIVE)
 400:.\Generated_Source\PSoC5/USBFS.c ****     CyIntSetPriority     (USBFS_DP_INTC_VECT_NUM,  USBFS_DP_INTC_PRIORITY);
 166              		.loc 1 400 0
 167 00d8 0C20     		movs	r0, #12
 168 00da 0721     		movs	r1, #7
 169 00dc FFF7FEFF 		bl	CyIntSetPriority
 170              	.LVL15:
ARM GAS  C:\Users\Patrick\AppData\Local\Temp\cc4CvmVx.s 			page 11


 401:.\Generated_Source\PSoC5/USBFS.c ****     (void) CyIntSetVector(USBFS_DP_INTC_VECT_NUM, &USBFS_DP_ISR);
 171              		.loc 1 401 0
 172 00e0 0C20     		movs	r0, #12
 173 00e2 0C49     		ldr	r1, .L3+40
 174 00e4 FFF7FEFF 		bl	CyIntSetVector
 175              	.LVL16:
 176 00e8 F8BD     		pop	{r3, r4, r5, r6, r7, pc}
 177              	.LVL17:
 178              	.L4:
 179 00ea 00BF     		.align	2
 180              	.L3:
 181 00ec A5430040 		.word	1073759141
 182 00f0 9D600040 		.word	1073766557
 183 00f4 94430040 		.word	1073759124
 184 00f8 12600040 		.word	1073766418
 185 00fc F8510040 		.word	1073762808
 186 0100 84600040 		.word	1073766532
 187 0104 00000000 		.word	USBFS_BUS_RESET_ISR
 188 0108 00000000 		.word	USBFS_EP_0_ISR
 189 010c 00000000 		.word	USBFS_EP_1_ISR
 190 0110 00000000 		.word	USBFS_EP_2_ISR
 191 0114 00000000 		.word	USBFS_DP_ISR
 192              		.cfi_endproc
 193              	.LFE1:
 194              		.size	USBFS_Init, .-USBFS_Init
 195              		.section	.text.USBFS_InitComponent,"ax",%progbits
 196              		.align	2
 197              		.global	USBFS_InitComponent
 198              		.thumb
 199              		.thumb_func
 200              		.type	USBFS_InitComponent, %function
 201              	USBFS_InitComponent:
 202              	.LFB2:
 402:.\Generated_Source\PSoC5/USBFS.c **** #endif /* (USBFS_DP_ISR_ACTIVE) */
 403:.\Generated_Source\PSoC5/USBFS.c **** 
 404:.\Generated_Source\PSoC5/USBFS.c **** #if (USBFS_EP_MANAGEMENT_DMA && CY_PSOC4)
 405:.\Generated_Source\PSoC5/USBFS.c ****     /* Initialize DMA channels. */
 406:.\Generated_Source\PSoC5/USBFS.c ****     USBFS_InitEpDma();
 407:.\Generated_Source\PSoC5/USBFS.c **** #endif /* (USBFS_EP_MANAGEMENT_DMA && CY_PSOC4) */
 408:.\Generated_Source\PSoC5/USBFS.c **** }
 409:.\Generated_Source\PSoC5/USBFS.c **** 
 410:.\Generated_Source\PSoC5/USBFS.c **** 
 411:.\Generated_Source\PSoC5/USBFS.c **** /*******************************************************************************
 412:.\Generated_Source\PSoC5/USBFS.c **** * Function Name: USBFS_InitComponent
 413:.\Generated_Source\PSoC5/USBFS.c **** ****************************************************************************//**
 414:.\Generated_Source\PSoC5/USBFS.c **** *
 415:.\Generated_Source\PSoC5/USBFS.c **** *   This function initializes the component’s global variables and initiates
 416:.\Generated_Source\PSoC5/USBFS.c **** *   communication with the host by pull-up D+ line.
 417:.\Generated_Source\PSoC5/USBFS.c **** *
 418:.\Generated_Source\PSoC5/USBFS.c **** * \param device:
 419:.\Generated_Source\PSoC5/USBFS.c **** *   Contains the device number of the desired device descriptor. The device
 420:.\Generated_Source\PSoC5/USBFS.c **** *   number can be found in the Device Descriptor Tab of "Configure" dialog,
 421:.\Generated_Source\PSoC5/USBFS.c **** *   under the settings of desired Device Descriptor, in the *Device Number*
 422:.\Generated_Source\PSoC5/USBFS.c **** *   field.
 423:.\Generated_Source\PSoC5/USBFS.c **** *  \param mode:
 424:.\Generated_Source\PSoC5/USBFS.c **** *   The operating voltage. This determines whether the voltage regulator
 425:.\Generated_Source\PSoC5/USBFS.c **** *   is enabled for 5V operation or if pass through mode is used for 3.3V
ARM GAS  C:\Users\Patrick\AppData\Local\Temp\cc4CvmVx.s 			page 12


 426:.\Generated_Source\PSoC5/USBFS.c **** *   operation. Symbolic names and their associated values are given in the
 427:.\Generated_Source\PSoC5/USBFS.c **** *   following list.
 428:.\Generated_Source\PSoC5/USBFS.c **** *
 429:.\Generated_Source\PSoC5/USBFS.c **** *       *USBFS_3V_OPERATION* - Disable voltage regulator and pass-
 430:.\Generated_Source\PSoC5/USBFS.c **** *                                      through Vcc for pull-up
 431:.\Generated_Source\PSoC5/USBFS.c **** *
 432:.\Generated_Source\PSoC5/USBFS.c **** *       *USBFS_5V_OPERATION* - Enable voltage regulator and use
 433:.\Generated_Source\PSoC5/USBFS.c **** *                                      regulator for pull-up
 434:.\Generated_Source\PSoC5/USBFS.c **** *
 435:.\Generated_Source\PSoC5/USBFS.c **** *       *USBFS_DWR_POWER_OPERATION* - Enable or disable the voltage
 436:.\Generated_Source\PSoC5/USBFS.c **** *                                      regulator depending on the power supply
 437:.\Generated_Source\PSoC5/USBFS.c **** *                                      voltage configuration in the DWR tab.
 438:.\Generated_Source\PSoC5/USBFS.c **** *                                      For PSoC 3/5LP devices, the VDDD supply
 439:.\Generated_Source\PSoC5/USBFS.c **** *                                      voltage is considered and for PSoC 4A-L,
 440:.\Generated_Source\PSoC5/USBFS.c **** *                                      the VBUS supply voltage is considered.
 441:.\Generated_Source\PSoC5/USBFS.c **** *
 442:.\Generated_Source\PSoC5/USBFS.c **** * \globalvars
 443:.\Generated_Source\PSoC5/USBFS.c **** *   \ref USBFS_device
 444:.\Generated_Source\PSoC5/USBFS.c **** *   \ref USBFS_transferState
 445:.\Generated_Source\PSoC5/USBFS.c **** *   \ref USBFS_configuration
 446:.\Generated_Source\PSoC5/USBFS.c **** *   \ref USBFS_deviceStatus
 447:.\Generated_Source\PSoC5/USBFS.c **** *
 448:.\Generated_Source\PSoC5/USBFS.c **** *   \ref USBFS_deviceAddress - Contains the current device address. This
 449:.\Generated_Source\PSoC5/USBFS.c **** *       variable is initialized to zero in this API. The Host starts to communicate
 450:.\Generated_Source\PSoC5/USBFS.c **** *      to the device with address 0 and then sets it to a whatever value using a
 451:.\Generated_Source\PSoC5/USBFS.c **** *      SET_ADDRESS request.
 452:.\Generated_Source\PSoC5/USBFS.c **** *
 453:.\Generated_Source\PSoC5/USBFS.c **** *   \ref USBFS_lastPacketSize - Initialized to 0;
 454:.\Generated_Source\PSoC5/USBFS.c **** *
 455:.\Generated_Source\PSoC5/USBFS.c **** * \reentrant
 456:.\Generated_Source\PSoC5/USBFS.c **** *  No.
 457:.\Generated_Source\PSoC5/USBFS.c **** *
 458:.\Generated_Source\PSoC5/USBFS.c **** *******************************************************************************/
 459:.\Generated_Source\PSoC5/USBFS.c **** void USBFS_InitComponent(uint8 device, uint8 mode) 
 460:.\Generated_Source\PSoC5/USBFS.c **** {
 203              		.loc 1 460 0
 204              		.cfi_startproc
 205              		@ args = 0, pretend = 0, frame = 0
 206              		@ frame_needed = 0, uses_anonymous_args = 0
 207              	.LVL18:
 208 0000 10B5     		push	{r4, lr}
 209              		.cfi_def_cfa_offset 8
 210              		.cfi_offset 4, -8
 211              		.cfi_offset 14, -4
 212              	.LVL19:
 461:.\Generated_Source\PSoC5/USBFS.c ****     /* Initialize _hidProtocol variable to comply with
 462:.\Generated_Source\PSoC5/USBFS.c ****     *  HID 7.2.6 Set_Protocol Request:
 463:.\Generated_Source\PSoC5/USBFS.c ****     *  "When initialized, all devices default to report protocol."
 464:.\Generated_Source\PSoC5/USBFS.c ****     */
 465:.\Generated_Source\PSoC5/USBFS.c **** #if defined(USBFS_ENABLE_HID_CLASS)
 466:.\Generated_Source\PSoC5/USBFS.c ****     uint8 i;
 467:.\Generated_Source\PSoC5/USBFS.c **** 
 468:.\Generated_Source\PSoC5/USBFS.c ****     for (i = 0u; i < USBFS_MAX_INTERFACES_NUMBER; i++)
 213              		.loc 1 468 0
 214 0002 0023     		movs	r3, #0
 215 0004 04E0     		b	.L6
 216              	.LVL20:
ARM GAS  C:\Users\Patrick\AppData\Local\Temp\cc4CvmVx.s 			page 13


 217              	.L7:
 469:.\Generated_Source\PSoC5/USBFS.c ****     {
 470:.\Generated_Source\PSoC5/USBFS.c ****         USBFS_hidProtocol[i] = USBFS_PROTOCOL_REPORT;
 218              		.loc 1 470 0 discriminator 3
 219 0006 0124     		movs	r4, #1
 220 0008 214A     		ldr	r2, .L14
 221 000a D454     		strb	r4, [r2, r3]
 468:.\Generated_Source\PSoC5/USBFS.c ****     {
 222              		.loc 1 468 0 discriminator 3
 223 000c 2344     		add	r3, r3, r4
 224              	.LVL21:
 225 000e DBB2     		uxtb	r3, r3
 226              	.LVL22:
 227              	.L6:
 468:.\Generated_Source\PSoC5/USBFS.c ****     {
 228              		.loc 1 468 0 is_stmt 0 discriminator 1
 229 0010 002B     		cmp	r3, #0
 230 0012 F8D0     		beq	.L7
 471:.\Generated_Source\PSoC5/USBFS.c ****     }
 472:.\Generated_Source\PSoC5/USBFS.c **** #endif /* USBFS_ENABLE_HID_CLASS */
 473:.\Generated_Source\PSoC5/USBFS.c **** 
 474:.\Generated_Source\PSoC5/USBFS.c ****     /* Store device number to access descriptor. */
 475:.\Generated_Source\PSoC5/USBFS.c ****     USBFS_device = device;
 231              		.loc 1 475 0 is_stmt 1
 232 0014 1F4B     		ldr	r3, .L14+4
 233              	.LVL23:
 234 0016 1870     		strb	r0, [r3]
 476:.\Generated_Source\PSoC5/USBFS.c **** 
 477:.\Generated_Source\PSoC5/USBFS.c ****     /* Reset component internal variables. */
 478:.\Generated_Source\PSoC5/USBFS.c ****     USBFS_transferState   = USBFS_TRANS_STATE_IDLE;
 235              		.loc 1 478 0
 236 0018 0023     		movs	r3, #0
 237 001a 1F4A     		ldr	r2, .L14+8
 238 001c 1370     		strb	r3, [r2]
 479:.\Generated_Source\PSoC5/USBFS.c ****     USBFS_configurationChanged = 0u;
 239              		.loc 1 479 0
 240 001e 1F4A     		ldr	r2, .L14+12
 241 0020 1370     		strb	r3, [r2]
 480:.\Generated_Source\PSoC5/USBFS.c ****     USBFS_configuration   = 0u;
 242              		.loc 1 480 0
 243 0022 1F4A     		ldr	r2, .L14+16
 244 0024 1370     		strb	r3, [r2]
 481:.\Generated_Source\PSoC5/USBFS.c ****     USBFS_interfaceNumber = 0u;
 245              		.loc 1 481 0
 246 0026 1F4A     		ldr	r2, .L14+20
 247 0028 1370     		strb	r3, [r2]
 482:.\Generated_Source\PSoC5/USBFS.c ****     USBFS_deviceAddress   = 0u;
 248              		.loc 1 482 0
 249 002a 1F4A     		ldr	r2, .L14+24
 250 002c 1370     		strb	r3, [r2]
 483:.\Generated_Source\PSoC5/USBFS.c ****     USBFS_deviceStatus    = 0u;
 251              		.loc 1 483 0
 252 002e 1F4A     		ldr	r2, .L14+28
 253 0030 1370     		strb	r3, [r2]
 484:.\Generated_Source\PSoC5/USBFS.c ****     USBFS_lastPacketSize  = 0u;
 254              		.loc 1 484 0
 255 0032 1F4A     		ldr	r2, .L14+32
ARM GAS  C:\Users\Patrick\AppData\Local\Temp\cc4CvmVx.s 			page 14


 256 0034 1370     		strb	r3, [r2]
 485:.\Generated_Source\PSoC5/USBFS.c **** 
 486:.\Generated_Source\PSoC5/USBFS.c ****     /* Enable component interrupts. */
 487:.\Generated_Source\PSoC5/USBFS.c **** #if (CY_PSOC4)
 488:.\Generated_Source\PSoC5/USBFS.c ****     CyIntEnable(USBFS_INTR_HI_VECT_NUM);
 489:.\Generated_Source\PSoC5/USBFS.c ****     CyIntEnable(USBFS_INTR_MED_VECT_NUM);
 490:.\Generated_Source\PSoC5/USBFS.c ****     CyIntEnable(USBFS_INTR_LO_VECT_NUM);
 491:.\Generated_Source\PSoC5/USBFS.c **** #else
 492:.\Generated_Source\PSoC5/USBFS.c ****     CyIntEnable(USBFS_BUS_RESET_VECT_NUM);
 257              		.loc 1 492 0
 258 0036 1F4B     		ldr	r3, .L14+36
 259 0038 4FF40002 		mov	r2, #8388608
 260 003c 1A60     		str	r2, [r3]
 493:.\Generated_Source\PSoC5/USBFS.c ****     CyIntEnable(USBFS_EP_0_VECT_NUM);
 261              		.loc 1 493 0
 262 003e 4FF08072 		mov	r2, #16777216
 263 0042 1A60     		str	r2, [r3]
 494:.\Generated_Source\PSoC5/USBFS.c **** 
 495:.\Generated_Source\PSoC5/USBFS.c ****     #if (USBFS_SOF_ISR_ACTIVE)
 496:.\Generated_Source\PSoC5/USBFS.c ****         CyIntEnable(USBFS_SOF_VECT_NUM);
 497:.\Generated_Source\PSoC5/USBFS.c ****     #endif /* (USBFS_SOF_ISR_ACTIVE) */
 498:.\Generated_Source\PSoC5/USBFS.c **** 
 499:.\Generated_Source\PSoC5/USBFS.c ****     #if (USBFS_EP1_ISR_ACTIVE)
 500:.\Generated_Source\PSoC5/USBFS.c ****         CyIntEnable(USBFS_EP_1_VECT_NUM);
 264              		.loc 1 500 0
 265 0044 0122     		movs	r2, #1
 266 0046 1A60     		str	r2, [r3]
 501:.\Generated_Source\PSoC5/USBFS.c ****     #endif /* (USBFS_EP1_ISR_ACTIVE) */
 502:.\Generated_Source\PSoC5/USBFS.c **** 
 503:.\Generated_Source\PSoC5/USBFS.c ****     #if (USBFS_EP2_ISR_ACTIVE)
 504:.\Generated_Source\PSoC5/USBFS.c ****         CyIntEnable(USBFS_EP_2_VECT_NUM);
 267              		.loc 1 504 0
 268 0048 0222     		movs	r2, #2
 269 004a 1A60     		str	r2, [r3]
 505:.\Generated_Source\PSoC5/USBFS.c ****     #endif /* (USBFS_EP5_ISR_ACTIVE) */
 506:.\Generated_Source\PSoC5/USBFS.c **** 
 507:.\Generated_Source\PSoC5/USBFS.c ****     #if (USBFS_EP3_ISR_ACTIVE)
 508:.\Generated_Source\PSoC5/USBFS.c ****         CyIntEnable(USBFS_EP_3_VECT_NUM);
 509:.\Generated_Source\PSoC5/USBFS.c ****     #endif /* (USBFS_EP5_ISR_ACTIVE) */
 510:.\Generated_Source\PSoC5/USBFS.c **** 
 511:.\Generated_Source\PSoC5/USBFS.c ****     #if (USBFS_EP4_ISR_ACTIVE)
 512:.\Generated_Source\PSoC5/USBFS.c ****         CyIntEnable(USBFS_EP_4_VECT_NUM);
 513:.\Generated_Source\PSoC5/USBFS.c ****     #endif /* (USBFS_EP5_ISR_ACTIVE) */
 514:.\Generated_Source\PSoC5/USBFS.c **** 
 515:.\Generated_Source\PSoC5/USBFS.c ****     #if (USBFS_EP5_ISR_ACTIVE)
 516:.\Generated_Source\PSoC5/USBFS.c ****         CyIntEnable(USBFS_EP_5_VECT_NUM);
 517:.\Generated_Source\PSoC5/USBFS.c ****     #endif /* (USBFS_EP5_ISR_ACTIVE) */
 518:.\Generated_Source\PSoC5/USBFS.c **** 
 519:.\Generated_Source\PSoC5/USBFS.c ****     #if (USBFS_EP6_ISR_ACTIVE)
 520:.\Generated_Source\PSoC5/USBFS.c ****         CyIntEnable(USBFS_EP_6_VECT_NUM);
 521:.\Generated_Source\PSoC5/USBFS.c ****     #endif /* USBFS_EP6_ISR_REMOVE */
 522:.\Generated_Source\PSoC5/USBFS.c **** 
 523:.\Generated_Source\PSoC5/USBFS.c ****     #if (USBFS_EP7_ISR_ACTIVE)
 524:.\Generated_Source\PSoC5/USBFS.c ****         CyIntEnable(USBFS_EP_7_VECT_NUM);
 525:.\Generated_Source\PSoC5/USBFS.c ****     #endif /* (USBFS_EP7_ISR_ACTIVE) */
 526:.\Generated_Source\PSoC5/USBFS.c **** 
 527:.\Generated_Source\PSoC5/USBFS.c ****     #if (USBFS_EP8_ISR_ACTIVE)
ARM GAS  C:\Users\Patrick\AppData\Local\Temp\cc4CvmVx.s 			page 15


 528:.\Generated_Source\PSoC5/USBFS.c ****         CyIntEnable(USBFS_EP_8_VECT_NUM);
 529:.\Generated_Source\PSoC5/USBFS.c ****     #endif /* (USBFS_EP8_ISR_ACTIVE) */
 530:.\Generated_Source\PSoC5/USBFS.c **** #endif /* (CY_PSOC4) */
 531:.\Generated_Source\PSoC5/USBFS.c **** 
 532:.\Generated_Source\PSoC5/USBFS.c **** #if (USBFS_EP_MANAGEMENT_DMA && USBFS_ARB_ISR_ACTIVE)
 533:.\Generated_Source\PSoC5/USBFS.c ****     /* Enable ARB EP interrupt sources. */
 534:.\Generated_Source\PSoC5/USBFS.c ****     USBFS_ARB_INT_EN_REG = USBFS_DEFAULT_ARB_INT_EN;
 535:.\Generated_Source\PSoC5/USBFS.c **** 
 536:.\Generated_Source\PSoC5/USBFS.c ****     #if (CY_PSOC3 || CY_PSOC5)
 537:.\Generated_Source\PSoC5/USBFS.c ****         CyIntEnable(USBFS_ARB_VECT_NUM);
 538:.\Generated_Source\PSoC5/USBFS.c ****     #endif /* (CY_PSOC3 || CY_PSOC5) */
 539:.\Generated_Source\PSoC5/USBFS.c **** #endif   /* (USBFS_EP_MANAGEMENT_DMA && USBFS_ARB_ISR_ACTIVE) */
 540:.\Generated_Source\PSoC5/USBFS.c **** 
 541:.\Generated_Source\PSoC5/USBFS.c **** /* Arbiter configuration for DMA transfers. */
 542:.\Generated_Source\PSoC5/USBFS.c **** #if (USBFS_EP_MANAGEMENT_DMA)
 543:.\Generated_Source\PSoC5/USBFS.c ****     /* Configure Arbiter for Manual or Auto DMA operation and clear configuration completion. */
 544:.\Generated_Source\PSoC5/USBFS.c ****     USBFS_ARB_CFG_REG = USBFS_DEFAULT_ARB_CFG;
 545:.\Generated_Source\PSoC5/USBFS.c **** 
 546:.\Generated_Source\PSoC5/USBFS.c ****     #if (CY_PSOC4)
 547:.\Generated_Source\PSoC5/USBFS.c ****         /* Enable DMA operation. */
 548:.\Generated_Source\PSoC5/USBFS.c ****         CyDmaEnable();
 549:.\Generated_Source\PSoC5/USBFS.c **** 
 550:.\Generated_Source\PSoC5/USBFS.c ****         #if (USBFS_EP_MANAGEMENT_DMA_AUTO)
 551:.\Generated_Source\PSoC5/USBFS.c ****             /* Change DMA priority to be highest. */
 552:.\Generated_Source\PSoC5/USBFS.c ****              CyIntSetPriority(CYDMA_INTR_NUMBER, USBFS_DMA_AUTO_INTR_PRIO);
 553:.\Generated_Source\PSoC5/USBFS.c ****         #endif /* (USBFS_EP_MANAGEMENT_DMA_AUTO) */
 554:.\Generated_Source\PSoC5/USBFS.c ****     #endif /* (CY_PSOC4) */
 555:.\Generated_Source\PSoC5/USBFS.c **** 
 556:.\Generated_Source\PSoC5/USBFS.c ****     #if (USBFS_EP_MANAGEMENT_DMA_AUTO)
 557:.\Generated_Source\PSoC5/USBFS.c ****         #if (CY_PSOC4)
 558:.\Generated_Source\PSoC5/USBFS.c ****             /* Enable DMA interrupt to handle DMA management. */
 559:.\Generated_Source\PSoC5/USBFS.c ****             CyIntEnable(CYDMA_INTR_NUMBER);
 560:.\Generated_Source\PSoC5/USBFS.c ****         #else
 561:.\Generated_Source\PSoC5/USBFS.c ****             #if (USBFS_EP_DMA_AUTO_OPT == 0u)
 562:.\Generated_Source\PSoC5/USBFS.c ****                 /* Initialize interrupts which handle verification of successful DMA transaction. *
 563:.\Generated_Source\PSoC5/USBFS.c ****                 USBFS_EP_DMA_Done_isr_StartEx(&USBFS_EP_DMA_DONE_ISR);
 564:.\Generated_Source\PSoC5/USBFS.c ****                 USBFS_EP17_DMA_Done_SR_InterruptEnable();
 565:.\Generated_Source\PSoC5/USBFS.c ****                 USBFS_EP8_DMA_Done_SR_InterruptEnable();
 566:.\Generated_Source\PSoC5/USBFS.c ****             #endif /* (USBFS_EP_DMA_AUTO_OPT == 0u) */
 567:.\Generated_Source\PSoC5/USBFS.c ****         #endif /* (CY_PSOC4) */
 568:.\Generated_Source\PSoC5/USBFS.c ****     #endif /* (USBFS_EP_MANAGEMENT_DMA_AUTO) */
 569:.\Generated_Source\PSoC5/USBFS.c **** #endif /* (USBFS_EP_MANAGEMENT_DMA) */
 570:.\Generated_Source\PSoC5/USBFS.c **** 
 571:.\Generated_Source\PSoC5/USBFS.c ****     /* Enable USB regulator depends on operation voltage. IMO Locking is enabled in Init(). */
 572:.\Generated_Source\PSoC5/USBFS.c ****     switch(mode)
 270              		.loc 1 572 0
 271 004c 11B1     		cbz	r1, .L9
 272 004e 0129     		cmp	r1, #1
 273 0050 06D0     		beq	.L10
 274 0052 0BE0     		b	.L12
 275              	.L9:
 573:.\Generated_Source\PSoC5/USBFS.c ****     {
 574:.\Generated_Source\PSoC5/USBFS.c ****     case USBFS_3V_OPERATION:
 575:.\Generated_Source\PSoC5/USBFS.c ****         /* Disable regulator for 3V operation. */
 576:.\Generated_Source\PSoC5/USBFS.c ****         USBFS_CR1_REG &= (uint8) ~USBFS_CR1_REG_ENABLE;
 276              		.loc 1 576 0
 277 0054 184A     		ldr	r2, .L14+40
ARM GAS  C:\Users\Patrick\AppData\Local\Temp\cc4CvmVx.s 			page 16


 278 0056 1378     		ldrb	r3, [r2]	@ zero_extendqisi2
 279 0058 03F0FE03 		and	r3, r3, #254
 280 005c 1370     		strb	r3, [r2]
 577:.\Generated_Source\PSoC5/USBFS.c ****         break;
 281              		.loc 1 577 0
 282 005e 0AE0     		b	.L11
 283              	.L10:
 578:.\Generated_Source\PSoC5/USBFS.c **** 
 579:.\Generated_Source\PSoC5/USBFS.c ****     case USBFS_5V_OPERATION:
 580:.\Generated_Source\PSoC5/USBFS.c ****         /* Enable regulator for 5V operation. */
 581:.\Generated_Source\PSoC5/USBFS.c ****         USBFS_CR1_REG |= (uint8)  USBFS_CR1_REG_ENABLE;
 284              		.loc 1 581 0
 285 0060 154A     		ldr	r2, .L14+40
 286 0062 1378     		ldrb	r3, [r2]	@ zero_extendqisi2
 287 0064 43F00103 		orr	r3, r3, #1
 288 0068 1370     		strb	r3, [r2]
 582:.\Generated_Source\PSoC5/USBFS.c ****         break;
 289              		.loc 1 582 0
 290 006a 04E0     		b	.L11
 291              	.L12:
 583:.\Generated_Source\PSoC5/USBFS.c **** 
 584:.\Generated_Source\PSoC5/USBFS.c ****     default: /* Check DWR settings of USB power supply. */
 585:.\Generated_Source\PSoC5/USBFS.c ****     #if (USBFS_VDDD_MV < USBFS_3500MV)
 586:.\Generated_Source\PSoC5/USBFS.c ****         /* Disable regulator for 3V operation. */
 587:.\Generated_Source\PSoC5/USBFS.c ****         USBFS_CR1_REG &= (uint8) ~USBFS_CR1_REG_ENABLE;
 588:.\Generated_Source\PSoC5/USBFS.c ****     #else
 589:.\Generated_Source\PSoC5/USBFS.c ****         /* Enable regulator for 5V operation. */
 590:.\Generated_Source\PSoC5/USBFS.c ****         USBFS_CR1_REG |= (uint8)  USBFS_CR1_REG_ENABLE;
 292              		.loc 1 590 0
 293 006c 124A     		ldr	r2, .L14+40
 294 006e 1378     		ldrb	r3, [r2]	@ zero_extendqisi2
 295 0070 43F00103 		orr	r3, r3, #1
 296 0074 1370     		strb	r3, [r2]
 297              	.L11:
 591:.\Generated_Source\PSoC5/USBFS.c ****     #endif /* (USBFS_VDDD_MV < USBFS_3500MV) */
 592:.\Generated_Source\PSoC5/USBFS.c ****         break;
 593:.\Generated_Source\PSoC5/USBFS.c ****     }
 594:.\Generated_Source\PSoC5/USBFS.c **** 
 595:.\Generated_Source\PSoC5/USBFS.c **** #if (CY_PSOC4)
 596:.\Generated_Source\PSoC5/USBFS.c ****     /* Clear bus activity. */
 597:.\Generated_Source\PSoC5/USBFS.c ****     USBFS_CR1_REG &= (uint32) ~USBFS_CR1_BUS_ACTIVITY;
 598:.\Generated_Source\PSoC5/USBFS.c **** 
 599:.\Generated_Source\PSoC5/USBFS.c ****     /* Clear EP0 count register. */
 600:.\Generated_Source\PSoC5/USBFS.c ****     USBFS_EP0_CNT_REG = USBFS_CLEAR_REG;
 601:.\Generated_Source\PSoC5/USBFS.c **** 
 602:.\Generated_Source\PSoC5/USBFS.c ****     /* Set EP0.CR: ACK Setup, NAK IN/OUT. */
 603:.\Generated_Source\PSoC5/USBFS.c ****     USBFS_EP0_CR_REG = USBFS_MODE_NAK_IN_OUT;
 604:.\Generated_Source\PSoC5/USBFS.c **** 
 605:.\Generated_Source\PSoC5/USBFS.c ****     #if (USBFS_LPM_ACTIVE)
 606:.\Generated_Source\PSoC5/USBFS.c ****         if (NULL != USBFS_GetBOSPtr())
 607:.\Generated_Source\PSoC5/USBFS.c ****         {
 608:.\Generated_Source\PSoC5/USBFS.c ****             /* Enable LPM and acknowledge LPM packets for active device.
 609:.\Generated_Source\PSoC5/USBFS.c ****             * Reset NYET_EN and SUB_RESP bits in the LPM_CTRL register.
 610:.\Generated_Source\PSoC5/USBFS.c ****             */
 611:.\Generated_Source\PSoC5/USBFS.c ****             USBFS_LPM_CTRL_REG = (USBFS_LPM_CTRL_LPM_EN | \
 612:.\Generated_Source\PSoC5/USBFS.c ****                                              USBFS_LPM_CTRL_LPM_ACK_RESP);
 613:.\Generated_Source\PSoC5/USBFS.c ****         }
ARM GAS  C:\Users\Patrick\AppData\Local\Temp\cc4CvmVx.s 			page 17


 614:.\Generated_Source\PSoC5/USBFS.c ****         else
 615:.\Generated_Source\PSoC5/USBFS.c ****         {
 616:.\Generated_Source\PSoC5/USBFS.c ****             /* Disable LPM for active device. */
 617:.\Generated_Source\PSoC5/USBFS.c ****             USBFS_LPM_CTRL_REG &= (uint32) ~USBFS_LPM_CTRL_LPM_EN;
 618:.\Generated_Source\PSoC5/USBFS.c ****         }
 619:.\Generated_Source\PSoC5/USBFS.c ****     #endif /* (USBFS_LPM_ACTIVE) */
 620:.\Generated_Source\PSoC5/USBFS.c **** 
 621:.\Generated_Source\PSoC5/USBFS.c ****     /* Enable device to responds to USB traffic with address 0. */
 622:.\Generated_Source\PSoC5/USBFS.c ****     USBFS_CR0_REG = USBFS_DEFUALT_CR0;
 623:.\Generated_Source\PSoC5/USBFS.c **** 
 624:.\Generated_Source\PSoC5/USBFS.c **** #else
 625:.\Generated_Source\PSoC5/USBFS.c ****     /* Set EP0.CR: ACK Setup, STALL IN/OUT. */
 626:.\Generated_Source\PSoC5/USBFS.c ****     USBFS_EP0_CR_REG = USBFS_MODE_STALL_IN_OUT;
 298              		.loc 1 626 0
 299 0076 0322     		movs	r2, #3
 300 0078 104B     		ldr	r3, .L14+44
 301 007a 1A70     		strb	r2, [r3]
 627:.\Generated_Source\PSoC5/USBFS.c **** 
 628:.\Generated_Source\PSoC5/USBFS.c ****     /* Enable device to respond to USB traffic with address 0. */
 629:.\Generated_Source\PSoC5/USBFS.c ****     USBFS_CR0_REG = USBFS_DEFUALT_CR0;
 302              		.loc 1 629 0
 303 007c 8022     		movs	r2, #128
 304 007e 203B     		subs	r3, r3, #32
 305 0080 1A70     		strb	r2, [r3]
 630:.\Generated_Source\PSoC5/USBFS.c ****     CyDelayCycles(USBFS_WAIT_CR0_REG_STABILITY);
 306              		.loc 1 630 0
 307 0082 0120     		movs	r0, #1
 308              	.LVL24:
 309 0084 FFF7FEFF 		bl	CyDelayCycles
 310              	.LVL25:
 631:.\Generated_Source\PSoC5/USBFS.c **** #endif /* (CY_PSOC4) */
 632:.\Generated_Source\PSoC5/USBFS.c **** 
 633:.\Generated_Source\PSoC5/USBFS.c ****     /* Enable D+ pull-up and keep USB control on IO. */
 634:.\Generated_Source\PSoC5/USBFS.c ****     USBFS_USBIO_CR1_REG = USBFS_USBIO_CR1_USBPUEN;
 311              		.loc 1 634 0
 312 0088 0422     		movs	r2, #4
 313 008a 0D4B     		ldr	r3, .L14+48
 314 008c 1A70     		strb	r2, [r3]
 315 008e 10BD     		pop	{r4, pc}
 316              	.L15:
 317              		.align	2
 318              	.L14:
 319 0090 00000000 		.word	USBFS_hidProtocol
 320 0094 00000000 		.word	USBFS_device
 321 0098 00000000 		.word	USBFS_transferState
 322 009c 00000000 		.word	USBFS_configurationChanged
 323 00a0 00000000 		.word	USBFS_configuration
 324 00a4 00000000 		.word	USBFS_interfaceNumber
 325 00a8 00000000 		.word	USBFS_deviceAddress
 326 00ac 00000000 		.word	USBFS_deviceStatus
 327 00b0 00000000 		.word	USBFS_lastPacketSize
 328 00b4 00E100E0 		.word	-536813312
 329 00b8 09600040 		.word	1073766409
 330 00bc 28600040 		.word	1073766440
 331 00c0 12600040 		.word	1073766418
 332              		.cfi_endproc
 333              	.LFE2:
ARM GAS  C:\Users\Patrick\AppData\Local\Temp\cc4CvmVx.s 			page 18


 334              		.size	USBFS_InitComponent, .-USBFS_InitComponent
 335              		.section	.text.USBFS_Start,"ax",%progbits
 336              		.align	2
 337              		.global	USBFS_Start
 338              		.thumb
 339              		.thumb_func
 340              		.type	USBFS_Start, %function
 341              	USBFS_Start:
 342              	.LFB0:
 186:.\Generated_Source\PSoC5/USBFS.c ****     if (0u == USBFS_initVar)
 343              		.loc 1 186 0
 344              		.cfi_startproc
 345              		@ args = 0, pretend = 0, frame = 0
 346              		@ frame_needed = 0, uses_anonymous_args = 0
 347              	.LVL26:
 348 0000 38B5     		push	{r3, r4, r5, lr}
 349              		.cfi_def_cfa_offset 16
 350              		.cfi_offset 3, -16
 351              		.cfi_offset 4, -12
 352              		.cfi_offset 5, -8
 353              		.cfi_offset 14, -4
 354 0002 0546     		mov	r5, r0
 355 0004 0C46     		mov	r4, r1
 187:.\Generated_Source\PSoC5/USBFS.c ****     {
 356              		.loc 1 187 0
 357 0006 064B     		ldr	r3, .L19
 358 0008 1B78     		ldrb	r3, [r3]	@ zero_extendqisi2
 359 000a 23B9     		cbnz	r3, .L17
 189:.\Generated_Source\PSoC5/USBFS.c ****         USBFS_initVar = 1u;
 360              		.loc 1 189 0
 361 000c FFF7FEFF 		bl	USBFS_Init
 362              	.LVL27:
 190:.\Generated_Source\PSoC5/USBFS.c ****     }
 363              		.loc 1 190 0
 364 0010 0122     		movs	r2, #1
 365 0012 034B     		ldr	r3, .L19
 366 0014 1A70     		strb	r2, [r3]
 367              	.L17:
 193:.\Generated_Source\PSoC5/USBFS.c **** }
 368              		.loc 1 193 0
 369 0016 2846     		mov	r0, r5
 370 0018 2146     		mov	r1, r4
 371 001a FFF7FEFF 		bl	USBFS_InitComponent
 372              	.LVL28:
 373 001e 38BD     		pop	{r3, r4, r5, pc}
 374              	.L20:
 375              		.align	2
 376              	.L19:
 377 0020 00000000 		.word	.LANCHOR0
 378              		.cfi_endproc
 379              	.LFE0:
 380              		.size	USBFS_Start, .-USBFS_Start
 381              		.section	.text.USBFS_ReInitComponent,"ax",%progbits
 382              		.align	2
 383              		.global	USBFS_ReInitComponent
 384              		.thumb
 385              		.thumb_func
ARM GAS  C:\Users\Patrick\AppData\Local\Temp\cc4CvmVx.s 			page 19


 386              		.type	USBFS_ReInitComponent, %function
 387              	USBFS_ReInitComponent:
 388              	.LFB3:
 635:.\Generated_Source\PSoC5/USBFS.c **** }
 636:.\Generated_Source\PSoC5/USBFS.c **** 
 637:.\Generated_Source\PSoC5/USBFS.c **** 
 638:.\Generated_Source\PSoC5/USBFS.c **** /*******************************************************************************
 639:.\Generated_Source\PSoC5/USBFS.c **** * Function Name: USBFS_ReInitComponent
 640:.\Generated_Source\PSoC5/USBFS.c **** ****************************************************************************//**
 641:.\Generated_Source\PSoC5/USBFS.c **** *
 642:.\Generated_Source\PSoC5/USBFS.c **** *  This function reinitialize the component configuration and is
 643:.\Generated_Source\PSoC5/USBFS.c **** *  intend to be called from the Reset interrupt.
 644:.\Generated_Source\PSoC5/USBFS.c **** *
 645:.\Generated_Source\PSoC5/USBFS.c **** * \globalvars
 646:.\Generated_Source\PSoC5/USBFS.c **** *   USBFS_device - Contains the device number of the desired Device
 647:.\Generated_Source\PSoC5/USBFS.c **** *        Descriptor. The device number can be found in the Device Descriptor tab
 648:.\Generated_Source\PSoC5/USBFS.c **** *       of the Configure dialog, under the settings of the desired Device Descriptor,
 649:.\Generated_Source\PSoC5/USBFS.c **** *       in the Device Number field.
 650:.\Generated_Source\PSoC5/USBFS.c **** *   USBFS_transferState - This variable is used by the communication
 651:.\Generated_Source\PSoC5/USBFS.c **** *       functions to handle the current transfer state. Initialized to
 652:.\Generated_Source\PSoC5/USBFS.c **** *       TRANS_STATE_IDLE in this API.
 653:.\Generated_Source\PSoC5/USBFS.c **** *   USBFS_configuration - Contains the current configuration number
 654:.\Generated_Source\PSoC5/USBFS.c **** *       set by the Host using a SET_CONFIGURATION request.
 655:.\Generated_Source\PSoC5/USBFS.c **** *       Initialized to zero in this API.
 656:.\Generated_Source\PSoC5/USBFS.c **** *   USBFS_deviceAddress - Contains the current device address. This
 657:.\Generated_Source\PSoC5/USBFS.c **** *       variable is initialized to zero in this API. The Host starts to communicate
 658:.\Generated_Source\PSoC5/USBFS.c **** *      to the device with address 0 and then sets it to a whatever value using
 659:.\Generated_Source\PSoC5/USBFS.c **** *      a SET_ADDRESS request.
 660:.\Generated_Source\PSoC5/USBFS.c **** *   USBFS_deviceStatus - Initialized to 0.
 661:.\Generated_Source\PSoC5/USBFS.c **** *       This is a two-bit variable which contains the power status in the first bit
 662:.\Generated_Source\PSoC5/USBFS.c **** *       (DEVICE_STATUS_BUS_POWERED or DEVICE_STATUS_SELF_POWERED) and the remote
 663:.\Generated_Source\PSoC5/USBFS.c **** *       wakeup status (DEVICE_STATUS_REMOTE_WAKEUP) in the second bit.
 664:.\Generated_Source\PSoC5/USBFS.c **** *   USBFS_lastPacketSize - Initialized to 0;
 665:.\Generated_Source\PSoC5/USBFS.c **** *
 666:.\Generated_Source\PSoC5/USBFS.c **** * \reentrant
 667:.\Generated_Source\PSoC5/USBFS.c **** *  No.
 668:.\Generated_Source\PSoC5/USBFS.c **** *
 669:.\Generated_Source\PSoC5/USBFS.c **** *******************************************************************************/
 670:.\Generated_Source\PSoC5/USBFS.c **** void USBFS_ReInitComponent(void) 
 671:.\Generated_Source\PSoC5/USBFS.c **** {
 389              		.loc 1 671 0
 390              		.cfi_startproc
 391              		@ args = 0, pretend = 0, frame = 0
 392              		@ frame_needed = 0, uses_anonymous_args = 0
 393              		@ link register save eliminated.
 394              	.LVL29:
 672:.\Generated_Source\PSoC5/USBFS.c ****     /* Initialize _hidProtocol variable to comply with HID 7.2.6 Set_Protocol
 673:.\Generated_Source\PSoC5/USBFS.c ****     *  Request: "When initialized, all devices default to report protocol."
 674:.\Generated_Source\PSoC5/USBFS.c ****     */
 675:.\Generated_Source\PSoC5/USBFS.c **** #if defined(USBFS_ENABLE_HID_CLASS)
 676:.\Generated_Source\PSoC5/USBFS.c ****     uint8 i;
 677:.\Generated_Source\PSoC5/USBFS.c **** 
 678:.\Generated_Source\PSoC5/USBFS.c ****     for (i = 0u; i < USBFS_MAX_INTERFACES_NUMBER; i++)
 395              		.loc 1 678 0
 396 0000 0023     		movs	r3, #0
 397 0002 04E0     		b	.L22
 398              	.LVL30:
ARM GAS  C:\Users\Patrick\AppData\Local\Temp\cc4CvmVx.s 			page 20


 399              	.L23:
 679:.\Generated_Source\PSoC5/USBFS.c ****     {
 680:.\Generated_Source\PSoC5/USBFS.c ****         USBFS_hidProtocol[i] = USBFS_PROTOCOL_REPORT;
 400              		.loc 1 680 0 discriminator 3
 401 0004 0121     		movs	r1, #1
 402 0006 0E4A     		ldr	r2, .L24
 403 0008 D154     		strb	r1, [r2, r3]
 678:.\Generated_Source\PSoC5/USBFS.c ****     {
 404              		.loc 1 678 0 discriminator 3
 405 000a 0B44     		add	r3, r3, r1
 406              	.LVL31:
 407 000c DBB2     		uxtb	r3, r3
 408              	.LVL32:
 409              	.L22:
 678:.\Generated_Source\PSoC5/USBFS.c ****     {
 410              		.loc 1 678 0 is_stmt 0 discriminator 1
 411 000e 002B     		cmp	r3, #0
 412 0010 F8D0     		beq	.L23
 681:.\Generated_Source\PSoC5/USBFS.c ****     }
 682:.\Generated_Source\PSoC5/USBFS.c **** #endif /* USBFS_ENABLE_HID_CLASS */
 683:.\Generated_Source\PSoC5/USBFS.c **** 
 684:.\Generated_Source\PSoC5/USBFS.c ****     /* Reset component internal variables. */
 685:.\Generated_Source\PSoC5/USBFS.c ****     USBFS_transferState   = USBFS_TRANS_STATE_IDLE;
 413              		.loc 1 685 0 is_stmt 1
 414 0012 0023     		movs	r3, #0
 415              	.LVL33:
 416 0014 0B4A     		ldr	r2, .L24+4
 417 0016 1370     		strb	r3, [r2]
 686:.\Generated_Source\PSoC5/USBFS.c ****     USBFS_configurationChanged = 0u;
 418              		.loc 1 686 0
 419 0018 0B4A     		ldr	r2, .L24+8
 420 001a 1370     		strb	r3, [r2]
 687:.\Generated_Source\PSoC5/USBFS.c ****     USBFS_configuration   = 0u;
 421              		.loc 1 687 0
 422 001c 0B4A     		ldr	r2, .L24+12
 423 001e 1370     		strb	r3, [r2]
 688:.\Generated_Source\PSoC5/USBFS.c ****     USBFS_interfaceNumber = 0u;
 424              		.loc 1 688 0
 425 0020 0B4A     		ldr	r2, .L24+16
 426 0022 1370     		strb	r3, [r2]
 689:.\Generated_Source\PSoC5/USBFS.c ****     USBFS_deviceAddress   = 0u;
 427              		.loc 1 689 0
 428 0024 0B4A     		ldr	r2, .L24+20
 429 0026 1370     		strb	r3, [r2]
 690:.\Generated_Source\PSoC5/USBFS.c ****     USBFS_deviceStatus    = 0u;
 430              		.loc 1 690 0
 431 0028 0B4A     		ldr	r2, .L24+24
 432 002a 1370     		strb	r3, [r2]
 691:.\Generated_Source\PSoC5/USBFS.c ****     USBFS_lastPacketSize  = 0u;
 433              		.loc 1 691 0
 434 002c 0B4A     		ldr	r2, .L24+28
 435 002e 1370     		strb	r3, [r2]
 692:.\Generated_Source\PSoC5/USBFS.c **** 
 693:.\Generated_Source\PSoC5/USBFS.c **** #if (CY_PSOC4)
 694:.\Generated_Source\PSoC5/USBFS.c ****     /* Set EP0.CR: ACK Setup, NAK IN/OUT. */
 695:.\Generated_Source\PSoC5/USBFS.c ****     USBFS_EP0_CR_REG = USBFS_MODE_NAK_IN_OUT;
 696:.\Generated_Source\PSoC5/USBFS.c **** #else
ARM GAS  C:\Users\Patrick\AppData\Local\Temp\cc4CvmVx.s 			page 21


 697:.\Generated_Source\PSoC5/USBFS.c ****     /* Set EP0.CR: ACK Setup, STALL IN/OUT. */
 698:.\Generated_Source\PSoC5/USBFS.c ****     USBFS_EP0_CR_REG = USBFS_MODE_STALL_IN_OUT;
 436              		.loc 1 698 0
 437 0030 0322     		movs	r2, #3
 438 0032 0B4B     		ldr	r3, .L24+32
 439 0034 1A70     		strb	r2, [r3]
 699:.\Generated_Source\PSoC5/USBFS.c **** #endif /* (CY_PSOC4) */
 700:.\Generated_Source\PSoC5/USBFS.c **** 
 701:.\Generated_Source\PSoC5/USBFS.c ****     /* Enable device to respond to USB traffic with address 0. */
 702:.\Generated_Source\PSoC5/USBFS.c ****     USBFS_CR0_REG = USBFS_DEFUALT_CR0;
 440              		.loc 1 702 0
 441 0036 8022     		movs	r2, #128
 442 0038 203B     		subs	r3, r3, #32
 443 003a 1A70     		strb	r2, [r3]
 444 003c 7047     		bx	lr
 445              	.L25:
 446 003e 00BF     		.align	2
 447              	.L24:
 448 0040 00000000 		.word	USBFS_hidProtocol
 449 0044 00000000 		.word	USBFS_transferState
 450 0048 00000000 		.word	USBFS_configurationChanged
 451 004c 00000000 		.word	USBFS_configuration
 452 0050 00000000 		.word	USBFS_interfaceNumber
 453 0054 00000000 		.word	USBFS_deviceAddress
 454 0058 00000000 		.word	USBFS_deviceStatus
 455 005c 00000000 		.word	USBFS_lastPacketSize
 456 0060 28600040 		.word	1073766440
 457              		.cfi_endproc
 458              	.LFE3:
 459              		.size	USBFS_ReInitComponent, .-USBFS_ReInitComponent
 460              		.section	.text.USBFS_Stop,"ax",%progbits
 461              		.align	2
 462              		.global	USBFS_Stop
 463              		.thumb
 464              		.thumb_func
 465              		.type	USBFS_Stop, %function
 466              	USBFS_Stop:
 467              	.LFB4:
 703:.\Generated_Source\PSoC5/USBFS.c **** }
 704:.\Generated_Source\PSoC5/USBFS.c **** 
 705:.\Generated_Source\PSoC5/USBFS.c **** 
 706:.\Generated_Source\PSoC5/USBFS.c **** /*******************************************************************************
 707:.\Generated_Source\PSoC5/USBFS.c **** * Function Name: USBFS_Stop
 708:.\Generated_Source\PSoC5/USBFS.c **** ****************************************************************************//**
 709:.\Generated_Source\PSoC5/USBFS.c **** *
 710:.\Generated_Source\PSoC5/USBFS.c **** *  This function shuts down the USB function including to release
 711:.\Generated_Source\PSoC5/USBFS.c **** *  the D+ pull-up and disabling the SIE.
 712:.\Generated_Source\PSoC5/USBFS.c **** *
 713:.\Generated_Source\PSoC5/USBFS.c **** * \globalvars
 714:.\Generated_Source\PSoC5/USBFS.c **** *   \ref USBFS_configuration
 715:.\Generated_Source\PSoC5/USBFS.c **** *
 716:.\Generated_Source\PSoC5/USBFS.c **** *   USBFS_deviceAddress - Contains the current device address. This
 717:.\Generated_Source\PSoC5/USBFS.c **** *       variable is initialized to zero in this API. The Host starts to communicate
 718:.\Generated_Source\PSoC5/USBFS.c **** *      to the device with address 0 and then sets it to a whatever value using
 719:.\Generated_Source\PSoC5/USBFS.c **** *      a SET_ADDRESS request.
 720:.\Generated_Source\PSoC5/USBFS.c **** *
 721:.\Generated_Source\PSoC5/USBFS.c **** *   \ref USBFS_deviceStatus
ARM GAS  C:\Users\Patrick\AppData\Local\Temp\cc4CvmVx.s 			page 22


 722:.\Generated_Source\PSoC5/USBFS.c **** *
 723:.\Generated_Source\PSoC5/USBFS.c **** *   \ref USBFS_configurationChanged
 724:.\Generated_Source\PSoC5/USBFS.c **** *
 725:.\Generated_Source\PSoC5/USBFS.c **** *   USBFS_intiVar -  This variable is set to zero
 726:.\Generated_Source\PSoC5/USBFS.c **** *
 727:.\Generated_Source\PSoC5/USBFS.c **** *******************************************************************************/
 728:.\Generated_Source\PSoC5/USBFS.c **** void USBFS_Stop(void) 
 729:.\Generated_Source\PSoC5/USBFS.c **** {
 468              		.loc 1 729 0
 469              		.cfi_startproc
 470              		@ args = 0, pretend = 0, frame = 0
 471              		@ frame_needed = 0, uses_anonymous_args = 0
 472 0000 08B5     		push	{r3, lr}
 473              		.cfi_def_cfa_offset 8
 474              		.cfi_offset 3, -8
 475              		.cfi_offset 14, -4
 730:.\Generated_Source\PSoC5/USBFS.c ****     uint8 enableInterrupts;
 731:.\Generated_Source\PSoC5/USBFS.c **** 
 732:.\Generated_Source\PSoC5/USBFS.c **** #if (USBFS_EP_MANAGEMENT_DMA)
 733:.\Generated_Source\PSoC5/USBFS.c ****     /* Stop all DMA channels. */
 734:.\Generated_Source\PSoC5/USBFS.c ****     USBFS_Stop_DMA(USBFS_MAX_EP);
 735:.\Generated_Source\PSoC5/USBFS.c **** #endif /* (USBFS_EP_MANAGEMENT_DMA) */
 736:.\Generated_Source\PSoC5/USBFS.c **** 
 737:.\Generated_Source\PSoC5/USBFS.c ****     enableInterrupts = CyEnterCriticalSection();
 476              		.loc 1 737 0
 477 0002 FFF7FEFF 		bl	CyEnterCriticalSection
 478              	.LVL34:
 738:.\Generated_Source\PSoC5/USBFS.c **** 
 739:.\Generated_Source\PSoC5/USBFS.c ****     /* Disable USB IP to respond to USB traffic. */
 740:.\Generated_Source\PSoC5/USBFS.c ****     USBFS_CR0_REG &= (uint8) ~USBFS_CR0_ENABLE;
 479              		.loc 1 740 0
 480 0006 184A     		ldr	r2, .L28
 481 0008 1378     		ldrb	r3, [r2]	@ zero_extendqisi2
 482 000a 03F07F03 		and	r3, r3, #127
 483 000e 1370     		strb	r3, [r2]
 741:.\Generated_Source\PSoC5/USBFS.c **** 
 742:.\Generated_Source\PSoC5/USBFS.c ****     /* Disable D+ pull-up. */
 743:.\Generated_Source\PSoC5/USBFS.c ****     USBFS_USBIO_CR1_REG &= (uint8) ~ USBFS_USBIO_CR1_USBPUEN;
 484              		.loc 1 743 0
 485 0010 0A32     		adds	r2, r2, #10
 486 0012 1378     		ldrb	r3, [r2]	@ zero_extendqisi2
 487 0014 03F0FB03 		and	r3, r3, #251
 488 0018 1370     		strb	r3, [r2]
 744:.\Generated_Source\PSoC5/USBFS.c **** 
 745:.\Generated_Source\PSoC5/USBFS.c **** #if (CY_PSOC4)
 746:.\Generated_Source\PSoC5/USBFS.c ****     /* Disable USBFS block. */
 747:.\Generated_Source\PSoC5/USBFS.c ****     USBFS_POWER_CTRL_REG &= (uint32) ~USBFS_POWER_CTRL_ENABLE;
 748:.\Generated_Source\PSoC5/USBFS.c **** #else
 749:.\Generated_Source\PSoC5/USBFS.c ****     /* Clear power active and standby mode templates. */
 750:.\Generated_Source\PSoC5/USBFS.c ****     USBFS_PM_ACT_CFG_REG  &= (uint8) ~USBFS_PM_ACT_EN_FSUSB;
 489              		.loc 1 750 0
 490 001a A2F5E352 		sub	r2, r2, #7264
 491 001e 0D3A     		subs	r2, r2, #13
 492 0020 1378     		ldrb	r3, [r2]	@ zero_extendqisi2
 493 0022 03F0FE03 		and	r3, r3, #254
 494 0026 1370     		strb	r3, [r2]
 751:.\Generated_Source\PSoC5/USBFS.c ****     USBFS_PM_STBY_CFG_REG &= (uint8) ~USBFS_PM_STBY_EN_FSUSB;
ARM GAS  C:\Users\Patrick\AppData\Local\Temp\cc4CvmVx.s 			page 23


 495              		.loc 1 751 0
 496 0028 1032     		adds	r2, r2, #16
 497 002a 1378     		ldrb	r3, [r2]	@ zero_extendqisi2
 498 002c 03F0FE03 		and	r3, r3, #254
 499 0030 1370     		strb	r3, [r2]
 752:.\Generated_Source\PSoC5/USBFS.c **** #endif /* (CY_PSOC4) */
 753:.\Generated_Source\PSoC5/USBFS.c **** 
 754:.\Generated_Source\PSoC5/USBFS.c ****     CyExitCriticalSection(enableInterrupts);
 500              		.loc 1 754 0
 501 0032 FFF7FEFF 		bl	CyExitCriticalSection
 502              	.LVL35:
 755:.\Generated_Source\PSoC5/USBFS.c **** 
 756:.\Generated_Source\PSoC5/USBFS.c ****     /* Disable component interrupts. */
 757:.\Generated_Source\PSoC5/USBFS.c **** #if (CY_PSOC4)
 758:.\Generated_Source\PSoC5/USBFS.c ****     CyIntDisable(USBFS_INTR_HI_VECT_NUM);
 759:.\Generated_Source\PSoC5/USBFS.c ****     CyIntDisable(USBFS_INTR_LO_VECT_NUM);
 760:.\Generated_Source\PSoC5/USBFS.c ****     CyIntDisable(USBFS_INTR_MED_VECT_NUM);
 761:.\Generated_Source\PSoC5/USBFS.c **** #else
 762:.\Generated_Source\PSoC5/USBFS.c **** 
 763:.\Generated_Source\PSoC5/USBFS.c ****     CyIntDisable(USBFS_BUS_RESET_VECT_NUM);
 503              		.loc 1 763 0
 504 0036 0D4B     		ldr	r3, .L28+4
 505 0038 4FF40002 		mov	r2, #8388608
 506 003c 1A60     		str	r2, [r3]
 764:.\Generated_Source\PSoC5/USBFS.c ****     CyIntDisable(USBFS_EP_0_VECT_NUM);
 507              		.loc 1 764 0
 508 003e 4FF08072 		mov	r2, #16777216
 509 0042 1A60     		str	r2, [r3]
 765:.\Generated_Source\PSoC5/USBFS.c **** 
 766:.\Generated_Source\PSoC5/USBFS.c ****     #if (USBFS_SOF_ISR_ACTIVE)
 767:.\Generated_Source\PSoC5/USBFS.c ****         CyIntDisable(USBFS_SOF_VECT_NUM);
 768:.\Generated_Source\PSoC5/USBFS.c ****     #endif /* (USBFS_SOF_ISR_ACTIVE) */
 769:.\Generated_Source\PSoC5/USBFS.c **** 
 770:.\Generated_Source\PSoC5/USBFS.c ****     #if (USBFS_EP1_ISR_ACTIVE)
 771:.\Generated_Source\PSoC5/USBFS.c ****         CyIntDisable(USBFS_EP_1_VECT_NUM);
 510              		.loc 1 771 0
 511 0044 0122     		movs	r2, #1
 512 0046 1A60     		str	r2, [r3]
 772:.\Generated_Source\PSoC5/USBFS.c ****     #endif /* (USBFS_EP1_ISR_ACTIVE) */
 773:.\Generated_Source\PSoC5/USBFS.c **** 
 774:.\Generated_Source\PSoC5/USBFS.c ****     #if (USBFS_EP2_ISR_ACTIVE)
 775:.\Generated_Source\PSoC5/USBFS.c ****         CyIntDisable(USBFS_EP_2_VECT_NUM);
 513              		.loc 1 775 0
 514 0048 0222     		movs	r2, #2
 515 004a 1A60     		str	r2, [r3]
 776:.\Generated_Source\PSoC5/USBFS.c ****     #endif /* (USBFS_EP2_ISR_ACTIVE) */
 777:.\Generated_Source\PSoC5/USBFS.c **** 
 778:.\Generated_Source\PSoC5/USBFS.c ****     #if (USBFS_EP3_ISR_ACTIVE)
 779:.\Generated_Source\PSoC5/USBFS.c ****         CyIntDisable(USBFS_EP_3_VECT_NUM);
 780:.\Generated_Source\PSoC5/USBFS.c ****     #endif /* (USBFS_EP3_ISR_ACTIVE) */
 781:.\Generated_Source\PSoC5/USBFS.c **** 
 782:.\Generated_Source\PSoC5/USBFS.c ****     #if (USBFS_EP4_ISR_ACTIVE)
 783:.\Generated_Source\PSoC5/USBFS.c ****         CyIntDisable(USBFS_EP_4_VECT_NUM);
 784:.\Generated_Source\PSoC5/USBFS.c ****     #endif /* (USBFS_EP4_ISR_ACTIVE) */
 785:.\Generated_Source\PSoC5/USBFS.c **** 
 786:.\Generated_Source\PSoC5/USBFS.c ****     #if (USBFS_EP5_ISR_ACTIVE)
 787:.\Generated_Source\PSoC5/USBFS.c ****         CyIntDisable(USBFS_EP_5_VECT_NUM);
ARM GAS  C:\Users\Patrick\AppData\Local\Temp\cc4CvmVx.s 			page 24


 788:.\Generated_Source\PSoC5/USBFS.c ****     #endif /* (USBFS_EP5_ISR_ACTIVE) */
 789:.\Generated_Source\PSoC5/USBFS.c **** 
 790:.\Generated_Source\PSoC5/USBFS.c ****     #if (USBFS_EP6_ISR_ACTIVE)
 791:.\Generated_Source\PSoC5/USBFS.c ****         CyIntDisable(USBFS_EP_6_VECT_NUM);
 792:.\Generated_Source\PSoC5/USBFS.c ****     #endif /* USBFS_EP6_ISR_REMOVE */
 793:.\Generated_Source\PSoC5/USBFS.c **** 
 794:.\Generated_Source\PSoC5/USBFS.c ****     #if (USBFS_EP7_ISR_ACTIVE)
 795:.\Generated_Source\PSoC5/USBFS.c ****         CyIntDisable(USBFS_EP_7_VECT_NUM);
 796:.\Generated_Source\PSoC5/USBFS.c ****     #endif /* (USBFS_EP7_ISR_ACTIVE) */
 797:.\Generated_Source\PSoC5/USBFS.c **** 
 798:.\Generated_Source\PSoC5/USBFS.c ****     #if (USBFS_EP8_ISR_ACTIVE)
 799:.\Generated_Source\PSoC5/USBFS.c ****         CyIntDisable(USBFS_EP_8_VECT_NUM);
 800:.\Generated_Source\PSoC5/USBFS.c ****     #endif /* (USBFS_EP8_ISR_ACTIVE) */
 801:.\Generated_Source\PSoC5/USBFS.c **** #endif /* (CY_PSOC4) */
 802:.\Generated_Source\PSoC5/USBFS.c **** 
 803:.\Generated_Source\PSoC5/USBFS.c ****     /* Reset component internal variables. */
 804:.\Generated_Source\PSoC5/USBFS.c ****     USBFS_configurationChanged = 0u;
 516              		.loc 1 804 0
 517 004c 0023     		movs	r3, #0
 518 004e 084A     		ldr	r2, .L28+8
 519 0050 1370     		strb	r3, [r2]
 805:.\Generated_Source\PSoC5/USBFS.c ****     USBFS_configuration   = 0u;
 520              		.loc 1 805 0
 521 0052 084A     		ldr	r2, .L28+12
 522 0054 1370     		strb	r3, [r2]
 806:.\Generated_Source\PSoC5/USBFS.c ****     USBFS_interfaceNumber = 0u;
 523              		.loc 1 806 0
 524 0056 084A     		ldr	r2, .L28+16
 525 0058 1370     		strb	r3, [r2]
 807:.\Generated_Source\PSoC5/USBFS.c ****     USBFS_deviceAddress   = 0u;
 526              		.loc 1 807 0
 527 005a 084A     		ldr	r2, .L28+20
 528 005c 1370     		strb	r3, [r2]
 808:.\Generated_Source\PSoC5/USBFS.c ****     USBFS_deviceStatus    = 0u;
 529              		.loc 1 808 0
 530 005e 084A     		ldr	r2, .L28+24
 531 0060 1370     		strb	r3, [r2]
 809:.\Generated_Source\PSoC5/USBFS.c **** 
 810:.\Generated_Source\PSoC5/USBFS.c ****     /* It is mandatory for correct device startup. */
 811:.\Generated_Source\PSoC5/USBFS.c ****     USBFS_initVar = 0u;
 532              		.loc 1 811 0
 533 0062 084A     		ldr	r2, .L28+28
 534 0064 1370     		strb	r3, [r2]
 535 0066 08BD     		pop	{r3, pc}
 536              	.L29:
 537              		.align	2
 538              	.L28:
 539 0068 08600040 		.word	1073766408
 540 006c 80E100E0 		.word	-536813184
 541 0070 00000000 		.word	USBFS_configurationChanged
 542 0074 00000000 		.word	USBFS_configuration
 543 0078 00000000 		.word	USBFS_interfaceNumber
 544 007c 00000000 		.word	USBFS_deviceAddress
 545 0080 00000000 		.word	USBFS_deviceStatus
 546 0084 00000000 		.word	.LANCHOR0
 547              		.cfi_endproc
 548              	.LFE4:
ARM GAS  C:\Users\Patrick\AppData\Local\Temp\cc4CvmVx.s 			page 25


 549              		.size	USBFS_Stop, .-USBFS_Stop
 550              		.section	.text.USBFS_CheckActivity,"ax",%progbits
 551              		.align	2
 552              		.global	USBFS_CheckActivity
 553              		.thumb
 554              		.thumb_func
 555              		.type	USBFS_CheckActivity, %function
 556              	USBFS_CheckActivity:
 557              	.LFB5:
 812:.\Generated_Source\PSoC5/USBFS.c **** }
 813:.\Generated_Source\PSoC5/USBFS.c **** 
 814:.\Generated_Source\PSoC5/USBFS.c **** 
 815:.\Generated_Source\PSoC5/USBFS.c **** /*******************************************************************************
 816:.\Generated_Source\PSoC5/USBFS.c **** * Function Name: USBFS_CheckActivity
 817:.\Generated_Source\PSoC5/USBFS.c **** ****************************************************************************//**
 818:.\Generated_Source\PSoC5/USBFS.c **** *
 819:.\Generated_Source\PSoC5/USBFS.c **** *  This function returns the activity status of the bus. It clears the hardware
 820:.\Generated_Source\PSoC5/USBFS.c **** *  status to provide updated status on the next call of this function. It
 821:.\Generated_Source\PSoC5/USBFS.c **** *  provides a way to determine whether any USB bus activity occurred. The
 822:.\Generated_Source\PSoC5/USBFS.c **** *  application should use this function to determine if the USB suspend
 823:.\Generated_Source\PSoC5/USBFS.c **** *  conditions are met.
 824:.\Generated_Source\PSoC5/USBFS.c **** *
 825:.\Generated_Source\PSoC5/USBFS.c **** *
 826:.\Generated_Source\PSoC5/USBFS.c **** * \return
 827:.\Generated_Source\PSoC5/USBFS.c **** *  cystatus: Status of the bus since the last call of the function.
 828:.\Generated_Source\PSoC5/USBFS.c **** *  Return Value |   Description
 829:.\Generated_Source\PSoC5/USBFS.c **** *  -------------|---------------------------------------------------------------
 830:.\Generated_Source\PSoC5/USBFS.c **** *  1            |Bus activity was detected since the last call to this function
 831:.\Generated_Source\PSoC5/USBFS.c **** *  0            |Bus activity was not detected since the last call to this function
 832:.\Generated_Source\PSoC5/USBFS.c **** *
 833:.\Generated_Source\PSoC5/USBFS.c **** *
 834:.\Generated_Source\PSoC5/USBFS.c **** *******************************************************************************/
 835:.\Generated_Source\PSoC5/USBFS.c **** uint8 USBFS_CheckActivity(void) 
 836:.\Generated_Source\PSoC5/USBFS.c **** {
 558              		.loc 1 836 0
 559              		.cfi_startproc
 560              		@ args = 0, pretend = 0, frame = 0
 561              		@ frame_needed = 0, uses_anonymous_args = 0
 562              		@ link register save eliminated.
 837:.\Generated_Source\PSoC5/USBFS.c ****     uint8 cr1Reg = USBFS_CR1_REG;
 563              		.loc 1 837 0
 564 0000 064A     		ldr	r2, .L32
 565 0002 1378     		ldrb	r3, [r2]	@ zero_extendqisi2
 566 0004 DBB2     		uxtb	r3, r3
 567              	.LVL36:
 838:.\Generated_Source\PSoC5/USBFS.c **** 
 839:.\Generated_Source\PSoC5/USBFS.c ****     /* Clear bus activity. */
 840:.\Generated_Source\PSoC5/USBFS.c ****     USBFS_CR1_REG = (cr1Reg & (uint8) ~USBFS_CR1_BUS_ACTIVITY);
 568              		.loc 1 840 0
 569 0006 03F0FB01 		and	r1, r3, #251
 570 000a 1170     		strb	r1, [r2]
 841:.\Generated_Source\PSoC5/USBFS.c **** 
 842:.\Generated_Source\PSoC5/USBFS.c ****     /* Get bus activity. */
 843:.\Generated_Source\PSoC5/USBFS.c ****     return ((0u != (cr1Reg & USBFS_CR1_BUS_ACTIVITY)) ? (1u) : (0u));
 571              		.loc 1 843 0
 572 000c 03F00403 		and	r3, r3, #4
 573              	.LVL37:
ARM GAS  C:\Users\Patrick\AppData\Local\Temp\cc4CvmVx.s 			page 26


 574 0010 03F0FF00 		and	r0, r3, #255
 575 0014 03B1     		cbz	r3, .L31
 576 0016 0120     		movs	r0, #1
 577              	.L31:
 844:.\Generated_Source\PSoC5/USBFS.c **** }
 578              		.loc 1 844 0 discriminator 4
 579 0018 7047     		bx	lr
 580              	.L33:
 581 001a 00BF     		.align	2
 582              	.L32:
 583 001c 09600040 		.word	1073766409
 584              		.cfi_endproc
 585              	.LFE5:
 586              		.size	USBFS_CheckActivity, .-USBFS_CheckActivity
 587              		.section	.text.USBFS_GetConfiguration,"ax",%progbits
 588              		.align	2
 589              		.global	USBFS_GetConfiguration
 590              		.thumb
 591              		.thumb_func
 592              		.type	USBFS_GetConfiguration, %function
 593              	USBFS_GetConfiguration:
 594              	.LFB6:
 845:.\Generated_Source\PSoC5/USBFS.c **** 
 846:.\Generated_Source\PSoC5/USBFS.c **** 
 847:.\Generated_Source\PSoC5/USBFS.c **** /*******************************************************************************
 848:.\Generated_Source\PSoC5/USBFS.c **** * Function Name: USBFS_GetConfiguration
 849:.\Generated_Source\PSoC5/USBFS.c **** ****************************************************************************//**
 850:.\Generated_Source\PSoC5/USBFS.c **** *
 851:.\Generated_Source\PSoC5/USBFS.c **** *  This function gets the current configuration of the USB device.
 852:.\Generated_Source\PSoC5/USBFS.c **** *
 853:.\Generated_Source\PSoC5/USBFS.c **** * \return
 854:.\Generated_Source\PSoC5/USBFS.c **** *  Returns the currently assigned configuration. Returns 0 if the device
 855:.\Generated_Source\PSoC5/USBFS.c **** *  is not configured
 856:.\Generated_Source\PSoC5/USBFS.c **** *
 857:.\Generated_Source\PSoC5/USBFS.c **** *******************************************************************************/
 858:.\Generated_Source\PSoC5/USBFS.c **** uint8 USBFS_GetConfiguration(void) 
 859:.\Generated_Source\PSoC5/USBFS.c **** {
 595              		.loc 1 859 0
 596              		.cfi_startproc
 597              		@ args = 0, pretend = 0, frame = 0
 598              		@ frame_needed = 0, uses_anonymous_args = 0
 599              		@ link register save eliminated.
 860:.\Generated_Source\PSoC5/USBFS.c ****     return (USBFS_configuration);
 600              		.loc 1 860 0
 601 0000 014B     		ldr	r3, .L35
 602 0002 1878     		ldrb	r0, [r3]	@ zero_extendqisi2
 861:.\Generated_Source\PSoC5/USBFS.c **** }
 603              		.loc 1 861 0
 604 0004 7047     		bx	lr
 605              	.L36:
 606 0006 00BF     		.align	2
 607              	.L35:
 608 0008 00000000 		.word	USBFS_configuration
 609              		.cfi_endproc
 610              	.LFE6:
 611              		.size	USBFS_GetConfiguration, .-USBFS_GetConfiguration
 612              		.section	.text.USBFS_IsConfigurationChanged,"ax",%progbits
ARM GAS  C:\Users\Patrick\AppData\Local\Temp\cc4CvmVx.s 			page 27


 613              		.align	2
 614              		.global	USBFS_IsConfigurationChanged
 615              		.thumb
 616              		.thumb_func
 617              		.type	USBFS_IsConfigurationChanged, %function
 618              	USBFS_IsConfigurationChanged:
 619              	.LFB7:
 862:.\Generated_Source\PSoC5/USBFS.c **** 
 863:.\Generated_Source\PSoC5/USBFS.c **** 
 864:.\Generated_Source\PSoC5/USBFS.c **** /*******************************************************************************
 865:.\Generated_Source\PSoC5/USBFS.c **** * Function Name: USBFS_IsConfigurationChanged
 866:.\Generated_Source\PSoC5/USBFS.c **** ****************************************************************************//**
 867:.\Generated_Source\PSoC5/USBFS.c **** *
 868:.\Generated_Source\PSoC5/USBFS.c **** *  This function returns the clear-on-read configuration state.  It is useful
 869:.\Generated_Source\PSoC5/USBFS.c **** *  when the host sends double SET_CONFIGURATION request with the same 
 870:.\Generated_Source\PSoC5/USBFS.c **** *  configuration number or changes alternate settings of the interface. 
 871:.\Generated_Source\PSoC5/USBFS.c **** *  After configuration has been changed the OUT endpoints must be enabled and IN 
 872:.\Generated_Source\PSoC5/USBFS.c **** *  endpoint must be loaded with data to start communication with the host.
 873:.\Generated_Source\PSoC5/USBFS.c **** *
 874:.\Generated_Source\PSoC5/USBFS.c **** * \return
 875:.\Generated_Source\PSoC5/USBFS.c **** *  None-zero value when new configuration has been changed, otherwise zero is
 876:.\Generated_Source\PSoC5/USBFS.c **** *  returned.
 877:.\Generated_Source\PSoC5/USBFS.c **** *
 878:.\Generated_Source\PSoC5/USBFS.c **** * \globalvars
 879:.\Generated_Source\PSoC5/USBFS.c **** *
 880:.\Generated_Source\PSoC5/USBFS.c **** *  \ref USBFS_configurationChanged - This variable is set to 1 after
 881:.\Generated_Source\PSoC5/USBFS.c **** *   a SET_CONFIGURATION request and cleared in this function.
 882:.\Generated_Source\PSoC5/USBFS.c **** *
 883:.\Generated_Source\PSoC5/USBFS.c **** *******************************************************************************/
 884:.\Generated_Source\PSoC5/USBFS.c **** uint8 USBFS_IsConfigurationChanged(void) 
 885:.\Generated_Source\PSoC5/USBFS.c **** {
 620              		.loc 1 885 0
 621              		.cfi_startproc
 622              		@ args = 0, pretend = 0, frame = 0
 623              		@ frame_needed = 0, uses_anonymous_args = 0
 624              		@ link register save eliminated.
 625              	.LVL38:
 886:.\Generated_Source\PSoC5/USBFS.c ****     uint8 res = 0u;
 887:.\Generated_Source\PSoC5/USBFS.c **** 
 888:.\Generated_Source\PSoC5/USBFS.c ****     if (USBFS_configurationChanged != 0u)
 626              		.loc 1 888 0
 627 0000 064B     		ldr	r3, .L40
 628 0002 1B78     		ldrb	r3, [r3]	@ zero_extendqisi2
 629 0004 13F0FF0F 		tst	r3, #255
 630 0008 05D0     		beq	.L39
 889:.\Generated_Source\PSoC5/USBFS.c ****     {
 890:.\Generated_Source\PSoC5/USBFS.c ****         res = USBFS_configurationChanged;
 631              		.loc 1 890 0
 632 000a 044B     		ldr	r3, .L40
 633 000c 1878     		ldrb	r0, [r3]	@ zero_extendqisi2
 634 000e C0B2     		uxtb	r0, r0
 635              	.LVL39:
 891:.\Generated_Source\PSoC5/USBFS.c ****         USBFS_configurationChanged = 0u;
 636              		.loc 1 891 0
 637 0010 0022     		movs	r2, #0
 638 0012 1A70     		strb	r2, [r3]
 639 0014 7047     		bx	lr
ARM GAS  C:\Users\Patrick\AppData\Local\Temp\cc4CvmVx.s 			page 28


 640              	.LVL40:
 641              	.L39:
 886:.\Generated_Source\PSoC5/USBFS.c ****     uint8 res = 0u;
 642              		.loc 1 886 0
 643 0016 0020     		movs	r0, #0
 644              	.LVL41:
 892:.\Generated_Source\PSoC5/USBFS.c ****     }
 893:.\Generated_Source\PSoC5/USBFS.c **** 
 894:.\Generated_Source\PSoC5/USBFS.c ****     return (res);
 895:.\Generated_Source\PSoC5/USBFS.c **** }
 645              		.loc 1 895 0
 646 0018 7047     		bx	lr
 647              	.L41:
 648 001a 00BF     		.align	2
 649              	.L40:
 650 001c 00000000 		.word	USBFS_configurationChanged
 651              		.cfi_endproc
 652              	.LFE7:
 653              		.size	USBFS_IsConfigurationChanged, .-USBFS_IsConfigurationChanged
 654              		.section	.text.USBFS_GetInterfaceSetting,"ax",%progbits
 655              		.align	2
 656              		.global	USBFS_GetInterfaceSetting
 657              		.thumb
 658              		.thumb_func
 659              		.type	USBFS_GetInterfaceSetting, %function
 660              	USBFS_GetInterfaceSetting:
 661              	.LFB8:
 896:.\Generated_Source\PSoC5/USBFS.c **** 
 897:.\Generated_Source\PSoC5/USBFS.c **** 
 898:.\Generated_Source\PSoC5/USBFS.c **** /*******************************************************************************
 899:.\Generated_Source\PSoC5/USBFS.c **** * Function Name: USBFS_GetInterfaceSetting
 900:.\Generated_Source\PSoC5/USBFS.c **** ****************************************************************************//**
 901:.\Generated_Source\PSoC5/USBFS.c **** *
 902:.\Generated_Source\PSoC5/USBFS.c **** *  This function gets the current alternate setting for the specified interface.
 903:.\Generated_Source\PSoC5/USBFS.c **** *  It is useful to identify which alternate settings are active in the specified 
 904:.\Generated_Source\PSoC5/USBFS.c **** *  interface.
 905:.\Generated_Source\PSoC5/USBFS.c **** *
 906:.\Generated_Source\PSoC5/USBFS.c **** *  \param
 907:.\Generated_Source\PSoC5/USBFS.c **** *  interfaceNumber interface number
 908:.\Generated_Source\PSoC5/USBFS.c **** *
 909:.\Generated_Source\PSoC5/USBFS.c **** * \return
 910:.\Generated_Source\PSoC5/USBFS.c **** *  Returns the current alternate setting for the specified interface.
 911:.\Generated_Source\PSoC5/USBFS.c **** *
 912:.\Generated_Source\PSoC5/USBFS.c **** *******************************************************************************/
 913:.\Generated_Source\PSoC5/USBFS.c **** uint8  USBFS_GetInterfaceSetting(uint8 interfaceNumber)
 914:.\Generated_Source\PSoC5/USBFS.c ****                                                     
 915:.\Generated_Source\PSoC5/USBFS.c **** {
 662              		.loc 1 915 0
 663              		.cfi_startproc
 664              		@ args = 0, pretend = 0, frame = 0
 665              		@ frame_needed = 0, uses_anonymous_args = 0
 666              		@ link register save eliminated.
 667              	.LVL42:
 916:.\Generated_Source\PSoC5/USBFS.c ****     return (USBFS_interfaceSetting[interfaceNumber]);
 668              		.loc 1 916 0
 669 0000 014B     		ldr	r3, .L43
 670 0002 185C     		ldrb	r0, [r3, r0]	@ zero_extendqisi2
ARM GAS  C:\Users\Patrick\AppData\Local\Temp\cc4CvmVx.s 			page 29


 671              	.LVL43:
 917:.\Generated_Source\PSoC5/USBFS.c **** }
 672              		.loc 1 917 0
 673 0004 7047     		bx	lr
 674              	.L44:
 675 0006 00BF     		.align	2
 676              	.L43:
 677 0008 00000000 		.word	USBFS_interfaceSetting
 678              		.cfi_endproc
 679              	.LFE8:
 680              		.size	USBFS_GetInterfaceSetting, .-USBFS_GetInterfaceSetting
 681              		.section	.text.USBFS_GetEPState,"ax",%progbits
 682              		.align	2
 683              		.global	USBFS_GetEPState
 684              		.thumb
 685              		.thumb_func
 686              		.type	USBFS_GetEPState, %function
 687              	USBFS_GetEPState:
 688              	.LFB9:
 918:.\Generated_Source\PSoC5/USBFS.c **** 
 919:.\Generated_Source\PSoC5/USBFS.c **** 
 920:.\Generated_Source\PSoC5/USBFS.c **** /*******************************************************************************
 921:.\Generated_Source\PSoC5/USBFS.c **** * Function Name: USBFS_GetEPState
 922:.\Generated_Source\PSoC5/USBFS.c **** ****************************************************************************//**
 923:.\Generated_Source\PSoC5/USBFS.c **** *
 924:.\Generated_Source\PSoC5/USBFS.c **** *  This function returns the state of the requested endpoint.
 925:.\Generated_Source\PSoC5/USBFS.c **** *
 926:.\Generated_Source\PSoC5/USBFS.c **** * \param epNumber Data endpoint number
 927:.\Generated_Source\PSoC5/USBFS.c **** *
 928:.\Generated_Source\PSoC5/USBFS.c **** * \return
 929:.\Generated_Source\PSoC5/USBFS.c **** *  Returns the current state of the specified USBFS endpoint. Symbolic names and
 930:.\Generated_Source\PSoC5/USBFS.c **** *  their associated values are given in the following table. Use these constants
 931:.\Generated_Source\PSoC5/USBFS.c **** *  whenever you write code to change the state of the endpoints, such as ISR
 932:.\Generated_Source\PSoC5/USBFS.c **** *  code, to handle data sent or received.
 933:.\Generated_Source\PSoC5/USBFS.c **** *
 934:.\Generated_Source\PSoC5/USBFS.c **** *  Return Value           | Description
 935:.\Generated_Source\PSoC5/USBFS.c **** *  -----------------------|-----------------------------------------------------
 936:.\Generated_Source\PSoC5/USBFS.c **** *  USBFS_NO_EVENT_PENDING |The endpoint is awaiting SIE action
 937:.\Generated_Source\PSoC5/USBFS.c **** *  USBFS_EVENT_PENDING    |The endpoint is awaiting CPU action
 938:.\Generated_Source\PSoC5/USBFS.c **** *  USBFS_NO_EVENT_ALLOWED |The endpoint is locked from access
 939:.\Generated_Source\PSoC5/USBFS.c **** *  USBFS_IN_BUFFER_FULL   |The IN endpoint is loaded and the mode is set to ACK IN
 940:.\Generated_Source\PSoC5/USBFS.c **** *  USBFS_IN_BUFFER_EMPTY  |An IN transaction occurred and more data can be loaded
 941:.\Generated_Source\PSoC5/USBFS.c **** *  USBFS_OUT_BUFFER_EMPTY |The OUT endpoint is set to ACK OUT and is waiting for data
 942:.\Generated_Source\PSoC5/USBFS.c **** *  USBFS_OUT_BUFFER_FULL  |An OUT transaction has occurred and data can be read
 943:.\Generated_Source\PSoC5/USBFS.c **** *
 944:.\Generated_Source\PSoC5/USBFS.c **** *******************************************************************************/
 945:.\Generated_Source\PSoC5/USBFS.c **** uint8 USBFS_GetEPState(uint8 epNumber) 
 946:.\Generated_Source\PSoC5/USBFS.c **** {
 689              		.loc 1 946 0
 690              		.cfi_startproc
 691              		@ args = 0, pretend = 0, frame = 0
 692              		@ frame_needed = 0, uses_anonymous_args = 0
 693              		@ link register save eliminated.
 694              	.LVL44:
 947:.\Generated_Source\PSoC5/USBFS.c ****     return (USBFS_EP[epNumber].apiEpState);
 695              		.loc 1 947 0
 696 0000 00EB4000 		add	r0, r0, r0, lsl #1
ARM GAS  C:\Users\Patrick\AppData\Local\Temp\cc4CvmVx.s 			page 30


 697              	.LVL45:
 698 0004 8000     		lsls	r0, r0, #2
 699 0006 024B     		ldr	r3, .L46
 700 0008 1844     		add	r0, r0, r3
 701 000a 4078     		ldrb	r0, [r0, #1]	@ zero_extendqisi2
 948:.\Generated_Source\PSoC5/USBFS.c **** }
 702              		.loc 1 948 0
 703 000c 7047     		bx	lr
 704              	.L47:
 705 000e 00BF     		.align	2
 706              	.L46:
 707 0010 00000000 		.word	USBFS_EP
 708              		.cfi_endproc
 709              	.LFE9:
 710              		.size	USBFS_GetEPState, .-USBFS_GetEPState
 711              		.section	.text.USBFS_GetEPCount,"ax",%progbits
 712              		.align	2
 713              		.global	USBFS_GetEPCount
 714              		.thumb
 715              		.thumb_func
 716              		.type	USBFS_GetEPCount, %function
 717              	USBFS_GetEPCount:
 718              	.LFB10:
 949:.\Generated_Source\PSoC5/USBFS.c **** 
 950:.\Generated_Source\PSoC5/USBFS.c **** 
 951:.\Generated_Source\PSoC5/USBFS.c **** /*******************************************************************************
 952:.\Generated_Source\PSoC5/USBFS.c **** * Function Name: USBFS_GetEPCount
 953:.\Generated_Source\PSoC5/USBFS.c **** ****************************************************************************//**
 954:.\Generated_Source\PSoC5/USBFS.c **** *
 955:.\Generated_Source\PSoC5/USBFS.c **** *  This function supports Data Endpoints only(EP1-EP8).
 956:.\Generated_Source\PSoC5/USBFS.c **** *  Returns the transfer count for the requested endpoint.  The value from
 957:.\Generated_Source\PSoC5/USBFS.c **** *  the count registers includes 2 counts for the two byte checksum of the
 958:.\Generated_Source\PSoC5/USBFS.c **** *  packet.  This function subtracts the two counts.
 959:.\Generated_Source\PSoC5/USBFS.c **** *
 960:.\Generated_Source\PSoC5/USBFS.c **** *  \param epNumber Data Endpoint Number.
 961:.\Generated_Source\PSoC5/USBFS.c **** *                   Valid values are between 1 and 8.
 962:.\Generated_Source\PSoC5/USBFS.c **** *
 963:.\Generated_Source\PSoC5/USBFS.c **** * \return
 964:.\Generated_Source\PSoC5/USBFS.c **** *  Returns the current byte count from the specified endpoint or 0 for an
 965:.\Generated_Source\PSoC5/USBFS.c **** *  invalid endpoint.
 966:.\Generated_Source\PSoC5/USBFS.c **** *
 967:.\Generated_Source\PSoC5/USBFS.c **** *******************************************************************************/
 968:.\Generated_Source\PSoC5/USBFS.c **** uint16 USBFS_GetEPCount(uint8 epNumber) 
 969:.\Generated_Source\PSoC5/USBFS.c **** {
 719              		.loc 1 969 0
 720              		.cfi_startproc
 721              		@ args = 0, pretend = 0, frame = 0
 722              		@ frame_needed = 0, uses_anonymous_args = 0
 723              		@ link register save eliminated.
 724              	.LVL46:
 970:.\Generated_Source\PSoC5/USBFS.c ****     uint16 cntr = 0u;
 971:.\Generated_Source\PSoC5/USBFS.c **** 
 972:.\Generated_Source\PSoC5/USBFS.c ****     if ((epNumber > USBFS_EP0) && (epNumber < USBFS_MAX_EP))
 725              		.loc 1 972 0
 726 0000 431E     		subs	r3, r0, #1
 727 0002 DBB2     		uxtb	r3, r3
 728 0004 072B     		cmp	r3, #7
ARM GAS  C:\Users\Patrick\AppData\Local\Temp\cc4CvmVx.s 			page 31


 729 0006 0BD8     		bhi	.L50
 973:.\Generated_Source\PSoC5/USBFS.c ****     {
 974:.\Generated_Source\PSoC5/USBFS.c ****         /* Get 11-bits EP counter where epCnt0 - 3 bits MSB and epCnt1 - 8 bits LSB. */
 975:.\Generated_Source\PSoC5/USBFS.c ****         cntr  = ((uint16) USBFS_SIE_EP_BASE.sieEp[epNumber].epCnt0) & USBFS_EPX_CNT0_MASK;
 730              		.loc 1 975 0
 731 0008 064B     		ldr	r3, .L51
 732 000a 0001     		lsls	r0, r0, #4
 733              	.LVL47:
 734 000c 1A18     		adds	r2, r3, r0
 735 000e 185C     		ldrb	r0, [r3, r0]	@ zero_extendqisi2
 736 0010 00F00F00 		and	r0, r0, #15
 737              	.LVL48:
 976:.\Generated_Source\PSoC5/USBFS.c ****         cntr  = ((uint16) (cntr << 8u)) | ((uint16) USBFS_SIE_EP_BASE.sieEp[epNumber].epCnt1);
 738              		.loc 1 976 0
 739 0014 5378     		ldrb	r3, [r2, #1]	@ zero_extendqisi2
 740 0016 43EA0020 		orr	r0, r3, r0, lsl #8
 741              	.LVL49:
 977:.\Generated_Source\PSoC5/USBFS.c ****         cntr -= USBFS_EPX_CNTX_CRC_COUNT;
 742              		.loc 1 977 0
 743 001a 0238     		subs	r0, r0, #2
 744              	.LVL50:
 745 001c 80B2     		uxth	r0, r0
 746              	.LVL51:
 747 001e 7047     		bx	lr
 748              	.LVL52:
 749              	.L50:
 970:.\Generated_Source\PSoC5/USBFS.c **** 
 750              		.loc 1 970 0
 751 0020 0020     		movs	r0, #0
 752              	.LVL53:
 978:.\Generated_Source\PSoC5/USBFS.c ****     }
 979:.\Generated_Source\PSoC5/USBFS.c **** 
 980:.\Generated_Source\PSoC5/USBFS.c ****     return (cntr);
 981:.\Generated_Source\PSoC5/USBFS.c **** }
 753              		.loc 1 981 0
 754 0022 7047     		bx	lr
 755              	.L52:
 756              		.align	2
 757              	.L51:
 758 0024 FC5F0040 		.word	1073766396
 759              		.cfi_endproc
 760              	.LFE10:
 761              		.size	USBFS_GetEPCount, .-USBFS_GetEPCount
 762              		.section	.text.USBFS_LoadInEP,"ax",%progbits
 763              		.align	2
 764              		.global	USBFS_LoadInEP
 765              		.thumb
 766              		.thumb_func
 767              		.type	USBFS_LoadInEP, %function
 768              	USBFS_LoadInEP:
 769              	.LFB11:
 982:.\Generated_Source\PSoC5/USBFS.c **** 
 983:.\Generated_Source\PSoC5/USBFS.c **** 
 984:.\Generated_Source\PSoC5/USBFS.c **** #if (USBFS_EP_MANAGEMENT_DMA)
 985:.\Generated_Source\PSoC5/USBFS.c **** #if (CY_PSOC4)
 986:.\Generated_Source\PSoC5/USBFS.c ****     /*******************************************************************************
 987:.\Generated_Source\PSoC5/USBFS.c ****     * Function Name: USBFS_InitEpDma
ARM GAS  C:\Users\Patrick\AppData\Local\Temp\cc4CvmVx.s 			page 32


 988:.\Generated_Source\PSoC5/USBFS.c ****     ****************************************************************************//**
 989:.\Generated_Source\PSoC5/USBFS.c ****     *
 990:.\Generated_Source\PSoC5/USBFS.c ****     *  This function configures priority for all DMA channels utilized by the
 991:.\Generated_Source\PSoC5/USBFS.c ****     *  component. Also sets callbacks for DMA auto mode.
 992:.\Generated_Source\PSoC5/USBFS.c ****     *
 993:.\Generated_Source\PSoC5/USBFS.c ****     *******************************************************************************/
 994:.\Generated_Source\PSoC5/USBFS.c ****     static void USBFS_InitEpDma(void)
 995:.\Generated_Source\PSoC5/USBFS.c ****     {
 996:.\Generated_Source\PSoC5/USBFS.c ****     #if (USBFS_DMA1_ACTIVE)
 997:.\Generated_Source\PSoC5/USBFS.c ****         CYDMA_CH_CTL_BASE.ctl[USBFS_ep1_dma_CHANNEL] = USBFS_ep1_dma_CHANNEL_CFG;
 998:.\Generated_Source\PSoC5/USBFS.c ****     #endif /* (USBFS_DMA1_ACTIVE) */
 999:.\Generated_Source\PSoC5/USBFS.c **** 
1000:.\Generated_Source\PSoC5/USBFS.c ****     #if (USBFS_DMA2_ACTIVE)
1001:.\Generated_Source\PSoC5/USBFS.c ****         CYDMA_CH_CTL_BASE.ctl[USBFS_ep2_dma_CHANNEL] = USBFS_ep2_dma_CHANNEL_CFG;
1002:.\Generated_Source\PSoC5/USBFS.c ****     #endif /* (USBFS_DMA2_ACTIVE) */
1003:.\Generated_Source\PSoC5/USBFS.c **** 
1004:.\Generated_Source\PSoC5/USBFS.c ****     #if (USBFS_DMA3_ACTIVE)
1005:.\Generated_Source\PSoC5/USBFS.c ****         CYDMA_CH_CTL_BASE.ctl[USBFS_ep3_dma_CHANNEL] = USBFS_ep3_dma_CHANNEL_CFG;
1006:.\Generated_Source\PSoC5/USBFS.c ****     #endif /* (USBFS_DMA3_ACTIVE) */
1007:.\Generated_Source\PSoC5/USBFS.c **** 
1008:.\Generated_Source\PSoC5/USBFS.c ****     #if (USBFS_DMA4_ACTIVE)
1009:.\Generated_Source\PSoC5/USBFS.c ****         CYDMA_CH_CTL_BASE.ctl[USBFS_ep4_dma_CHANNEL] = USBFS_ep4_dma_CHANNEL_CFG;
1010:.\Generated_Source\PSoC5/USBFS.c ****     #endif /* (USBFS_DMA4_ACTIVE) */
1011:.\Generated_Source\PSoC5/USBFS.c **** 
1012:.\Generated_Source\PSoC5/USBFS.c ****     #if (USBFS_DMA5_ACTIVE)
1013:.\Generated_Source\PSoC5/USBFS.c ****         CYDMA_CH_CTL_BASE.ctl[USBFS_ep5_dma_CHANNEL] = USBFS_ep5_dma_CHANNEL_CFG;
1014:.\Generated_Source\PSoC5/USBFS.c ****     #endif /* (USBFS_DMA5_ACTIVE) */
1015:.\Generated_Source\PSoC5/USBFS.c **** 
1016:.\Generated_Source\PSoC5/USBFS.c ****     #if (USBFS_DMA6_ACTIVE)
1017:.\Generated_Source\PSoC5/USBFS.c ****         CYDMA_CH_CTL_BASE.ctl[USBFS_ep6_dma_CHANNEL] = USBFS_ep6_dma_CHANNEL_CFG;
1018:.\Generated_Source\PSoC5/USBFS.c ****     #endif /* (USBFS_DMA6_ACTIVE) */
1019:.\Generated_Source\PSoC5/USBFS.c **** 
1020:.\Generated_Source\PSoC5/USBFS.c ****     #if (USBFS_DMA7_ACTIVE)
1021:.\Generated_Source\PSoC5/USBFS.c ****         CYDMA_CH_CTL_BASE.ctl[USBFS_ep7_dma_CHANNEL] = USBFS_ep7_dma_CHANNEL_CFG;
1022:.\Generated_Source\PSoC5/USBFS.c ****     #endif /* (USBFS_DMA7_ACTIVE) */
1023:.\Generated_Source\PSoC5/USBFS.c **** 
1024:.\Generated_Source\PSoC5/USBFS.c ****     #if (USBFS_DMA8_ACTIVE)
1025:.\Generated_Source\PSoC5/USBFS.c ****         CYDMA_CH_CTL_BASE.ctl[USBFS_ep8_dma_CHANNEL] = USBFS_ep8_dma_CHANNEL_CFG;
1026:.\Generated_Source\PSoC5/USBFS.c ****     #endif /* (USBFS_DMA8_ACTIVE) */
1027:.\Generated_Source\PSoC5/USBFS.c **** 
1028:.\Generated_Source\PSoC5/USBFS.c ****     #if (USBFS_EP_MANAGEMENT_DMA_AUTO)
1029:.\Generated_Source\PSoC5/USBFS.c ****         /* Initialize DMA channel callbacks. */
1030:.\Generated_Source\PSoC5/USBFS.c ****         #if (USBFS_DMA1_ACTIVE)
1031:.\Generated_Source\PSoC5/USBFS.c ****             (void) USBFS_ep1_dma_SetInterruptCallback(&USBFS_EP1_DMA_DONE_ISR);
1032:.\Generated_Source\PSoC5/USBFS.c ****         #endif /* (USBFS_DMA1_ACTIVE) */
1033:.\Generated_Source\PSoC5/USBFS.c **** 
1034:.\Generated_Source\PSoC5/USBFS.c ****         #if (USBFS_DMA2_ACTIVE)
1035:.\Generated_Source\PSoC5/USBFS.c ****             (void) USBFS_ep2_dma_SetInterruptCallback(&USBFS_EP2_DMA_DONE_ISR);
1036:.\Generated_Source\PSoC5/USBFS.c ****         #endif /* (USBFS_DMA2_ACTIVE) */
1037:.\Generated_Source\PSoC5/USBFS.c **** 
1038:.\Generated_Source\PSoC5/USBFS.c ****         #if (USBFS_DMA3_ACTIVE)
1039:.\Generated_Source\PSoC5/USBFS.c ****             (void) USBFS_ep3_dma_SetInterruptCallback(&USBFS_EP3_DMA_DONE_ISR);
1040:.\Generated_Source\PSoC5/USBFS.c ****         #endif /* (USBFS_DMA3_ACTIVE) */
1041:.\Generated_Source\PSoC5/USBFS.c **** 
1042:.\Generated_Source\PSoC5/USBFS.c ****         #if (USBFS_DMA4_ACTIVE)
1043:.\Generated_Source\PSoC5/USBFS.c ****             (void) USBFS_ep4_dma_SetInterruptCallback(&USBFS_EP4_DMA_DONE_ISR);
1044:.\Generated_Source\PSoC5/USBFS.c ****         #endif /* (USBFS_DMA4_ACTIVE) */
ARM GAS  C:\Users\Patrick\AppData\Local\Temp\cc4CvmVx.s 			page 33


1045:.\Generated_Source\PSoC5/USBFS.c **** 
1046:.\Generated_Source\PSoC5/USBFS.c ****         #if (USBFS_DMA5_ACTIVE)
1047:.\Generated_Source\PSoC5/USBFS.c ****             (void) USBFS_ep5_dma_SetInterruptCallback(&USBFS_EP5_DMA_DONE_ISR);
1048:.\Generated_Source\PSoC5/USBFS.c ****         #endif /* (USBFS_DMA5_ACTIVE) */
1049:.\Generated_Source\PSoC5/USBFS.c **** 
1050:.\Generated_Source\PSoC5/USBFS.c ****         #if (USBFS_DMA6_ACTIVE)
1051:.\Generated_Source\PSoC5/USBFS.c ****             (void) USBFS_ep6_dma_SetInterruptCallback(&USBFS_EP6_DMA_DONE_ISR);
1052:.\Generated_Source\PSoC5/USBFS.c ****         #endif /* (USBFS_DMA6_ACTIVE) */
1053:.\Generated_Source\PSoC5/USBFS.c **** 
1054:.\Generated_Source\PSoC5/USBFS.c ****         #if (USBFS_DMA7_ACTIVE)
1055:.\Generated_Source\PSoC5/USBFS.c ****             (void) USBFS_ep7_dma_SetInterruptCallback(&USBFS_EP7_DMA_DONE_ISR);
1056:.\Generated_Source\PSoC5/USBFS.c ****         #endif /* (USBFS_DMA7_ACTIVE) */
1057:.\Generated_Source\PSoC5/USBFS.c **** 
1058:.\Generated_Source\PSoC5/USBFS.c ****         #if (USBFS_DMA8_ACTIVE)
1059:.\Generated_Source\PSoC5/USBFS.c ****             (void) USBFS_ep8_dma_SetInterruptCallback(&USBFS_EP8_DMA_DONE_ISR);
1060:.\Generated_Source\PSoC5/USBFS.c ****         #endif /* (USBFS_DMA8_ACTIVE) */
1061:.\Generated_Source\PSoC5/USBFS.c ****     #endif /* (USBFS_EP_MANAGEMENT_DMA_AUTO) */
1062:.\Generated_Source\PSoC5/USBFS.c ****     }
1063:.\Generated_Source\PSoC5/USBFS.c **** #else
1064:.\Generated_Source\PSoC5/USBFS.c **** 
1065:.\Generated_Source\PSoC5/USBFS.c **** 
1066:.\Generated_Source\PSoC5/USBFS.c ****     /***************************************************************************
1067:.\Generated_Source\PSoC5/USBFS.c ****     * Function Name: USBFS_InitEP_DMA
1068:.\Generated_Source\PSoC5/USBFS.c ****     ************************************************************************//**
1069:.\Generated_Source\PSoC5/USBFS.c ****     *
1070:.\Generated_Source\PSoC5/USBFS.c ****     *  This function allocates and initializes a DMA channel to be used by the
1071:.\Generated_Source\PSoC5/USBFS.c ****     *  USBFS_LoadInEP() or USBFS_ReadOutEP() APIs for data
1072:.\Generated_Source\PSoC5/USBFS.c ****     *  transfer. It is available when the Endpoint Memory Management parameter
1073:.\Generated_Source\PSoC5/USBFS.c ****     *  is set to DMA.
1074:.\Generated_Source\PSoC5/USBFS.c ****     *
1075:.\Generated_Source\PSoC5/USBFS.c ****     *  This function is automatically called from the USBFS_LoadInEP() and USBFS_ReadOutEP() APIs.
1076:.\Generated_Source\PSoC5/USBFS.c ****     *
1077:.\Generated_Source\PSoC5/USBFS.c ****     *  \param epNumber Contains the data endpoint number.
1078:.\Generated_Source\PSoC5/USBFS.c ****     *            Valid values are between 1 and 8.
1079:.\Generated_Source\PSoC5/USBFS.c ****     *  \param *pData Pointer to a data array that is related to the EP transfers.
1080:.\Generated_Source\PSoC5/USBFS.c ****     *
1081:.\Generated_Source\PSoC5/USBFS.c ****     * \reentrant No.
1082:.\Generated_Source\PSoC5/USBFS.c ****     *
1083:.\Generated_Source\PSoC5/USBFS.c ****     ***************************************************************************/
1084:.\Generated_Source\PSoC5/USBFS.c ****     void USBFS_InitEP_DMA(uint8 epNumber, const uint8 *pData)
1085:.\Generated_Source\PSoC5/USBFS.c ****                                                                     
1086:.\Generated_Source\PSoC5/USBFS.c ****     {
1087:.\Generated_Source\PSoC5/USBFS.c ****         uint16 src;
1088:.\Generated_Source\PSoC5/USBFS.c ****         uint16 dst;
1089:.\Generated_Source\PSoC5/USBFS.c **** 
1090:.\Generated_Source\PSoC5/USBFS.c ****     #if (CY_PSOC3)
1091:.\Generated_Source\PSoC5/USBFS.c ****         src = HI16(CYDEV_SRAM_BASE);
1092:.\Generated_Source\PSoC5/USBFS.c ****         dst = HI16(CYDEV_PERIPH_BASE);
1093:.\Generated_Source\PSoC5/USBFS.c ****         pData = pData;
1094:.\Generated_Source\PSoC5/USBFS.c ****     #else
1095:.\Generated_Source\PSoC5/USBFS.c ****         if ((USBFS_EP[epNumber].addr & USBFS_DIR_IN) != 0u)
1096:.\Generated_Source\PSoC5/USBFS.c ****         {
1097:.\Generated_Source\PSoC5/USBFS.c ****             /* IN endpoint: source is memory buffer. */
1098:.\Generated_Source\PSoC5/USBFS.c ****             src = HI16(pData);
1099:.\Generated_Source\PSoC5/USBFS.c ****             dst = HI16(CYDEV_PERIPH_BASE);
1100:.\Generated_Source\PSoC5/USBFS.c ****         }
1101:.\Generated_Source\PSoC5/USBFS.c ****         else
ARM GAS  C:\Users\Patrick\AppData\Local\Temp\cc4CvmVx.s 			page 34


1102:.\Generated_Source\PSoC5/USBFS.c ****         {
1103:.\Generated_Source\PSoC5/USBFS.c ****             /* OUT endpoint: source is USB IP memory buffer. */
1104:.\Generated_Source\PSoC5/USBFS.c ****             src = HI16(CYDEV_PERIPH_BASE);
1105:.\Generated_Source\PSoC5/USBFS.c ****             dst = HI16(pData);
1106:.\Generated_Source\PSoC5/USBFS.c ****         }
1107:.\Generated_Source\PSoC5/USBFS.c ****     #endif  /* (CY_PSOC3) */
1108:.\Generated_Source\PSoC5/USBFS.c **** 
1109:.\Generated_Source\PSoC5/USBFS.c ****         switch(epNumber)
1110:.\Generated_Source\PSoC5/USBFS.c ****         {
1111:.\Generated_Source\PSoC5/USBFS.c ****     #if (USBFS_DMA1_ACTIVE)
1112:.\Generated_Source\PSoC5/USBFS.c ****         case USBFS_EP1:
1113:.\Generated_Source\PSoC5/USBFS.c ****             USBFS_DmaChan[epNumber] = USBFS_ep1_DmaInitialize(USBFS_DMA_BYTES_PER_BURST,
1114:.\Generated_Source\PSoC5/USBFS.c ****                                                                                     USBFS_DMA_REQUE
1115:.\Generated_Source\PSoC5/USBFS.c ****             break;
1116:.\Generated_Source\PSoC5/USBFS.c ****     #endif /* (USBFS_DMA1_ACTIVE) */
1117:.\Generated_Source\PSoC5/USBFS.c **** 
1118:.\Generated_Source\PSoC5/USBFS.c ****     #if (USBFS_DMA2_ACTIVE)
1119:.\Generated_Source\PSoC5/USBFS.c ****         case USBFS_EP2:
1120:.\Generated_Source\PSoC5/USBFS.c ****             USBFS_DmaChan[epNumber] = USBFS_ep2_DmaInitialize(USBFS_DMA_BYTES_PER_BURST,
1121:.\Generated_Source\PSoC5/USBFS.c ****                                                                                     USBFS_DMA_REQUE
1122:.\Generated_Source\PSoC5/USBFS.c ****             break;
1123:.\Generated_Source\PSoC5/USBFS.c ****     #endif /* (USBFS_DMA2_ACTIVE) */
1124:.\Generated_Source\PSoC5/USBFS.c **** 
1125:.\Generated_Source\PSoC5/USBFS.c ****     #if (USBFS_DMA3_ACTIVE)
1126:.\Generated_Source\PSoC5/USBFS.c ****             case USBFS_EP3:
1127:.\Generated_Source\PSoC5/USBFS.c ****                 USBFS_DmaChan[epNumber] = USBFS_ep3_DmaInitialize(USBFS_DMA_BYTES_PER_BURST,
1128:.\Generated_Source\PSoC5/USBFS.c ****                                                                                         USBFS_DMA_R
1129:.\Generated_Source\PSoC5/USBFS.c ****             break;
1130:.\Generated_Source\PSoC5/USBFS.c ****     #endif /* (USBFS_DMA3_ACTIVE) */
1131:.\Generated_Source\PSoC5/USBFS.c **** 
1132:.\Generated_Source\PSoC5/USBFS.c ****     #if (USBFS_DMA4_ACTIVE)
1133:.\Generated_Source\PSoC5/USBFS.c ****             case USBFS_EP4:
1134:.\Generated_Source\PSoC5/USBFS.c ****                 USBFS_DmaChan[epNumber] = USBFS_ep4_DmaInitialize(USBFS_DMA_BYTES_PER_BURST,
1135:.\Generated_Source\PSoC5/USBFS.c ****                                                                                         USBFS_DMA_R
1136:.\Generated_Source\PSoC5/USBFS.c ****             break;
1137:.\Generated_Source\PSoC5/USBFS.c ****     #endif /* (USBFS_DMA4_ACTIVE) */
1138:.\Generated_Source\PSoC5/USBFS.c **** 
1139:.\Generated_Source\PSoC5/USBFS.c ****     #if (USBFS_DMA5_ACTIVE)
1140:.\Generated_Source\PSoC5/USBFS.c ****             case USBFS_EP5:
1141:.\Generated_Source\PSoC5/USBFS.c ****                 USBFS_DmaChan[epNumber] = USBFS_ep5_DmaInitialize(USBFS_DMA_BYTES_PER_BURST,
1142:.\Generated_Source\PSoC5/USBFS.c ****                                                                                         USBFS_DMA_R
1143:.\Generated_Source\PSoC5/USBFS.c ****             break;
1144:.\Generated_Source\PSoC5/USBFS.c ****     #endif /* (USBFS_DMA5_ACTIVE) */
1145:.\Generated_Source\PSoC5/USBFS.c **** 
1146:.\Generated_Source\PSoC5/USBFS.c ****     #if (USBFS_DMA6_ACTIVE)
1147:.\Generated_Source\PSoC5/USBFS.c ****         case USBFS_EP6:
1148:.\Generated_Source\PSoC5/USBFS.c ****             USBFS_DmaChan[epNumber] = USBFS_ep6_DmaInitialize(USBFS_DMA_BYTES_PER_BURST,
1149:.\Generated_Source\PSoC5/USBFS.c ****                                                                                     USBFS_DMA_REQUE
1150:.\Generated_Source\PSoC5/USBFS.c ****             break;
1151:.\Generated_Source\PSoC5/USBFS.c ****     #endif /* (USBFS_DMA6_ACTIVE) */
1152:.\Generated_Source\PSoC5/USBFS.c **** 
1153:.\Generated_Source\PSoC5/USBFS.c ****     #if (USBFS_DMA7_ACTIVE)
1154:.\Generated_Source\PSoC5/USBFS.c ****         case USBFS_EP7:
1155:.\Generated_Source\PSoC5/USBFS.c ****                 USBFS_DmaChan[epNumber] = USBFS_ep7_DmaInitialize(USBFS_DMA_BYTES_PER_BURST,
1156:.\Generated_Source\PSoC5/USBFS.c ****                                                                                         USBFS_DMA_R
1157:.\Generated_Source\PSoC5/USBFS.c ****             break;
1158:.\Generated_Source\PSoC5/USBFS.c ****     #endif /* (USBFS_DMA7_ACTIVE) */
ARM GAS  C:\Users\Patrick\AppData\Local\Temp\cc4CvmVx.s 			page 35


1159:.\Generated_Source\PSoC5/USBFS.c **** 
1160:.\Generated_Source\PSoC5/USBFS.c ****     #if (USBFS_DMA8_ACTIVE)
1161:.\Generated_Source\PSoC5/USBFS.c ****         case USBFS_EP8:
1162:.\Generated_Source\PSoC5/USBFS.c ****                 USBFS_DmaChan[epNumber] = USBFS_ep8_DmaInitialize(USBFS_DMA_BYTES_PER_BURST,
1163:.\Generated_Source\PSoC5/USBFS.c ****                                                                                         USBFS_DMA_R
1164:.\Generated_Source\PSoC5/USBFS.c ****             break;
1165:.\Generated_Source\PSoC5/USBFS.c ****     #endif /* (USBFS_DMA8_ACTIVE) */
1166:.\Generated_Source\PSoC5/USBFS.c **** 
1167:.\Generated_Source\PSoC5/USBFS.c ****         default:
1168:.\Generated_Source\PSoC5/USBFS.c ****             /* Do nothing for endpoints other than 1-8. */
1169:.\Generated_Source\PSoC5/USBFS.c ****             break;
1170:.\Generated_Source\PSoC5/USBFS.c ****         }
1171:.\Generated_Source\PSoC5/USBFS.c **** 
1172:.\Generated_Source\PSoC5/USBFS.c ****         if ((epNumber > USBFS_EP0) && (epNumber < USBFS_MAX_EP))
1173:.\Generated_Source\PSoC5/USBFS.c ****         {
1174:.\Generated_Source\PSoC5/USBFS.c ****             USBFS_DmaTd[epNumber] = CyDmaTdAllocate();
1175:.\Generated_Source\PSoC5/USBFS.c **** 
1176:.\Generated_Source\PSoC5/USBFS.c ****         #if (USBFS_EP_MANAGEMENT_DMA_AUTO && (USBFS_EP_DMA_AUTO_OPT == 0u))
1177:.\Generated_Source\PSoC5/USBFS.c ****             USBFS_DmaNextTd[epNumber] = CyDmaTdAllocate();
1178:.\Generated_Source\PSoC5/USBFS.c ****         #endif /* (USBFS_EP_MANAGEMENT_DMA_AUTO && (USBFS_EP_DMA_AUTO_OPT == 0u)) */
1179:.\Generated_Source\PSoC5/USBFS.c ****         }
1180:.\Generated_Source\PSoC5/USBFS.c ****     }
1181:.\Generated_Source\PSoC5/USBFS.c **** #endif /* (CY_PSOC4) */
1182:.\Generated_Source\PSoC5/USBFS.c **** 
1183:.\Generated_Source\PSoC5/USBFS.c ****     /***************************************************************************
1184:.\Generated_Source\PSoC5/USBFS.c ****     * Function Name: USBFS_Stop_DMA
1185:.\Generated_Source\PSoC5/USBFS.c ****     ************************************************************************//**
1186:.\Generated_Source\PSoC5/USBFS.c ****     *  
1187:.\Generated_Source\PSoC5/USBFS.c ****     *  This function stops DMA channel associated with endpoint. It is available 
1188:.\Generated_Source\PSoC5/USBFS.c ****     *  when the Endpoint Buffer Management parameter is set to DMA. Call this 
1189:.\Generated_Source\PSoC5/USBFS.c ****     *  function when endpoint direction is changed from IN to OUT or vice versa 
1190:.\Generated_Source\PSoC5/USBFS.c ****     *  to trigger DMA re-configuration when USBFS_LoadInEP() or 
1191:.\Generated_Source\PSoC5/USBFS.c ****     *  USBFS_ReadOutEP() functions are called the first time. 
1192:.\Generated_Source\PSoC5/USBFS.c ****     *  
1193:.\Generated_Source\PSoC5/USBFS.c ****     *  \param epNumber: The data endpoint number for which associated DMA 
1194:.\Generated_Source\PSoC5/USBFS.c ****     *  channel is stopped. The range of valid values is between 1 and 8. To stop 
1195:.\Generated_Source\PSoC5/USBFS.c ****     *  all DMAs associated with endpoints call this function with 
1196:.\Generated_Source\PSoC5/USBFS.c ****     *  USBFS_MAX_EP argument.
1197:.\Generated_Source\PSoC5/USBFS.c ****     *
1198:.\Generated_Source\PSoC5/USBFS.c ****     * \reentrant
1199:.\Generated_Source\PSoC5/USBFS.c ****     *  No.
1200:.\Generated_Source\PSoC5/USBFS.c ****     *
1201:.\Generated_Source\PSoC5/USBFS.c ****     ***************************************************************************/
1202:.\Generated_Source\PSoC5/USBFS.c ****     void USBFS_Stop_DMA(uint8 epNumber) 
1203:.\Generated_Source\PSoC5/USBFS.c ****     {
1204:.\Generated_Source\PSoC5/USBFS.c ****         uint8 i;
1205:.\Generated_Source\PSoC5/USBFS.c **** 
1206:.\Generated_Source\PSoC5/USBFS.c ****         i = (epNumber < USBFS_MAX_EP) ? epNumber : USBFS_EP1;
1207:.\Generated_Source\PSoC5/USBFS.c **** 
1208:.\Generated_Source\PSoC5/USBFS.c ****         do
1209:.\Generated_Source\PSoC5/USBFS.c ****         {
1210:.\Generated_Source\PSoC5/USBFS.c ****         #if (CY_PSOC4)
1211:.\Generated_Source\PSoC5/USBFS.c ****             if (0u != USBFS_DmaChan[i])
1212:.\Generated_Source\PSoC5/USBFS.c ****             {
1213:.\Generated_Source\PSoC5/USBFS.c ****                 USBFS_CyDmaChDisable(USBFS_DmaChan[i]);
1214:.\Generated_Source\PSoC5/USBFS.c ****             }
1215:.\Generated_Source\PSoC5/USBFS.c ****         #else
ARM GAS  C:\Users\Patrick\AppData\Local\Temp\cc4CvmVx.s 			page 36


1216:.\Generated_Source\PSoC5/USBFS.c ****             if(USBFS_DmaTd[i] != DMA_INVALID_TD)
1217:.\Generated_Source\PSoC5/USBFS.c ****             {
1218:.\Generated_Source\PSoC5/USBFS.c ****                 (void) CyDmaChDisable(USBFS_DmaChan[i]);
1219:.\Generated_Source\PSoC5/USBFS.c ****                 CyDmaTdFree(USBFS_DmaTd[i]);
1220:.\Generated_Source\PSoC5/USBFS.c ****                 USBFS_DmaTd[i] = DMA_INVALID_TD;
1221:.\Generated_Source\PSoC5/USBFS.c ****             }
1222:.\Generated_Source\PSoC5/USBFS.c **** 
1223:.\Generated_Source\PSoC5/USBFS.c ****             #if (USBFS_EP_MANAGEMENT_DMA_AUTO && (USBFS_EP_DMA_AUTO_OPT == 0u))
1224:.\Generated_Source\PSoC5/USBFS.c ****                 if(USBFS_DmaNextTd[i] != DMA_INVALID_TD)
1225:.\Generated_Source\PSoC5/USBFS.c ****                 {
1226:.\Generated_Source\PSoC5/USBFS.c ****                     CyDmaTdFree(USBFS_DmaNextTd[i]);
1227:.\Generated_Source\PSoC5/USBFS.c ****                     USBFS_DmaNextTd[i] = DMA_INVALID_TD;
1228:.\Generated_Source\PSoC5/USBFS.c ****                 }
1229:.\Generated_Source\PSoC5/USBFS.c ****             #endif /* (USBFS_EP_MANAGEMENT_DMA_AUTO && (USBFS_EP_DMA_AUTO_OPT == 0u)) */
1230:.\Generated_Source\PSoC5/USBFS.c **** 
1231:.\Generated_Source\PSoC5/USBFS.c ****         #endif /* (CY_PSOC4) */
1232:.\Generated_Source\PSoC5/USBFS.c ****             i++;
1233:.\Generated_Source\PSoC5/USBFS.c ****         }
1234:.\Generated_Source\PSoC5/USBFS.c ****         while ((i < USBFS_MAX_EP) && (epNumber == USBFS_MAX_EP));
1235:.\Generated_Source\PSoC5/USBFS.c ****     }
1236:.\Generated_Source\PSoC5/USBFS.c **** #endif /* (USBFS_EP_MANAGEMENT_DMA) */
1237:.\Generated_Source\PSoC5/USBFS.c **** 
1238:.\Generated_Source\PSoC5/USBFS.c **** 
1239:.\Generated_Source\PSoC5/USBFS.c **** #if (CY_PSOC3 || CY_PSOC5)
1240:.\Generated_Source\PSoC5/USBFS.c **** #if (USBFS_EP_MANAGEMENT_DMA_AUTO && (USBFS_EP_DMA_AUTO_OPT == 0u))
1241:.\Generated_Source\PSoC5/USBFS.c ****     /***************************************************************************
1242:.\Generated_Source\PSoC5/USBFS.c ****     * Function Name: USBFS_LoadNextInEP
1243:.\Generated_Source\PSoC5/USBFS.c ****     ************************************************************************//**
1244:.\Generated_Source\PSoC5/USBFS.c ****     *
1245:.\Generated_Source\PSoC5/USBFS.c ****     * Summary:
1246:.\Generated_Source\PSoC5/USBFS.c ****     *  This internal function is used for IN endpoint DMA reconfiguration in
1247:.\Generated_Source\PSoC5/USBFS.c ****     *  Auto DMA mode.
1248:.\Generated_Source\PSoC5/USBFS.c ****     *
1249:.\Generated_Source\PSoC5/USBFS.c ****     * Parameters:
1250:.\Generated_Source\PSoC5/USBFS.c ****     *  epNumber: Contains the data endpoint number.
1251:.\Generated_Source\PSoC5/USBFS.c ****     *  mode:   0 - Configure DMA to send the the rest of data.
1252:.\Generated_Source\PSoC5/USBFS.c ****     *          1 - Configure DMA to repeat 2 last bytes of the first burst.
1253:.\Generated_Source\PSoC5/USBFS.c ****     *
1254:.\Generated_Source\PSoC5/USBFS.c ****     ***************************************************************************/
1255:.\Generated_Source\PSoC5/USBFS.c ****     void USBFS_LoadNextInEP(uint8 epNumber, uint8 mode) 
1256:.\Generated_Source\PSoC5/USBFS.c ****     {
1257:.\Generated_Source\PSoC5/USBFS.c ****         reg16 *convert;
1258:.\Generated_Source\PSoC5/USBFS.c **** 
1259:.\Generated_Source\PSoC5/USBFS.c ****         if (mode == 0u)
1260:.\Generated_Source\PSoC5/USBFS.c ****         {
1261:.\Generated_Source\PSoC5/USBFS.c ****             /* Configure DMA to send rest of data. */
1262:.\Generated_Source\PSoC5/USBFS.c ****             /* CyDmaTdSetConfiguration API is optimized to change transfer length only and configur
1263:.\Generated_Source\PSoC5/USBFS.c ****             convert = (reg16 *) &CY_DMA_TDMEM_STRUCT_PTR[USBFS_DmaTd[epNumber]].TD0[0u];
1264:.\Generated_Source\PSoC5/USBFS.c ****             /* Set transfer length. */
1265:.\Generated_Source\PSoC5/USBFS.c ****             CY_SET_REG16(convert, USBFS_inLength[epNumber] - USBFS_DMA_BYTES_PER_BURST);
1266:.\Generated_Source\PSoC5/USBFS.c ****             /* CyDmaTdSetAddress API is optimized to change source address only. */
1267:.\Generated_Source\PSoC5/USBFS.c ****             convert = (reg16 *) &CY_DMA_TDMEM_STRUCT_PTR[USBFS_DmaTd[epNumber]].TD1[0u];
1268:.\Generated_Source\PSoC5/USBFS.c ****             CY_SET_REG16(convert, LO16((uint32)USBFS_inDataPointer[epNumber] +
1269:.\Generated_Source\PSoC5/USBFS.c ****                                             USBFS_DMA_BYTES_PER_BURST));
1270:.\Generated_Source\PSoC5/USBFS.c ****             USBFS_inBufFull[epNumber] = 1u;
1271:.\Generated_Source\PSoC5/USBFS.c ****         }
1272:.\Generated_Source\PSoC5/USBFS.c ****         else
ARM GAS  C:\Users\Patrick\AppData\Local\Temp\cc4CvmVx.s 			page 37


1273:.\Generated_Source\PSoC5/USBFS.c ****         {
1274:.\Generated_Source\PSoC5/USBFS.c ****             /* Configure DMA to repeat 2 last bytes of the first burst. */
1275:.\Generated_Source\PSoC5/USBFS.c ****             /* CyDmaTdSetConfiguration API is optimized to change transfer length only and configur
1276:.\Generated_Source\PSoC5/USBFS.c ****             convert = (reg16 *) &CY_DMA_TDMEM_STRUCT_PTR[USBFS_DmaTd[epNumber]].TD0[0u];
1277:.\Generated_Source\PSoC5/USBFS.c ****             /* Set transfer length. */
1278:.\Generated_Source\PSoC5/USBFS.c ****             CY_SET_REG16(convert, USBFS_DMA_BYTES_REPEAT);
1279:.\Generated_Source\PSoC5/USBFS.c ****             /* CyDmaTdSetAddress API is optimized to change source address only. */
1280:.\Generated_Source\PSoC5/USBFS.c ****             convert = (reg16 *) &CY_DMA_TDMEM_STRUCT_PTR[USBFS_DmaTd[epNumber]].TD1[0u];
1281:.\Generated_Source\PSoC5/USBFS.c ****             CY_SET_REG16(convert,  LO16((uint32)USBFS_inDataPointer[epNumber] +
1282:.\Generated_Source\PSoC5/USBFS.c ****                                    (USBFS_DMA_BYTES_PER_BURST - USBFS_DMA_BYTES_REPEAT)));
1283:.\Generated_Source\PSoC5/USBFS.c ****         }
1284:.\Generated_Source\PSoC5/USBFS.c **** 
1285:.\Generated_Source\PSoC5/USBFS.c ****         /* CyDmaChSetInitialTd API is optimized to initialize TD. */
1286:.\Generated_Source\PSoC5/USBFS.c ****         CY_DMA_CH_STRUCT_PTR[USBFS_DmaChan[epNumber]].basic_status[1u] = USBFS_DmaTd[epNumber];
1287:.\Generated_Source\PSoC5/USBFS.c ****     }
1288:.\Generated_Source\PSoC5/USBFS.c **** #endif /* (USBFS_EP_MANAGEMENT_DMA_AUTO && (USBFS_EP_DMA_AUTO_OPT == 0u)) */
1289:.\Generated_Source\PSoC5/USBFS.c **** #endif /* (CY_PSOC3 || CY_PSOC5) */
1290:.\Generated_Source\PSoC5/USBFS.c **** 
1291:.\Generated_Source\PSoC5/USBFS.c **** 
1292:.\Generated_Source\PSoC5/USBFS.c **** /*******************************************************************************
1293:.\Generated_Source\PSoC5/USBFS.c **** * Function Name: USBFS_LoadInEP
1294:.\Generated_Source\PSoC5/USBFS.c **** ****************************************************************************//**
1295:.\Generated_Source\PSoC5/USBFS.c **** *
1296:.\Generated_Source\PSoC5/USBFS.c **** *  This function performs different functionality depending on the Component’s
1297:.\Generated_Source\PSoC5/USBFS.c **** *  configured Endpoint Buffer Management. This parameter is defined in
1298:.\Generated_Source\PSoC5/USBFS.c **** *  the Descriptor Root in Component Configure window.
1299:.\Generated_Source\PSoC5/USBFS.c **** *
1300:.\Generated_Source\PSoC5/USBFS.c **** *  *Manual (Static/Dynamic Allocation):*
1301:.\Generated_Source\PSoC5/USBFS.c **** *  This function loads and enables the specified USB data endpoint for an IN
1302:.\Generated_Source\PSoC5/USBFS.c **** *  data transfer.
1303:.\Generated_Source\PSoC5/USBFS.c **** *
1304:.\Generated_Source\PSoC5/USBFS.c **** *  *DMA with Manual Buffer Management:*
1305:.\Generated_Source\PSoC5/USBFS.c **** *  Configures DMA for a data transfer from system RAM to endpoint buffer.
1306:.\Generated_Source\PSoC5/USBFS.c **** *  Generates request for a transfer.
1307:.\Generated_Source\PSoC5/USBFS.c **** *
1308:.\Generated_Source\PSoC5/USBFS.c **** *  *DMA with Automatic Buffer Management:*
1309:.\Generated_Source\PSoC5/USBFS.c **** *  Configures DMA. This is required only once, so it is done only when parameter
1310:.\Generated_Source\PSoC5/USBFS.c **** *  pData is not NULL. When the pData pointer is NULL, the function skips this
1311:.\Generated_Source\PSoC5/USBFS.c **** *  task. Sets Data ready status: This generates the first DMA transfer and
1312:.\Generated_Source\PSoC5/USBFS.c **** *  prepares data in endpoint buffer.
1313:.\Generated_Source\PSoC5/USBFS.c **** *
1314:.\Generated_Source\PSoC5/USBFS.c **** *  \param epNumber Contains the data endpoint number.
1315:.\Generated_Source\PSoC5/USBFS.c **** *            Valid values are between 1 and 8.
1316:.\Generated_Source\PSoC5/USBFS.c **** *  \param *pData A pointer to a data array from which the data for the endpoint space
1317:.\Generated_Source\PSoC5/USBFS.c **** *          is loaded.
1318:.\Generated_Source\PSoC5/USBFS.c **** *  \param length The number of bytes to transfer from the array and then send as
1319:.\Generated_Source\PSoC5/USBFS.c **** *          a result of an IN request. Valid values are between 0 and 512
1320:.\Generated_Source\PSoC5/USBFS.c **** *          (1023 for DMA with Automatic Buffer Management mode). The value 512
1321:.\Generated_Source\PSoC5/USBFS.c **** *          is applicable if only one endpoint is used.
1322:.\Generated_Source\PSoC5/USBFS.c **** *
1323:.\Generated_Source\PSoC5/USBFS.c **** *
1324:.\Generated_Source\PSoC5/USBFS.c **** * \reentrant
1325:.\Generated_Source\PSoC5/USBFS.c **** *  No.
1326:.\Generated_Source\PSoC5/USBFS.c **** *
1327:.\Generated_Source\PSoC5/USBFS.c **** *******************************************************************************/
1328:.\Generated_Source\PSoC5/USBFS.c **** void USBFS_LoadInEP(uint8 epNumber, const uint8 pData[], uint16 length)
1329:.\Generated_Source\PSoC5/USBFS.c ****                                                                         
ARM GAS  C:\Users\Patrick\AppData\Local\Temp\cc4CvmVx.s 			page 38


1330:.\Generated_Source\PSoC5/USBFS.c **** {
 770              		.loc 1 1330 0
 771              		.cfi_startproc
 772              		@ args = 0, pretend = 0, frame = 0
 773              		@ frame_needed = 0, uses_anonymous_args = 0
 774              		@ link register save eliminated.
 775              	.LVL54:
1331:.\Generated_Source\PSoC5/USBFS.c ****     if ((epNumber > USBFS_EP0) && (epNumber < USBFS_MAX_EP))
 776              		.loc 1 1331 0
 777 0000 431E     		subs	r3, r0, #1
 778 0002 DBB2     		uxtb	r3, r3
 779 0004 072B     		cmp	r3, #7
 780 0006 3BD8     		bhi	.L62
1330:.\Generated_Source\PSoC5/USBFS.c ****     if ((epNumber > USBFS_EP0) && (epNumber < USBFS_MAX_EP))
 781              		.loc 1 1330 0
 782 0008 F0B4     		push	{r4, r5, r6, r7}
 783              		.cfi_def_cfa_offset 16
 784              		.cfi_offset 4, -16
 785              		.cfi_offset 5, -12
 786              		.cfi_offset 6, -8
 787              		.cfi_offset 7, -4
1332:.\Generated_Source\PSoC5/USBFS.c ****     {
1333:.\Generated_Source\PSoC5/USBFS.c ****     #if (!USBFS_EP_MANAGEMENT_DMA_AUTO)
1334:.\Generated_Source\PSoC5/USBFS.c ****         /* Limit length to available buffer USB IP buffer size.*/
1335:.\Generated_Source\PSoC5/USBFS.c ****         if (length > (USBFS_EPX_DATA_BUF_MAX - USBFS_EP[epNumber].buffOffset))
 788              		.loc 1 1335 0
 789 000a 0746     		mov	r7, r0
 790 000c 00EB4003 		add	r3, r0, r0, lsl #1
 791 0010 9B00     		lsls	r3, r3, #2
 792 0012 1C4C     		ldr	r4, .L63
 793 0014 2344     		add	r3, r3, r4
 794 0016 DB88     		ldrh	r3, [r3, #6]
 795 0018 9BB2     		uxth	r3, r3
 796 001a C3F50073 		rsb	r3, r3, #512
 797 001e 9A42     		cmp	r2, r3
 798 0020 07D9     		bls	.L55
1336:.\Generated_Source\PSoC5/USBFS.c ****         {
1337:.\Generated_Source\PSoC5/USBFS.c ****             length = USBFS_EPX_DATA_BUF_MAX - USBFS_EP[epNumber].buffOffset;
 799              		.loc 1 1337 0
 800 0022 00EB4003 		add	r3, r0, r0, lsl #1
 801 0026 9B00     		lsls	r3, r3, #2
 802 0028 2344     		add	r3, r3, r4
 803 002a DA88     		ldrh	r2, [r3, #6]
 804              	.LVL55:
 805 002c C2F50072 		rsb	r2, r2, #512
 806 0030 92B2     		uxth	r2, r2
 807              	.LVL56:
 808              	.L55:
1338:.\Generated_Source\PSoC5/USBFS.c ****         }
1339:.\Generated_Source\PSoC5/USBFS.c ****     #endif /* (!USBFS_EP_MANAGEMENT_DMA_AUTO) */
1340:.\Generated_Source\PSoC5/USBFS.c **** 
1341:.\Generated_Source\PSoC5/USBFS.c ****         /* Set count and data toggle. */
1342:.\Generated_Source\PSoC5/USBFS.c ****         USBFS_SIE_EP_BASE.sieEp[epNumber].epCnt0 = (uint8) HI8(length) | USBFS_EP[epNumber].epToggl
 809              		.loc 1 1342 0
 810 0032 00EB4003 		add	r3, r0, r0, lsl #1
 811 0036 9B00     		lsls	r3, r3, #2
 812 0038 124C     		ldr	r4, .L63
ARM GAS  C:\Users\Patrick\AppData\Local\Temp\cc4CvmVx.s 			page 39


 813 003a 2344     		add	r3, r3, r4
 814 003c DB78     		ldrb	r3, [r3, #3]	@ zero_extendqisi2
 815 003e 43EA1223 		orr	r3, r3, r2, lsr #8
 816 0042 114D     		ldr	r5, .L63+4
 817 0044 0401     		lsls	r4, r0, #4
 818 0046 2E19     		adds	r6, r5, r4
 819 0048 2B55     		strb	r3, [r5, r4]
1343:.\Generated_Source\PSoC5/USBFS.c ****         USBFS_SIE_EP_BASE.sieEp[epNumber].epCnt1 = (uint8) LO8(length);
 820              		.loc 1 1343 0
 821 004a D3B2     		uxtb	r3, r2
 822 004c 7370     		strb	r3, [r6, #1]
1344:.\Generated_Source\PSoC5/USBFS.c **** 
1345:.\Generated_Source\PSoC5/USBFS.c ****     #if (USBFS_EP_MANAGEMENT_MANUAL)
1346:.\Generated_Source\PSoC5/USBFS.c ****         if (NULL != pData)
 823              		.loc 1 1346 0
 824 004e 39B9     		cbnz	r1, .L59
 825              	.LBB2:
 826 0050 09E0     		b	.L57
 827              	.LVL57:
 828              	.L58:
1347:.\Generated_Source\PSoC5/USBFS.c ****         {
1348:.\Generated_Source\PSoC5/USBFS.c **** 			/* Copy data using arbiter data register. */
1349:.\Generated_Source\PSoC5/USBFS.c ****             uint16 i;
1350:.\Generated_Source\PSoC5/USBFS.c ****             for (i = 0u; i < length; ++i)
1351:.\Generated_Source\PSoC5/USBFS.c ****             {
1352:.\Generated_Source\PSoC5/USBFS.c ****                 USBFS_ARB_EP_BASE.arbEp[epNumber].rwDr = pData[i];
 829              		.loc 1 1352 0 discriminator 3
 830 0052 CE5C     		ldrb	r6, [r1, r3]	@ zero_extendqisi2
 831 0054 3D01     		lsls	r5, r7, #4
 832 0056 0D4C     		ldr	r4, .L63+8
 833 0058 6655     		strb	r6, [r4, r5]
1350:.\Generated_Source\PSoC5/USBFS.c ****             {
 834              		.loc 1 1350 0 discriminator 3
 835 005a 0133     		adds	r3, r3, #1
 836              	.LVL58:
 837 005c 9BB2     		uxth	r3, r3
 838              	.LVL59:
 839 005e 00E0     		b	.L56
 840              	.LVL60:
 841              	.L59:
 842              	.LBE2:
 843 0060 0023     		movs	r3, #0
 844              	.L56:
 845              	.LVL61:
 846              	.LBB3:
1350:.\Generated_Source\PSoC5/USBFS.c ****             {
 847              		.loc 1 1350 0 is_stmt 0 discriminator 1
 848 0062 9342     		cmp	r3, r2
 849 0064 F5D3     		bcc	.L58
 850              	.LVL62:
 851              	.L57:
 852              	.LBE3:
1353:.\Generated_Source\PSoC5/USBFS.c ****             }
1354:.\Generated_Source\PSoC5/USBFS.c ****         }
1355:.\Generated_Source\PSoC5/USBFS.c **** 
1356:.\Generated_Source\PSoC5/USBFS.c ****         /* IN endpoint buffer is full - read to be read. */
1357:.\Generated_Source\PSoC5/USBFS.c ****         USBFS_EP[epNumber].apiEpState = USBFS_NO_EVENT_PENDING;
ARM GAS  C:\Users\Patrick\AppData\Local\Temp\cc4CvmVx.s 			page 40


 853              		.loc 1 1357 0 is_stmt 1
 854 0066 4300     		lsls	r3, r0, #1
 855 0068 0344     		add	r3, r3, r0
 856 006a 9B00     		lsls	r3, r3, #2
 857 006c 054A     		ldr	r2, .L63
 858              	.LVL63:
 859 006e 1344     		add	r3, r3, r2
 860 0070 0022     		movs	r2, #0
 861 0072 5A70     		strb	r2, [r3, #1]
1358:.\Generated_Source\PSoC5/USBFS.c **** 
1359:.\Generated_Source\PSoC5/USBFS.c ****         /* Arm IN endpoint. */
1360:.\Generated_Source\PSoC5/USBFS.c ****         USBFS_SIE_EP_BASE.sieEp[epNumber].epCr0 = USBFS_EP[epNumber].epMode;
 862              		.loc 1 1360 0
 863 0074 5A79     		ldrb	r2, [r3, #5]	@ zero_extendqisi2
 864 0076 D2B2     		uxtb	r2, r2
 865 0078 0001     		lsls	r0, r0, #4
 866              	.LVL64:
 867 007a 054B     		ldr	r3, .L63+12
 868 007c 1A54     		strb	r2, [r3, r0]
1361:.\Generated_Source\PSoC5/USBFS.c **** 
1362:.\Generated_Source\PSoC5/USBFS.c ****     #else
1363:.\Generated_Source\PSoC5/USBFS.c **** 
1364:.\Generated_Source\PSoC5/USBFS.c ****         #if (CY_PSOC3 || CY_PSOC5LP)
1365:.\Generated_Source\PSoC5/USBFS.c ****             /* Initialize DMA if it was not initialized. */
1366:.\Generated_Source\PSoC5/USBFS.c ****             if (DMA_INVALID_TD == USBFS_DmaTd[epNumber])
1367:.\Generated_Source\PSoC5/USBFS.c ****             {
1368:.\Generated_Source\PSoC5/USBFS.c ****                 USBFS_InitEP_DMA(epNumber, pData);
1369:.\Generated_Source\PSoC5/USBFS.c ****             }
1370:.\Generated_Source\PSoC5/USBFS.c ****         #endif /* (CY_PSOC3 || CY_PSOC5LP) */
1371:.\Generated_Source\PSoC5/USBFS.c **** 
1372:.\Generated_Source\PSoC5/USBFS.c ****         #if (USBFS_EP_MANAGEMENT_DMA_MANUAL)
1373:.\Generated_Source\PSoC5/USBFS.c ****             /* IN endpoint buffer will be fully loaded by DMA shortly. */
1374:.\Generated_Source\PSoC5/USBFS.c ****             USBFS_EP[epNumber].apiEpState = USBFS_NO_EVENT_PENDING;
1375:.\Generated_Source\PSoC5/USBFS.c **** 
1376:.\Generated_Source\PSoC5/USBFS.c ****             if ((pData != NULL) && (length > 0u))
1377:.\Generated_Source\PSoC5/USBFS.c ****             {
1378:.\Generated_Source\PSoC5/USBFS.c ****             #if (CY_PSOC4)
1379:.\Generated_Source\PSoC5/USBFS.c ****                 uint32 channelNum = (uint32) USBFS_DmaChan[epNumber];
1380:.\Generated_Source\PSoC5/USBFS.c **** 
1381:.\Generated_Source\PSoC5/USBFS.c ****                 /* Disable DMA channel: start configuration. */
1382:.\Generated_Source\PSoC5/USBFS.c ****                 USBFS_CyDmaChDisable(channelNum);
1383:.\Generated_Source\PSoC5/USBFS.c **** 
1384:.\Generated_Source\PSoC5/USBFS.c ****                 /* Configure source and destination. */
1385:.\Generated_Source\PSoC5/USBFS.c ****                 USBFS_CyDmaSetSrcAddress(channelNum, USBFS_DMA_DESCR0, (void*) pData);
1386:.\Generated_Source\PSoC5/USBFS.c ****                 USBFS_CyDmaSetDstAddress(channelNum, USBFS_DMA_DESCR0, (void*) &USBFS_ARB_EP_BASE.a
1387:.\Generated_Source\PSoC5/USBFS.c **** 
1388:.\Generated_Source\PSoC5/USBFS.c ****                 /* Configure DMA descriptor. */
1389:.\Generated_Source\PSoC5/USBFS.c ****                 --length;
1390:.\Generated_Source\PSoC5/USBFS.c ****                 USBFS_CyDmaSetConfiguration(channelNum, USBFS_DMA_DESCR0, USBFS_DMA_COMMON_CFG | le
1391:.\Generated_Source\PSoC5/USBFS.c ****                                                         CYDMA_BYTE | CYDMA_ELEMENT_WORD | CYDMA_INC
1392:.\Generated_Source\PSoC5/USBFS.c **** 
1393:.\Generated_Source\PSoC5/USBFS.c ****                 /* Validate descriptor to execute on following DMA request. */
1394:.\Generated_Source\PSoC5/USBFS.c ****                 USBFS_CyDmaValidateDescriptor(channelNum, USBFS_DMA_DESCR0);
1395:.\Generated_Source\PSoC5/USBFS.c **** 
1396:.\Generated_Source\PSoC5/USBFS.c ****                 /* Enable DMA channel: configuration complete. */
1397:.\Generated_Source\PSoC5/USBFS.c ****                 USBFS_CyDmaChEnable(channelNum);
1398:.\Generated_Source\PSoC5/USBFS.c ****             #else
ARM GAS  C:\Users\Patrick\AppData\Local\Temp\cc4CvmVx.s 			page 41


1399:.\Generated_Source\PSoC5/USBFS.c ****                 /* Configure DMA to transfer data. */
1400:.\Generated_Source\PSoC5/USBFS.c ****                 (void) CyDmaChDisable(USBFS_DmaChan[epNumber]);
1401:.\Generated_Source\PSoC5/USBFS.c ****                 (void) CyDmaTdSetConfiguration(USBFS_DmaTd[epNumber], length, CY_DMA_DISABLE_TD, TD
1402:.\Generated_Source\PSoC5/USBFS.c ****                 (void) CyDmaTdSetAddress(USBFS_DmaTd[epNumber], LO16((uint32) pData), LO16((uint32)
1403:.\Generated_Source\PSoC5/USBFS.c **** 
1404:.\Generated_Source\PSoC5/USBFS.c ****                 /* Enable DMA channel. */
1405:.\Generated_Source\PSoC5/USBFS.c ****                 (void) CyDmaChSetInitialTd(USBFS_DmaChan[epNumber], USBFS_DmaTd[epNumber]);
1406:.\Generated_Source\PSoC5/USBFS.c ****                 (void) CyDmaChEnable(USBFS_DmaChan[epNumber], 1u);
1407:.\Generated_Source\PSoC5/USBFS.c ****             #endif /* (CY_PSOC4) */
1408:.\Generated_Source\PSoC5/USBFS.c **** 
1409:.\Generated_Source\PSoC5/USBFS.c ****                 /* Generate DMA request. */
1410:.\Generated_Source\PSoC5/USBFS.c ****                 USBFS_ARB_EP_BASE.arbEp[epNumber].epCfg |=  (uint8)  USBFS_ARB_EPX_CFG_DMA_REQ;
1411:.\Generated_Source\PSoC5/USBFS.c ****                 USBFS_ARB_EP_BASE.arbEp[epNumber].epCfg &=  (uint8) ~USBFS_ARB_EPX_CFG_DMA_REQ;
1412:.\Generated_Source\PSoC5/USBFS.c **** 
1413:.\Generated_Source\PSoC5/USBFS.c ****                 /* IN endpoint will be armed in ARB_ISR(source: IN_BUF_FULL) after first DMA transf
1414:.\Generated_Source\PSoC5/USBFS.c ****             }
1415:.\Generated_Source\PSoC5/USBFS.c ****             else
1416:.\Generated_Source\PSoC5/USBFS.c ****             {
1417:.\Generated_Source\PSoC5/USBFS.c ****                 /* When zero-length packet: arm IN endpoint directly. */
1418:.\Generated_Source\PSoC5/USBFS.c ****                 USBFS_SIE_EP_BASE.sieEp[epNumber].epCr0 = USBFS_EP[epNumber].epMode;
1419:.\Generated_Source\PSoC5/USBFS.c ****             }
1420:.\Generated_Source\PSoC5/USBFS.c ****         #endif /* (USBFS_EP_MANAGEMENT_DMA_MANUAL) */
1421:.\Generated_Source\PSoC5/USBFS.c **** 
1422:.\Generated_Source\PSoC5/USBFS.c ****         #if (USBFS_EP_MANAGEMENT_DMA_AUTO)
1423:.\Generated_Source\PSoC5/USBFS.c ****             if (pData != NULL)
1424:.\Generated_Source\PSoC5/USBFS.c ****             {
1425:.\Generated_Source\PSoC5/USBFS.c ****             #if (CY_PSOC4)
1426:.\Generated_Source\PSoC5/USBFS.c ****                 uint32 channelNum = (uint32) USBFS_DmaChan[epNumber];
1427:.\Generated_Source\PSoC5/USBFS.c **** 
1428:.\Generated_Source\PSoC5/USBFS.c ****                 /* Store address of buffer. */
1429:.\Generated_Source\PSoC5/USBFS.c ****                 USBFS_DmaEpBufferAddrBackup[epNumber] = (uint32) pData;
1430:.\Generated_Source\PSoC5/USBFS.c **** 
1431:.\Generated_Source\PSoC5/USBFS.c ****                 /* Disable DMA channel: start configuration. */
1432:.\Generated_Source\PSoC5/USBFS.c ****                 USBFS_CyDmaChDisable(channelNum);
1433:.\Generated_Source\PSoC5/USBFS.c **** 
1434:.\Generated_Source\PSoC5/USBFS.c ****                 /* Set destination address. */
1435:.\Generated_Source\PSoC5/USBFS.c ****                 USBFS_CyDmaSetDstAddress(channelNum, USBFS_DMA_DESCR0, (void*) &USBFS_ARB_EP_BASE.a
1436:.\Generated_Source\PSoC5/USBFS.c ****                 USBFS_CyDmaSetDstAddress(channelNum, USBFS_DMA_DESCR1, (void*) &USBFS_ARB_EP_BASE.a
1437:.\Generated_Source\PSoC5/USBFS.c **** 
1438:.\Generated_Source\PSoC5/USBFS.c ****                 /* Configure DMA descriptor. */
1439:.\Generated_Source\PSoC5/USBFS.c ****                 USBFS_CyDmaSetConfiguration(channelNum, USBFS_DMA_DESCR0, USBFS_DMA_COMMON_CFG  |
1440:.\Generated_Source\PSoC5/USBFS.c ****                                                         CYDMA_BYTE | CYDMA_ELEMENT_WORD | CYDMA_INC
1441:.\Generated_Source\PSoC5/USBFS.c **** 
1442:.\Generated_Source\PSoC5/USBFS.c ****                 /* Configure DMA descriptor. */
1443:.\Generated_Source\PSoC5/USBFS.c ****                 USBFS_CyDmaSetConfiguration(channelNum, USBFS_DMA_DESCR1, USBFS_DMA_COMMON_CFG  |
1444:.\Generated_Source\PSoC5/USBFS.c ****                                                         CYDMA_BYTE | CYDMA_ELEMENT_WORD | CYDMA_INC
1445:.\Generated_Source\PSoC5/USBFS.c **** 
1446:.\Generated_Source\PSoC5/USBFS.c ****                 /* Enable interrupt from DMA channel. */
1447:.\Generated_Source\PSoC5/USBFS.c ****                 USBFS_CyDmaSetInterruptMask(channelNum);
1448:.\Generated_Source\PSoC5/USBFS.c **** 
1449:.\Generated_Source\PSoC5/USBFS.c ****                 /* Validate descriptor 1. It will not be invalided during operation. */
1450:.\Generated_Source\PSoC5/USBFS.c ****                 USBFS_CyDmaValidateDescriptor(channelNum, USBFS_DMA_DESCR1);
1451:.\Generated_Source\PSoC5/USBFS.c **** 
1452:.\Generated_Source\PSoC5/USBFS.c ****                 /* Enable DMA channel: configuration complete. */
1453:.\Generated_Source\PSoC5/USBFS.c ****                 USBFS_CyDmaChEnable(channelNum);
1454:.\Generated_Source\PSoC5/USBFS.c **** 
1455:.\Generated_Source\PSoC5/USBFS.c ****             #else
ARM GAS  C:\Users\Patrick\AppData\Local\Temp\cc4CvmVx.s 			page 42


1456:.\Generated_Source\PSoC5/USBFS.c ****                 (void) CyDmaChDisable(USBFS_DmaChan[epNumber]);
1457:.\Generated_Source\PSoC5/USBFS.c **** 
1458:.\Generated_Source\PSoC5/USBFS.c ****                 #if (USBFS_EP_DMA_AUTO_OPT == 0u)
1459:.\Generated_Source\PSoC5/USBFS.c ****                     USBFS_inLength[epNumber] = length;
1460:.\Generated_Source\PSoC5/USBFS.c ****                     USBFS_inDataPointer[epNumber] = pData;
1461:.\Generated_Source\PSoC5/USBFS.c **** 
1462:.\Generated_Source\PSoC5/USBFS.c ****                     /* Configure DMA to send data only for first burst */
1463:.\Generated_Source\PSoC5/USBFS.c ****                     (void) CyDmaTdSetConfiguration(USBFS_DmaTd[epNumber],
1464:.\Generated_Source\PSoC5/USBFS.c ****                         (length > USBFS_DMA_BYTES_PER_BURST) ? USBFS_DMA_BYTES_PER_BURST : length,
1465:.\Generated_Source\PSoC5/USBFS.c ****                         USBFS_DmaNextTd[epNumber], TD_TERMIN_EN | TD_INC_SRC_ADR);
1466:.\Generated_Source\PSoC5/USBFS.c ****                     (void) CyDmaTdSetAddress(USBFS_DmaTd[epNumber], LO16((uint32) pData),
1467:.\Generated_Source\PSoC5/USBFS.c ****                                                                                LO16((uint32) &USBFS
1468:.\Generated_Source\PSoC5/USBFS.c **** 
1469:.\Generated_Source\PSoC5/USBFS.c ****                     /* The second TD will be executed only when the first one fails.
1470:.\Generated_Source\PSoC5/USBFS.c ****                     *  The intention of this TD is to generate NRQ interrupt
1471:.\Generated_Source\PSoC5/USBFS.c ****                     *  and repeat 2 last bytes of the first burst.
1472:.\Generated_Source\PSoC5/USBFS.c ****                     */
1473:.\Generated_Source\PSoC5/USBFS.c ****                     (void) CyDmaTdSetConfiguration(USBFS_DmaNextTd[epNumber], 1u,
1474:.\Generated_Source\PSoC5/USBFS.c ****                                                    USBFS_DmaNextTd[epNumber],
1475:.\Generated_Source\PSoC5/USBFS.c ****                                                    USBFS_epX_TD_TERMOUT_EN[epNumber]);
1476:.\Generated_Source\PSoC5/USBFS.c **** 
1477:.\Generated_Source\PSoC5/USBFS.c ****                     /* Configure DmaNextTd to clear Data Ready status. */
1478:.\Generated_Source\PSoC5/USBFS.c ****                     (void) CyDmaTdSetAddress(USBFS_DmaNextTd[epNumber], LO16((uint32) &clearInDataR
1479:.\Generated_Source\PSoC5/USBFS.c ****                                                                                    LO16((uint32) &U
1480:.\Generated_Source\PSoC5/USBFS.c ****                 #else
1481:.\Generated_Source\PSoC5/USBFS.c ****                     /* Configure DMA to send all data. */
1482:.\Generated_Source\PSoC5/USBFS.c ****                     (void) CyDmaTdSetConfiguration(USBFS_DmaTd[epNumber], length,
1483:.\Generated_Source\PSoC5/USBFS.c ****                                                    USBFS_DmaTd[epNumber], TD_TERMIN_EN | TD_INC_SRC
1484:.\Generated_Source\PSoC5/USBFS.c ****                     (void) CyDmaTdSetAddress(USBFS_DmaTd[epNumber], LO16((uint32) pData),
1485:.\Generated_Source\PSoC5/USBFS.c ****                                                                                LO16((uint32) &USBFS
1486:.\Generated_Source\PSoC5/USBFS.c ****                 #endif /* (USBFS_EP_DMA_AUTO_OPT == 0u) */
1487:.\Generated_Source\PSoC5/USBFS.c **** 
1488:.\Generated_Source\PSoC5/USBFS.c ****                 /* Clear any potential pending DMA requests before starting DMA channel to transfer
1489:.\Generated_Source\PSoC5/USBFS.c ****                 (void) CyDmaClearPendingDrq(USBFS_DmaChan[epNumber]);
1490:.\Generated_Source\PSoC5/USBFS.c ****                 /* Enable DMA. */
1491:.\Generated_Source\PSoC5/USBFS.c ****                 (void) CyDmaChSetInitialTd(USBFS_DmaChan[epNumber], USBFS_DmaTd[epNumber]);
1492:.\Generated_Source\PSoC5/USBFS.c ****                 (void) CyDmaChEnable(USBFS_DmaChan[epNumber], 1u);
1493:.\Generated_Source\PSoC5/USBFS.c ****             #endif /* (CY_PSOC4) */
1494:.\Generated_Source\PSoC5/USBFS.c ****             }
1495:.\Generated_Source\PSoC5/USBFS.c ****             else
1496:.\Generated_Source\PSoC5/USBFS.c ****             {
1497:.\Generated_Source\PSoC5/USBFS.c ****                 /* IN endpoint buffer (32 bytes) will shortly be preloaded by DMA. */
1498:.\Generated_Source\PSoC5/USBFS.c ****                 USBFS_EP[epNumber].apiEpState = USBFS_NO_EVENT_PENDING;
1499:.\Generated_Source\PSoC5/USBFS.c **** 
1500:.\Generated_Source\PSoC5/USBFS.c ****                 if (length > 0u)
1501:.\Generated_Source\PSoC5/USBFS.c ****                 {
1502:.\Generated_Source\PSoC5/USBFS.c ****                 #if (CY_PSOC4)
1503:.\Generated_Source\PSoC5/USBFS.c ****                     uint32 lengthDescr0, lengthDescr1;
1504:.\Generated_Source\PSoC5/USBFS.c ****                     uint32 channelNum = (uint32) USBFS_DmaChan[epNumber];
1505:.\Generated_Source\PSoC5/USBFS.c **** 
1506:.\Generated_Source\PSoC5/USBFS.c ****                     /* Get number of full bursts. */
1507:.\Generated_Source\PSoC5/USBFS.c ****                     USBFS_DmaEpBurstCnt[epNumber] = (uint8) (length / USBFS_DMA_BYTES_PER_BURST);
1508:.\Generated_Source\PSoC5/USBFS.c **** 
1509:.\Generated_Source\PSoC5/USBFS.c ****                     /* Get number of elements in the last burst. */
1510:.\Generated_Source\PSoC5/USBFS.c ****                     USBFS_DmaEpLastBurstEl[epNumber] = (uint8) (length % USBFS_DMA_BYTES_PER_BURST)
1511:.\Generated_Source\PSoC5/USBFS.c **** 
1512:.\Generated_Source\PSoC5/USBFS.c ****                     /* Get total number of bursts. */
ARM GAS  C:\Users\Patrick\AppData\Local\Temp\cc4CvmVx.s 			page 43


1513:.\Generated_Source\PSoC5/USBFS.c ****                     USBFS_DmaEpBurstCnt[epNumber] += (0u != USBFS_DmaEpLastBurstEl[epNumber]) ? 1u 
1514:.\Generated_Source\PSoC5/USBFS.c **** 
1515:.\Generated_Source\PSoC5/USBFS.c ****                     /* Adjust number of data elements transferred in last burst. */
1516:.\Generated_Source\PSoC5/USBFS.c ****                     USBFS_DmaEpLastBurstEl[epNumber] = (0u != USBFS_DmaEpLastBurstEl[epNumber]) ?
1517:.\Generated_Source\PSoC5/USBFS.c ****                                                                           (USBFS_DmaEpLastBurstEl[e
1518:.\Generated_Source\PSoC5/USBFS.c ****                                                                           (USBFS_DMA_BYTES_PER_BURS
1519:.\Generated_Source\PSoC5/USBFS.c **** 
1520:.\Generated_Source\PSoC5/USBFS.c ****                     /* Get number of data elements to transfer for descriptor 0 and 1. */
1521:.\Generated_Source\PSoC5/USBFS.c ****                     lengthDescr0 = (1u == USBFS_DmaEpBurstCnt[epNumber]) ? USBFS_DmaEpLastBurstEl[e
1522:.\Generated_Source\PSoC5/USBFS.c ****                     lengthDescr1 = (2u == USBFS_DmaEpBurstCnt[epNumber]) ? USBFS_DmaEpLastBurstEl[e
1523:.\Generated_Source\PSoC5/USBFS.c **** 
1524:.\Generated_Source\PSoC5/USBFS.c **** 
1525:.\Generated_Source\PSoC5/USBFS.c ****                     /* Mark which descriptor is last one to execute. */
1526:.\Generated_Source\PSoC5/USBFS.c ****                     USBFS_DmaEpLastBurstEl[epNumber] |= (0u != (USBFS_DmaEpBurstCnt[epNumber] & 0x1
1527:.\Generated_Source\PSoC5/USBFS.c ****                                                                             USBFS_DMA_DESCR0_MASK :
1528:.\Generated_Source\PSoC5/USBFS.c **** 
1529:.\Generated_Source\PSoC5/USBFS.c ****                     /* Adjust burst counter taking to account: 2 valid descriptors and interrupt tr
1530:.\Generated_Source\PSoC5/USBFS.c ****                     USBFS_DmaEpBurstCnt[epNumber] = USBFS_DMA_GET_BURST_CNT(USBFS_DmaEpBurstCnt[epN
1531:.\Generated_Source\PSoC5/USBFS.c **** 
1532:.\Generated_Source\PSoC5/USBFS.c ****                     /* Restore DMA settings for current transfer. */
1533:.\Generated_Source\PSoC5/USBFS.c ****                     USBFS_CyDmaChDisable(channelNum);
1534:.\Generated_Source\PSoC5/USBFS.c **** 
1535:.\Generated_Source\PSoC5/USBFS.c ****                     /* Restore destination address for input endpoint. */
1536:.\Generated_Source\PSoC5/USBFS.c ****                     USBFS_CyDmaSetSrcAddress(channelNum, USBFS_DMA_DESCR0, (void*) ((uint32) USBFS_
1537:.\Generated_Source\PSoC5/USBFS.c ****                     USBFS_CyDmaSetSrcAddress(channelNum, USBFS_DMA_DESCR1, (void*) ((uint32) USBFS_
1538:.\Generated_Source\PSoC5/USBFS.c ****                                                                                                    
1539:.\Generated_Source\PSoC5/USBFS.c **** 
1540:.\Generated_Source\PSoC5/USBFS.c ****                     /* Set number of elements to transfer. */
1541:.\Generated_Source\PSoC5/USBFS.c ****                     USBFS_CyDmaSetNumDataElements(channelNum, USBFS_DMA_DESCR0, lengthDescr0);
1542:.\Generated_Source\PSoC5/USBFS.c ****                     USBFS_CyDmaSetNumDataElements(channelNum, USBFS_DMA_DESCR1, lengthDescr1);
1543:.\Generated_Source\PSoC5/USBFS.c **** 
1544:.\Generated_Source\PSoC5/USBFS.c ****                     /* Validate descriptor 0 and command to start with it. */
1545:.\Generated_Source\PSoC5/USBFS.c ****                     USBFS_CyDmaValidateDescriptor(channelNum, USBFS_DMA_DESCR0);
1546:.\Generated_Source\PSoC5/USBFS.c ****                     USBFS_CyDmaSetDescriptor0Next(channelNum);
1547:.\Generated_Source\PSoC5/USBFS.c **** 
1548:.\Generated_Source\PSoC5/USBFS.c ****                     /* Enable DMA channel: configuration complete. */
1549:.\Generated_Source\PSoC5/USBFS.c ****                     USBFS_CyDmaChEnable(channelNum);
1550:.\Generated_Source\PSoC5/USBFS.c **** 
1551:.\Generated_Source\PSoC5/USBFS.c ****                 #elif (USBFS_EP_DMA_AUTO_OPT == 0u)
1552:.\Generated_Source\PSoC5/USBFS.c ****                     USBFS_inLength[epNumber]  = length;
1553:.\Generated_Source\PSoC5/USBFS.c ****                     USBFS_inBufFull[epNumber] = 0u;
1554:.\Generated_Source\PSoC5/USBFS.c **** 
1555:.\Generated_Source\PSoC5/USBFS.c ****                     (void) CyDmaChDisable(USBFS_DmaChan[epNumber]);
1556:.\Generated_Source\PSoC5/USBFS.c ****                     /* Configure DMA to send data only for first burst. */
1557:.\Generated_Source\PSoC5/USBFS.c ****                     (void) CyDmaTdSetConfiguration(
1558:.\Generated_Source\PSoC5/USBFS.c ****                         USBFS_DmaTd[epNumber], (length > USBFS_DMA_BYTES_PER_BURST) ?
1559:.\Generated_Source\PSoC5/USBFS.c ****                         USBFS_DMA_BYTES_PER_BURST : length,
1560:.\Generated_Source\PSoC5/USBFS.c ****                         USBFS_DmaNextTd[epNumber], TD_TERMIN_EN | TD_INC_SRC_ADR );
1561:.\Generated_Source\PSoC5/USBFS.c ****                     (void) CyDmaTdSetAddress(USBFS_DmaTd[epNumber], LO16((uint32)  USBFS_inDataPoin
1562:.\Generated_Source\PSoC5/USBFS.c ****                                                                                LO16((uint32) &USBFS
1563:.\Generated_Source\PSoC5/USBFS.c ****                     /* Clear Any potential pending DMA requests before starting DMA channel to tran
1564:.\Generated_Source\PSoC5/USBFS.c ****                     (void) CyDmaClearPendingDrq(USBFS_DmaChan[epNumber]);
1565:.\Generated_Source\PSoC5/USBFS.c ****                     /* Enable DMA. */
1566:.\Generated_Source\PSoC5/USBFS.c ****                     (void) CyDmaChSetInitialTd(USBFS_DmaChan[epNumber], USBFS_DmaTd[epNumber]);
1567:.\Generated_Source\PSoC5/USBFS.c ****                     (void) CyDmaChEnable(USBFS_DmaChan[epNumber], 1u);
1568:.\Generated_Source\PSoC5/USBFS.c ****                 #endif /* (CY_PSOC4) */
1569:.\Generated_Source\PSoC5/USBFS.c **** 
ARM GAS  C:\Users\Patrick\AppData\Local\Temp\cc4CvmVx.s 			page 44


1570:.\Generated_Source\PSoC5/USBFS.c ****                 #if !defined (USBFS_MANUAL_IN_EP_ARM)
1571:.\Generated_Source\PSoC5/USBFS.c ****                     /* Set IN data ready to generate DMA request to load data into endpoint buffer.
1572:.\Generated_Source\PSoC5/USBFS.c ****                     USBFS_ARB_EP_BASE.arbEp[epNumber].epCfg |= USBFS_ARB_EPX_CFG_IN_DATA_RDY;
1573:.\Generated_Source\PSoC5/USBFS.c ****                 #endif  /* (USBFS_MANUAL_IN_EP_ARM) */
1574:.\Generated_Source\PSoC5/USBFS.c **** 
1575:.\Generated_Source\PSoC5/USBFS.c ****                     /* IN endpoint will be armed in ARB_ISR(source: IN_BUF_FULL) after first DMA tr
1576:.\Generated_Source\PSoC5/USBFS.c ****                 }
1577:.\Generated_Source\PSoC5/USBFS.c ****                 else
1578:.\Generated_Source\PSoC5/USBFS.c ****                 {
1579:.\Generated_Source\PSoC5/USBFS.c ****                     /* When zero-length packet: arm IN endpoint directly. */
1580:.\Generated_Source\PSoC5/USBFS.c ****                     USBFS_SIE_EP_BASE.sieEp[epNumber].epCr0 = USBFS_EP[epNumber].epMode;
1581:.\Generated_Source\PSoC5/USBFS.c ****                 }
1582:.\Generated_Source\PSoC5/USBFS.c ****             }
1583:.\Generated_Source\PSoC5/USBFS.c ****         #endif /* (USBFS_EP_MANAGEMENT_DMA_AUTO) */
1584:.\Generated_Source\PSoC5/USBFS.c ****     #endif /* (USBFS_EP_MANAGEMENT_MANUAL) */
1585:.\Generated_Source\PSoC5/USBFS.c ****     }
1586:.\Generated_Source\PSoC5/USBFS.c **** }
 869              		.loc 1 1586 0
 870 007e F0BC     		pop	{r4, r5, r6, r7}
 871              		.cfi_restore 7
 872              		.cfi_restore 6
 873              		.cfi_restore 5
 874              		.cfi_restore 4
 875              		.cfi_def_cfa_offset 0
 876              	.L62:
 877 0080 7047     		bx	lr
 878              	.L64:
 879 0082 00BF     		.align	2
 880              	.L63:
 881 0084 00000000 		.word	USBFS_EP
 882 0088 FC5F0040 		.word	1073766396
 883 008c 78600040 		.word	1073766520
 884 0090 FE5F0040 		.word	1073766398
 885              		.cfi_endproc
 886              	.LFE11:
 887              		.size	USBFS_LoadInEP, .-USBFS_LoadInEP
 888              		.section	.text.USBFS_EnableOutEP,"ax",%progbits
 889              		.align	2
 890              		.global	USBFS_EnableOutEP
 891              		.thumb
 892              		.thumb_func
 893              		.type	USBFS_EnableOutEP, %function
 894              	USBFS_EnableOutEP:
 895              	.LFB13:
1587:.\Generated_Source\PSoC5/USBFS.c **** 
1588:.\Generated_Source\PSoC5/USBFS.c **** 
1589:.\Generated_Source\PSoC5/USBFS.c **** /*******************************************************************************
1590:.\Generated_Source\PSoC5/USBFS.c **** * Function Name: USBFS_ReadOutEP
1591:.\Generated_Source\PSoC5/USBFS.c **** ****************************************************************************//**
1592:.\Generated_Source\PSoC5/USBFS.c **** *
1593:.\Generated_Source\PSoC5/USBFS.c **** *   This function performs different functionality depending on the Component’s
1594:.\Generated_Source\PSoC5/USBFS.c **** *   configured Endpoint Buffer Management. This parameter is defined in the
1595:.\Generated_Source\PSoC5/USBFS.c **** *   Descriptor Root in Component Configure window.
1596:.\Generated_Source\PSoC5/USBFS.c **** *
1597:.\Generated_Source\PSoC5/USBFS.c **** *   *Manual (Static/Dynamic Allocation):*
1598:.\Generated_Source\PSoC5/USBFS.c **** *   This function moves the specified number of bytes from endpoint buffer to
1599:.\Generated_Source\PSoC5/USBFS.c **** *   system RAM. The number of bytes actually transferred from endpoint buffer to
ARM GAS  C:\Users\Patrick\AppData\Local\Temp\cc4CvmVx.s 			page 45


1600:.\Generated_Source\PSoC5/USBFS.c **** *   system RAM is the lesser of the actual number of bytes sent by the host or
1601:.\Generated_Source\PSoC5/USBFS.c **** *   the number of bytes requested by the length parameter.
1602:.\Generated_Source\PSoC5/USBFS.c **** *
1603:.\Generated_Source\PSoC5/USBFS.c **** *   *DMA with Manual Buffer Management:*
1604:.\Generated_Source\PSoC5/USBFS.c **** *   Configure DMA to transfer data from endpoint buffer to system RAM. Generate
1605:.\Generated_Source\PSoC5/USBFS.c **** *   a DMA request. The firmware must wait until the DMA completes the data
1606:.\Generated_Source\PSoC5/USBFS.c **** *   transfer after calling the USBFS_ReadOutEP() API. For example,
1607:.\Generated_Source\PSoC5/USBFS.c **** *   by checking EPstate:
1608:.\Generated_Source\PSoC5/USBFS.c **** *
1609:.\Generated_Source\PSoC5/USBFS.c **** *   \snippet /USBFS_sut_02.cydsn/main.c checking EPstatey
1610:.\Generated_Source\PSoC5/USBFS.c **** *
1611:.\Generated_Source\PSoC5/USBFS.c **** *   The USBFS_EnableOutEP() has to be called to allow host to write data into
1612:.\Generated_Source\PSoC5/USBFS.c **** *   the endpoint buffer after DMA has completed transfer data from OUT endpoint
1613:.\Generated_Source\PSoC5/USBFS.c **** *   buffer to SRAM.
1614:.\Generated_Source\PSoC5/USBFS.c **** *
1615:.\Generated_Source\PSoC5/USBFS.c **** *   *DMA with Automatic Buffer Management:*
1616:.\Generated_Source\PSoC5/USBFS.c **** *   Configure DMA. This is required only once and automatically generates DMA
1617:.\Generated_Source\PSoC5/USBFS.c **** *   requests as data arrives
1618:.\Generated_Source\PSoC5/USBFS.c **** *
1619:.\Generated_Source\PSoC5/USBFS.c **** *  \param epNumber: Contains the data endpoint number.
1620:.\Generated_Source\PSoC5/USBFS.c **** *            Valid values are between 1 and 8.
1621:.\Generated_Source\PSoC5/USBFS.c **** *  \param pData: A pointer to a data array from which the data for the endpoint
1622:.\Generated_Source\PSoC5/USBFS.c **** *         space is loaded.
1623:.\Generated_Source\PSoC5/USBFS.c **** *  \param length: The number of bytes to transfer from the USB Out endpoint and
1624:.\Generated_Source\PSoC5/USBFS.c **** *          loads it into data array. Valid values are between 0 and 1023. The
1625:.\Generated_Source\PSoC5/USBFS.c **** *          function moves fewer than the requested number of bytes if the host
1626:.\Generated_Source\PSoC5/USBFS.c **** *          sends fewer bytes than requested.
1627:.\Generated_Source\PSoC5/USBFS.c **** *
1628:.\Generated_Source\PSoC5/USBFS.c **** * \return
1629:.\Generated_Source\PSoC5/USBFS.c **** *  Number of bytes received, 0 for an invalid endpoint.
1630:.\Generated_Source\PSoC5/USBFS.c **** *
1631:.\Generated_Source\PSoC5/USBFS.c **** * \reentrant
1632:.\Generated_Source\PSoC5/USBFS.c **** *  No.
1633:.\Generated_Source\PSoC5/USBFS.c **** *
1634:.\Generated_Source\PSoC5/USBFS.c **** *******************************************************************************/
1635:.\Generated_Source\PSoC5/USBFS.c **** uint16 USBFS_ReadOutEP(uint8 epNumber, uint8 pData[], uint16 length)
1636:.\Generated_Source\PSoC5/USBFS.c ****                                                                         
1637:.\Generated_Source\PSoC5/USBFS.c **** {
1638:.\Generated_Source\PSoC5/USBFS.c ****     if ((pData != NULL) && (epNumber > USBFS_EP0) && (epNumber < USBFS_MAX_EP))
1639:.\Generated_Source\PSoC5/USBFS.c ****     {
1640:.\Generated_Source\PSoC5/USBFS.c ****     #if (!USBFS_EP_MANAGEMENT_DMA_AUTO)
1641:.\Generated_Source\PSoC5/USBFS.c ****         /* Adjust requested length to available data. */
1642:.\Generated_Source\PSoC5/USBFS.c ****         length = (length > USBFS_GetEPCount(epNumber)) ? USBFS_GetEPCount(epNumber) : length;
1643:.\Generated_Source\PSoC5/USBFS.c ****     #endif /* (!USBFS_EP_MANAGEMENT_DMA_AUTO) */
1644:.\Generated_Source\PSoC5/USBFS.c **** 
1645:.\Generated_Source\PSoC5/USBFS.c ****     #if (USBFS_EP_MANAGEMENT_MANUAL)
1646:.\Generated_Source\PSoC5/USBFS.c ****         {
1647:.\Generated_Source\PSoC5/USBFS.c ****             /* Copy data using arbiter data register. */
1648:.\Generated_Source\PSoC5/USBFS.c ****             uint16 i;
1649:.\Generated_Source\PSoC5/USBFS.c ****             for (i = 0u; i < length; ++i)
1650:.\Generated_Source\PSoC5/USBFS.c ****             {
1651:.\Generated_Source\PSoC5/USBFS.c ****                 pData[i] = (uint8) USBFS_ARB_EP_BASE.arbEp[epNumber].rwDr;
1652:.\Generated_Source\PSoC5/USBFS.c ****             }
1653:.\Generated_Source\PSoC5/USBFS.c ****         }
1654:.\Generated_Source\PSoC5/USBFS.c **** 
1655:.\Generated_Source\PSoC5/USBFS.c ****         /* Arm OUT endpoint after data has been copied from endpoint buffer. */
1656:.\Generated_Source\PSoC5/USBFS.c ****         USBFS_EnableOutEP(epNumber);
ARM GAS  C:\Users\Patrick\AppData\Local\Temp\cc4CvmVx.s 			page 46


1657:.\Generated_Source\PSoC5/USBFS.c ****     #else
1658:.\Generated_Source\PSoC5/USBFS.c **** 
1659:.\Generated_Source\PSoC5/USBFS.c ****         #if (CY_PSOC3 || CY_PSOC5LP)
1660:.\Generated_Source\PSoC5/USBFS.c ****             /* Initialize DMA if it was not initialized. */
1661:.\Generated_Source\PSoC5/USBFS.c ****             if (DMA_INVALID_TD == USBFS_DmaTd[epNumber])
1662:.\Generated_Source\PSoC5/USBFS.c ****             {
1663:.\Generated_Source\PSoC5/USBFS.c ****                 USBFS_InitEP_DMA(epNumber, pData);
1664:.\Generated_Source\PSoC5/USBFS.c ****             }
1665:.\Generated_Source\PSoC5/USBFS.c ****         #endif /* (CY_PSOC3 || CY_PSOC5LP) */
1666:.\Generated_Source\PSoC5/USBFS.c **** 
1667:.\Generated_Source\PSoC5/USBFS.c ****         #if (USBFS_EP_MANAGEMENT_DMA_MANUAL)
1668:.\Generated_Source\PSoC5/USBFS.c ****         #if (CY_PSOC4)
1669:.\Generated_Source\PSoC5/USBFS.c ****         {
1670:.\Generated_Source\PSoC5/USBFS.c ****             uint32 channelNum = (uint32) USBFS_DmaChan[epNumber];
1671:.\Generated_Source\PSoC5/USBFS.c **** 
1672:.\Generated_Source\PSoC5/USBFS.c ****             /* Disable DMA channel: start configuration. */
1673:.\Generated_Source\PSoC5/USBFS.c ****             USBFS_CyDmaChDisable(channelNum);
1674:.\Generated_Source\PSoC5/USBFS.c **** 
1675:.\Generated_Source\PSoC5/USBFS.c ****             /* Configure source and destination. */
1676:.\Generated_Source\PSoC5/USBFS.c ****             USBFS_CyDmaSetSrcAddress(channelNum, USBFS_DMA_DESCR0, (void*) &USBFS_ARB_EP_BASE.arbEp
1677:.\Generated_Source\PSoC5/USBFS.c ****             USBFS_CyDmaSetDstAddress(channelNum, USBFS_DMA_DESCR0, (void*) pData);
1678:.\Generated_Source\PSoC5/USBFS.c **** 
1679:.\Generated_Source\PSoC5/USBFS.c ****             /* Configure DMA descriptor. */
1680:.\Generated_Source\PSoC5/USBFS.c ****             USBFS_CyDmaSetConfiguration(channelNum, USBFS_DMA_DESCR0, USBFS_DMA_COMMON_CFG | (uint1
1681:.\Generated_Source\PSoC5/USBFS.c ****                                                     CYDMA_BYTE | CYDMA_WORD_ELEMENT | CYDMA_INC_DST
1682:.\Generated_Source\PSoC5/USBFS.c **** 
1683:.\Generated_Source\PSoC5/USBFS.c ****             /* Validate descriptor to execute on following DMA request. */
1684:.\Generated_Source\PSoC5/USBFS.c ****             USBFS_CyDmaValidateDescriptor(channelNum, USBFS_DMA_DESCR0);
1685:.\Generated_Source\PSoC5/USBFS.c **** 
1686:.\Generated_Source\PSoC5/USBFS.c ****             /* Enable DMA channel: configuration complete. */
1687:.\Generated_Source\PSoC5/USBFS.c ****             USBFS_CyDmaChEnable(channelNum);
1688:.\Generated_Source\PSoC5/USBFS.c ****         }
1689:.\Generated_Source\PSoC5/USBFS.c ****         #else
1690:.\Generated_Source\PSoC5/USBFS.c ****             /* Configure DMA to transfer data. */
1691:.\Generated_Source\PSoC5/USBFS.c ****             (void) CyDmaChDisable(USBFS_DmaChan[epNumber]);
1692:.\Generated_Source\PSoC5/USBFS.c ****             (void) CyDmaTdSetConfiguration(USBFS_DmaTd[epNumber], length, CY_DMA_DISABLE_TD, TD_TER
1693:.\Generated_Source\PSoC5/USBFS.c ****             (void) CyDmaTdSetAddress(USBFS_DmaTd[epNumber], LO16((uint32) &USBFS_ARB_EP_BASE.arbEp[
1694:.\Generated_Source\PSoC5/USBFS.c **** 
1695:.\Generated_Source\PSoC5/USBFS.c ****             /* Enable DMA channel. */
1696:.\Generated_Source\PSoC5/USBFS.c ****             (void) CyDmaChSetInitialTd(USBFS_DmaChan[epNumber], USBFS_DmaTd[epNumber]);
1697:.\Generated_Source\PSoC5/USBFS.c ****             (void) CyDmaChEnable(USBFS_DmaChan[epNumber], 1u);
1698:.\Generated_Source\PSoC5/USBFS.c ****         #endif /* (CY_PSOC4) */
1699:.\Generated_Source\PSoC5/USBFS.c **** 
1700:.\Generated_Source\PSoC5/USBFS.c ****             /* Generate DMA request. */
1701:.\Generated_Source\PSoC5/USBFS.c ****             USBFS_ARB_EP_BASE.arbEp[epNumber].epCfg |=  (uint8)  USBFS_ARB_EPX_CFG_DMA_REQ;
1702:.\Generated_Source\PSoC5/USBFS.c ****             USBFS_ARB_EP_BASE.arbEp[epNumber].epCfg &=  (uint8) ~USBFS_ARB_EPX_CFG_DMA_REQ;
1703:.\Generated_Source\PSoC5/USBFS.c **** 
1704:.\Generated_Source\PSoC5/USBFS.c ****             /* OUT endpoint has to be armed again by user when DMA transfers have been completed.
1705:.\Generated_Source\PSoC5/USBFS.c ****             * NO_EVENT_PENDING: notifies that data has been copied from endpoint buffer.
1706:.\Generated_Source\PSoC5/USBFS.c ****             */
1707:.\Generated_Source\PSoC5/USBFS.c **** 
1708:.\Generated_Source\PSoC5/USBFS.c ****         #endif /* (USBFS_EP_MANAGEMENT_DMA_MANUAL) */
1709:.\Generated_Source\PSoC5/USBFS.c **** 
1710:.\Generated_Source\PSoC5/USBFS.c ****         #if (USBFS_EP_MANAGEMENT_DMA_AUTO)
1711:.\Generated_Source\PSoC5/USBFS.c ****         #if (CY_PSOC4)
1712:.\Generated_Source\PSoC5/USBFS.c ****         {
1713:.\Generated_Source\PSoC5/USBFS.c ****             uint32 channelNum = (uint32) USBFS_DmaChan[epNumber];
ARM GAS  C:\Users\Patrick\AppData\Local\Temp\cc4CvmVx.s 			page 47


1714:.\Generated_Source\PSoC5/USBFS.c ****             uint32 lengthDescr0, lengthDescr1;
1715:.\Generated_Source\PSoC5/USBFS.c **** 
1716:.\Generated_Source\PSoC5/USBFS.c ****             /* Get number of full bursts. */
1717:.\Generated_Source\PSoC5/USBFS.c ****             USBFS_DmaEpBurstCnt[epNumber] = (uint8) (length / USBFS_DMA_BYTES_PER_BURST);
1718:.\Generated_Source\PSoC5/USBFS.c **** 
1719:.\Generated_Source\PSoC5/USBFS.c ****             /* Get number of elements in the last burst. */
1720:.\Generated_Source\PSoC5/USBFS.c ****             USBFS_DmaEpLastBurstEl[epNumber] = (uint8) (length % USBFS_DMA_BYTES_PER_BURST);
1721:.\Generated_Source\PSoC5/USBFS.c **** 
1722:.\Generated_Source\PSoC5/USBFS.c ****             /* Get total number of bursts. */
1723:.\Generated_Source\PSoC5/USBFS.c ****             USBFS_DmaEpBurstCnt[epNumber] += (0u != USBFS_DmaEpLastBurstEl[epNumber]) ? 1u : 0u;
1724:.\Generated_Source\PSoC5/USBFS.c **** 
1725:.\Generated_Source\PSoC5/USBFS.c ****             /* Adjust number of the data elements transfered in last burst. */
1726:.\Generated_Source\PSoC5/USBFS.c ****             USBFS_DmaEpLastBurstEl[epNumber] = (0u != USBFS_DmaEpLastBurstEl[epNumber]) ?
1727:.\Generated_Source\PSoC5/USBFS.c ****                                                                   (USBFS_DmaEpLastBurstEl[epNumber]
1728:.\Generated_Source\PSoC5/USBFS.c ****                                                                   (USBFS_DMA_BYTES_PER_BURST - 1u);
1729:.\Generated_Source\PSoC5/USBFS.c **** 
1730:.\Generated_Source\PSoC5/USBFS.c ****             /* Get number of data elements to transfer for descriptor 0 and 1. */
1731:.\Generated_Source\PSoC5/USBFS.c ****             lengthDescr0 = (1u == USBFS_DmaEpBurstCnt[epNumber]) ? USBFS_DmaEpLastBurstEl[epNumber]
1732:.\Generated_Source\PSoC5/USBFS.c ****             lengthDescr1 = (2u == USBFS_DmaEpBurstCnt[epNumber]) ? USBFS_DmaEpLastBurstEl[epNumber]
1733:.\Generated_Source\PSoC5/USBFS.c **** 
1734:.\Generated_Source\PSoC5/USBFS.c ****             /* Mark if revert number of data elements in descriptor after transfer completion. */
1735:.\Generated_Source\PSoC5/USBFS.c ****             USBFS_DmaEpLastBurstEl[epNumber] |= (USBFS_DmaEpBurstCnt[epNumber] > 2u) ? USBFS_DMA_DE
1736:.\Generated_Source\PSoC5/USBFS.c **** 
1737:.\Generated_Source\PSoC5/USBFS.c ****             /* Mark last descriptor to be executed. */
1738:.\Generated_Source\PSoC5/USBFS.c ****             USBFS_DmaEpLastBurstEl[epNumber] |= (0u != (USBFS_DmaEpBurstCnt[epNumber] & 0x1u)) ?
1739:.\Generated_Source\PSoC5/USBFS.c ****                                                                     USBFS_DMA_DESCR0_MASK : USBFS_D
1740:.\Generated_Source\PSoC5/USBFS.c **** 
1741:.\Generated_Source\PSoC5/USBFS.c ****             /* Adjust burst counter taking to account: 2 valid descriptors and interrupt trigger af
1742:.\Generated_Source\PSoC5/USBFS.c ****             USBFS_DmaEpBurstCnt[epNumber] = USBFS_DMA_GET_BURST_CNT(USBFS_DmaEpBurstCnt[epNumber]);
1743:.\Generated_Source\PSoC5/USBFS.c **** 
1744:.\Generated_Source\PSoC5/USBFS.c ****             /* Store address of buffer and burst counter for endpoint. */
1745:.\Generated_Source\PSoC5/USBFS.c ****             USBFS_DmaEpBufferAddrBackup[epNumber] = (uint32) pData;
1746:.\Generated_Source\PSoC5/USBFS.c ****             USBFS_DmaEpBurstCntBackup[epNumber]   = USBFS_DmaEpBurstCnt[epNumber];
1747:.\Generated_Source\PSoC5/USBFS.c **** 
1748:.\Generated_Source\PSoC5/USBFS.c ****             /* Disable DMA channel: start configuration. */
1749:.\Generated_Source\PSoC5/USBFS.c ****             USBFS_CyDmaChDisable(channelNum);
1750:.\Generated_Source\PSoC5/USBFS.c **** 
1751:.\Generated_Source\PSoC5/USBFS.c ****             /* Set destination address. */
1752:.\Generated_Source\PSoC5/USBFS.c ****             USBFS_CyDmaSetSrcAddress(channelNum, USBFS_DMA_DESCR0, (void*) &USBFS_ARB_EP_BASE.arbEp
1753:.\Generated_Source\PSoC5/USBFS.c ****             USBFS_CyDmaSetSrcAddress(channelNum, USBFS_DMA_DESCR1, (void*) &USBFS_ARB_EP_BASE.arbEp
1754:.\Generated_Source\PSoC5/USBFS.c **** 
1755:.\Generated_Source\PSoC5/USBFS.c ****             USBFS_CyDmaSetDstAddress(channelNum, USBFS_DMA_DESCR0, (void*) ((uint32) pData));
1756:.\Generated_Source\PSoC5/USBFS.c ****             USBFS_CyDmaSetDstAddress(channelNum, USBFS_DMA_DESCR1, (void*) ((uint32) pData + USBFS_
1757:.\Generated_Source\PSoC5/USBFS.c **** 
1758:.\Generated_Source\PSoC5/USBFS.c ****             /* Configure DMA descriptor. */
1759:.\Generated_Source\PSoC5/USBFS.c ****             USBFS_CyDmaSetConfiguration(channelNum, USBFS_DMA_DESCR0, USBFS_DMA_COMMON_CFG  | lengt
1760:.\Generated_Source\PSoC5/USBFS.c ****                                                     CYDMA_BYTE | CYDMA_WORD_ELEMENT | CYDMA_INC_DST
1761:.\Generated_Source\PSoC5/USBFS.c **** 
1762:.\Generated_Source\PSoC5/USBFS.c ****             /* Configure DMA descriptor. */
1763:.\Generated_Source\PSoC5/USBFS.c ****             USBFS_CyDmaSetConfiguration(channelNum, USBFS_DMA_DESCR1, USBFS_DMA_COMMON_CFG  | lengt
1764:.\Generated_Source\PSoC5/USBFS.c ****                                                     CYDMA_BYTE | CYDMA_WORD_ELEMENT | CYDMA_INC_DST
1765:.\Generated_Source\PSoC5/USBFS.c **** 
1766:.\Generated_Source\PSoC5/USBFS.c ****             /* Enable interrupt from DMA channel. */
1767:.\Generated_Source\PSoC5/USBFS.c ****             USBFS_CyDmaSetInterruptMask(channelNum);
1768:.\Generated_Source\PSoC5/USBFS.c **** 
1769:.\Generated_Source\PSoC5/USBFS.c ****             /* Validate DMA descriptor 0 and 1. */
1770:.\Generated_Source\PSoC5/USBFS.c ****             USBFS_CyDmaValidateDescriptor(channelNum, USBFS_DMA_DESCR0);
ARM GAS  C:\Users\Patrick\AppData\Local\Temp\cc4CvmVx.s 			page 48


1771:.\Generated_Source\PSoC5/USBFS.c ****             USBFS_CyDmaValidateDescriptor(channelNum, USBFS_DMA_DESCR1);
1772:.\Generated_Source\PSoC5/USBFS.c **** 
1773:.\Generated_Source\PSoC5/USBFS.c ****             /* Enable DMA channel: configuration complete. */
1774:.\Generated_Source\PSoC5/USBFS.c ****             USBFS_CyDmaChEnable(channelNum);
1775:.\Generated_Source\PSoC5/USBFS.c ****         }
1776:.\Generated_Source\PSoC5/USBFS.c ****         #else
1777:.\Generated_Source\PSoC5/USBFS.c ****             (void) CyDmaChDisable(USBFS_DmaChan[epNumber]);
1778:.\Generated_Source\PSoC5/USBFS.c ****             (void) CyDmaTdSetConfiguration(USBFS_DmaTd[epNumber], length,  USBFS_DmaTd[epNumber], T
1779:.\Generated_Source\PSoC5/USBFS.c ****             (void) CyDmaTdSetAddress(USBFS_DmaTd[epNumber], LO16((uint32) &USBFS_ARB_EP_BASE.arbEp[
1780:.\Generated_Source\PSoC5/USBFS.c **** 
1781:.\Generated_Source\PSoC5/USBFS.c ****             /* Clear Any potential pending DMA requests before starting DMA channel to transfer dat
1782:.\Generated_Source\PSoC5/USBFS.c ****             (void) CyDmaClearPendingDrq(USBFS_DmaChan[epNumber]);
1783:.\Generated_Source\PSoC5/USBFS.c **** 
1784:.\Generated_Source\PSoC5/USBFS.c ****             /* Enable DMA channel. */
1785:.\Generated_Source\PSoC5/USBFS.c ****             (void) CyDmaChSetInitialTd(USBFS_DmaChan[epNumber], USBFS_DmaTd[epNumber]);
1786:.\Generated_Source\PSoC5/USBFS.c ****             (void) CyDmaChEnable(USBFS_DmaChan[epNumber], 1u);
1787:.\Generated_Source\PSoC5/USBFS.c ****         #endif /* (CY_PSOC4) */
1788:.\Generated_Source\PSoC5/USBFS.c **** 
1789:.\Generated_Source\PSoC5/USBFS.c ****             /* OUT endpoint has to be armed again by user when DMA transfers have been completed.
1790:.\Generated_Source\PSoC5/USBFS.c ****             * NO_EVENT_PENDING: notifies that data has been copied from endpoint buffer.
1791:.\Generated_Source\PSoC5/USBFS.c ****             */
1792:.\Generated_Source\PSoC5/USBFS.c **** 
1793:.\Generated_Source\PSoC5/USBFS.c ****         #endif /* (USBFS_EP_MANAGEMENT_DMA_AUTO) */
1794:.\Generated_Source\PSoC5/USBFS.c ****     #endif /* (USBFS_EP_MANAGEMENT_MANUAL) */
1795:.\Generated_Source\PSoC5/USBFS.c ****     }
1796:.\Generated_Source\PSoC5/USBFS.c ****     else
1797:.\Generated_Source\PSoC5/USBFS.c ****     {
1798:.\Generated_Source\PSoC5/USBFS.c ****         length = 0u;
1799:.\Generated_Source\PSoC5/USBFS.c ****     }
1800:.\Generated_Source\PSoC5/USBFS.c **** 
1801:.\Generated_Source\PSoC5/USBFS.c ****     return (length);
1802:.\Generated_Source\PSoC5/USBFS.c **** }
1803:.\Generated_Source\PSoC5/USBFS.c **** 
1804:.\Generated_Source\PSoC5/USBFS.c **** 
1805:.\Generated_Source\PSoC5/USBFS.c **** #if (USBFS_16BITS_EP_ACCESS_ENABLE)
1806:.\Generated_Source\PSoC5/USBFS.c **** /*******************************************************************************
1807:.\Generated_Source\PSoC5/USBFS.c **** * Function Name: USBFS_LoadInEP16
1808:.\Generated_Source\PSoC5/USBFS.c **** ****************************************************************************//**
1809:.\Generated_Source\PSoC5/USBFS.c **** *
1810:.\Generated_Source\PSoC5/USBFS.c **** *  This function performs different functionality depending on the Component’s
1811:.\Generated_Source\PSoC5/USBFS.c **** *  configured Endpoint Buffer Management. This parameter is defined in
1812:.\Generated_Source\PSoC5/USBFS.c **** *  the Descriptor Root in Component Configure window.
1813:.\Generated_Source\PSoC5/USBFS.c **** *
1814:.\Generated_Source\PSoC5/USBFS.c **** *  *Manual (Static/Dynamic Allocation):*
1815:.\Generated_Source\PSoC5/USBFS.c **** *  This function loads and enables the specified USB data endpoint for an IN
1816:.\Generated_Source\PSoC5/USBFS.c **** *  data transfer.
1817:.\Generated_Source\PSoC5/USBFS.c **** *
1818:.\Generated_Source\PSoC5/USBFS.c **** *  *DMA with Manual Buffer Management:*
1819:.\Generated_Source\PSoC5/USBFS.c **** *  Configures DMA for a data transfer from system RAM to endpoint buffer.
1820:.\Generated_Source\PSoC5/USBFS.c **** *  Generates request for a transfer.
1821:.\Generated_Source\PSoC5/USBFS.c **** *
1822:.\Generated_Source\PSoC5/USBFS.c **** *  *DMA with Automatic Buffer Management:*
1823:.\Generated_Source\PSoC5/USBFS.c **** *  Configures DMA. This is required only once, so it is done only when parameter
1824:.\Generated_Source\PSoC5/USBFS.c **** *  pData is not NULL. When the pData pointer is NULL, the function skips this
1825:.\Generated_Source\PSoC5/USBFS.c **** *  task. Sets Data ready status: This generates the first DMA transfer and
1826:.\Generated_Source\PSoC5/USBFS.c **** *  prepares data in endpoint buffer.
1827:.\Generated_Source\PSoC5/USBFS.c **** *
ARM GAS  C:\Users\Patrick\AppData\Local\Temp\cc4CvmVx.s 			page 49


1828:.\Generated_Source\PSoC5/USBFS.c **** *  \param epNumber Contains the data endpoint number.
1829:.\Generated_Source\PSoC5/USBFS.c **** *        Valid values are between 1 and 8.
1830:.\Generated_Source\PSoC5/USBFS.c **** *  \param *pData A pointer to a data array from which the data for the endpoint
1831:.\Generated_Source\PSoC5/USBFS.c **** *        space is loaded. It shall be ensured that this pointer address is even
1832:.\Generated_Source\PSoC5/USBFS.c **** *        to ensure the 16-bit transfer is aligned to even address. Else, a hard
1833:.\Generated_Source\PSoC5/USBFS.c **** *        fault condition can occur.
1834:.\Generated_Source\PSoC5/USBFS.c **** *  \param length The number of bytes to transfer from the array and then send as
1835:.\Generated_Source\PSoC5/USBFS.c **** *        a result of an IN request. Valid values are between 0 and 512 (1023 for
1836:.\Generated_Source\PSoC5/USBFS.c **** *        DMA with Automatic Buffer Management mode). The value 512 is applicable
1837:.\Generated_Source\PSoC5/USBFS.c **** *        if only one endpoint is used.
1838:.\Generated_Source\PSoC5/USBFS.c **** *
1839:.\Generated_Source\PSoC5/USBFS.c **** * \reentrant
1840:.\Generated_Source\PSoC5/USBFS.c **** *  No.
1841:.\Generated_Source\PSoC5/USBFS.c **** *
1842:.\Generated_Source\PSoC5/USBFS.c **** *******************************************************************************/
1843:.\Generated_Source\PSoC5/USBFS.c **** void USBFS_LoadInEP16(uint8 epNumber, const uint8 pData[], uint16 length)
1844:.\Generated_Source\PSoC5/USBFS.c **** {
1845:.\Generated_Source\PSoC5/USBFS.c ****     /* Check array alignment on half-word boundary. */
1846:.\Generated_Source\PSoC5/USBFS.c ****     CYASSERT(0u == (((uint32) pData) & 0x01u));
1847:.\Generated_Source\PSoC5/USBFS.c **** 
1848:.\Generated_Source\PSoC5/USBFS.c ****     if ((epNumber > USBFS_EP0) && (epNumber < USBFS_MAX_EP))
1849:.\Generated_Source\PSoC5/USBFS.c ****     {
1850:.\Generated_Source\PSoC5/USBFS.c ****     #if (!USBFS_EP_MANAGEMENT_DMA_AUTO)
1851:.\Generated_Source\PSoC5/USBFS.c ****         /* Limit length to available buffer USB IP buffer size. */
1852:.\Generated_Source\PSoC5/USBFS.c ****         if (length > (USBFS_EPX_DATA_BUF_MAX - USBFS_EP[epNumber].buffOffset))
1853:.\Generated_Source\PSoC5/USBFS.c ****         {
1854:.\Generated_Source\PSoC5/USBFS.c ****             length = USBFS_EPX_DATA_BUF_MAX - USBFS_EP[epNumber].buffOffset;
1855:.\Generated_Source\PSoC5/USBFS.c ****         }
1856:.\Generated_Source\PSoC5/USBFS.c ****     #endif /* (!USBFS_EP_MANAGEMENT_DMA_AUTO) */
1857:.\Generated_Source\PSoC5/USBFS.c **** 
1858:.\Generated_Source\PSoC5/USBFS.c ****         /* Set count and data toggle. */
1859:.\Generated_Source\PSoC5/USBFS.c ****         USBFS_SIE_EP_BASE.sieEp[epNumber].epCnt0 = (uint32) HI8(length) | USBFS_EP[epNumber].epTogg
1860:.\Generated_Source\PSoC5/USBFS.c ****         USBFS_SIE_EP_BASE.sieEp[epNumber].epCnt1 = (uint32) LO8(length);
1861:.\Generated_Source\PSoC5/USBFS.c **** 
1862:.\Generated_Source\PSoC5/USBFS.c ****         /* Adjust requested length: 2 bytes are handled at one data register access. */
1863:.\Generated_Source\PSoC5/USBFS.c ****         length += (length & 0x01u);
1864:.\Generated_Source\PSoC5/USBFS.c **** 
1865:.\Generated_Source\PSoC5/USBFS.c ****     #if (USBFS_EP_MANAGEMENT_MANUAL)
1866:.\Generated_Source\PSoC5/USBFS.c ****         if (NULL != pData)
1867:.\Generated_Source\PSoC5/USBFS.c ****         {
1868:.\Generated_Source\PSoC5/USBFS.c ****             /* Convert uint8 array to uint16. */
1869:.\Generated_Source\PSoC5/USBFS.c ****             const uint16 *dataBuf = (uint16 *) pData;
1870:.\Generated_Source\PSoC5/USBFS.c **** 
1871:.\Generated_Source\PSoC5/USBFS.c ****             /* Copy data using 16-bits arbiter data register. */
1872:.\Generated_Source\PSoC5/USBFS.c ****             uint16 i;
1873:.\Generated_Source\PSoC5/USBFS.c ****             for (i = 0u; i < (length >> 1u); ++i)
1874:.\Generated_Source\PSoC5/USBFS.c ****             {
1875:.\Generated_Source\PSoC5/USBFS.c ****                 USBFS_ARB_EP16_BASE.arbEp[epNumber].rwDr16 = dataBuf[i];
1876:.\Generated_Source\PSoC5/USBFS.c ****             }
1877:.\Generated_Source\PSoC5/USBFS.c ****         }
1878:.\Generated_Source\PSoC5/USBFS.c **** 
1879:.\Generated_Source\PSoC5/USBFS.c ****         /* IN endpoint buffer is full - read to be read. */
1880:.\Generated_Source\PSoC5/USBFS.c ****         USBFS_EP[epNumber].apiEpState = USBFS_NO_EVENT_PENDING;
1881:.\Generated_Source\PSoC5/USBFS.c **** 
1882:.\Generated_Source\PSoC5/USBFS.c ****         /* Arm IN endpoint. */
1883:.\Generated_Source\PSoC5/USBFS.c ****         USBFS_SIE_EP_BASE.sieEp[epNumber].epCr0 = USBFS_EP[epNumber].epMode;
1884:.\Generated_Source\PSoC5/USBFS.c **** 
ARM GAS  C:\Users\Patrick\AppData\Local\Temp\cc4CvmVx.s 			page 50


1885:.\Generated_Source\PSoC5/USBFS.c ****     #else
1886:.\Generated_Source\PSoC5/USBFS.c **** 
1887:.\Generated_Source\PSoC5/USBFS.c ****         #if (USBFS_EP_MANAGEMENT_DMA_MANUAL)
1888:.\Generated_Source\PSoC5/USBFS.c ****             /* IN endpoint buffer will be fully loaded by DMA shortly. */
1889:.\Generated_Source\PSoC5/USBFS.c ****             USBFS_EP[epNumber].apiEpState = USBFS_NO_EVENT_PENDING;
1890:.\Generated_Source\PSoC5/USBFS.c **** 
1891:.\Generated_Source\PSoC5/USBFS.c ****             if ((pData != NULL) && (length > 0u))
1892:.\Generated_Source\PSoC5/USBFS.c ****             {
1893:.\Generated_Source\PSoC5/USBFS.c ****                 uint32 channelNum = (uint32) USBFS_DmaChan[epNumber];
1894:.\Generated_Source\PSoC5/USBFS.c **** 
1895:.\Generated_Source\PSoC5/USBFS.c ****                 /* Disable DMA channel: start configuration. */
1896:.\Generated_Source\PSoC5/USBFS.c ****                 USBFS_CyDmaChDisable(channelNum);
1897:.\Generated_Source\PSoC5/USBFS.c **** 
1898:.\Generated_Source\PSoC5/USBFS.c ****                 /* Configure source and destination. */
1899:.\Generated_Source\PSoC5/USBFS.c ****                 USBFS_CyDmaSetSrcAddress(channelNum, USBFS_DMA_DESCR0, (void*) pData);
1900:.\Generated_Source\PSoC5/USBFS.c ****                 USBFS_CyDmaSetDstAddress(channelNum, USBFS_DMA_DESCR0, (void*) &USBFS_ARB_EP16_BASE
1901:.\Generated_Source\PSoC5/USBFS.c **** 
1902:.\Generated_Source\PSoC5/USBFS.c ****                 /* Configure DMA descriptor. */
1903:.\Generated_Source\PSoC5/USBFS.c ****                 length = (length >> 1u) - 1u;
1904:.\Generated_Source\PSoC5/USBFS.c ****                 USBFS_CyDmaSetConfiguration(channelNum, USBFS_DMA_DESCR0, USBFS_DMA_COMMON_CFG | le
1905:.\Generated_Source\PSoC5/USBFS.c ****                                                         CYDMA_HALFWORD | CYDMA_ELEMENT_WORD | CYDMA
1906:.\Generated_Source\PSoC5/USBFS.c **** 
1907:.\Generated_Source\PSoC5/USBFS.c ****                 /* Validate descriptor to execute on following DMA request. */
1908:.\Generated_Source\PSoC5/USBFS.c ****                 USBFS_CyDmaValidateDescriptor(channelNum, USBFS_DMA_DESCR0);
1909:.\Generated_Source\PSoC5/USBFS.c **** 
1910:.\Generated_Source\PSoC5/USBFS.c ****                 /* Enable DMA channel: configuration complete. */
1911:.\Generated_Source\PSoC5/USBFS.c ****                 USBFS_CyDmaChEnable(channelNum);
1912:.\Generated_Source\PSoC5/USBFS.c **** 
1913:.\Generated_Source\PSoC5/USBFS.c ****                 /* Generate DMA request. */
1914:.\Generated_Source\PSoC5/USBFS.c ****                 USBFS_ARB_EP_BASE.arbEp[epNumber].epCfg |=  (uint32)  USBFS_ARB_EPX_CFG_DMA_REQ;
1915:.\Generated_Source\PSoC5/USBFS.c ****                 USBFS_ARB_EP_BASE.arbEp[epNumber].epCfg &=  (uint32) ~USBFS_ARB_EPX_CFG_DMA_REQ;
1916:.\Generated_Source\PSoC5/USBFS.c **** 
1917:.\Generated_Source\PSoC5/USBFS.c ****                 /* IN endpoint will be armed in ARB_ISR(source: IN_BUF_FULL) after first DMA transf
1918:.\Generated_Source\PSoC5/USBFS.c ****             }
1919:.\Generated_Source\PSoC5/USBFS.c ****             else
1920:.\Generated_Source\PSoC5/USBFS.c ****             {
1921:.\Generated_Source\PSoC5/USBFS.c ****                 /* When zero-length packet: arm IN endpoint directly. */
1922:.\Generated_Source\PSoC5/USBFS.c ****                 USBFS_SIE_EP_BASE.sieEp[epNumber].epCr0 = USBFS_EP[epNumber].epMode;
1923:.\Generated_Source\PSoC5/USBFS.c ****             }
1924:.\Generated_Source\PSoC5/USBFS.c ****         #endif /* (USBFS_EP_MANAGEMENT_DMA_MANUAL) */
1925:.\Generated_Source\PSoC5/USBFS.c **** 
1926:.\Generated_Source\PSoC5/USBFS.c ****         #if (USBFS_EP_MANAGEMENT_DMA_AUTO)
1927:.\Generated_Source\PSoC5/USBFS.c ****             if (pData != NULL)
1928:.\Generated_Source\PSoC5/USBFS.c ****             {
1929:.\Generated_Source\PSoC5/USBFS.c ****                 uint32 channelNum = (uint32) USBFS_DmaChan[epNumber];
1930:.\Generated_Source\PSoC5/USBFS.c **** 
1931:.\Generated_Source\PSoC5/USBFS.c ****                 /* Store address of buffer. */
1932:.\Generated_Source\PSoC5/USBFS.c ****                 USBFS_DmaEpBufferAddrBackup[epNumber] = (uint32) pData;
1933:.\Generated_Source\PSoC5/USBFS.c **** 
1934:.\Generated_Source\PSoC5/USBFS.c ****                 /* Disable DMA channel: start configuration. */
1935:.\Generated_Source\PSoC5/USBFS.c ****                 USBFS_CyDmaChDisable(channelNum);
1936:.\Generated_Source\PSoC5/USBFS.c **** 
1937:.\Generated_Source\PSoC5/USBFS.c ****                 /* Set destination address. */
1938:.\Generated_Source\PSoC5/USBFS.c ****                 USBFS_CyDmaSetDstAddress(channelNum, USBFS_DMA_DESCR0, (void*) &USBFS_ARB_EP16_BASE
1939:.\Generated_Source\PSoC5/USBFS.c ****                 USBFS_CyDmaSetDstAddress(channelNum, USBFS_DMA_DESCR1, (void*) &USBFS_ARB_EP16_BASE
1940:.\Generated_Source\PSoC5/USBFS.c **** 
1941:.\Generated_Source\PSoC5/USBFS.c ****                 /* Configure DMA descriptor. */
ARM GAS  C:\Users\Patrick\AppData\Local\Temp\cc4CvmVx.s 			page 51


1942:.\Generated_Source\PSoC5/USBFS.c ****                 USBFS_CyDmaSetConfiguration(channelNum, USBFS_DMA_DESCR0, USBFS_DMA_COMMON_CFG  |
1943:.\Generated_Source\PSoC5/USBFS.c ****                                                         CYDMA_HALFWORD | CYDMA_ELEMENT_WORD | CYDMA
1944:.\Generated_Source\PSoC5/USBFS.c **** 
1945:.\Generated_Source\PSoC5/USBFS.c ****                 /* Configure DMA descriptor. */
1946:.\Generated_Source\PSoC5/USBFS.c ****                 USBFS_CyDmaSetConfiguration(channelNum, USBFS_DMA_DESCR1, USBFS_DMA_COMMON_CFG  |
1947:.\Generated_Source\PSoC5/USBFS.c ****                                                         CYDMA_HALFWORD | CYDMA_ELEMENT_WORD | CYDMA
1948:.\Generated_Source\PSoC5/USBFS.c **** 
1949:.\Generated_Source\PSoC5/USBFS.c ****                 /* Enable interrupt from DMA channel. */
1950:.\Generated_Source\PSoC5/USBFS.c ****                 USBFS_CyDmaSetInterruptMask(channelNum);
1951:.\Generated_Source\PSoC5/USBFS.c **** 
1952:.\Generated_Source\PSoC5/USBFS.c ****                 /* Validate descriptor 1. It will not be invalided during operation. */
1953:.\Generated_Source\PSoC5/USBFS.c ****                 USBFS_CyDmaValidateDescriptor(channelNum, USBFS_DMA_DESCR1);
1954:.\Generated_Source\PSoC5/USBFS.c **** 
1955:.\Generated_Source\PSoC5/USBFS.c ****                 /* Enable DMA channel: configuration complete. */
1956:.\Generated_Source\PSoC5/USBFS.c ****                 USBFS_CyDmaChEnable(channelNum);
1957:.\Generated_Source\PSoC5/USBFS.c ****             }
1958:.\Generated_Source\PSoC5/USBFS.c ****             else
1959:.\Generated_Source\PSoC5/USBFS.c ****             {
1960:.\Generated_Source\PSoC5/USBFS.c ****                 /* IN endpoint buffer (32 bytes) will shortly be preloaded by DMA. */
1961:.\Generated_Source\PSoC5/USBFS.c ****                 USBFS_EP[epNumber].apiEpState = USBFS_NO_EVENT_PENDING;
1962:.\Generated_Source\PSoC5/USBFS.c **** 
1963:.\Generated_Source\PSoC5/USBFS.c ****                 if (length > 0u)
1964:.\Generated_Source\PSoC5/USBFS.c ****                 {
1965:.\Generated_Source\PSoC5/USBFS.c ****                     uint32 lengthDescr0, lengthDescr1;
1966:.\Generated_Source\PSoC5/USBFS.c ****                     uint32 channelNum = (uint32) USBFS_DmaChan[epNumber];
1967:.\Generated_Source\PSoC5/USBFS.c **** 
1968:.\Generated_Source\PSoC5/USBFS.c ****                     /* Get number of full bursts. */
1969:.\Generated_Source\PSoC5/USBFS.c ****                     USBFS_DmaEpBurstCnt[epNumber] = (uint8) (length / USBFS_DMA_BYTES_PER_BURST);
1970:.\Generated_Source\PSoC5/USBFS.c **** 
1971:.\Generated_Source\PSoC5/USBFS.c ****                     /* Get number of elements in the last burst. */
1972:.\Generated_Source\PSoC5/USBFS.c ****                     USBFS_DmaEpLastBurstEl[epNumber] = (uint8) (length % USBFS_DMA_BYTES_PER_BURST)
1973:.\Generated_Source\PSoC5/USBFS.c **** 
1974:.\Generated_Source\PSoC5/USBFS.c ****                     /* Get total number of bursts. */
1975:.\Generated_Source\PSoC5/USBFS.c ****                     USBFS_DmaEpBurstCnt[epNumber] += (0u != USBFS_DmaEpLastBurstEl[epNumber]) ? 1u 
1976:.\Generated_Source\PSoC5/USBFS.c **** 
1977:.\Generated_Source\PSoC5/USBFS.c ****                     /* Adjust number of data elements transferred in last burst. */
1978:.\Generated_Source\PSoC5/USBFS.c ****                     USBFS_DmaEpLastBurstEl[epNumber] = (0u != USBFS_DmaEpLastBurstEl[epNumber]) ?
1979:.\Generated_Source\PSoC5/USBFS.c ****                                                                           ((USBFS_DmaEpLastBurstEl[
1980:.\Generated_Source\PSoC5/USBFS.c ****                                                                            (USBFS_DMA_HALFWORDS_PER
1981:.\Generated_Source\PSoC5/USBFS.c **** 
1982:.\Generated_Source\PSoC5/USBFS.c ****                     /* Get number of data elements to transfer for descriptor 0 and 1. */
1983:.\Generated_Source\PSoC5/USBFS.c ****                     lengthDescr0 = (1u == USBFS_DmaEpBurstCnt[epNumber]) ? USBFS_DmaEpLastBurstEl[e
1984:.\Generated_Source\PSoC5/USBFS.c ****                     lengthDescr1 = (2u == USBFS_DmaEpBurstCnt[epNumber]) ? USBFS_DmaEpLastBurstEl[e
1985:.\Generated_Source\PSoC5/USBFS.c **** 
1986:.\Generated_Source\PSoC5/USBFS.c ****                     /* Mark which descriptor is last one to execute. */
1987:.\Generated_Source\PSoC5/USBFS.c ****                     USBFS_DmaEpLastBurstEl[epNumber] |= (0u != (USBFS_DmaEpBurstCnt[epNumber] & 0x1
1988:.\Generated_Source\PSoC5/USBFS.c ****                                                                             USBFS_DMA_DESCR0_MASK :
1989:.\Generated_Source\PSoC5/USBFS.c **** 
1990:.\Generated_Source\PSoC5/USBFS.c ****                     /* Adjust burst counter taking to account: 2 valid descriptors and interrupt tr
1991:.\Generated_Source\PSoC5/USBFS.c ****                     USBFS_DmaEpBurstCnt[epNumber] = USBFS_DMA_GET_BURST_CNT(USBFS_DmaEpBurstCnt[epN
1992:.\Generated_Source\PSoC5/USBFS.c **** 
1993:.\Generated_Source\PSoC5/USBFS.c ****                     /* Restore DMA settings for current transfer. */
1994:.\Generated_Source\PSoC5/USBFS.c ****                     USBFS_CyDmaChDisable(channelNum);
1995:.\Generated_Source\PSoC5/USBFS.c **** 
1996:.\Generated_Source\PSoC5/USBFS.c ****                     /* Restore destination address for input endpoint. */
1997:.\Generated_Source\PSoC5/USBFS.c ****                     USBFS_CyDmaSetSrcAddress(channelNum, USBFS_DMA_DESCR0, (void*) ((uint32) USBFS_
1998:.\Generated_Source\PSoC5/USBFS.c ****                     USBFS_CyDmaSetSrcAddress(channelNum, USBFS_DMA_DESCR1, (void*) ((uint32) USBFS_
ARM GAS  C:\Users\Patrick\AppData\Local\Temp\cc4CvmVx.s 			page 52


1999:.\Generated_Source\PSoC5/USBFS.c ****                                                                                                    
2000:.\Generated_Source\PSoC5/USBFS.c **** 
2001:.\Generated_Source\PSoC5/USBFS.c ****                     /* Set number of elements to transfer. */
2002:.\Generated_Source\PSoC5/USBFS.c ****                     USBFS_CyDmaSetNumDataElements(channelNum, USBFS_DMA_DESCR0, lengthDescr0);
2003:.\Generated_Source\PSoC5/USBFS.c ****                     USBFS_CyDmaSetNumDataElements(channelNum, USBFS_DMA_DESCR1, lengthDescr1);
2004:.\Generated_Source\PSoC5/USBFS.c **** 
2005:.\Generated_Source\PSoC5/USBFS.c ****                     /* Validate descriptor 0 and command to start with it. */
2006:.\Generated_Source\PSoC5/USBFS.c ****                     USBFS_CyDmaValidateDescriptor(channelNum, USBFS_DMA_DESCR0);
2007:.\Generated_Source\PSoC5/USBFS.c ****                     USBFS_CyDmaSetDescriptor0Next(channelNum);
2008:.\Generated_Source\PSoC5/USBFS.c **** 
2009:.\Generated_Source\PSoC5/USBFS.c ****                     /* Enable DMA channel: configuration complete. */
2010:.\Generated_Source\PSoC5/USBFS.c ****                     USBFS_CyDmaChEnable(channelNum);
2011:.\Generated_Source\PSoC5/USBFS.c **** 
2012:.\Generated_Source\PSoC5/USBFS.c ****                 #if !defined (USBFS_MANUAL_IN_EP_ARM)
2013:.\Generated_Source\PSoC5/USBFS.c ****                     /* Set IN data ready to generate DMA request to load data into endpoint buffer.
2014:.\Generated_Source\PSoC5/USBFS.c ****                     USBFS_ARB_EP_BASE.arbEp[epNumber].epCfg |= USBFS_ARB_EPX_CFG_IN_DATA_RDY;
2015:.\Generated_Source\PSoC5/USBFS.c ****                 #endif  /* (USBFS_MANUAL_IN_EP_ARM) */
2016:.\Generated_Source\PSoC5/USBFS.c **** 
2017:.\Generated_Source\PSoC5/USBFS.c ****                     /* IN endpoint will be armed in ARB_ISR(source: IN_BUF_FULL) after first DMA tr
2018:.\Generated_Source\PSoC5/USBFS.c ****                 }
2019:.\Generated_Source\PSoC5/USBFS.c ****                 else
2020:.\Generated_Source\PSoC5/USBFS.c ****                 {
2021:.\Generated_Source\PSoC5/USBFS.c ****                     /* When zero-length packet: arm IN endpoint directly. */
2022:.\Generated_Source\PSoC5/USBFS.c ****                     USBFS_SIE_EP_BASE.sieEp[epNumber].epCr0 = USBFS_EP[epNumber].epMode;
2023:.\Generated_Source\PSoC5/USBFS.c ****                 }
2024:.\Generated_Source\PSoC5/USBFS.c ****             }
2025:.\Generated_Source\PSoC5/USBFS.c ****         #endif /* (USBFS_EP_MANAGEMENT_DMA_AUTO) */
2026:.\Generated_Source\PSoC5/USBFS.c ****     #endif /* (USBFS_EP_MANAGEMENT_MANUAL) */
2027:.\Generated_Source\PSoC5/USBFS.c ****     }
2028:.\Generated_Source\PSoC5/USBFS.c **** }
2029:.\Generated_Source\PSoC5/USBFS.c **** 
2030:.\Generated_Source\PSoC5/USBFS.c **** 
2031:.\Generated_Source\PSoC5/USBFS.c **** /*******************************************************************************
2032:.\Generated_Source\PSoC5/USBFS.c **** * Function Name: USBFS_ReadOutEP16
2033:.\Generated_Source\PSoC5/USBFS.c **** ****************************************************************************//**
2034:.\Generated_Source\PSoC5/USBFS.c **** *
2035:.\Generated_Source\PSoC5/USBFS.c **** *   This function performs different functionality depending on the Component’s
2036:.\Generated_Source\PSoC5/USBFS.c **** *   configured Endpoint Buffer Management. This parameter is defined in the
2037:.\Generated_Source\PSoC5/USBFS.c **** *   Descriptor Root in Component Configure window.
2038:.\Generated_Source\PSoC5/USBFS.c **** *
2039:.\Generated_Source\PSoC5/USBFS.c **** *   *Manual (Static/Dynamic Allocation):*
2040:.\Generated_Source\PSoC5/USBFS.c **** *   This function moves the specified number of bytes from endpoint buffer to
2041:.\Generated_Source\PSoC5/USBFS.c **** *   system RAM. The number of bytes actually transferred from endpoint buffer to
2042:.\Generated_Source\PSoC5/USBFS.c **** *   system RAM is the lesser of the actual number of bytes sent by the host or
2043:.\Generated_Source\PSoC5/USBFS.c **** *   the number of bytes requested by the length parameter.
2044:.\Generated_Source\PSoC5/USBFS.c **** *
2045:.\Generated_Source\PSoC5/USBFS.c **** *   *DMA with Manual Buffer Management:*
2046:.\Generated_Source\PSoC5/USBFS.c **** *   Configure DMA to transfer data from endpoint buffer to system RAM. Generate
2047:.\Generated_Source\PSoC5/USBFS.c **** *   a DMA request. The firmware must wait until the DMA completes the data
2048:.\Generated_Source\PSoC5/USBFS.c **** *   transfer after calling the USBFS_ReadOutEP() API. For example,
2049:.\Generated_Source\PSoC5/USBFS.c **** *   by checking EPstate:
2050:.\Generated_Source\PSoC5/USBFS.c **** *
2051:.\Generated_Source\PSoC5/USBFS.c **** *   \snippet /USBFS_sut_02.cydsn/main.c checking EPstatey
2052:.\Generated_Source\PSoC5/USBFS.c **** *
2053:.\Generated_Source\PSoC5/USBFS.c **** *   The USBFS_EnableOutEP() has to be called to allow host to write data into
2054:.\Generated_Source\PSoC5/USBFS.c **** *   the endpoint buffer after DMA has completed transfer data from OUT endpoint
2055:.\Generated_Source\PSoC5/USBFS.c **** *   buffer to SRAM.
ARM GAS  C:\Users\Patrick\AppData\Local\Temp\cc4CvmVx.s 			page 53


2056:.\Generated_Source\PSoC5/USBFS.c **** *
2057:.\Generated_Source\PSoC5/USBFS.c **** *   *DMA with Automatic Buffer Management:*
2058:.\Generated_Source\PSoC5/USBFS.c **** *   Configure DMA. This is required only once and automatically generates DMA
2059:.\Generated_Source\PSoC5/USBFS.c **** *   requests as data arrives
2060:.\Generated_Source\PSoC5/USBFS.c **** *
2061:.\Generated_Source\PSoC5/USBFS.c **** *  \param epNumber: Contains the data endpoint number.
2062:.\Generated_Source\PSoC5/USBFS.c **** *         Valid values are between 1 and 8.
2063:.\Generated_Source\PSoC5/USBFS.c **** *  \param pData: A pointer to a data array into which the data for the endpoint
2064:.\Generated_Source\PSoC5/USBFS.c **** *         space is copied. It shall be ensured that this pointer address is
2065:.\Generated_Source\PSoC5/USBFS.c **** *         even to ensure the 16-bit transfer is aligned to even address. Else,
2066:.\Generated_Source\PSoC5/USBFS.c **** *         a hard fault condition can occur.
2067:.\Generated_Source\PSoC5/USBFS.c **** *  \param length: The number of bytes to transfer from the USB Out endpoint and
2068:.\Generated_Source\PSoC5/USBFS.c **** *         loads it into data array. Valid values are between 0 and 1023. The
2069:.\Generated_Source\PSoC5/USBFS.c **** *         function moves fewer than the requested number of bytes if the host
2070:.\Generated_Source\PSoC5/USBFS.c **** *         sends fewer bytes than requested.
2071:.\Generated_Source\PSoC5/USBFS.c **** *
2072:.\Generated_Source\PSoC5/USBFS.c **** * \return
2073:.\Generated_Source\PSoC5/USBFS.c **** *  Number of bytes received, 0 for an invalid endpoint.
2074:.\Generated_Source\PSoC5/USBFS.c **** *
2075:.\Generated_Source\PSoC5/USBFS.c **** * \reentrant
2076:.\Generated_Source\PSoC5/USBFS.c **** *  No.
2077:.\Generated_Source\PSoC5/USBFS.c **** *
2078:.\Generated_Source\PSoC5/USBFS.c **** *******************************************************************************/
2079:.\Generated_Source\PSoC5/USBFS.c **** uint16 USBFS_ReadOutEP16(uint8 epNumber, uint8 pData[], uint16 length)
2080:.\Generated_Source\PSoC5/USBFS.c **** {
2081:.\Generated_Source\PSoC5/USBFS.c ****     uint32 adjLength;
2082:.\Generated_Source\PSoC5/USBFS.c **** 
2083:.\Generated_Source\PSoC5/USBFS.c ****     /* Check array alignment on half-word boundary */
2084:.\Generated_Source\PSoC5/USBFS.c ****     CYASSERT(0u == (((uint32) pData) & 0x01u));
2085:.\Generated_Source\PSoC5/USBFS.c **** 
2086:.\Generated_Source\PSoC5/USBFS.c ****     if ((pData != NULL) && (epNumber > USBFS_EP0) && (epNumber < USBFS_MAX_EP))
2087:.\Generated_Source\PSoC5/USBFS.c ****     {
2088:.\Generated_Source\PSoC5/USBFS.c ****     #if (!USBFS_EP_MANAGEMENT_DMA_AUTO)
2089:.\Generated_Source\PSoC5/USBFS.c ****         /* Adjust requested length to available data. */
2090:.\Generated_Source\PSoC5/USBFS.c ****         length = (length > USBFS_GetEPCount(epNumber)) ? USBFS_GetEPCount(epNumber) : length;
2091:.\Generated_Source\PSoC5/USBFS.c ****     #endif /* (!USBFS_EP_MANAGEMENT_DMA_AUTO) */
2092:.\Generated_Source\PSoC5/USBFS.c **** 
2093:.\Generated_Source\PSoC5/USBFS.c ****     /* Adjust requested length: 2 bytes are handled at one data register access. */
2094:.\Generated_Source\PSoC5/USBFS.c ****     adjLength =  length + ((uint32)length & 1u);
2095:.\Generated_Source\PSoC5/USBFS.c **** 
2096:.\Generated_Source\PSoC5/USBFS.c ****     #if (USBFS_EP_MANAGEMENT_MANUAL)
2097:.\Generated_Source\PSoC5/USBFS.c ****         {
2098:.\Generated_Source\PSoC5/USBFS.c ****             /* Convert uint8 array to uint16. */
2099:.\Generated_Source\PSoC5/USBFS.c ****             uint16 *dataBuf = (uint16 *) pData;
2100:.\Generated_Source\PSoC5/USBFS.c **** 
2101:.\Generated_Source\PSoC5/USBFS.c ****             /* Copy data using 16-bits arbiter data register. */
2102:.\Generated_Source\PSoC5/USBFS.c ****             uint16 i;
2103:.\Generated_Source\PSoC5/USBFS.c ****             for (i = 0u; i < (adjLength >> 1u); ++i)
2104:.\Generated_Source\PSoC5/USBFS.c ****             {
2105:.\Generated_Source\PSoC5/USBFS.c ****                 dataBuf[i] = (uint16) USBFS_ARB_EP16_BASE.arbEp[epNumber].rwDr16;
2106:.\Generated_Source\PSoC5/USBFS.c ****             }
2107:.\Generated_Source\PSoC5/USBFS.c ****         }
2108:.\Generated_Source\PSoC5/USBFS.c **** 
2109:.\Generated_Source\PSoC5/USBFS.c ****         /* Arm OUT endpoint after data has been read from endpoint buffer. */
2110:.\Generated_Source\PSoC5/USBFS.c ****         USBFS_EnableOutEP(epNumber);
2111:.\Generated_Source\PSoC5/USBFS.c ****     #else
2112:.\Generated_Source\PSoC5/USBFS.c **** 
ARM GAS  C:\Users\Patrick\AppData\Local\Temp\cc4CvmVx.s 			page 54


2113:.\Generated_Source\PSoC5/USBFS.c ****         #if (USBFS_EP_MANAGEMENT_DMA_MANUAL)
2114:.\Generated_Source\PSoC5/USBFS.c ****         {
2115:.\Generated_Source\PSoC5/USBFS.c ****             uint32 channelNum = (uint32) USBFS_DmaChan[epNumber];
2116:.\Generated_Source\PSoC5/USBFS.c **** 
2117:.\Generated_Source\PSoC5/USBFS.c ****             /* Disable DMA channel: start configuration. */
2118:.\Generated_Source\PSoC5/USBFS.c ****             USBFS_CyDmaChDisable(channelNum);
2119:.\Generated_Source\PSoC5/USBFS.c **** 
2120:.\Generated_Source\PSoC5/USBFS.c ****             /* Configure source and destination. */
2121:.\Generated_Source\PSoC5/USBFS.c ****             USBFS_CyDmaSetSrcAddress(channelNum, USBFS_DMA_DESCR0, (void*) &USBFS_ARB_EP16_BASE.arb
2122:.\Generated_Source\PSoC5/USBFS.c ****             USBFS_CyDmaSetDstAddress(channelNum, USBFS_DMA_DESCR0, (void*) pData);
2123:.\Generated_Source\PSoC5/USBFS.c **** 
2124:.\Generated_Source\PSoC5/USBFS.c ****             /* Configure DMA descriptor. */
2125:.\Generated_Source\PSoC5/USBFS.c ****             USBFS_CyDmaSetConfiguration(channelNum, USBFS_DMA_DESCR0, USBFS_DMA_COMMON_CFG | (uint1
2126:.\Generated_Source\PSoC5/USBFS.c ****                                                     CYDMA_HALFWORD | CYDMA_WORD_ELEMENT | CYDMA_INC
2127:.\Generated_Source\PSoC5/USBFS.c **** 
2128:.\Generated_Source\PSoC5/USBFS.c ****             /* Validate descriptor to execute on following DMA request. */
2129:.\Generated_Source\PSoC5/USBFS.c ****             USBFS_CyDmaValidateDescriptor(channelNum, USBFS_DMA_DESCR0);
2130:.\Generated_Source\PSoC5/USBFS.c **** 
2131:.\Generated_Source\PSoC5/USBFS.c ****             /* Enable DMA channel: configuration complete. */
2132:.\Generated_Source\PSoC5/USBFS.c ****             USBFS_CyDmaChEnable(channelNum);
2133:.\Generated_Source\PSoC5/USBFS.c **** 
2134:.\Generated_Source\PSoC5/USBFS.c ****             /* Generate DMA request. */
2135:.\Generated_Source\PSoC5/USBFS.c ****             USBFS_ARB_EP_BASE.arbEp[epNumber].epCfg |=  (uint32)  USBFS_ARB_EPX_CFG_DMA_REQ;
2136:.\Generated_Source\PSoC5/USBFS.c ****             USBFS_ARB_EP_BASE.arbEp[epNumber].epCfg &=  (uint32) ~USBFS_ARB_EPX_CFG_DMA_REQ;
2137:.\Generated_Source\PSoC5/USBFS.c **** 
2138:.\Generated_Source\PSoC5/USBFS.c ****             /* OUT endpoint has to be armed again by user when DMA transfers have been completed.
2139:.\Generated_Source\PSoC5/USBFS.c ****             * NO_EVENT_PENDING: notifies that data has been copied from endpoint buffer.
2140:.\Generated_Source\PSoC5/USBFS.c ****             */
2141:.\Generated_Source\PSoC5/USBFS.c ****         }
2142:.\Generated_Source\PSoC5/USBFS.c ****         #endif /* (USBFS_EP_MANAGEMENT_DMA_MANUAL) */
2143:.\Generated_Source\PSoC5/USBFS.c **** 
2144:.\Generated_Source\PSoC5/USBFS.c ****         #if (USBFS_EP_MANAGEMENT_DMA_AUTO)
2145:.\Generated_Source\PSoC5/USBFS.c ****         {
2146:.\Generated_Source\PSoC5/USBFS.c ****             uint32 lengthDescr0, lengthDescr1;
2147:.\Generated_Source\PSoC5/USBFS.c ****             uint32 channelNum = (uint32) USBFS_DmaChan[epNumber];
2148:.\Generated_Source\PSoC5/USBFS.c **** 
2149:.\Generated_Source\PSoC5/USBFS.c ****             /* Get number of full bursts. */
2150:.\Generated_Source\PSoC5/USBFS.c ****             USBFS_DmaEpBurstCnt[epNumber] = (uint8) (adjLength / USBFS_DMA_BYTES_PER_BURST);
2151:.\Generated_Source\PSoC5/USBFS.c **** 
2152:.\Generated_Source\PSoC5/USBFS.c ****             /* Get number of elements in last burst. */
2153:.\Generated_Source\PSoC5/USBFS.c ****             USBFS_DmaEpLastBurstEl[epNumber] = (uint8) (adjLength % USBFS_DMA_BYTES_PER_BURST);
2154:.\Generated_Source\PSoC5/USBFS.c **** 
2155:.\Generated_Source\PSoC5/USBFS.c ****             /* Get total number of bursts. */
2156:.\Generated_Source\PSoC5/USBFS.c ****             USBFS_DmaEpBurstCnt[epNumber] += (0u != USBFS_DmaEpLastBurstEl[epNumber]) ? 1u : 0u;
2157:.\Generated_Source\PSoC5/USBFS.c **** 
2158:.\Generated_Source\PSoC5/USBFS.c ****             /* Adjust number of data elements transferred in last burst. */
2159:.\Generated_Source\PSoC5/USBFS.c ****             USBFS_DmaEpLastBurstEl[epNumber] = (0u != USBFS_DmaEpLastBurstEl[epNumber]) ?
2160:.\Generated_Source\PSoC5/USBFS.c ****                                                                   ((USBFS_DmaEpLastBurstEl[epNumber
2161:.\Generated_Source\PSoC5/USBFS.c ****                                                                    (USBFS_DMA_HALFWORDS_PER_BURST -
2162:.\Generated_Source\PSoC5/USBFS.c **** 
2163:.\Generated_Source\PSoC5/USBFS.c ****             /* Get number of data elements to transfer for descriptor 0 and 1. */
2164:.\Generated_Source\PSoC5/USBFS.c ****             lengthDescr0 = (1u == USBFS_DmaEpBurstCnt[epNumber]) ? USBFS_DmaEpLastBurstEl[epNumber]
2165:.\Generated_Source\PSoC5/USBFS.c ****             lengthDescr1 = (2u == USBFS_DmaEpBurstCnt[epNumber]) ? USBFS_DmaEpLastBurstEl[epNumber]
2166:.\Generated_Source\PSoC5/USBFS.c **** 
2167:.\Generated_Source\PSoC5/USBFS.c ****             /* Mark last descriptor to be executed. */
2168:.\Generated_Source\PSoC5/USBFS.c ****             USBFS_DmaEpLastBurstEl[epNumber] |= (0u != (USBFS_DmaEpBurstCnt[epNumber] & 0x1u)) ?
2169:.\Generated_Source\PSoC5/USBFS.c ****                                                                     USBFS_DMA_DESCR0_MASK : USBFS_D
ARM GAS  C:\Users\Patrick\AppData\Local\Temp\cc4CvmVx.s 			page 55


2170:.\Generated_Source\PSoC5/USBFS.c **** 
2171:.\Generated_Source\PSoC5/USBFS.c ****             /* Mark if revert number of data elements in descriptor after transfer completion. */
2172:.\Generated_Source\PSoC5/USBFS.c ****             USBFS_DmaEpLastBurstEl[epNumber] |= (USBFS_DmaEpBurstCnt[epNumber] > 2u) ? USBFS_DMA_DE
2173:.\Generated_Source\PSoC5/USBFS.c **** 
2174:.\Generated_Source\PSoC5/USBFS.c ****             /* Mark that 16-bits access to data register is performed. */
2175:.\Generated_Source\PSoC5/USBFS.c ****             USBFS_DmaEpLastBurstEl[epNumber] |= USBFS_DMA_DESCR_16BITS;
2176:.\Generated_Source\PSoC5/USBFS.c **** 
2177:.\Generated_Source\PSoC5/USBFS.c ****             /* Adjust burst counter taking to account: 2 valid descriptors and interrupt trigger af
2178:.\Generated_Source\PSoC5/USBFS.c ****             USBFS_DmaEpBurstCnt[epNumber] = USBFS_DMA_GET_BURST_CNT(USBFS_DmaEpBurstCnt[epNumber]);
2179:.\Generated_Source\PSoC5/USBFS.c **** 
2180:.\Generated_Source\PSoC5/USBFS.c ****             /* Store address of buffer and burst counter for endpoint. */
2181:.\Generated_Source\PSoC5/USBFS.c ****             USBFS_DmaEpBufferAddrBackup[epNumber] = (uint32) pData;
2182:.\Generated_Source\PSoC5/USBFS.c ****             USBFS_DmaEpBurstCntBackup[epNumber]   = USBFS_DmaEpBurstCnt[epNumber];
2183:.\Generated_Source\PSoC5/USBFS.c **** 
2184:.\Generated_Source\PSoC5/USBFS.c ****             /* Disable DMA channel: start configuration. */
2185:.\Generated_Source\PSoC5/USBFS.c ****             USBFS_CyDmaChDisable(channelNum);
2186:.\Generated_Source\PSoC5/USBFS.c **** 
2187:.\Generated_Source\PSoC5/USBFS.c ****             /* Set destination address. */
2188:.\Generated_Source\PSoC5/USBFS.c ****             USBFS_CyDmaSetSrcAddress(channelNum, USBFS_DMA_DESCR0, (void*) &USBFS_ARB_EP16_BASE.arb
2189:.\Generated_Source\PSoC5/USBFS.c ****             USBFS_CyDmaSetSrcAddress(channelNum, USBFS_DMA_DESCR1, (void*) &USBFS_ARB_EP16_BASE.arb
2190:.\Generated_Source\PSoC5/USBFS.c **** 
2191:.\Generated_Source\PSoC5/USBFS.c ****             USBFS_CyDmaSetDstAddress(channelNum, USBFS_DMA_DESCR0, (void*) ((uint32) pData));
2192:.\Generated_Source\PSoC5/USBFS.c ****             USBFS_CyDmaSetDstAddress(channelNum, USBFS_DMA_DESCR1, (void*) ((uint32) pData + USBFS_
2193:.\Generated_Source\PSoC5/USBFS.c **** 
2194:.\Generated_Source\PSoC5/USBFS.c ****             /* Configure DMA descriptor 0. */
2195:.\Generated_Source\PSoC5/USBFS.c ****             USBFS_CyDmaSetConfiguration(channelNum, USBFS_DMA_DESCR0, USBFS_DMA_COMMON_CFG  | lengt
2196:.\Generated_Source\PSoC5/USBFS.c ****                                                     CYDMA_HALFWORD | CYDMA_WORD_ELEMENT | CYDMA_INC
2197:.\Generated_Source\PSoC5/USBFS.c **** 
2198:.\Generated_Source\PSoC5/USBFS.c ****             /* Configure DMA descriptor 1. */
2199:.\Generated_Source\PSoC5/USBFS.c ****             USBFS_CyDmaSetConfiguration(channelNum, USBFS_DMA_DESCR1, USBFS_DMA_COMMON_CFG  | lengt
2200:.\Generated_Source\PSoC5/USBFS.c ****                                                     CYDMA_HALFWORD | CYDMA_WORD_ELEMENT | CYDMA_INC
2201:.\Generated_Source\PSoC5/USBFS.c **** 
2202:.\Generated_Source\PSoC5/USBFS.c ****             /* Enable interrupt from DMA channel. */
2203:.\Generated_Source\PSoC5/USBFS.c ****             USBFS_CyDmaSetInterruptMask(channelNum);
2204:.\Generated_Source\PSoC5/USBFS.c **** 
2205:.\Generated_Source\PSoC5/USBFS.c ****             /* Validate DMA descriptor 0 and 1. */
2206:.\Generated_Source\PSoC5/USBFS.c ****             USBFS_CyDmaValidateDescriptor(channelNum, USBFS_DMA_DESCR0);
2207:.\Generated_Source\PSoC5/USBFS.c ****             USBFS_CyDmaValidateDescriptor(channelNum, USBFS_DMA_DESCR1);
2208:.\Generated_Source\PSoC5/USBFS.c **** 
2209:.\Generated_Source\PSoC5/USBFS.c ****             /* Enable DMA channel: configuration complete. */
2210:.\Generated_Source\PSoC5/USBFS.c ****             USBFS_CyDmaChEnable(channelNum);
2211:.\Generated_Source\PSoC5/USBFS.c **** 
2212:.\Generated_Source\PSoC5/USBFS.c ****             /* OUT endpoint has to be armed again by user when DMA transfers have been completed.
2213:.\Generated_Source\PSoC5/USBFS.c ****             * NO_EVENT_PENDING: notifies that data has been copied from endpoint buffer.
2214:.\Generated_Source\PSoC5/USBFS.c ****             */
2215:.\Generated_Source\PSoC5/USBFS.c ****         }
2216:.\Generated_Source\PSoC5/USBFS.c ****         #endif /* (USBFS_EP_MANAGEMENT_DMA_AUTO) */
2217:.\Generated_Source\PSoC5/USBFS.c ****     #endif /* (USBFS_EP_MANAGEMENT_MANUAL) */
2218:.\Generated_Source\PSoC5/USBFS.c ****     }
2219:.\Generated_Source\PSoC5/USBFS.c ****     else
2220:.\Generated_Source\PSoC5/USBFS.c ****     {
2221:.\Generated_Source\PSoC5/USBFS.c ****         length = 0u;
2222:.\Generated_Source\PSoC5/USBFS.c ****     }
2223:.\Generated_Source\PSoC5/USBFS.c **** 
2224:.\Generated_Source\PSoC5/USBFS.c ****     return (length);
2225:.\Generated_Source\PSoC5/USBFS.c **** }
2226:.\Generated_Source\PSoC5/USBFS.c **** #endif /* (USBFS_16BITS_EP_ACCESS_ENABLE) */
ARM GAS  C:\Users\Patrick\AppData\Local\Temp\cc4CvmVx.s 			page 56


2227:.\Generated_Source\PSoC5/USBFS.c **** 
2228:.\Generated_Source\PSoC5/USBFS.c **** 
2229:.\Generated_Source\PSoC5/USBFS.c **** /*******************************************************************************
2230:.\Generated_Source\PSoC5/USBFS.c **** * Function Name: USBFS_EnableOutEP
2231:.\Generated_Source\PSoC5/USBFS.c **** ****************************************************************************//**
2232:.\Generated_Source\PSoC5/USBFS.c **** *
2233:.\Generated_Source\PSoC5/USBFS.c **** *  This function enables the specified endpoint for OUT transfers. Do not call
2234:.\Generated_Source\PSoC5/USBFS.c **** *  this function for IN endpoints.
2235:.\Generated_Source\PSoC5/USBFS.c **** *
2236:.\Generated_Source\PSoC5/USBFS.c **** *  \param epNumber: Contains the data endpoint number. Valid values are between
2237:.\Generated_Source\PSoC5/USBFS.c **** *  1 and 8.
2238:.\Generated_Source\PSoC5/USBFS.c **** *
2239:.\Generated_Source\PSoC5/USBFS.c **** * \globalvars
2240:.\Generated_Source\PSoC5/USBFS.c **** *
2241:.\Generated_Source\PSoC5/USBFS.c **** *  \ref USBFS_EP[epNumber].apiEpState - set to NO_EVENT_PENDING
2242:.\Generated_Source\PSoC5/USBFS.c **** *
2243:.\Generated_Source\PSoC5/USBFS.c **** * \reentrant
2244:.\Generated_Source\PSoC5/USBFS.c **** *  No.
2245:.\Generated_Source\PSoC5/USBFS.c **** *
2246:.\Generated_Source\PSoC5/USBFS.c **** *******************************************************************************/
2247:.\Generated_Source\PSoC5/USBFS.c **** void USBFS_EnableOutEP(uint8 epNumber) 
2248:.\Generated_Source\PSoC5/USBFS.c **** {
 896              		.loc 1 2248 0
 897              		.cfi_startproc
 898              		@ args = 0, pretend = 0, frame = 0
 899              		@ frame_needed = 0, uses_anonymous_args = 0
 900              		@ link register save eliminated.
 901              	.LVL65:
2249:.\Generated_Source\PSoC5/USBFS.c ****     if ((epNumber > USBFS_EP0) && (epNumber < USBFS_MAX_EP))
 902              		.loc 1 2249 0
 903 0000 431E     		subs	r3, r0, #1
 904 0002 DBB2     		uxtb	r3, r3
 905 0004 072B     		cmp	r3, #7
 906 0006 0BD8     		bhi	.L65
2250:.\Generated_Source\PSoC5/USBFS.c ****     {
2251:.\Generated_Source\PSoC5/USBFS.c ****         USBFS_EP[epNumber].apiEpState = USBFS_NO_EVENT_PENDING;
 907              		.loc 1 2251 0
 908 0008 4300     		lsls	r3, r0, #1
 909 000a 0344     		add	r3, r3, r0
 910 000c 9B00     		lsls	r3, r3, #2
 911 000e 054A     		ldr	r2, .L67
 912 0010 1344     		add	r3, r3, r2
 913 0012 0022     		movs	r2, #0
 914 0014 5A70     		strb	r2, [r3, #1]
2252:.\Generated_Source\PSoC5/USBFS.c **** 
2253:.\Generated_Source\PSoC5/USBFS.c ****         /* Enable OUT endpoint to be written by Host. */
2254:.\Generated_Source\PSoC5/USBFS.c ****         USBFS_SIE_EP_BASE.sieEp[epNumber].epCr0 = USBFS_EP[epNumber].epMode;
 915              		.loc 1 2254 0
 916 0016 5A79     		ldrb	r2, [r3, #5]	@ zero_extendqisi2
 917 0018 D2B2     		uxtb	r2, r2
 918 001a 0001     		lsls	r0, r0, #4
 919              	.LVL66:
 920 001c 024B     		ldr	r3, .L67+4
 921 001e 1A54     		strb	r2, [r3, r0]
 922              	.L65:
 923 0020 7047     		bx	lr
 924              	.L68:
ARM GAS  C:\Users\Patrick\AppData\Local\Temp\cc4CvmVx.s 			page 57


 925 0022 00BF     		.align	2
 926              	.L67:
 927 0024 00000000 		.word	USBFS_EP
 928 0028 FE5F0040 		.word	1073766398
 929              		.cfi_endproc
 930              	.LFE13:
 931              		.size	USBFS_EnableOutEP, .-USBFS_EnableOutEP
 932              		.section	.text.USBFS_ReadOutEP,"ax",%progbits
 933              		.align	2
 934              		.global	USBFS_ReadOutEP
 935              		.thumb
 936              		.thumb_func
 937              		.type	USBFS_ReadOutEP, %function
 938              	USBFS_ReadOutEP:
 939              	.LFB12:
1637:.\Generated_Source\PSoC5/USBFS.c ****     if ((pData != NULL) && (epNumber > USBFS_EP0) && (epNumber < USBFS_MAX_EP))
 940              		.loc 1 1637 0
 941              		.cfi_startproc
 942              		@ args = 0, pretend = 0, frame = 0
 943              		@ frame_needed = 0, uses_anonymous_args = 0
 944              	.LVL67:
 945 0000 70B5     		push	{r4, r5, r6, lr}
 946              		.cfi_def_cfa_offset 16
 947              		.cfi_offset 4, -16
 948              		.cfi_offset 5, -12
 949              		.cfi_offset 6, -8
 950              		.cfi_offset 14, -4
1638:.\Generated_Source\PSoC5/USBFS.c ****     {
 951              		.loc 1 1638 0
 952 0002 D9B1     		cbz	r1, .L74
 953 0004 0546     		mov	r5, r0
 954 0006 1446     		mov	r4, r2
 955 0008 0E46     		mov	r6, r1
1638:.\Generated_Source\PSoC5/USBFS.c ****     {
 956              		.loc 1 1638 0 is_stmt 0 discriminator 1
 957 000a C8B1     		cbz	r0, .L75
1638:.\Generated_Source\PSoC5/USBFS.c ****     {
 958              		.loc 1 1638 0 discriminator 2
 959 000c 0828     		cmp	r0, #8
 960 000e 19D8     		bhi	.L76
1642:.\Generated_Source\PSoC5/USBFS.c ****     #endif /* (!USBFS_EP_MANAGEMENT_DMA_AUTO) */
 961              		.loc 1 1642 0 is_stmt 1
 962 0010 FFF7FEFF 		bl	USBFS_GetEPCount
 963              	.LVL68:
 964 0014 A042     		cmp	r0, r4
 965 0016 03D2     		bcs	.L71
1642:.\Generated_Source\PSoC5/USBFS.c ****     #endif /* (!USBFS_EP_MANAGEMENT_DMA_AUTO) */
 966              		.loc 1 1642 0 is_stmt 0 discriminator 1
 967 0018 2846     		mov	r0, r5
 968 001a FFF7FEFF 		bl	USBFS_GetEPCount
 969              	.LVL69:
 970 001e 0446     		mov	r4, r0
 971              	.L71:
 972              	.LVL70:
 973              	.LBB4:
1649:.\Generated_Source\PSoC5/USBFS.c ****             {
 974              		.loc 1 1649 0 is_stmt 1 discriminator 4
ARM GAS  C:\Users\Patrick\AppData\Local\Temp\cc4CvmVx.s 			page 58


 975 0020 0023     		movs	r3, #0
 976 0022 05E0     		b	.L72
 977              	.LVL71:
 978              	.L73:
1651:.\Generated_Source\PSoC5/USBFS.c ****             }
 979              		.loc 1 1651 0 discriminator 3
 980 0024 2901     		lsls	r1, r5, #4
 981 0026 094A     		ldr	r2, .L78
 982 0028 525C     		ldrb	r2, [r2, r1]	@ zero_extendqisi2
 983 002a F254     		strb	r2, [r6, r3]
1649:.\Generated_Source\PSoC5/USBFS.c ****             {
 984              		.loc 1 1649 0 discriminator 3
 985 002c 0133     		adds	r3, r3, #1
 986              	.LVL72:
 987 002e 9BB2     		uxth	r3, r3
 988              	.LVL73:
 989              	.L72:
1649:.\Generated_Source\PSoC5/USBFS.c ****             {
 990              		.loc 1 1649 0 is_stmt 0 discriminator 1
 991 0030 A342     		cmp	r3, r4
 992 0032 F7D3     		bcc	.L73
 993              	.LBE4:
1656:.\Generated_Source\PSoC5/USBFS.c ****     #else
 994              		.loc 1 1656 0 is_stmt 1
 995 0034 2846     		mov	r0, r5
 996 0036 FFF7FEFF 		bl	USBFS_EnableOutEP
 997              	.LVL74:
 998 003a 04E0     		b	.L70
 999              	.LVL75:
 1000              	.L74:
1798:.\Generated_Source\PSoC5/USBFS.c ****     }
 1001              		.loc 1 1798 0
 1002 003c 0024     		movs	r4, #0
 1003 003e 02E0     		b	.L70
 1004              	.L75:
 1005 0040 0024     		movs	r4, #0
 1006 0042 00E0     		b	.L70
 1007              	.L76:
 1008 0044 0024     		movs	r4, #0
 1009              	.LVL76:
 1010              	.L70:
1802:.\Generated_Source\PSoC5/USBFS.c **** 
 1011              		.loc 1 1802 0
 1012 0046 2046     		mov	r0, r4
 1013 0048 70BD     		pop	{r4, r5, r6, pc}
 1014              	.LVL77:
 1015              	.L79:
 1016 004a 00BF     		.align	2
 1017              	.L78:
 1018 004c 78600040 		.word	1073766520
 1019              		.cfi_endproc
 1020              	.LFE12:
 1021              		.size	USBFS_ReadOutEP, .-USBFS_ReadOutEP
 1022              		.section	.text.USBFS_DisableOutEP,"ax",%progbits
 1023              		.align	2
 1024              		.global	USBFS_DisableOutEP
 1025              		.thumb
ARM GAS  C:\Users\Patrick\AppData\Local\Temp\cc4CvmVx.s 			page 59


 1026              		.thumb_func
 1027              		.type	USBFS_DisableOutEP, %function
 1028              	USBFS_DisableOutEP:
 1029              	.LFB14:
2255:.\Generated_Source\PSoC5/USBFS.c ****         
2256:.\Generated_Source\PSoC5/USBFS.c ****     }
2257:.\Generated_Source\PSoC5/USBFS.c **** }
2258:.\Generated_Source\PSoC5/USBFS.c **** 
2259:.\Generated_Source\PSoC5/USBFS.c **** 
2260:.\Generated_Source\PSoC5/USBFS.c **** /*******************************************************************************
2261:.\Generated_Source\PSoC5/USBFS.c **** * Function Name: USBFS_DisableOutEP
2262:.\Generated_Source\PSoC5/USBFS.c **** ****************************************************************************//**
2263:.\Generated_Source\PSoC5/USBFS.c **** *
2264:.\Generated_Source\PSoC5/USBFS.c **** *  This function disables the specified USBFS OUT endpoint. Do not call this
2265:.\Generated_Source\PSoC5/USBFS.c **** *  function for IN endpoints.
2266:.\Generated_Source\PSoC5/USBFS.c **** *
2267:.\Generated_Source\PSoC5/USBFS.c **** *  \param epNumber: Contains the data endpoint number.
2268:.\Generated_Source\PSoC5/USBFS.c **** *            Valid values are between 1 and 8.
2269:.\Generated_Source\PSoC5/USBFS.c **** *
2270:.\Generated_Source\PSoC5/USBFS.c **** *******************************************************************************/
2271:.\Generated_Source\PSoC5/USBFS.c **** void USBFS_DisableOutEP(uint8 epNumber) 
2272:.\Generated_Source\PSoC5/USBFS.c **** {
 1030              		.loc 1 2272 0
 1031              		.cfi_startproc
 1032              		@ args = 0, pretend = 0, frame = 0
 1033              		@ frame_needed = 0, uses_anonymous_args = 0
 1034              		@ link register save eliminated.
 1035              	.LVL78:
2273:.\Generated_Source\PSoC5/USBFS.c ****     if ((epNumber > USBFS_EP0) && (epNumber < USBFS_MAX_EP))
 1036              		.loc 1 2273 0
 1037 0000 431E     		subs	r3, r0, #1
 1038 0002 DBB2     		uxtb	r3, r3
 1039 0004 072B     		cmp	r3, #7
 1040 0006 03D8     		bhi	.L80
2274:.\Generated_Source\PSoC5/USBFS.c ****     {
2275:.\Generated_Source\PSoC5/USBFS.c ****         /* Set NAK response for OUT endpoint. */
2276:.\Generated_Source\PSoC5/USBFS.c ****         USBFS_SIE_EP_BASE.sieEp[epNumber].epCr0 = USBFS_MODE_NAK_OUT;
 1041              		.loc 1 2276 0
 1042 0008 0001     		lsls	r0, r0, #4
 1043              	.LVL79:
 1044 000a 024B     		ldr	r3, .L82
 1045 000c 0822     		movs	r2, #8
 1046 000e 1A54     		strb	r2, [r3, r0]
 1047              	.L80:
 1048 0010 7047     		bx	lr
 1049              	.L83:
 1050 0012 00BF     		.align	2
 1051              	.L82:
 1052 0014 FE5F0040 		.word	1073766398
 1053              		.cfi_endproc
 1054              	.LFE14:
 1055              		.size	USBFS_DisableOutEP, .-USBFS_DisableOutEP
 1056              		.section	.text.USBFS_Force,"ax",%progbits
 1057              		.align	2
 1058              		.global	USBFS_Force
 1059              		.thumb
 1060              		.thumb_func
ARM GAS  C:\Users\Patrick\AppData\Local\Temp\cc4CvmVx.s 			page 60


 1061              		.type	USBFS_Force, %function
 1062              	USBFS_Force:
 1063              	.LFB15:
2277:.\Generated_Source\PSoC5/USBFS.c ****     }
2278:.\Generated_Source\PSoC5/USBFS.c **** }
2279:.\Generated_Source\PSoC5/USBFS.c **** 
2280:.\Generated_Source\PSoC5/USBFS.c **** 
2281:.\Generated_Source\PSoC5/USBFS.c **** /*******************************************************************************
2282:.\Generated_Source\PSoC5/USBFS.c **** * Function Name: USBFS_Force
2283:.\Generated_Source\PSoC5/USBFS.c **** ****************************************************************************//**
2284:.\Generated_Source\PSoC5/USBFS.c **** *
2285:.\Generated_Source\PSoC5/USBFS.c **** *  This function forces a USB J, K, or SE0 state on the D+/D– lines. It provides
2286:.\Generated_Source\PSoC5/USBFS.c **** *  the necessary mechanism for a USB device application to perform a USB Remote
2287:.\Generated_Source\PSoC5/USBFS.c **** *  Wakeup. For more information, see the USB 2.0 Specification for details on
2288:.\Generated_Source\PSoC5/USBFS.c **** *  Suspend and Resume.
2289:.\Generated_Source\PSoC5/USBFS.c **** *
2290:.\Generated_Source\PSoC5/USBFS.c **** *  \param state A byte indicating which of the four bus states to enable.
2291:.\Generated_Source\PSoC5/USBFS.c **** *        Symbolic names  and their associated values are listed here:
2292:.\Generated_Source\PSoC5/USBFS.c **** *    State                      |Description
2293:.\Generated_Source\PSoC5/USBFS.c **** *    ---------------------------|----------------------------------------------
2294:.\Generated_Source\PSoC5/USBFS.c **** *    USBFS_FORCE_J   | Force a J State onto the D+/D– lines
2295:.\Generated_Source\PSoC5/USBFS.c **** *    USBFS_FORCE_K   | Force a K State onto the D+/D– lines
2296:.\Generated_Source\PSoC5/USBFS.c **** *    USBFS_FORCE_SE0 | Force a Single Ended 0 onto the D+/D– lines
2297:.\Generated_Source\PSoC5/USBFS.c **** *    USBFS_FORCE_NONE| Return bus to SIE control
2298:.\Generated_Source\PSoC5/USBFS.c **** *
2299:.\Generated_Source\PSoC5/USBFS.c **** *
2300:.\Generated_Source\PSoC5/USBFS.c **** *******************************************************************************/
2301:.\Generated_Source\PSoC5/USBFS.c **** void USBFS_Force(uint8 bState) 
2302:.\Generated_Source\PSoC5/USBFS.c **** {
 1064              		.loc 1 2302 0
 1065              		.cfi_startproc
 1066              		@ args = 0, pretend = 0, frame = 0
 1067              		@ frame_needed = 0, uses_anonymous_args = 0
 1068              		@ link register save eliminated.
 1069              	.LVL80:
2303:.\Generated_Source\PSoC5/USBFS.c ****     /* This registers is used only for manual control of SIE (no masking is
2304:.\Generated_Source\PSoC5/USBFS.c ****     * needed before write into it).
2305:.\Generated_Source\PSoC5/USBFS.c ****     */
2306:.\Generated_Source\PSoC5/USBFS.c ****     USBFS_USBIO_CR0_REG = bState;
 1070              		.loc 1 2306 0
 1071 0000 014B     		ldr	r3, .L85
 1072 0002 1870     		strb	r0, [r3]
 1073 0004 7047     		bx	lr
 1074              	.L86:
 1075 0006 00BF     		.align	2
 1076              	.L85:
 1077 0008 10600040 		.word	1073766416
 1078              		.cfi_endproc
 1079              	.LFE15:
 1080              		.size	USBFS_Force, .-USBFS_Force
 1081              		.section	.text.USBFS_GetEPAckState,"ax",%progbits
 1082              		.align	2
 1083              		.global	USBFS_GetEPAckState
 1084              		.thumb
 1085              		.thumb_func
 1086              		.type	USBFS_GetEPAckState, %function
 1087              	USBFS_GetEPAckState:
ARM GAS  C:\Users\Patrick\AppData\Local\Temp\cc4CvmVx.s 			page 61


 1088              	.LFB16:
2307:.\Generated_Source\PSoC5/USBFS.c **** }
2308:.\Generated_Source\PSoC5/USBFS.c **** 
2309:.\Generated_Source\PSoC5/USBFS.c **** 
2310:.\Generated_Source\PSoC5/USBFS.c **** /*******************************************************************************
2311:.\Generated_Source\PSoC5/USBFS.c **** * Function Name: USBFS_GetEPAckState
2312:.\Generated_Source\PSoC5/USBFS.c **** ****************************************************************************//**
2313:.\Generated_Source\PSoC5/USBFS.c **** *
2314:.\Generated_Source\PSoC5/USBFS.c **** *  This function determines whether an ACK transaction occurred on this endpoint
2315:.\Generated_Source\PSoC5/USBFS.c **** *  by reading the ACK bit in the control register of the endpoint. It does not
2316:.\Generated_Source\PSoC5/USBFS.c **** *  clear the ACK bit.
2317:.\Generated_Source\PSoC5/USBFS.c **** *
2318:.\Generated_Source\PSoC5/USBFS.c **** *  \param epNumber Contains the data endpoint number.
2319:.\Generated_Source\PSoC5/USBFS.c **** *            Valid values are between 1 and 8.
2320:.\Generated_Source\PSoC5/USBFS.c **** *
2321:.\Generated_Source\PSoC5/USBFS.c **** *  \return
2322:.\Generated_Source\PSoC5/USBFS.c **** *  If an ACKed transaction occurred, this function returns a non-zero value.
2323:.\Generated_Source\PSoC5/USBFS.c **** *  Otherwise, it returns zero.
2324:.\Generated_Source\PSoC5/USBFS.c **** *
2325:.\Generated_Source\PSoC5/USBFS.c **** *******************************************************************************/
2326:.\Generated_Source\PSoC5/USBFS.c **** uint8 USBFS_GetEPAckState(uint8 epNumber) 
2327:.\Generated_Source\PSoC5/USBFS.c **** {
 1089              		.loc 1 2327 0
 1090              		.cfi_startproc
 1091              		@ args = 0, pretend = 0, frame = 0
 1092              		@ frame_needed = 0, uses_anonymous_args = 0
 1093              		@ link register save eliminated.
 1094              	.LVL81:
2328:.\Generated_Source\PSoC5/USBFS.c ****     uint8 cr = 0u;
2329:.\Generated_Source\PSoC5/USBFS.c **** 
2330:.\Generated_Source\PSoC5/USBFS.c ****     if ((epNumber > USBFS_EP0) && (epNumber < USBFS_MAX_EP))
 1095              		.loc 1 2330 0
 1096 0000 431E     		subs	r3, r0, #1
 1097 0002 DBB2     		uxtb	r3, r3
 1098 0004 072B     		cmp	r3, #7
 1099 0006 06D8     		bhi	.L89
2331:.\Generated_Source\PSoC5/USBFS.c ****     {
2332:.\Generated_Source\PSoC5/USBFS.c ****         cr = USBFS_SIE_EP_BASE.sieEp[epNumber].epCr0 & USBFS_MODE_ACKD;
 1100              		.loc 1 2332 0
 1101 0008 0001     		lsls	r0, r0, #4
 1102              	.LVL82:
 1103 000a 044B     		ldr	r3, .L90
 1104 000c 185C     		ldrb	r0, [r3, r0]	@ zero_extendqisi2
 1105 000e 00F01000 		and	r0, r0, #16
 1106 0012 C0B2     		uxtb	r0, r0
 1107              	.LVL83:
 1108 0014 7047     		bx	lr
 1109              	.LVL84:
 1110              	.L89:
2328:.\Generated_Source\PSoC5/USBFS.c ****     uint8 cr = 0u;
 1111              		.loc 1 2328 0
 1112 0016 0020     		movs	r0, #0
 1113              	.LVL85:
2333:.\Generated_Source\PSoC5/USBFS.c ****     }
2334:.\Generated_Source\PSoC5/USBFS.c **** 
2335:.\Generated_Source\PSoC5/USBFS.c ****     return ((uint8) cr);
2336:.\Generated_Source\PSoC5/USBFS.c **** }
ARM GAS  C:\Users\Patrick\AppData\Local\Temp\cc4CvmVx.s 			page 62


 1114              		.loc 1 2336 0
 1115 0018 7047     		bx	lr
 1116              	.L91:
 1117 001a 00BF     		.align	2
 1118              	.L90:
 1119 001c FE5F0040 		.word	1073766398
 1120              		.cfi_endproc
 1121              	.LFE16:
 1122              		.size	USBFS_GetEPAckState, .-USBFS_GetEPAckState
 1123              		.section	.text.USBFS_SetPowerStatus,"ax",%progbits
 1124              		.align	2
 1125              		.global	USBFS_SetPowerStatus
 1126              		.thumb
 1127              		.thumb_func
 1128              		.type	USBFS_SetPowerStatus, %function
 1129              	USBFS_SetPowerStatus:
 1130              	.LFB17:
2337:.\Generated_Source\PSoC5/USBFS.c **** 
2338:.\Generated_Source\PSoC5/USBFS.c **** 
2339:.\Generated_Source\PSoC5/USBFS.c **** /*******************************************************************************
2340:.\Generated_Source\PSoC5/USBFS.c **** * Function Name: USBFS_SetPowerStatus
2341:.\Generated_Source\PSoC5/USBFS.c **** ****************************************************************************//**
2342:.\Generated_Source\PSoC5/USBFS.c **** *
2343:.\Generated_Source\PSoC5/USBFS.c **** *  This function sets the current power status. The device replies to USB
2344:.\Generated_Source\PSoC5/USBFS.c **** *  GET_STATUS requests based on this value. This allows the device to properly
2345:.\Generated_Source\PSoC5/USBFS.c **** *  report its status for USB Chapter 9 compliance. Devices can change their
2346:.\Generated_Source\PSoC5/USBFS.c **** *  power source from self powered to bus powered at any time and report their
2347:.\Generated_Source\PSoC5/USBFS.c **** *  current power source as part of the device status. You should call this
2348:.\Generated_Source\PSoC5/USBFS.c **** *  function any time your device changes from self powered to bus powered or
2349:.\Generated_Source\PSoC5/USBFS.c **** *  vice versa, and set the status appropriately.
2350:.\Generated_Source\PSoC5/USBFS.c **** *
2351:.\Generated_Source\PSoC5/USBFS.c **** *  \param powerStatus: Contains the desired power status, one for self powered
2352:.\Generated_Source\PSoC5/USBFS.c **** *        or zero for bus powered. Symbolic names and their associated values are
2353:.\Generated_Source\PSoC5/USBFS.c **** *        given here:
2354:.\Generated_Source\PSoC5/USBFS.c **** *  Power Status                                |Description
2355:.\Generated_Source\PSoC5/USBFS.c **** *  --------------------------------------------|---------------------------
2356:.\Generated_Source\PSoC5/USBFS.c **** *  USBFS_DEVICE_STATUS_BUS_POWERED  | Set the device to bus powered
2357:.\Generated_Source\PSoC5/USBFS.c **** *  USBFS_DEVICE_STATUS_SELF_POWERED | Set the device to self powered
2358:.\Generated_Source\PSoC5/USBFS.c **** *
2359:.\Generated_Source\PSoC5/USBFS.c **** * \globalvars
2360:.\Generated_Source\PSoC5/USBFS.c **** *
2361:.\Generated_Source\PSoC5/USBFS.c **** *  \ref USBFS_deviceStatus - set power status
2362:.\Generated_Source\PSoC5/USBFS.c **** *
2363:.\Generated_Source\PSoC5/USBFS.c **** * \reentrant
2364:.\Generated_Source\PSoC5/USBFS.c **** *  No.
2365:.\Generated_Source\PSoC5/USBFS.c **** *
2366:.\Generated_Source\PSoC5/USBFS.c **** *******************************************************************************/
2367:.\Generated_Source\PSoC5/USBFS.c **** void USBFS_SetPowerStatus(uint8 powerStatus) 
2368:.\Generated_Source\PSoC5/USBFS.c **** {
 1131              		.loc 1 2368 0
 1132              		.cfi_startproc
 1133              		@ args = 0, pretend = 0, frame = 0
 1134              		@ frame_needed = 0, uses_anonymous_args = 0
 1135              		@ link register save eliminated.
 1136              	.LVL86:
2369:.\Generated_Source\PSoC5/USBFS.c ****     if (powerStatus != USBFS_DEVICE_STATUS_BUS_POWERED)
 1137              		.loc 1 2369 0
ARM GAS  C:\Users\Patrick\AppData\Local\Temp\cc4CvmVx.s 			page 63


 1138 0000 28B1     		cbz	r0, .L93
2370:.\Generated_Source\PSoC5/USBFS.c ****     {
2371:.\Generated_Source\PSoC5/USBFS.c ****         USBFS_deviceStatus |= (uint8)  USBFS_DEVICE_STATUS_SELF_POWERED;
 1139              		.loc 1 2371 0
 1140 0002 064A     		ldr	r2, .L95
 1141 0004 1378     		ldrb	r3, [r2]	@ zero_extendqisi2
 1142 0006 43F00103 		orr	r3, r3, #1
 1143 000a 1370     		strb	r3, [r2]
 1144 000c 7047     		bx	lr
 1145              	.L93:
2372:.\Generated_Source\PSoC5/USBFS.c ****     }
2373:.\Generated_Source\PSoC5/USBFS.c ****     else
2374:.\Generated_Source\PSoC5/USBFS.c ****     {
2375:.\Generated_Source\PSoC5/USBFS.c ****         USBFS_deviceStatus &= (uint8) ~USBFS_DEVICE_STATUS_SELF_POWERED;
 1146              		.loc 1 2375 0
 1147 000e 034A     		ldr	r2, .L95
 1148 0010 1378     		ldrb	r3, [r2]	@ zero_extendqisi2
 1149 0012 03F0FE03 		and	r3, r3, #254
 1150 0016 1370     		strb	r3, [r2]
 1151 0018 7047     		bx	lr
 1152              	.L96:
 1153 001a 00BF     		.align	2
 1154              	.L95:
 1155 001c 00000000 		.word	USBFS_deviceStatus
 1156              		.cfi_endproc
 1157              	.LFE17:
 1158              		.size	USBFS_SetPowerStatus, .-USBFS_SetPowerStatus
 1159              		.section	.text.USBFS_RWUEnabled,"ax",%progbits
 1160              		.align	2
 1161              		.global	USBFS_RWUEnabled
 1162              		.thumb
 1163              		.thumb_func
 1164              		.type	USBFS_RWUEnabled, %function
 1165              	USBFS_RWUEnabled:
 1166              	.LFB18:
2376:.\Generated_Source\PSoC5/USBFS.c ****     }
2377:.\Generated_Source\PSoC5/USBFS.c **** }
2378:.\Generated_Source\PSoC5/USBFS.c **** 
2379:.\Generated_Source\PSoC5/USBFS.c **** 
2380:.\Generated_Source\PSoC5/USBFS.c **** #if (USBFS_VBUS_MONITORING_ENABLE)
2381:.\Generated_Source\PSoC5/USBFS.c ****     /***************************************************************************
2382:.\Generated_Source\PSoC5/USBFS.c ****     * Function Name: USBFS_VBusPresent
2383:.\Generated_Source\PSoC5/USBFS.c ****     ************************************************************************//**
2384:.\Generated_Source\PSoC5/USBFS.c ****     *
2385:.\Generated_Source\PSoC5/USBFS.c ****     *  Determines VBUS presence for self-powered devices. This function is
2386:.\Generated_Source\PSoC5/USBFS.c ****     *  available when the VBUS Monitoring option is enabled in the Advanced tab.
2387:.\Generated_Source\PSoC5/USBFS.c ****     *
