ARM GAS  C:\Users\Patrick\AppData\Local\Temp\ccvH7eQO.s 			page 1


   1              		.syntax unified
   2              		.cpu cortex-m3
   3              		.fpu softvfp
   4              		.eabi_attribute 20, 1
   5              		.eabi_attribute 21, 1
   6              		.eabi_attribute 23, 3
   7              		.eabi_attribute 24, 1
   8              		.eabi_attribute 25, 1
   9              		.eabi_attribute 26, 1
  10              		.eabi_attribute 30, 1
  11              		.eabi_attribute 34, 1
  12              		.eabi_attribute 18, 4
  13              		.thumb
  14              		.file	"USBFS_std.c"
  15              		.text
  16              	.Ltext0:
  17              		.cfi_sections	.debug_frame
  18              		.section	.text.USBFS_ConfigReg,"ax",%progbits
  19              		.align	2
  20              		.global	USBFS_ConfigReg
  21              		.thumb
  22              		.thumb_func
  23              		.type	USBFS_ConfigReg, %function
  24              	USBFS_ConfigReg:
  25              	.LFB1:
  26              		.file 1 ".\\Generated_Source\\PSoC5\\USBFS_std.c"
   1:.\Generated_Source\PSoC5/USBFS_std.c **** /***************************************************************************//**
   2:.\Generated_Source\PSoC5/USBFS_std.c **** * \file USBFS_std.c
   3:.\Generated_Source\PSoC5/USBFS_std.c **** * \version 3.0
   4:.\Generated_Source\PSoC5/USBFS_std.c **** *
   5:.\Generated_Source\PSoC5/USBFS_std.c **** * \brief
   6:.\Generated_Source\PSoC5/USBFS_std.c **** *  This file contains the USB Standard request handler.
   7:.\Generated_Source\PSoC5/USBFS_std.c **** *
   8:.\Generated_Source\PSoC5/USBFS_std.c **** ********************************************************************************
   9:.\Generated_Source\PSoC5/USBFS_std.c **** * \copyright
  10:.\Generated_Source\PSoC5/USBFS_std.c **** * Copyright 2008-2015, Cypress Semiconductor Corporation.  All rights reserved.
  11:.\Generated_Source\PSoC5/USBFS_std.c **** * You may use this file only in accordance with the license, terms, conditions,
  12:.\Generated_Source\PSoC5/USBFS_std.c **** * disclaimers, and limitations in the end user license agreement accompanying
  13:.\Generated_Source\PSoC5/USBFS_std.c **** * the software package with which this file was provided.
  14:.\Generated_Source\PSoC5/USBFS_std.c **** *******************************************************************************/
  15:.\Generated_Source\PSoC5/USBFS_std.c **** 
  16:.\Generated_Source\PSoC5/USBFS_std.c **** #include "USBFS_pvt.h"
  17:.\Generated_Source\PSoC5/USBFS_std.c **** 
  18:.\Generated_Source\PSoC5/USBFS_std.c **** /***************************************
  19:.\Generated_Source\PSoC5/USBFS_std.c **** *   Static data allocation
  20:.\Generated_Source\PSoC5/USBFS_std.c **** ***************************************/
  21:.\Generated_Source\PSoC5/USBFS_std.c **** 
  22:.\Generated_Source\PSoC5/USBFS_std.c **** #if defined(USBFS_ENABLE_FWSN_STRING)
  23:.\Generated_Source\PSoC5/USBFS_std.c ****     static volatile uint8* USBFS_fwSerialNumberStringDescriptor;
  24:.\Generated_Source\PSoC5/USBFS_std.c ****     static volatile uint8  USBFS_snStringConfirm = USBFS_FALSE;
  25:.\Generated_Source\PSoC5/USBFS_std.c **** #endif  /* (USBFS_ENABLE_FWSN_STRING) */
  26:.\Generated_Source\PSoC5/USBFS_std.c **** 
  27:.\Generated_Source\PSoC5/USBFS_std.c **** #if defined(USBFS_ENABLE_FWSN_STRING)
  28:.\Generated_Source\PSoC5/USBFS_std.c ****     /***************************************************************************
  29:.\Generated_Source\PSoC5/USBFS_std.c ****     * Function Name: USBFS_SerialNumString
  30:.\Generated_Source\PSoC5/USBFS_std.c ****     ************************************************************************//**
  31:.\Generated_Source\PSoC5/USBFS_std.c ****     *
ARM GAS  C:\Users\Patrick\AppData\Local\Temp\ccvH7eQO.s 			page 2


  32:.\Generated_Source\PSoC5/USBFS_std.c ****     *  This function is available only when the User Call Back option in the 
  33:.\Generated_Source\PSoC5/USBFS_std.c ****     *  Serial Number String descriptor properties is selected. Application 
  34:.\Generated_Source\PSoC5/USBFS_std.c ****     *  firmware can provide the source of the USB device serial number string 
  35:.\Generated_Source\PSoC5/USBFS_std.c ****     *  descriptor during run time. The default string is used if the application 
  36:.\Generated_Source\PSoC5/USBFS_std.c ****     *  firmware does not use this function or sets the wrong string descriptor.
  37:.\Generated_Source\PSoC5/USBFS_std.c ****     *
  38:.\Generated_Source\PSoC5/USBFS_std.c ****     *  \param snString:  Pointer to the user-defined string descriptor. The 
  39:.\Generated_Source\PSoC5/USBFS_std.c ****     *  string descriptor should meet the Universal Serial Bus Specification 
  40:.\Generated_Source\PSoC5/USBFS_std.c ****     *  revision 2.0 chapter 9.6.7
  41:.\Generated_Source\PSoC5/USBFS_std.c ****     *  Offset|Size|Value|Description
  42:.\Generated_Source\PSoC5/USBFS_std.c ****     *  ------|----|------|---------------------------------
  43:.\Generated_Source\PSoC5/USBFS_std.c ****     *  0     |1   |N     |Size of this descriptor in bytes
  44:.\Generated_Source\PSoC5/USBFS_std.c ****     *  1     |1   |0x03  |STRING Descriptor Type
  45:.\Generated_Source\PSoC5/USBFS_std.c ****     *  2     |N-2 |Number|UNICODE encoded string
  46:.\Generated_Source\PSoC5/USBFS_std.c ****     *  
  47:.\Generated_Source\PSoC5/USBFS_std.c ****     * *For example:* uint8 snString[16]={0x0E,0x03,'F',0,'W',0,'S',0,'N',0,'0',0,'1',0};
  48:.\Generated_Source\PSoC5/USBFS_std.c ****     *
  49:.\Generated_Source\PSoC5/USBFS_std.c ****     * \reentrant
  50:.\Generated_Source\PSoC5/USBFS_std.c ****     *  No.
  51:.\Generated_Source\PSoC5/USBFS_std.c ****     *
  52:.\Generated_Source\PSoC5/USBFS_std.c ****     ***************************************************************************/
  53:.\Generated_Source\PSoC5/USBFS_std.c ****     void  USBFS_SerialNumString(uint8 snString[]) 
  54:.\Generated_Source\PSoC5/USBFS_std.c ****     {
  55:.\Generated_Source\PSoC5/USBFS_std.c ****         USBFS_snStringConfirm = USBFS_FALSE;
  56:.\Generated_Source\PSoC5/USBFS_std.c ****         
  57:.\Generated_Source\PSoC5/USBFS_std.c ****         if (snString != NULL)
  58:.\Generated_Source\PSoC5/USBFS_std.c ****         {
  59:.\Generated_Source\PSoC5/USBFS_std.c ****             /* Check descriptor validation */
  60:.\Generated_Source\PSoC5/USBFS_std.c ****             if ((snString[0u] > 1u) && (snString[1u] == USBFS_DESCR_STRING))
  61:.\Generated_Source\PSoC5/USBFS_std.c ****             {
  62:.\Generated_Source\PSoC5/USBFS_std.c ****                 USBFS_fwSerialNumberStringDescriptor = snString;
  63:.\Generated_Source\PSoC5/USBFS_std.c ****                 USBFS_snStringConfirm = USBFS_TRUE;
  64:.\Generated_Source\PSoC5/USBFS_std.c ****             }
  65:.\Generated_Source\PSoC5/USBFS_std.c ****         }
  66:.\Generated_Source\PSoC5/USBFS_std.c ****     }
  67:.\Generated_Source\PSoC5/USBFS_std.c **** #endif  /* USBFS_ENABLE_FWSN_STRING */
  68:.\Generated_Source\PSoC5/USBFS_std.c **** 
  69:.\Generated_Source\PSoC5/USBFS_std.c **** 
  70:.\Generated_Source\PSoC5/USBFS_std.c **** /*******************************************************************************
  71:.\Generated_Source\PSoC5/USBFS_std.c **** * Function Name: USBFS_HandleStandardRqst
  72:.\Generated_Source\PSoC5/USBFS_std.c **** ****************************************************************************//**
  73:.\Generated_Source\PSoC5/USBFS_std.c **** *
  74:.\Generated_Source\PSoC5/USBFS_std.c **** *  This Routine dispatches standard requests
  75:.\Generated_Source\PSoC5/USBFS_std.c **** *
  76:.\Generated_Source\PSoC5/USBFS_std.c **** *
  77:.\Generated_Source\PSoC5/USBFS_std.c **** * \return
  78:.\Generated_Source\PSoC5/USBFS_std.c **** *  TRUE if request handled.
  79:.\Generated_Source\PSoC5/USBFS_std.c **** *
  80:.\Generated_Source\PSoC5/USBFS_std.c **** * \reentrant
  81:.\Generated_Source\PSoC5/USBFS_std.c **** *  No.
  82:.\Generated_Source\PSoC5/USBFS_std.c **** *
  83:.\Generated_Source\PSoC5/USBFS_std.c **** *******************************************************************************/
  84:.\Generated_Source\PSoC5/USBFS_std.c **** uint8 USBFS_HandleStandardRqst(void) 
  85:.\Generated_Source\PSoC5/USBFS_std.c **** {
  86:.\Generated_Source\PSoC5/USBFS_std.c ****     uint8 requestHandled = USBFS_FALSE;
  87:.\Generated_Source\PSoC5/USBFS_std.c ****     uint8 interfaceNumber;
  88:.\Generated_Source\PSoC5/USBFS_std.c ****     uint8 configurationN;
ARM GAS  C:\Users\Patrick\AppData\Local\Temp\ccvH7eQO.s 			page 3


  89:.\Generated_Source\PSoC5/USBFS_std.c ****     uint8 bmRequestType = USBFS_bmRequestTypeReg;
  90:.\Generated_Source\PSoC5/USBFS_std.c **** 
  91:.\Generated_Source\PSoC5/USBFS_std.c **** #if defined(USBFS_ENABLE_STRINGS)
  92:.\Generated_Source\PSoC5/USBFS_std.c ****     volatile uint8 *pStr = 0u;
  93:.\Generated_Source\PSoC5/USBFS_std.c ****     #if defined(USBFS_ENABLE_DESCRIPTOR_STRINGS)
  94:.\Generated_Source\PSoC5/USBFS_std.c ****         uint8 nStr;
  95:.\Generated_Source\PSoC5/USBFS_std.c ****         uint8 descrLength;
  96:.\Generated_Source\PSoC5/USBFS_std.c ****     #endif /* (USBFS_ENABLE_DESCRIPTOR_STRINGS) */
  97:.\Generated_Source\PSoC5/USBFS_std.c **** #endif /* (USBFS_ENABLE_STRINGS) */
  98:.\Generated_Source\PSoC5/USBFS_std.c ****     
  99:.\Generated_Source\PSoC5/USBFS_std.c ****     static volatile uint8 USBFS_tBuffer[USBFS_STATUS_LENGTH_MAX];
 100:.\Generated_Source\PSoC5/USBFS_std.c ****     const T_USBFS_LUT CYCODE *pTmp;
 101:.\Generated_Source\PSoC5/USBFS_std.c **** 
 102:.\Generated_Source\PSoC5/USBFS_std.c ****     USBFS_currentTD.count = 0u;
 103:.\Generated_Source\PSoC5/USBFS_std.c **** 
 104:.\Generated_Source\PSoC5/USBFS_std.c ****     if (USBFS_RQST_DIR_D2H == (bmRequestType & USBFS_RQST_DIR_MASK))
 105:.\Generated_Source\PSoC5/USBFS_std.c ****     {
 106:.\Generated_Source\PSoC5/USBFS_std.c ****         /* Control Read */
 107:.\Generated_Source\PSoC5/USBFS_std.c ****         switch (USBFS_bRequestReg)
 108:.\Generated_Source\PSoC5/USBFS_std.c ****         {
 109:.\Generated_Source\PSoC5/USBFS_std.c ****             case USBFS_GET_DESCRIPTOR:
 110:.\Generated_Source\PSoC5/USBFS_std.c ****                 if (USBFS_DESCR_DEVICE ==USBFS_wValueHiReg)
 111:.\Generated_Source\PSoC5/USBFS_std.c ****                 {
 112:.\Generated_Source\PSoC5/USBFS_std.c ****                     pTmp = USBFS_GetDeviceTablePtr();
 113:.\Generated_Source\PSoC5/USBFS_std.c ****                     USBFS_currentTD.pData = (volatile uint8 *)pTmp->p_list;
 114:.\Generated_Source\PSoC5/USBFS_std.c ****                     USBFS_currentTD.count = USBFS_DEVICE_DESCR_LENGTH;
 115:.\Generated_Source\PSoC5/USBFS_std.c ****                     
 116:.\Generated_Source\PSoC5/USBFS_std.c ****                     requestHandled  = USBFS_InitControlRead();
 117:.\Generated_Source\PSoC5/USBFS_std.c ****                 }
 118:.\Generated_Source\PSoC5/USBFS_std.c ****                 else if (USBFS_DESCR_CONFIG == USBFS_wValueHiReg)
 119:.\Generated_Source\PSoC5/USBFS_std.c ****                 {
 120:.\Generated_Source\PSoC5/USBFS_std.c ****                     pTmp = USBFS_GetConfigTablePtr((uint8) USBFS_wValueLoReg);
 121:.\Generated_Source\PSoC5/USBFS_std.c ****                     
 122:.\Generated_Source\PSoC5/USBFS_std.c ****                     /* Verify that requested descriptor exists */
 123:.\Generated_Source\PSoC5/USBFS_std.c ****                     if (pTmp != NULL)
 124:.\Generated_Source\PSoC5/USBFS_std.c ****                     {
 125:.\Generated_Source\PSoC5/USBFS_std.c ****                         USBFS_currentTD.pData = (volatile uint8 *)pTmp->p_list;
 126:.\Generated_Source\PSoC5/USBFS_std.c ****                         USBFS_currentTD.count = (uint16)((uint16)(USBFS_currentTD.pData)[USBFS_CONF
 127:.\Generated_Source\PSoC5/USBFS_std.c ****                                                                             (USBFS_currentTD.pData)
 128:.\Generated_Source\PSoC5/USBFS_std.c ****                         requestHandled  = USBFS_InitControlRead();
 129:.\Generated_Source\PSoC5/USBFS_std.c ****                     }
 130:.\Generated_Source\PSoC5/USBFS_std.c ****                 }
 131:.\Generated_Source\PSoC5/USBFS_std.c ****                 
 132:.\Generated_Source\PSoC5/USBFS_std.c ****             #if(USBFS_BOS_ENABLE)
 133:.\Generated_Source\PSoC5/USBFS_std.c ****                 else if (USBFS_DESCR_BOS == USBFS_wValueHiReg)
 134:.\Generated_Source\PSoC5/USBFS_std.c ****                 {
 135:.\Generated_Source\PSoC5/USBFS_std.c ****                     pTmp = USBFS_GetBOSPtr();
 136:.\Generated_Source\PSoC5/USBFS_std.c ****                     
 137:.\Generated_Source\PSoC5/USBFS_std.c ****                     /* Verify that requested descriptor exists */
 138:.\Generated_Source\PSoC5/USBFS_std.c ****                     if (pTmp != NULL)
 139:.\Generated_Source\PSoC5/USBFS_std.c ****                     {
 140:.\Generated_Source\PSoC5/USBFS_std.c ****                         USBFS_currentTD.pData = (volatile uint8 *)pTmp;
 141:.\Generated_Source\PSoC5/USBFS_std.c ****                         USBFS_currentTD.count = ((uint16)((uint16)(USBFS_currentTD.pData)[USBFS_BOS
 142:.\Generated_Source\PSoC5/USBFS_std.c ****                                                                              (USBFS_currentTD.pData
 143:.\Generated_Source\PSoC5/USBFS_std.c ****                         requestHandled  = USBFS_InitControlRead();
 144:.\Generated_Source\PSoC5/USBFS_std.c ****                     }
 145:.\Generated_Source\PSoC5/USBFS_std.c ****                 }
ARM GAS  C:\Users\Patrick\AppData\Local\Temp\ccvH7eQO.s 			page 4


 146:.\Generated_Source\PSoC5/USBFS_std.c ****             #endif /*(USBFS_BOS_ENABLE)*/
 147:.\Generated_Source\PSoC5/USBFS_std.c ****             
 148:.\Generated_Source\PSoC5/USBFS_std.c ****             #if defined(USBFS_ENABLE_STRINGS)
 149:.\Generated_Source\PSoC5/USBFS_std.c ****                 else if (USBFS_DESCR_STRING == USBFS_wValueHiReg)
 150:.\Generated_Source\PSoC5/USBFS_std.c ****                 {
 151:.\Generated_Source\PSoC5/USBFS_std.c ****                 /* Descriptor Strings */
 152:.\Generated_Source\PSoC5/USBFS_std.c ****                 #if defined(USBFS_ENABLE_DESCRIPTOR_STRINGS)
 153:.\Generated_Source\PSoC5/USBFS_std.c ****                     nStr = 0u;
 154:.\Generated_Source\PSoC5/USBFS_std.c ****                     pStr = (volatile uint8 *) &USBFS_STRING_DESCRIPTORS[0u];
 155:.\Generated_Source\PSoC5/USBFS_std.c ****                     
 156:.\Generated_Source\PSoC5/USBFS_std.c ****                     while ((USBFS_wValueLoReg > nStr) && (*pStr != 0u))
 157:.\Generated_Source\PSoC5/USBFS_std.c ****                     {
 158:.\Generated_Source\PSoC5/USBFS_std.c ****                         /* Read descriptor length from 1st byte */
 159:.\Generated_Source\PSoC5/USBFS_std.c ****                         descrLength = *pStr;
 160:.\Generated_Source\PSoC5/USBFS_std.c ****                         /* Move to next string descriptor */
 161:.\Generated_Source\PSoC5/USBFS_std.c ****                         pStr = &pStr[descrLength];
 162:.\Generated_Source\PSoC5/USBFS_std.c ****                         nStr++;
 163:.\Generated_Source\PSoC5/USBFS_std.c ****                     }
 164:.\Generated_Source\PSoC5/USBFS_std.c ****                 #endif /* (USBFS_ENABLE_DESCRIPTOR_STRINGS) */
 165:.\Generated_Source\PSoC5/USBFS_std.c ****                 
 166:.\Generated_Source\PSoC5/USBFS_std.c ****                 /* Microsoft OS String */
 167:.\Generated_Source\PSoC5/USBFS_std.c ****                 #if defined(USBFS_ENABLE_MSOS_STRING)
 168:.\Generated_Source\PSoC5/USBFS_std.c ****                     if (USBFS_STRING_MSOS == USBFS_wValueLoReg)
 169:.\Generated_Source\PSoC5/USBFS_std.c ****                     {
 170:.\Generated_Source\PSoC5/USBFS_std.c ****                         pStr = (volatile uint8 *)& USBFS_MSOS_DESCRIPTOR[0u];
 171:.\Generated_Source\PSoC5/USBFS_std.c ****                     }
 172:.\Generated_Source\PSoC5/USBFS_std.c ****                 #endif /* (USBFS_ENABLE_MSOS_STRING) */
 173:.\Generated_Source\PSoC5/USBFS_std.c ****                 
 174:.\Generated_Source\PSoC5/USBFS_std.c ****                 /* SN string */
 175:.\Generated_Source\PSoC5/USBFS_std.c ****                 #if defined(USBFS_ENABLE_SN_STRING)
 176:.\Generated_Source\PSoC5/USBFS_std.c ****                     if ((USBFS_wValueLoReg != 0u) && 
 177:.\Generated_Source\PSoC5/USBFS_std.c ****                         (USBFS_wValueLoReg == USBFS_DEVICE0_DESCR[USBFS_DEVICE_DESCR_SN_SHIFT]))
 178:.\Generated_Source\PSoC5/USBFS_std.c ****                     {
 179:.\Generated_Source\PSoC5/USBFS_std.c ****                     #if defined(USBFS_ENABLE_IDSN_STRING)
 180:.\Generated_Source\PSoC5/USBFS_std.c ****                         /* Read DIE ID and generate string descriptor in RAM */
 181:.\Generated_Source\PSoC5/USBFS_std.c ****                         USBFS_ReadDieID(USBFS_idSerialNumberStringDescriptor);
 182:.\Generated_Source\PSoC5/USBFS_std.c ****                         pStr = USBFS_idSerialNumberStringDescriptor;
 183:.\Generated_Source\PSoC5/USBFS_std.c ****                     #elif defined(USBFS_ENABLE_FWSN_STRING)
 184:.\Generated_Source\PSoC5/USBFS_std.c ****                         
 185:.\Generated_Source\PSoC5/USBFS_std.c ****                         if(USBFS_snStringConfirm != USBFS_FALSE)
 186:.\Generated_Source\PSoC5/USBFS_std.c ****                         {
 187:.\Generated_Source\PSoC5/USBFS_std.c ****                             pStr = USBFS_fwSerialNumberStringDescriptor;
 188:.\Generated_Source\PSoC5/USBFS_std.c ****                         }
 189:.\Generated_Source\PSoC5/USBFS_std.c ****                         else
 190:.\Generated_Source\PSoC5/USBFS_std.c ****                         {
 191:.\Generated_Source\PSoC5/USBFS_std.c ****                             pStr = (volatile uint8 *)&USBFS_SN_STRING_DESCRIPTOR[0u];
 192:.\Generated_Source\PSoC5/USBFS_std.c ****                         }
 193:.\Generated_Source\PSoC5/USBFS_std.c ****                     #else
 194:.\Generated_Source\PSoC5/USBFS_std.c ****                         pStr = (volatile uint8 *)&USBFS_SN_STRING_DESCRIPTOR[0u];
 195:.\Generated_Source\PSoC5/USBFS_std.c ****                     #endif  /* (USBFS_ENABLE_IDSN_STRING) */
 196:.\Generated_Source\PSoC5/USBFS_std.c ****                     }
 197:.\Generated_Source\PSoC5/USBFS_std.c ****                 #endif /* (USBFS_ENABLE_SN_STRING) */
 198:.\Generated_Source\PSoC5/USBFS_std.c ****                 
 199:.\Generated_Source\PSoC5/USBFS_std.c ****                     if (*pStr != 0u)
 200:.\Generated_Source\PSoC5/USBFS_std.c ****                     {
 201:.\Generated_Source\PSoC5/USBFS_std.c ****                         USBFS_currentTD.count = *pStr;
 202:.\Generated_Source\PSoC5/USBFS_std.c ****                         USBFS_currentTD.pData = pStr;
ARM GAS  C:\Users\Patrick\AppData\Local\Temp\ccvH7eQO.s 			page 5


 203:.\Generated_Source\PSoC5/USBFS_std.c ****                         requestHandled  = USBFS_InitControlRead();
 204:.\Generated_Source\PSoC5/USBFS_std.c ****                     }
 205:.\Generated_Source\PSoC5/USBFS_std.c ****                 }
 206:.\Generated_Source\PSoC5/USBFS_std.c ****             #endif /*  USBFS_ENABLE_STRINGS */
 207:.\Generated_Source\PSoC5/USBFS_std.c ****                 else
 208:.\Generated_Source\PSoC5/USBFS_std.c ****                 {
 209:.\Generated_Source\PSoC5/USBFS_std.c ****                     requestHandled = USBFS_DispatchClassRqst();
 210:.\Generated_Source\PSoC5/USBFS_std.c ****                 }
 211:.\Generated_Source\PSoC5/USBFS_std.c ****                 break;
 212:.\Generated_Source\PSoC5/USBFS_std.c ****                 
 213:.\Generated_Source\PSoC5/USBFS_std.c ****             case USBFS_GET_STATUS:
 214:.\Generated_Source\PSoC5/USBFS_std.c ****                 switch (bmRequestType & USBFS_RQST_RCPT_MASK)
 215:.\Generated_Source\PSoC5/USBFS_std.c ****                 {
 216:.\Generated_Source\PSoC5/USBFS_std.c ****                     case USBFS_RQST_RCPT_EP:
 217:.\Generated_Source\PSoC5/USBFS_std.c ****                         USBFS_currentTD.count = USBFS_EP_STATUS_LENGTH;
 218:.\Generated_Source\PSoC5/USBFS_std.c ****                         USBFS_tBuffer[0u]     = USBFS_EP[USBFS_wIndexLoReg & USBFS_DIR_UNUSED].hwEp
 219:.\Generated_Source\PSoC5/USBFS_std.c ****                         USBFS_tBuffer[1u]     = 0u;
 220:.\Generated_Source\PSoC5/USBFS_std.c ****                         USBFS_currentTD.pData = &USBFS_tBuffer[0u];
 221:.\Generated_Source\PSoC5/USBFS_std.c ****                         
 222:.\Generated_Source\PSoC5/USBFS_std.c ****                         requestHandled  = USBFS_InitControlRead();
 223:.\Generated_Source\PSoC5/USBFS_std.c ****                         break;
 224:.\Generated_Source\PSoC5/USBFS_std.c ****                     case USBFS_RQST_RCPT_DEV:
 225:.\Generated_Source\PSoC5/USBFS_std.c ****                         USBFS_currentTD.count = USBFS_DEVICE_STATUS_LENGTH;
 226:.\Generated_Source\PSoC5/USBFS_std.c ****                         USBFS_tBuffer[0u]     = USBFS_deviceStatus;
 227:.\Generated_Source\PSoC5/USBFS_std.c ****                         USBFS_tBuffer[1u]     = 0u;
 228:.\Generated_Source\PSoC5/USBFS_std.c ****                         USBFS_currentTD.pData = &USBFS_tBuffer[0u];
 229:.\Generated_Source\PSoC5/USBFS_std.c ****                         
 230:.\Generated_Source\PSoC5/USBFS_std.c ****                         requestHandled  = USBFS_InitControlRead();
 231:.\Generated_Source\PSoC5/USBFS_std.c ****                         break;
 232:.\Generated_Source\PSoC5/USBFS_std.c ****                     default:    /* requestHandled is initialized as FALSE by default */
 233:.\Generated_Source\PSoC5/USBFS_std.c ****                         break;
 234:.\Generated_Source\PSoC5/USBFS_std.c ****                 }
 235:.\Generated_Source\PSoC5/USBFS_std.c ****                 break;
 236:.\Generated_Source\PSoC5/USBFS_std.c ****                 
 237:.\Generated_Source\PSoC5/USBFS_std.c ****             case USBFS_GET_CONFIGURATION:
 238:.\Generated_Source\PSoC5/USBFS_std.c ****                 USBFS_currentTD.count = 1u;
 239:.\Generated_Source\PSoC5/USBFS_std.c ****                 USBFS_currentTD.pData = (volatile uint8 *) &USBFS_configuration;
 240:.\Generated_Source\PSoC5/USBFS_std.c ****                 requestHandled  = USBFS_InitControlRead();
 241:.\Generated_Source\PSoC5/USBFS_std.c ****                 break;
 242:.\Generated_Source\PSoC5/USBFS_std.c ****                 
 243:.\Generated_Source\PSoC5/USBFS_std.c ****             case USBFS_GET_INTERFACE:
 244:.\Generated_Source\PSoC5/USBFS_std.c ****                 USBFS_currentTD.count = 1u;
 245:.\Generated_Source\PSoC5/USBFS_std.c ****                 USBFS_currentTD.pData = (volatile uint8 *) &USBFS_interfaceSetting[USBFS_wIndexLoRe
 246:.\Generated_Source\PSoC5/USBFS_std.c ****                 requestHandled  = USBFS_InitControlRead();
 247:.\Generated_Source\PSoC5/USBFS_std.c ****                 break;
 248:.\Generated_Source\PSoC5/USBFS_std.c ****                 
 249:.\Generated_Source\PSoC5/USBFS_std.c ****             default: /* requestHandled is initialized as FALSE by default */
 250:.\Generated_Source\PSoC5/USBFS_std.c ****                 break;
 251:.\Generated_Source\PSoC5/USBFS_std.c ****         }
 252:.\Generated_Source\PSoC5/USBFS_std.c ****     }
 253:.\Generated_Source\PSoC5/USBFS_std.c ****     else
 254:.\Generated_Source\PSoC5/USBFS_std.c ****     {
 255:.\Generated_Source\PSoC5/USBFS_std.c ****         /* Control Write */
 256:.\Generated_Source\PSoC5/USBFS_std.c ****         switch (USBFS_bRequestReg)
 257:.\Generated_Source\PSoC5/USBFS_std.c ****         {
 258:.\Generated_Source\PSoC5/USBFS_std.c ****             case USBFS_SET_ADDRESS:
 259:.\Generated_Source\PSoC5/USBFS_std.c ****                 /* Store address to be set in USBFS_NoDataControlStatusStage(). */
ARM GAS  C:\Users\Patrick\AppData\Local\Temp\ccvH7eQO.s 			page 6


 260:.\Generated_Source\PSoC5/USBFS_std.c ****                 USBFS_deviceAddress = (uint8) USBFS_wValueLoReg;
 261:.\Generated_Source\PSoC5/USBFS_std.c ****                 requestHandled = USBFS_InitNoDataControlTransfer();
 262:.\Generated_Source\PSoC5/USBFS_std.c ****                 break;
 263:.\Generated_Source\PSoC5/USBFS_std.c ****                 
 264:.\Generated_Source\PSoC5/USBFS_std.c ****             case USBFS_SET_CONFIGURATION:
 265:.\Generated_Source\PSoC5/USBFS_std.c ****                 configurationN = USBFS_wValueLoReg;
 266:.\Generated_Source\PSoC5/USBFS_std.c ****                 
 267:.\Generated_Source\PSoC5/USBFS_std.c ****                 /* Verify that configuration descriptor exists */
 268:.\Generated_Source\PSoC5/USBFS_std.c ****                 if(configurationN > 0u)
 269:.\Generated_Source\PSoC5/USBFS_std.c ****                 {
 270:.\Generated_Source\PSoC5/USBFS_std.c ****                     pTmp = USBFS_GetConfigTablePtr((uint8) configurationN - 1u);
 271:.\Generated_Source\PSoC5/USBFS_std.c ****                 }
 272:.\Generated_Source\PSoC5/USBFS_std.c ****                 
 273:.\Generated_Source\PSoC5/USBFS_std.c ****                 /* Responds with a Request Error when configuration number is invalid */
 274:.\Generated_Source\PSoC5/USBFS_std.c ****                 if (((configurationN > 0u) && (pTmp != NULL)) || (configurationN == 0u))
 275:.\Generated_Source\PSoC5/USBFS_std.c ****                 {
 276:.\Generated_Source\PSoC5/USBFS_std.c ****                     /* Set new configuration if it has been changed */
 277:.\Generated_Source\PSoC5/USBFS_std.c ****                     if(configurationN != USBFS_configuration)
 278:.\Generated_Source\PSoC5/USBFS_std.c ****                     {
 279:.\Generated_Source\PSoC5/USBFS_std.c ****                         USBFS_configuration = (uint8) configurationN;
 280:.\Generated_Source\PSoC5/USBFS_std.c ****                         USBFS_configurationChanged = USBFS_TRUE;
 281:.\Generated_Source\PSoC5/USBFS_std.c ****                         USBFS_Config(USBFS_TRUE);
 282:.\Generated_Source\PSoC5/USBFS_std.c ****                     }
 283:.\Generated_Source\PSoC5/USBFS_std.c ****                     requestHandled = USBFS_InitNoDataControlTransfer();
 284:.\Generated_Source\PSoC5/USBFS_std.c ****                 }
 285:.\Generated_Source\PSoC5/USBFS_std.c ****                 break;
 286:.\Generated_Source\PSoC5/USBFS_std.c ****                 
 287:.\Generated_Source\PSoC5/USBFS_std.c ****             case USBFS_SET_INTERFACE:
 288:.\Generated_Source\PSoC5/USBFS_std.c ****                 if (0u != USBFS_ValidateAlternateSetting())
 289:.\Generated_Source\PSoC5/USBFS_std.c ****                 {
 290:.\Generated_Source\PSoC5/USBFS_std.c ****                     /* Get interface number from the request. */
 291:.\Generated_Source\PSoC5/USBFS_std.c ****                     interfaceNumber = USBFS_wIndexLoReg;
 292:.\Generated_Source\PSoC5/USBFS_std.c ****                     USBFS_interfaceNumber = (uint8) USBFS_wIndexLoReg;
 293:.\Generated_Source\PSoC5/USBFS_std.c ****                      
 294:.\Generated_Source\PSoC5/USBFS_std.c ****                     /* Check if alternate settings is changed for interface. */
 295:.\Generated_Source\PSoC5/USBFS_std.c ****                     if (USBFS_interfaceSettingLast[interfaceNumber] != USBFS_interfaceSetting[inter
 296:.\Generated_Source\PSoC5/USBFS_std.c ****                     {
 297:.\Generated_Source\PSoC5/USBFS_std.c ****                         USBFS_configurationChanged = USBFS_TRUE;
 298:.\Generated_Source\PSoC5/USBFS_std.c ****                     
 299:.\Generated_Source\PSoC5/USBFS_std.c ****                         /* Change alternate setting for the endpoints. */
 300:.\Generated_Source\PSoC5/USBFS_std.c ****                     #if (USBFS_EP_MANAGEMENT_MANUAL && USBFS_EP_ALLOC_DYNAMIC)
 301:.\Generated_Source\PSoC5/USBFS_std.c ****                         USBFS_Config(USBFS_FALSE);
 302:.\Generated_Source\PSoC5/USBFS_std.c ****                     #else
 303:.\Generated_Source\PSoC5/USBFS_std.c ****                         USBFS_ConfigAltChanged();
 304:.\Generated_Source\PSoC5/USBFS_std.c ****                     #endif /* (USBFS_EP_MANAGEMENT_MANUAL && USBFS_EP_ALLOC_DYNAMIC) */
 305:.\Generated_Source\PSoC5/USBFS_std.c ****                     }
 306:.\Generated_Source\PSoC5/USBFS_std.c ****                     
 307:.\Generated_Source\PSoC5/USBFS_std.c ****                     requestHandled = USBFS_InitNoDataControlTransfer();
 308:.\Generated_Source\PSoC5/USBFS_std.c ****                 }
 309:.\Generated_Source\PSoC5/USBFS_std.c ****                 break;
 310:.\Generated_Source\PSoC5/USBFS_std.c ****                 
 311:.\Generated_Source\PSoC5/USBFS_std.c ****             case USBFS_CLEAR_FEATURE:
 312:.\Generated_Source\PSoC5/USBFS_std.c ****                 switch (bmRequestType & USBFS_RQST_RCPT_MASK)
 313:.\Generated_Source\PSoC5/USBFS_std.c ****                 {
 314:.\Generated_Source\PSoC5/USBFS_std.c ****                     case USBFS_RQST_RCPT_EP:
 315:.\Generated_Source\PSoC5/USBFS_std.c ****                         if (USBFS_wValueLoReg == USBFS_ENDPOINT_HALT)
 316:.\Generated_Source\PSoC5/USBFS_std.c ****                         {
ARM GAS  C:\Users\Patrick\AppData\Local\Temp\ccvH7eQO.s 			page 7


 317:.\Generated_Source\PSoC5/USBFS_std.c ****                             requestHandled = USBFS_ClearEndpointHalt();
 318:.\Generated_Source\PSoC5/USBFS_std.c ****                         }
 319:.\Generated_Source\PSoC5/USBFS_std.c ****                         break;
 320:.\Generated_Source\PSoC5/USBFS_std.c ****                     case USBFS_RQST_RCPT_DEV:
 321:.\Generated_Source\PSoC5/USBFS_std.c ****                         /* Clear device REMOTE_WAKEUP */
 322:.\Generated_Source\PSoC5/USBFS_std.c ****                         if (USBFS_wValueLoReg == USBFS_DEVICE_REMOTE_WAKEUP)
 323:.\Generated_Source\PSoC5/USBFS_std.c ****                         {
 324:.\Generated_Source\PSoC5/USBFS_std.c ****                             USBFS_deviceStatus &= (uint8)~USBFS_DEVICE_STATUS_REMOTE_WAKEUP;
 325:.\Generated_Source\PSoC5/USBFS_std.c ****                             requestHandled = USBFS_InitNoDataControlTransfer();
 326:.\Generated_Source\PSoC5/USBFS_std.c ****                         }
 327:.\Generated_Source\PSoC5/USBFS_std.c ****                         break;
 328:.\Generated_Source\PSoC5/USBFS_std.c ****                     case USBFS_RQST_RCPT_IFC:
 329:.\Generated_Source\PSoC5/USBFS_std.c ****                         /* Validate interfaceNumber */
 330:.\Generated_Source\PSoC5/USBFS_std.c ****                         if (USBFS_wIndexLoReg < USBFS_MAX_INTERFACES_NUMBER)
 331:.\Generated_Source\PSoC5/USBFS_std.c ****                         {
 332:.\Generated_Source\PSoC5/USBFS_std.c ****                             USBFS_interfaceStatus[USBFS_wIndexLoReg] &= (uint8) ~USBFS_wValueLoReg;
 333:.\Generated_Source\PSoC5/USBFS_std.c ****                             requestHandled = USBFS_InitNoDataControlTransfer();
 334:.\Generated_Source\PSoC5/USBFS_std.c ****                         }
 335:.\Generated_Source\PSoC5/USBFS_std.c ****                         break;
 336:.\Generated_Source\PSoC5/USBFS_std.c ****                     default:    /* requestHandled is initialized as FALSE by default */
 337:.\Generated_Source\PSoC5/USBFS_std.c ****                         break;
 338:.\Generated_Source\PSoC5/USBFS_std.c ****                 }
 339:.\Generated_Source\PSoC5/USBFS_std.c ****                 break;
 340:.\Generated_Source\PSoC5/USBFS_std.c ****                 
 341:.\Generated_Source\PSoC5/USBFS_std.c ****             case USBFS_SET_FEATURE:
 342:.\Generated_Source\PSoC5/USBFS_std.c ****                 switch (bmRequestType & USBFS_RQST_RCPT_MASK)
 343:.\Generated_Source\PSoC5/USBFS_std.c ****                 {
 344:.\Generated_Source\PSoC5/USBFS_std.c ****                     case USBFS_RQST_RCPT_EP:
 345:.\Generated_Source\PSoC5/USBFS_std.c ****                         if (USBFS_wValueLoReg == USBFS_ENDPOINT_HALT)
 346:.\Generated_Source\PSoC5/USBFS_std.c ****                         {
 347:.\Generated_Source\PSoC5/USBFS_std.c ****                             requestHandled = USBFS_SetEndpointHalt();
 348:.\Generated_Source\PSoC5/USBFS_std.c ****                         }
 349:.\Generated_Source\PSoC5/USBFS_std.c ****                         break;
 350:.\Generated_Source\PSoC5/USBFS_std.c ****                         
 351:.\Generated_Source\PSoC5/USBFS_std.c ****                     case USBFS_RQST_RCPT_DEV:
 352:.\Generated_Source\PSoC5/USBFS_std.c ****                         /* Set device REMOTE_WAKEUP */
 353:.\Generated_Source\PSoC5/USBFS_std.c ****                         if (USBFS_wValueLoReg == USBFS_DEVICE_REMOTE_WAKEUP)
 354:.\Generated_Source\PSoC5/USBFS_std.c ****                         {
 355:.\Generated_Source\PSoC5/USBFS_std.c ****                             USBFS_deviceStatus |= USBFS_DEVICE_STATUS_REMOTE_WAKEUP;
 356:.\Generated_Source\PSoC5/USBFS_std.c ****                             requestHandled = USBFS_InitNoDataControlTransfer();
 357:.\Generated_Source\PSoC5/USBFS_std.c ****                         }
 358:.\Generated_Source\PSoC5/USBFS_std.c ****                         break;
 359:.\Generated_Source\PSoC5/USBFS_std.c ****                         
 360:.\Generated_Source\PSoC5/USBFS_std.c ****                     case USBFS_RQST_RCPT_IFC:
 361:.\Generated_Source\PSoC5/USBFS_std.c ****                         /* Validate interfaceNumber */
 362:.\Generated_Source\PSoC5/USBFS_std.c ****                         if (USBFS_wIndexLoReg < USBFS_MAX_INTERFACES_NUMBER)
 363:.\Generated_Source\PSoC5/USBFS_std.c ****                         {
 364:.\Generated_Source\PSoC5/USBFS_std.c ****                             USBFS_interfaceStatus[USBFS_wIndexLoReg] &= (uint8) ~USBFS_wValueLoReg;
 365:.\Generated_Source\PSoC5/USBFS_std.c ****                             requestHandled = USBFS_InitNoDataControlTransfer();
 366:.\Generated_Source\PSoC5/USBFS_std.c ****                         }
 367:.\Generated_Source\PSoC5/USBFS_std.c ****                         break;
 368:.\Generated_Source\PSoC5/USBFS_std.c ****                     
 369:.\Generated_Source\PSoC5/USBFS_std.c ****                     default:    /* requestHandled is initialized as FALSE by default */
 370:.\Generated_Source\PSoC5/USBFS_std.c ****                         break;
 371:.\Generated_Source\PSoC5/USBFS_std.c ****                 }
 372:.\Generated_Source\PSoC5/USBFS_std.c ****                 break;
 373:.\Generated_Source\PSoC5/USBFS_std.c ****                 
ARM GAS  C:\Users\Patrick\AppData\Local\Temp\ccvH7eQO.s 			page 8


 374:.\Generated_Source\PSoC5/USBFS_std.c ****             default:    /* requestHandled is initialized as FALSE by default */
 375:.\Generated_Source\PSoC5/USBFS_std.c ****                 break;
 376:.\Generated_Source\PSoC5/USBFS_std.c ****         }
 377:.\Generated_Source\PSoC5/USBFS_std.c ****     }
 378:.\Generated_Source\PSoC5/USBFS_std.c ****     
 379:.\Generated_Source\PSoC5/USBFS_std.c ****     return (requestHandled);
 380:.\Generated_Source\PSoC5/USBFS_std.c **** }
 381:.\Generated_Source\PSoC5/USBFS_std.c **** 
 382:.\Generated_Source\PSoC5/USBFS_std.c **** 
 383:.\Generated_Source\PSoC5/USBFS_std.c **** #if defined(USBFS_ENABLE_IDSN_STRING)
 384:.\Generated_Source\PSoC5/USBFS_std.c ****     /***************************************************************************
 385:.\Generated_Source\PSoC5/USBFS_std.c ****     * Function Name: USBFS_ReadDieID
 386:.\Generated_Source\PSoC5/USBFS_std.c ****     ************************************************************************//**
 387:.\Generated_Source\PSoC5/USBFS_std.c ****     *
 388:.\Generated_Source\PSoC5/USBFS_std.c ****     *  This routine read Die ID and generate Serial Number string descriptor.
 389:.\Generated_Source\PSoC5/USBFS_std.c ****     *
 390:.\Generated_Source\PSoC5/USBFS_std.c ****     *  \param descr:  pointer on string descriptor. This string size has to be equal or
 391:.\Generated_Source\PSoC5/USBFS_std.c ****     *          greater than USBFS_IDSN_DESCR_LENGTH.
 392:.\Generated_Source\PSoC5/USBFS_std.c ****     *
 393:.\Generated_Source\PSoC5/USBFS_std.c ****     *
 394:.\Generated_Source\PSoC5/USBFS_std.c ****     * \reentrant
 395:.\Generated_Source\PSoC5/USBFS_std.c ****     *  No.
 396:.\Generated_Source\PSoC5/USBFS_std.c ****     *
 397:.\Generated_Source\PSoC5/USBFS_std.c ****     ***************************************************************************/
 398:.\Generated_Source\PSoC5/USBFS_std.c ****     void USBFS_ReadDieID(uint8 descr[]) 
 399:.\Generated_Source\PSoC5/USBFS_std.c ****     {
 400:.\Generated_Source\PSoC5/USBFS_std.c ****         const char8 CYCODE hex[] = "0123456789ABCDEF";
 401:.\Generated_Source\PSoC5/USBFS_std.c ****         uint8 i;
 402:.\Generated_Source\PSoC5/USBFS_std.c ****         uint8 j = 0u;
 403:.\Generated_Source\PSoC5/USBFS_std.c ****         uint8 uniqueId[8u];
 404:.\Generated_Source\PSoC5/USBFS_std.c **** 
 405:.\Generated_Source\PSoC5/USBFS_std.c ****         if (NULL != descr)
 406:.\Generated_Source\PSoC5/USBFS_std.c ****         {
 407:.\Generated_Source\PSoC5/USBFS_std.c ****             /* Initialize descriptor header. */
 408:.\Generated_Source\PSoC5/USBFS_std.c ****             descr[0u] = USBFS_IDSN_DESCR_LENGTH;
 409:.\Generated_Source\PSoC5/USBFS_std.c ****             descr[1u] = USBFS_DESCR_STRING;
 410:.\Generated_Source\PSoC5/USBFS_std.c ****             
 411:.\Generated_Source\PSoC5/USBFS_std.c ****             /* Unique ID size is 8 bytes. */
 412:.\Generated_Source\PSoC5/USBFS_std.c ****             CyGetUniqueId((uint32 *) uniqueId);
 413:.\Generated_Source\PSoC5/USBFS_std.c **** 
 414:.\Generated_Source\PSoC5/USBFS_std.c ****             /* Fill descriptor with unique device ID. */
 415:.\Generated_Source\PSoC5/USBFS_std.c ****             for (i = 2u; i < USBFS_IDSN_DESCR_LENGTH; i += 4u)
 416:.\Generated_Source\PSoC5/USBFS_std.c ****             {
 417:.\Generated_Source\PSoC5/USBFS_std.c ****                 descr[i]      = (uint8) hex[(uniqueId[j] >> 4u)];
 418:.\Generated_Source\PSoC5/USBFS_std.c ****                 descr[i + 1u] = 0u;
 419:.\Generated_Source\PSoC5/USBFS_std.c ****                 descr[i + 2u] = (uint8) hex[(uniqueId[j] & 0x0Fu)];
 420:.\Generated_Source\PSoC5/USBFS_std.c ****                 descr[i + 3u] = 0u;
 421:.\Generated_Source\PSoC5/USBFS_std.c ****                 ++j;
 422:.\Generated_Source\PSoC5/USBFS_std.c ****             }
 423:.\Generated_Source\PSoC5/USBFS_std.c ****         }
 424:.\Generated_Source\PSoC5/USBFS_std.c ****     }
 425:.\Generated_Source\PSoC5/USBFS_std.c **** #endif /* (USBFS_ENABLE_IDSN_STRING) */
 426:.\Generated_Source\PSoC5/USBFS_std.c **** 
 427:.\Generated_Source\PSoC5/USBFS_std.c **** 
 428:.\Generated_Source\PSoC5/USBFS_std.c **** /*******************************************************************************
 429:.\Generated_Source\PSoC5/USBFS_std.c **** * Function Name: USBFS_ConfigReg
 430:.\Generated_Source\PSoC5/USBFS_std.c **** ****************************************************************************//**
ARM GAS  C:\Users\Patrick\AppData\Local\Temp\ccvH7eQO.s 			page 9


 431:.\Generated_Source\PSoC5/USBFS_std.c **** *
 432:.\Generated_Source\PSoC5/USBFS_std.c **** *  This routine configures hardware registers from the variables.
 433:.\Generated_Source\PSoC5/USBFS_std.c **** *  It is called from USBFS_Config() function and from RestoreConfig
 434:.\Generated_Source\PSoC5/USBFS_std.c **** *  after Wakeup.
 435:.\Generated_Source\PSoC5/USBFS_std.c **** *
 436:.\Generated_Source\PSoC5/USBFS_std.c **** *******************************************************************************/
 437:.\Generated_Source\PSoC5/USBFS_std.c **** void USBFS_ConfigReg(void) 
 438:.\Generated_Source\PSoC5/USBFS_std.c **** {
  27              		.loc 1 438 0
  28              		.cfi_startproc
  29              		@ args = 0, pretend = 0, frame = 0
  30              		@ frame_needed = 0, uses_anonymous_args = 0
  31              		@ link register save eliminated.
  32 0000 10B4     		push	{r4}
  33              		.cfi_def_cfa_offset 4
  34              		.cfi_offset 4, -4
  35              	.LVL0:
 439:.\Generated_Source\PSoC5/USBFS_std.c ****     uint8 ep;
 440:.\Generated_Source\PSoC5/USBFS_std.c **** 
 441:.\Generated_Source\PSoC5/USBFS_std.c **** #if (USBFS_EP_MANAGEMENT_DMA_AUTO)
 442:.\Generated_Source\PSoC5/USBFS_std.c ****     uint8 epType = 0u;
 443:.\Generated_Source\PSoC5/USBFS_std.c **** #endif /* (USBFS_EP_MANAGEMENT_DMA_AUTO) */
 444:.\Generated_Source\PSoC5/USBFS_std.c **** 
 445:.\Generated_Source\PSoC5/USBFS_std.c ****     /* Go thought all endpoints and set hardware configuration */
 446:.\Generated_Source\PSoC5/USBFS_std.c ****     for (ep = USBFS_EP1; ep < USBFS_MAX_EP; ++ep)
  36              		.loc 1 446 0
  37 0002 0122     		movs	r2, #1
  38 0004 3DE0     		b	.L2
  39              	.LVL1:
  40              	.L6:
 447:.\Generated_Source\PSoC5/USBFS_std.c ****     {
 448:.\Generated_Source\PSoC5/USBFS_std.c ****         USBFS_ARB_EP_BASE.arbEp[ep].epCfg = USBFS_ARB_EPX_CFG_DEFAULT;
  41              		.loc 1 448 0
  42 0006 1146     		mov	r1, r2
  43 0008 1301     		lsls	r3, r2, #4
  44 000a 0C24     		movs	r4, #12
  45 000c 2148     		ldr	r0, .L8
  46 000e C454     		strb	r4, [r0, r3]
 449:.\Generated_Source\PSoC5/USBFS_std.c ****         
 450:.\Generated_Source\PSoC5/USBFS_std.c ****     #if (USBFS_EP_MANAGEMENT_DMA)
 451:.\Generated_Source\PSoC5/USBFS_std.c ****         /* Enable arbiter endpoint interrupt sources */
 452:.\Generated_Source\PSoC5/USBFS_std.c ****         USBFS_ARB_EP_BASE.arbEp[ep].epIntEn = USBFS_ARB_EPX_INT_MASK;
 453:.\Generated_Source\PSoC5/USBFS_std.c ****     #endif /* (USBFS_EP_MANAGEMENT_DMA) */
 454:.\Generated_Source\PSoC5/USBFS_std.c ****     
 455:.\Generated_Source\PSoC5/USBFS_std.c ****         if (USBFS_EP[ep].epMode != USBFS_MODE_DISABLE)
  47              		.loc 1 455 0
  48 0010 02EB4203 		add	r3, r2, r2, lsl #1
  49 0014 9B00     		lsls	r3, r3, #2
  50 0016 2048     		ldr	r0, .L8+4
  51 0018 0344     		add	r3, r3, r0
  52 001a 5B79     		ldrb	r3, [r3, #5]	@ zero_extendqisi2
  53 001c 13F0FF0F 		tst	r3, #255
  54 0020 12D0     		beq	.L3
 456:.\Generated_Source\PSoC5/USBFS_std.c ****         {
 457:.\Generated_Source\PSoC5/USBFS_std.c ****             if (0u != (USBFS_EP[ep].addr & USBFS_DIR_IN))
  55              		.loc 1 457 0
  56 0022 02EB4203 		add	r3, r2, r2, lsl #1
ARM GAS  C:\Users\Patrick\AppData\Local\Temp\ccvH7eQO.s 			page 10


  57 0026 9B00     		lsls	r3, r3, #2
  58 0028 0344     		add	r3, r3, r0
  59 002a 1B79     		ldrb	r3, [r3, #4]	@ zero_extendqisi2
  60 002c 13F0800F 		tst	r3, #128
  61 0030 04D0     		beq	.L4
 458:.\Generated_Source\PSoC5/USBFS_std.c ****             {
 459:.\Generated_Source\PSoC5/USBFS_std.c ****                 USBFS_SIE_EP_BASE.sieEp[ep].epCr0 = USBFS_MODE_NAK_IN;
  62              		.loc 1 459 0
  63 0032 1001     		lsls	r0, r2, #4
  64 0034 194B     		ldr	r3, .L8+8
  65 0036 0344     		add	r3, r3, r0
  66 0038 9C70     		strb	r4, [r3, #2]
  67 003a 0AE0     		b	.L5
  68              	.L4:
 460:.\Generated_Source\PSoC5/USBFS_std.c ****                 
 461:.\Generated_Source\PSoC5/USBFS_std.c ****             #if (USBFS_EP_MANAGEMENT_DMA_AUTO && CY_PSOC4)
 462:.\Generated_Source\PSoC5/USBFS_std.c ****                 /* Clear DMA_TERMIN for IN endpoint. */
 463:.\Generated_Source\PSoC5/USBFS_std.c ****                 USBFS_ARB_EP_BASE.arbEp[ep].epIntEn &= (uint32) ~USBFS_ARB_EPX_INT_DMA_TERMIN;
 464:.\Generated_Source\PSoC5/USBFS_std.c ****             #endif /* (USBFS_EP_MANAGEMENT_DMA_AUTO && CY_PSOC4) */
 465:.\Generated_Source\PSoC5/USBFS_std.c ****             }
 466:.\Generated_Source\PSoC5/USBFS_std.c ****             else
 467:.\Generated_Source\PSoC5/USBFS_std.c ****             {
 468:.\Generated_Source\PSoC5/USBFS_std.c ****                 USBFS_SIE_EP_BASE.sieEp[ep].epCr0 = USBFS_MODE_NAK_OUT;
  69              		.loc 1 468 0
  70 003c 1001     		lsls	r0, r2, #4
  71 003e 174B     		ldr	r3, .L8+8
  72 0040 0344     		add	r3, r3, r0
  73 0042 0820     		movs	r0, #8
  74 0044 9870     		strb	r0, [r3, #2]
  75 0046 04E0     		b	.L5
  76              	.L3:
 469:.\Generated_Source\PSoC5/USBFS_std.c **** 
 470:.\Generated_Source\PSoC5/USBFS_std.c ****             #if (USBFS_EP_MANAGEMENT_DMA_AUTO)
 471:.\Generated_Source\PSoC5/USBFS_std.c ****                 /* (CY_PSOC4): DMA_TERMIN for OUT endpoint is set above. */
 472:.\Generated_Source\PSoC5/USBFS_std.c ****                 
 473:.\Generated_Source\PSoC5/USBFS_std.c ****                 /* Prepare endpoint type mask. */
 474:.\Generated_Source\PSoC5/USBFS_std.c ****                 epType |= (uint8) (0x01u << (ep - USBFS_EP1));
 475:.\Generated_Source\PSoC5/USBFS_std.c ****             #endif /* (USBFS_EP_MANAGEMENT_DMA_AUTO) */
 476:.\Generated_Source\PSoC5/USBFS_std.c ****             }
 477:.\Generated_Source\PSoC5/USBFS_std.c ****         }
 478:.\Generated_Source\PSoC5/USBFS_std.c ****         else
 479:.\Generated_Source\PSoC5/USBFS_std.c ****         {
 480:.\Generated_Source\PSoC5/USBFS_std.c ****             USBFS_SIE_EP_BASE.sieEp[ep].epCr0 = USBFS_MODE_STALL_DATA_EP;
  77              		.loc 1 480 0
  78 0048 1001     		lsls	r0, r2, #4
  79 004a 144B     		ldr	r3, .L8+8
  80 004c 0344     		add	r3, r3, r0
  81 004e 8020     		movs	r0, #128
  82 0050 9870     		strb	r0, [r3, #2]
  83              	.L5:
 481:.\Generated_Source\PSoC5/USBFS_std.c ****         }
 482:.\Generated_Source\PSoC5/USBFS_std.c ****         
 483:.\Generated_Source\PSoC5/USBFS_std.c ****     #if (!USBFS_EP_MANAGEMENT_DMA_AUTO)
 484:.\Generated_Source\PSoC5/USBFS_std.c ****         #if (CY_PSOC4)
 485:.\Generated_Source\PSoC5/USBFS_std.c ****             USBFS_ARB_EP16_BASE.arbEp[ep].rwRa16  = (uint32) USBFS_EP[ep].buffOffset;
 486:.\Generated_Source\PSoC5/USBFS_std.c ****             USBFS_ARB_EP16_BASE.arbEp[ep].rwWa16  = (uint32) USBFS_EP[ep].buffOffset;
 487:.\Generated_Source\PSoC5/USBFS_std.c ****         #else
ARM GAS  C:\Users\Patrick\AppData\Local\Temp\ccvH7eQO.s 			page 11


 488:.\Generated_Source\PSoC5/USBFS_std.c ****             USBFS_ARB_EP_BASE.arbEp[ep].rwRa    = LO8(USBFS_EP[ep].buffOffset);
  84              		.loc 1 488 0 discriminator 2
  85 0052 4B00     		lsls	r3, r1, #1
  86 0054 0B44     		add	r3, r3, r1
  87 0056 9B00     		lsls	r3, r3, #2
  88 0058 0F48     		ldr	r0, .L8+4
  89 005a 0344     		add	r3, r3, r0
  90 005c DC88     		ldrh	r4, [r3, #6]
  91 005e E4B2     		uxtb	r4, r4
  92 0060 0801     		lsls	r0, r1, #4
  93 0062 0C49     		ldr	r1, .L8
  94 0064 0144     		add	r1, r1, r0
  95 0066 8C71     		strb	r4, [r1, #6]
 489:.\Generated_Source\PSoC5/USBFS_std.c ****             USBFS_ARB_EP_BASE.arbEp[ep].rwRaMsb = HI8(USBFS_EP[ep].buffOffset);
  96              		.loc 1 489 0 discriminator 2
  97 0068 D888     		ldrh	r0, [r3, #6]
  98 006a C0F30720 		ubfx	r0, r0, #8, #8
  99 006e C871     		strb	r0, [r1, #7]
 490:.\Generated_Source\PSoC5/USBFS_std.c ****             USBFS_ARB_EP_BASE.arbEp[ep].rwWa    = LO8(USBFS_EP[ep].buffOffset);
 100              		.loc 1 490 0 discriminator 2
 101 0070 D888     		ldrh	r0, [r3, #6]
 102 0072 C0B2     		uxtb	r0, r0
 103 0074 0871     		strb	r0, [r1, #4]
 491:.\Generated_Source\PSoC5/USBFS_std.c ****             USBFS_ARB_EP_BASE.arbEp[ep].rwWaMsb = HI8(USBFS_EP[ep].buffOffset);
 104              		.loc 1 491 0 discriminator 2
 105 0076 DB88     		ldrh	r3, [r3, #6]
 106 0078 C3F30723 		ubfx	r3, r3, #8, #8
 107 007c 4B71     		strb	r3, [r1, #5]
 446:.\Generated_Source\PSoC5/USBFS_std.c ****     {
 108              		.loc 1 446 0 discriminator 2
 109 007e 0132     		adds	r2, r2, #1
 110              	.LVL2:
 111 0080 D2B2     		uxtb	r2, r2
 112              	.LVL3:
 113              	.L2:
 446:.\Generated_Source\PSoC5/USBFS_std.c ****     {
 114              		.loc 1 446 0 is_stmt 0 discriminator 1
 115 0082 082A     		cmp	r2, #8
 116 0084 BFD9     		bls	.L6
 492:.\Generated_Source\PSoC5/USBFS_std.c ****         #endif /* (CY_PSOC4) */
 493:.\Generated_Source\PSoC5/USBFS_std.c ****     #endif /* (!USBFS_EP_MANAGEMENT_DMA_AUTO) */
 494:.\Generated_Source\PSoC5/USBFS_std.c ****     }
 495:.\Generated_Source\PSoC5/USBFS_std.c **** 
 496:.\Generated_Source\PSoC5/USBFS_std.c **** #if (USBFS_EP_MANAGEMENT_DMA_AUTO)
 497:.\Generated_Source\PSoC5/USBFS_std.c ****      /* BUF_SIZE depend on DMA_THRESS value:0x55-32 bytes  0x44-16 bytes 0x33-8 bytes 0x22-4 bytes 
 498:.\Generated_Source\PSoC5/USBFS_std.c ****     USBFS_BUF_SIZE_REG = USBFS_DMA_BUF_SIZE;
 499:.\Generated_Source\PSoC5/USBFS_std.c **** 
 500:.\Generated_Source\PSoC5/USBFS_std.c ****     /* Configure DMA burst threshold */
 501:.\Generated_Source\PSoC5/USBFS_std.c **** #if (CY_PSOC4)
 502:.\Generated_Source\PSoC5/USBFS_std.c ****     USBFS_DMA_THRES16_REG   = USBFS_DMA_BYTES_PER_BURST;
 503:.\Generated_Source\PSoC5/USBFS_std.c **** #else
 504:.\Generated_Source\PSoC5/USBFS_std.c ****     USBFS_DMA_THRES_REG     = USBFS_DMA_BYTES_PER_BURST;
 505:.\Generated_Source\PSoC5/USBFS_std.c ****     USBFS_DMA_THRES_MSB_REG = 0u;
 506:.\Generated_Source\PSoC5/USBFS_std.c **** #endif /* (CY_PSOC4) */
 507:.\Generated_Source\PSoC5/USBFS_std.c ****     USBFS_EP_ACTIVE_REG = USBFS_DEFAULT_ARB_INT_EN;
 508:.\Generated_Source\PSoC5/USBFS_std.c ****     USBFS_EP_TYPE_REG   = epType;
 509:.\Generated_Source\PSoC5/USBFS_std.c ****     
ARM GAS  C:\Users\Patrick\AppData\Local\Temp\ccvH7eQO.s 			page 12


 510:.\Generated_Source\PSoC5/USBFS_std.c ****     /* Cfg_cmp bit set to 1 once configuration is complete. */
 511:.\Generated_Source\PSoC5/USBFS_std.c ****     /* Lock arbiter configtuation */
 512:.\Generated_Source\PSoC5/USBFS_std.c ****     USBFS_ARB_CFG_REG |= (uint8)  USBFS_ARB_CFG_CFG_CMP;
 513:.\Generated_Source\PSoC5/USBFS_std.c ****     /* Cfg_cmp bit set to 0 during configuration of PFSUSB Registers. */
 514:.\Generated_Source\PSoC5/USBFS_std.c ****     USBFS_ARB_CFG_REG &= (uint8) ~USBFS_ARB_CFG_CFG_CMP;
 515:.\Generated_Source\PSoC5/USBFS_std.c **** 
 516:.\Generated_Source\PSoC5/USBFS_std.c **** #endif /* (USBFS_EP_MANAGEMENT_DMA_AUTO) */
 517:.\Generated_Source\PSoC5/USBFS_std.c **** 
 518:.\Generated_Source\PSoC5/USBFS_std.c ****     /* Enable interrupt SIE interurpt source from EP0-EP1 */
 519:.\Generated_Source\PSoC5/USBFS_std.c ****     USBFS_SIE_EP_INT_EN_REG = (uint8) USBFS_DEFAULT_SIE_EP_INT_EN;
 117              		.loc 1 519 0 is_stmt 1
 118 0086 FF22     		movs	r2, #255
 119              	.LVL4:
 120 0088 054B     		ldr	r3, .L8+12
 121 008a 1A70     		strb	r2, [r3]
 520:.\Generated_Source\PSoC5/USBFS_std.c **** }
 122              		.loc 1 520 0
 123 008c 5DF8044B 		ldr	r4, [sp], #4
 124              		.cfi_restore 4
 125              		.cfi_def_cfa_offset 0
 126 0090 7047     		bx	lr
 127              	.L9:
 128 0092 00BF     		.align	2
 129              	.L8:
 130 0094 70600040 		.word	1073766512
 131 0098 00000000 		.word	USBFS_EP
 132 009c FC5F0040 		.word	1073766396
 133 00a0 0A600040 		.word	1073766410
 134              		.cfi_endproc
 135              	.LFE1:
 136              		.size	USBFS_ConfigReg, .-USBFS_ConfigReg
 137              		.section	.text.USBFS_EpStateInit,"ax",%progbits
 138              		.align	2
 139              		.global	USBFS_EpStateInit
 140              		.thumb
 141              		.thumb_func
 142              		.type	USBFS_EpStateInit, %function
 143              	USBFS_EpStateInit:
 144              	.LFB2:
 521:.\Generated_Source\PSoC5/USBFS_std.c **** 
 522:.\Generated_Source\PSoC5/USBFS_std.c **** 
 523:.\Generated_Source\PSoC5/USBFS_std.c **** /*******************************************************************************
 524:.\Generated_Source\PSoC5/USBFS_std.c **** * Function Name: USBFS_EpStateInit
 525:.\Generated_Source\PSoC5/USBFS_std.c **** ****************************************************************************//**
 526:.\Generated_Source\PSoC5/USBFS_std.c **** *
 527:.\Generated_Source\PSoC5/USBFS_std.c **** *  This routine initialize state of Data end points based of its type: 
 528:.\Generated_Source\PSoC5/USBFS_std.c **** *   IN  - USBFS_IN_BUFFER_EMPTY (USBFS_EVENT_PENDING)
 529:.\Generated_Source\PSoC5/USBFS_std.c **** *   OUT - USBFS_OUT_BUFFER_EMPTY (USBFS_NO_EVENT_PENDING)
 530:.\Generated_Source\PSoC5/USBFS_std.c **** *
 531:.\Generated_Source\PSoC5/USBFS_std.c **** *******************************************************************************/
 532:.\Generated_Source\PSoC5/USBFS_std.c **** void USBFS_EpStateInit(void) 
 533:.\Generated_Source\PSoC5/USBFS_std.c **** {
 145              		.loc 1 533 0
 146              		.cfi_startproc
 147              		@ args = 0, pretend = 0, frame = 0
 148              		@ frame_needed = 0, uses_anonymous_args = 0
 149              		@ link register save eliminated.
ARM GAS  C:\Users\Patrick\AppData\Local\Temp\ccvH7eQO.s 			page 13


 150              	.LVL5:
 534:.\Generated_Source\PSoC5/USBFS_std.c ****     uint8 i;
 535:.\Generated_Source\PSoC5/USBFS_std.c **** 
 536:.\Generated_Source\PSoC5/USBFS_std.c ****     for (i = USBFS_EP1; i < USBFS_MAX_EP; i++)
 151              		.loc 1 536 0
 152 0000 0123     		movs	r3, #1
 153 0002 18E0     		b	.L11
 154              	.LVL6:
 155              	.L14:
 537:.\Generated_Source\PSoC5/USBFS_std.c ****     { 
 538:.\Generated_Source\PSoC5/USBFS_std.c ****         if (0u != (USBFS_EP[i].addr & USBFS_DIR_IN))
 156              		.loc 1 538 0
 157 0004 03EB4302 		add	r2, r3, r3, lsl #1
 158 0008 9200     		lsls	r2, r2, #2
 159 000a 0C49     		ldr	r1, .L15
 160 000c 0A44     		add	r2, r2, r1
 161 000e 1279     		ldrb	r2, [r2, #4]	@ zero_extendqisi2
 162 0010 12F0800F 		tst	r2, #128
 163 0014 06D0     		beq	.L12
 539:.\Generated_Source\PSoC5/USBFS_std.c ****         {
 540:.\Generated_Source\PSoC5/USBFS_std.c ****             /* IN Endpoint */
 541:.\Generated_Source\PSoC5/USBFS_std.c ****             USBFS_EP[i].apiEpState = USBFS_EVENT_PENDING;
 164              		.loc 1 541 0
 165 0016 03EB4302 		add	r2, r3, r3, lsl #1
 166 001a 9200     		lsls	r2, r2, #2
 167 001c 0A44     		add	r2, r2, r1
 168 001e 0121     		movs	r1, #1
 169 0020 5170     		strb	r1, [r2, #1]
 170 0022 06E0     		b	.L13
 171              	.L12:
 542:.\Generated_Source\PSoC5/USBFS_std.c ****         }
 543:.\Generated_Source\PSoC5/USBFS_std.c ****         else
 544:.\Generated_Source\PSoC5/USBFS_std.c ****         {
 545:.\Generated_Source\PSoC5/USBFS_std.c ****             /* OUT Endpoint */
 546:.\Generated_Source\PSoC5/USBFS_std.c ****             USBFS_EP[i].apiEpState = USBFS_NO_EVENT_PENDING;
 172              		.loc 1 546 0
 173 0024 03EB4302 		add	r2, r3, r3, lsl #1
 174 0028 9200     		lsls	r2, r2, #2
 175 002a 0449     		ldr	r1, .L15
 176 002c 0A44     		add	r2, r2, r1
 177 002e 0021     		movs	r1, #0
 178 0030 5170     		strb	r1, [r2, #1]
 179              	.L13:
 536:.\Generated_Source\PSoC5/USBFS_std.c ****     { 
 180              		.loc 1 536 0 discriminator 2
 181 0032 0133     		adds	r3, r3, #1
 182              	.LVL7:
 183 0034 DBB2     		uxtb	r3, r3
 184              	.LVL8:
 185              	.L11:
 536:.\Generated_Source\PSoC5/USBFS_std.c ****     { 
 186              		.loc 1 536 0 is_stmt 0 discriminator 1
 187 0036 082B     		cmp	r3, #8
 188 0038 E4D9     		bls	.L14
 547:.\Generated_Source\PSoC5/USBFS_std.c ****         }
 548:.\Generated_Source\PSoC5/USBFS_std.c ****     }
 549:.\Generated_Source\PSoC5/USBFS_std.c ****                     
ARM GAS  C:\Users\Patrick\AppData\Local\Temp\ccvH7eQO.s 			page 14


 550:.\Generated_Source\PSoC5/USBFS_std.c **** }
 189              		.loc 1 550 0 is_stmt 1
 190 003a 7047     		bx	lr
 191              	.L16:
 192              		.align	2
 193              	.L15:
 194 003c 00000000 		.word	USBFS_EP
 195              		.cfi_endproc
 196              	.LFE2:
 197              		.size	USBFS_EpStateInit, .-USBFS_EpStateInit
 198              		.section	.text.USBFS_GetConfigTablePtr,"ax",%progbits
 199              		.align	2
 200              		.global	USBFS_GetConfigTablePtr
 201              		.thumb
 202              		.thumb_func
 203              		.type	USBFS_GetConfigTablePtr, %function
 204              	USBFS_GetConfigTablePtr:
 205              	.LFB5:
 551:.\Generated_Source\PSoC5/USBFS_std.c **** 
 552:.\Generated_Source\PSoC5/USBFS_std.c **** 
 553:.\Generated_Source\PSoC5/USBFS_std.c **** /*******************************************************************************
 554:.\Generated_Source\PSoC5/USBFS_std.c **** * Function Name: USBFS_Config
 555:.\Generated_Source\PSoC5/USBFS_std.c **** ****************************************************************************//**
 556:.\Generated_Source\PSoC5/USBFS_std.c **** *
 557:.\Generated_Source\PSoC5/USBFS_std.c **** *  This routine configures endpoints for the entire configuration by scanning
 558:.\Generated_Source\PSoC5/USBFS_std.c **** *  the configuration descriptor.
 559:.\Generated_Source\PSoC5/USBFS_std.c **** *
 560:.\Generated_Source\PSoC5/USBFS_std.c **** *  \param clearAltSetting: It configures the bAlternateSetting 0 for each interface.
 561:.\Generated_Source\PSoC5/USBFS_std.c **** *
 562:.\Generated_Source\PSoC5/USBFS_std.c **** * USBFS_interfaceClass - Initialized class array for each interface.
 563:.\Generated_Source\PSoC5/USBFS_std.c **** *   It is used for handling Class specific requests depend on interface class.
 564:.\Generated_Source\PSoC5/USBFS_std.c **** *   Different classes in multiple Alternate settings does not supported.
 565:.\Generated_Source\PSoC5/USBFS_std.c **** *
 566:.\Generated_Source\PSoC5/USBFS_std.c **** * \reentrant
 567:.\Generated_Source\PSoC5/USBFS_std.c **** *  No.
 568:.\Generated_Source\PSoC5/USBFS_std.c **** *
 569:.\Generated_Source\PSoC5/USBFS_std.c **** *******************************************************************************/
 570:.\Generated_Source\PSoC5/USBFS_std.c **** void USBFS_Config(uint8 clearAltSetting) 
 571:.\Generated_Source\PSoC5/USBFS_std.c **** {
 572:.\Generated_Source\PSoC5/USBFS_std.c ****     uint8 ep;
 573:.\Generated_Source\PSoC5/USBFS_std.c ****     uint8 curEp;
 574:.\Generated_Source\PSoC5/USBFS_std.c ****     uint8 i;
 575:.\Generated_Source\PSoC5/USBFS_std.c ****     uint8 epType;
 576:.\Generated_Source\PSoC5/USBFS_std.c ****     const uint8 *pDescr;
 577:.\Generated_Source\PSoC5/USBFS_std.c ****     
 578:.\Generated_Source\PSoC5/USBFS_std.c ****     #if (!USBFS_EP_MANAGEMENT_DMA_AUTO)
 579:.\Generated_Source\PSoC5/USBFS_std.c ****         uint16 buffCount = 0u;
 580:.\Generated_Source\PSoC5/USBFS_std.c ****     #endif /* (!USBFS_EP_MANAGEMENT_DMA_AUTO) */
 581:.\Generated_Source\PSoC5/USBFS_std.c **** 
 582:.\Generated_Source\PSoC5/USBFS_std.c ****     const T_USBFS_LUT CYCODE *pTmp;
 583:.\Generated_Source\PSoC5/USBFS_std.c ****     const T_USBFS_EP_SETTINGS_BLOCK CYCODE *pEP;
 584:.\Generated_Source\PSoC5/USBFS_std.c **** 
 585:.\Generated_Source\PSoC5/USBFS_std.c ****     /* Clear endpoints settings */
 586:.\Generated_Source\PSoC5/USBFS_std.c ****     for (ep = 0u; ep < USBFS_MAX_EP; ++ep)
 587:.\Generated_Source\PSoC5/USBFS_std.c ****     {
 588:.\Generated_Source\PSoC5/USBFS_std.c ****         USBFS_EP[ep].attrib     = 0u;
 589:.\Generated_Source\PSoC5/USBFS_std.c ****         USBFS_EP[ep].hwEpState  = 0u;
ARM GAS  C:\Users\Patrick\AppData\Local\Temp\ccvH7eQO.s 			page 15


 590:.\Generated_Source\PSoC5/USBFS_std.c ****         USBFS_EP[ep].epToggle   = 0u;
 591:.\Generated_Source\PSoC5/USBFS_std.c ****         USBFS_EP[ep].bufferSize = 0u;
 592:.\Generated_Source\PSoC5/USBFS_std.c ****         USBFS_EP[ep].interface  = 0u;
 593:.\Generated_Source\PSoC5/USBFS_std.c ****         USBFS_EP[ep].apiEpState = USBFS_NO_EVENT_PENDING;
 594:.\Generated_Source\PSoC5/USBFS_std.c ****         USBFS_EP[ep].epMode     = USBFS_MODE_DISABLE;   
 595:.\Generated_Source\PSoC5/USBFS_std.c ****     }
 596:.\Generated_Source\PSoC5/USBFS_std.c **** 
 597:.\Generated_Source\PSoC5/USBFS_std.c ****     /* Clear Alternate settings for all interfaces. */
 598:.\Generated_Source\PSoC5/USBFS_std.c ****     if (0u != clearAltSetting)
 599:.\Generated_Source\PSoC5/USBFS_std.c ****     {
 600:.\Generated_Source\PSoC5/USBFS_std.c ****         for (i = 0u; i < USBFS_MAX_INTERFACES_NUMBER; ++i)
 601:.\Generated_Source\PSoC5/USBFS_std.c ****         {
 602:.\Generated_Source\PSoC5/USBFS_std.c ****             USBFS_interfaceSetting[i]     = 0u;
 603:.\Generated_Source\PSoC5/USBFS_std.c ****             USBFS_interfaceSettingLast[i] = 0u;
 604:.\Generated_Source\PSoC5/USBFS_std.c ****         }
 605:.\Generated_Source\PSoC5/USBFS_std.c ****     }
 606:.\Generated_Source\PSoC5/USBFS_std.c **** 
 607:.\Generated_Source\PSoC5/USBFS_std.c ****     /* Init Endpoints and Device Status if configured */
 608:.\Generated_Source\PSoC5/USBFS_std.c ****     if (USBFS_configuration > 0u)
 609:.\Generated_Source\PSoC5/USBFS_std.c ****     {
 610:.\Generated_Source\PSoC5/USBFS_std.c ****         #if defined(USBFS_ENABLE_CDC_CLASS)
 611:.\Generated_Source\PSoC5/USBFS_std.c ****             uint8 cdcComNums = 0u;
 612:.\Generated_Source\PSoC5/USBFS_std.c ****         #endif  /* (USBFS_ENABLE_CDC_CLASS) */  
 613:.\Generated_Source\PSoC5/USBFS_std.c **** 
 614:.\Generated_Source\PSoC5/USBFS_std.c ****         pTmp = USBFS_GetConfigTablePtr(USBFS_configuration - 1u);
 615:.\Generated_Source\PSoC5/USBFS_std.c ****         
 616:.\Generated_Source\PSoC5/USBFS_std.c ****         /* Set Power status for current configuration */
 617:.\Generated_Source\PSoC5/USBFS_std.c ****         pDescr = (const uint8 *)pTmp->p_list;
 618:.\Generated_Source\PSoC5/USBFS_std.c ****         if ((pDescr[USBFS_CONFIG_DESCR_ATTRIB] & USBFS_CONFIG_DESCR_ATTRIB_SELF_POWERED) != 0u)
 619:.\Generated_Source\PSoC5/USBFS_std.c ****         {
 620:.\Generated_Source\PSoC5/USBFS_std.c ****             USBFS_deviceStatus |= (uint8)  USBFS_DEVICE_STATUS_SELF_POWERED;
 621:.\Generated_Source\PSoC5/USBFS_std.c ****         }
 622:.\Generated_Source\PSoC5/USBFS_std.c ****         else
 623:.\Generated_Source\PSoC5/USBFS_std.c ****         {
 624:.\Generated_Source\PSoC5/USBFS_std.c ****             USBFS_deviceStatus &= (uint8) ~USBFS_DEVICE_STATUS_SELF_POWERED;
 625:.\Generated_Source\PSoC5/USBFS_std.c ****         }
 626:.\Generated_Source\PSoC5/USBFS_std.c ****         
 627:.\Generated_Source\PSoC5/USBFS_std.c ****         /* Move to next element */
 628:.\Generated_Source\PSoC5/USBFS_std.c ****         pTmp = &pTmp[1u];
 629:.\Generated_Source\PSoC5/USBFS_std.c ****         ep = pTmp->c;  /* For this table, c is the number of endpoints configurations  */
 630:.\Generated_Source\PSoC5/USBFS_std.c **** 
 631:.\Generated_Source\PSoC5/USBFS_std.c ****         #if (USBFS_EP_MANAGEMENT_MANUAL && USBFS_EP_ALLOC_DYNAMIC)
 632:.\Generated_Source\PSoC5/USBFS_std.c ****             /* Configure for dynamic EP memory allocation */
 633:.\Generated_Source\PSoC5/USBFS_std.c ****             /* p_list points the endpoint setting table. */
 634:.\Generated_Source\PSoC5/USBFS_std.c ****             pEP = (T_USBFS_EP_SETTINGS_BLOCK *) pTmp->p_list;
 635:.\Generated_Source\PSoC5/USBFS_std.c ****             
 636:.\Generated_Source\PSoC5/USBFS_std.c ****             for (i = 0u; i < ep; i++)
 637:.\Generated_Source\PSoC5/USBFS_std.c ****             {     
 638:.\Generated_Source\PSoC5/USBFS_std.c ****                 /* Compare current Alternate setting with EP Alt */
 639:.\Generated_Source\PSoC5/USBFS_std.c ****                 if (USBFS_interfaceSetting[pEP->interface] == pEP->altSetting)
 640:.\Generated_Source\PSoC5/USBFS_std.c ****                 {                                                          
 641:.\Generated_Source\PSoC5/USBFS_std.c ****                     curEp  = pEP->addr & USBFS_DIR_UNUSED;
 642:.\Generated_Source\PSoC5/USBFS_std.c ****                     epType = pEP->attributes & USBFS_EP_TYPE_MASK;
 643:.\Generated_Source\PSoC5/USBFS_std.c ****                     
 644:.\Generated_Source\PSoC5/USBFS_std.c ****                     USBFS_EP[curEp].addr       = pEP->addr;
 645:.\Generated_Source\PSoC5/USBFS_std.c ****                     USBFS_EP[curEp].attrib     = pEP->attributes;
 646:.\Generated_Source\PSoC5/USBFS_std.c ****                     USBFS_EP[curEp].bufferSize = pEP->bufferSize;
ARM GAS  C:\Users\Patrick\AppData\Local\Temp\ccvH7eQO.s 			page 16


 647:.\Generated_Source\PSoC5/USBFS_std.c **** 
 648:.\Generated_Source\PSoC5/USBFS_std.c ****                     if (0u != (pEP->addr & USBFS_DIR_IN))
 649:.\Generated_Source\PSoC5/USBFS_std.c ****                     {
 650:.\Generated_Source\PSoC5/USBFS_std.c ****                         /* IN Endpoint */
 651:.\Generated_Source\PSoC5/USBFS_std.c ****                         USBFS_EP[curEp].epMode     = USBFS_GET_ACTIVE_IN_EP_CR0_MODE(epType);
 652:.\Generated_Source\PSoC5/USBFS_std.c ****                         USBFS_EP[curEp].apiEpState = USBFS_EVENT_PENDING;
 653:.\Generated_Source\PSoC5/USBFS_std.c ****                     
 654:.\Generated_Source\PSoC5/USBFS_std.c ****                     #if (defined(USBFS_ENABLE_MIDI_STREAMING) && (USBFS_MIDI_IN_BUFF_SIZE > 0))
 655:.\Generated_Source\PSoC5/USBFS_std.c ****                         if ((pEP->bMisc == USBFS_CLASS_AUDIO) && (epType == USBFS_EP_TYPE_BULK))
 656:.\Generated_Source\PSoC5/USBFS_std.c ****                         {
 657:.\Generated_Source\PSoC5/USBFS_std.c ****                             USBFS_midi_in_ep = curEp;
 658:.\Generated_Source\PSoC5/USBFS_std.c ****                         }
 659:.\Generated_Source\PSoC5/USBFS_std.c ****                     #endif  /* (USBFS_ENABLE_MIDI_STREAMING) */
 660:.\Generated_Source\PSoC5/USBFS_std.c ****                     }
 661:.\Generated_Source\PSoC5/USBFS_std.c ****                     else
 662:.\Generated_Source\PSoC5/USBFS_std.c ****                     {
 663:.\Generated_Source\PSoC5/USBFS_std.c ****                         /* OUT Endpoint */
 664:.\Generated_Source\PSoC5/USBFS_std.c ****                         USBFS_EP[curEp].epMode     = USBFS_GET_ACTIVE_OUT_EP_CR0_MODE(epType);
 665:.\Generated_Source\PSoC5/USBFS_std.c ****                         USBFS_EP[curEp].apiEpState = USBFS_NO_EVENT_PENDING;
 666:.\Generated_Source\PSoC5/USBFS_std.c ****                         
 667:.\Generated_Source\PSoC5/USBFS_std.c ****                     #if (defined(USBFS_ENABLE_MIDI_STREAMING) && (USBFS_MIDI_OUT_BUFF_SIZE > 0))
 668:.\Generated_Source\PSoC5/USBFS_std.c ****                         if ((pEP->bMisc == USBFS_CLASS_AUDIO) && (epType == USBFS_EP_TYPE_BULK))
 669:.\Generated_Source\PSoC5/USBFS_std.c ****                         {
 670:.\Generated_Source\PSoC5/USBFS_std.c ****                             USBFS_midi_out_ep = curEp;
 671:.\Generated_Source\PSoC5/USBFS_std.c ****                         }
 672:.\Generated_Source\PSoC5/USBFS_std.c ****                     #endif  /* (USBFS_ENABLE_MIDI_STREAMING) */
 673:.\Generated_Source\PSoC5/USBFS_std.c ****                     }
 674:.\Generated_Source\PSoC5/USBFS_std.c **** 
 675:.\Generated_Source\PSoC5/USBFS_std.c ****                 #if(defined (USBFS_ENABLE_CDC_CLASS))
 676:.\Generated_Source\PSoC5/USBFS_std.c ****                     if((pEP->bMisc == USBFS_CLASS_CDC_DATA) ||(pEP->bMisc == USBFS_CLASS_CDC))
 677:.\Generated_Source\PSoC5/USBFS_std.c ****                     {
 678:.\Generated_Source\PSoC5/USBFS_std.c ****                         cdcComNums = USBFS_Cdc_EpInit(pEP, curEp, cdcComNums);
 679:.\Generated_Source\PSoC5/USBFS_std.c ****                     }
 680:.\Generated_Source\PSoC5/USBFS_std.c ****                 #endif  /* (USBFS_ENABLE_CDC_CLASS) */
 681:.\Generated_Source\PSoC5/USBFS_std.c ****                 }
 682:.\Generated_Source\PSoC5/USBFS_std.c ****                 
 683:.\Generated_Source\PSoC5/USBFS_std.c ****                 pEP = &pEP[1u];
 684:.\Generated_Source\PSoC5/USBFS_std.c ****             }
 685:.\Generated_Source\PSoC5/USBFS_std.c ****             
 686:.\Generated_Source\PSoC5/USBFS_std.c ****         #else
 687:.\Generated_Source\PSoC5/USBFS_std.c ****             for (i = USBFS_EP1; i < USBFS_MAX_EP; ++i)
 688:.\Generated_Source\PSoC5/USBFS_std.c ****             {
 689:.\Generated_Source\PSoC5/USBFS_std.c ****                 /* p_list points the endpoint setting table. */
 690:.\Generated_Source\PSoC5/USBFS_std.c ****                 pEP = (const T_USBFS_EP_SETTINGS_BLOCK CYCODE *) pTmp->p_list;
 691:.\Generated_Source\PSoC5/USBFS_std.c ****                 /* Find max length for each EP and select it (length could be different in differen
 692:.\Generated_Source\PSoC5/USBFS_std.c ****                 /* but other settings should be correct with regards to Interface alt Setting */
 693:.\Generated_Source\PSoC5/USBFS_std.c ****                 
 694:.\Generated_Source\PSoC5/USBFS_std.c ****                 for (curEp = 0u; curEp < ep; ++curEp)
 695:.\Generated_Source\PSoC5/USBFS_std.c ****                 {
 696:.\Generated_Source\PSoC5/USBFS_std.c ****                     if (i == (pEP->addr & USBFS_DIR_UNUSED))
 697:.\Generated_Source\PSoC5/USBFS_std.c ****                     {
 698:.\Generated_Source\PSoC5/USBFS_std.c ****                         /* Compare endpoint buffers size with current size to find greater. */
 699:.\Generated_Source\PSoC5/USBFS_std.c ****                         if (USBFS_EP[i].bufferSize < pEP->bufferSize)
 700:.\Generated_Source\PSoC5/USBFS_std.c ****                         {
 701:.\Generated_Source\PSoC5/USBFS_std.c ****                             USBFS_EP[i].bufferSize = pEP->bufferSize;
 702:.\Generated_Source\PSoC5/USBFS_std.c ****                         }
 703:.\Generated_Source\PSoC5/USBFS_std.c ****                         
ARM GAS  C:\Users\Patrick\AppData\Local\Temp\ccvH7eQO.s 			page 17


 704:.\Generated_Source\PSoC5/USBFS_std.c ****                         /* Compare current Alternate setting with EP Alt */
 705:.\Generated_Source\PSoC5/USBFS_std.c ****                         if (USBFS_interfaceSetting[pEP->interface] == pEP->altSetting)
 706:.\Generated_Source\PSoC5/USBFS_std.c ****                         {                            
 707:.\Generated_Source\PSoC5/USBFS_std.c ****                             USBFS_EP[i].addr = pEP->addr;
 708:.\Generated_Source\PSoC5/USBFS_std.c ****                             USBFS_EP[i].attrib = pEP->attributes;
 709:.\Generated_Source\PSoC5/USBFS_std.c ****                             
 710:.\Generated_Source\PSoC5/USBFS_std.c ****                             epType = pEP->attributes & USBFS_EP_TYPE_MASK;
 711:.\Generated_Source\PSoC5/USBFS_std.c ****                             
 712:.\Generated_Source\PSoC5/USBFS_std.c ****                             if (0u != (pEP->addr & USBFS_DIR_IN))
 713:.\Generated_Source\PSoC5/USBFS_std.c ****                             {
 714:.\Generated_Source\PSoC5/USBFS_std.c ****                                 /* IN Endpoint */
 715:.\Generated_Source\PSoC5/USBFS_std.c ****                                 USBFS_EP[i].epMode     = USBFS_GET_ACTIVE_IN_EP_CR0_MODE(epType);
 716:.\Generated_Source\PSoC5/USBFS_std.c ****                                 USBFS_EP[i].apiEpState = USBFS_EVENT_PENDING;
 717:.\Generated_Source\PSoC5/USBFS_std.c ****                                 
 718:.\Generated_Source\PSoC5/USBFS_std.c ****                             #if (defined(USBFS_ENABLE_MIDI_STREAMING) && (USBFS_MIDI_IN_BUFF_SIZE >
 719:.\Generated_Source\PSoC5/USBFS_std.c ****                                 if ((pEP->bMisc == USBFS_CLASS_AUDIO) && (epType == USBFS_EP_TYPE_B
 720:.\Generated_Source\PSoC5/USBFS_std.c ****                                 {
 721:.\Generated_Source\PSoC5/USBFS_std.c ****                                     USBFS_midi_in_ep = i;
 722:.\Generated_Source\PSoC5/USBFS_std.c ****                                 }
 723:.\Generated_Source\PSoC5/USBFS_std.c ****                             #endif  /* (USBFS_ENABLE_MIDI_STREAMING) */
 724:.\Generated_Source\PSoC5/USBFS_std.c ****                             }
 725:.\Generated_Source\PSoC5/USBFS_std.c ****                             else
 726:.\Generated_Source\PSoC5/USBFS_std.c ****                             {
 727:.\Generated_Source\PSoC5/USBFS_std.c ****                                 /* OUT Endpoint */
 728:.\Generated_Source\PSoC5/USBFS_std.c ****                                 USBFS_EP[i].epMode     = USBFS_GET_ACTIVE_OUT_EP_CR0_MODE(epType);
 729:.\Generated_Source\PSoC5/USBFS_std.c ****                                 USBFS_EP[i].apiEpState = USBFS_NO_EVENT_PENDING;
 730:.\Generated_Source\PSoC5/USBFS_std.c ****                                 
 731:.\Generated_Source\PSoC5/USBFS_std.c ****                             #if (defined(USBFS_ENABLE_MIDI_STREAMING) && (USBFS_MIDI_OUT_BUFF_SIZE 
 732:.\Generated_Source\PSoC5/USBFS_std.c ****                                 if ((pEP->bMisc == USBFS_CLASS_AUDIO) && (epType == USBFS_EP_TYPE_B
 733:.\Generated_Source\PSoC5/USBFS_std.c ****                                 {
 734:.\Generated_Source\PSoC5/USBFS_std.c ****                                     USBFS_midi_out_ep = i;
 735:.\Generated_Source\PSoC5/USBFS_std.c ****                                 }
 736:.\Generated_Source\PSoC5/USBFS_std.c ****                             #endif  /* (USBFS_ENABLE_MIDI_STREAMING) */
 737:.\Generated_Source\PSoC5/USBFS_std.c ****                             }
 738:.\Generated_Source\PSoC5/USBFS_std.c **** 
 739:.\Generated_Source\PSoC5/USBFS_std.c ****                         #if (defined(USBFS_ENABLE_CDC_CLASS))
 740:.\Generated_Source\PSoC5/USBFS_std.c ****                             if((pEP->bMisc == USBFS_CLASS_CDC_DATA) ||(pEP->bMisc == USBFS_CLASS_CD
 741:.\Generated_Source\PSoC5/USBFS_std.c ****                             {
 742:.\Generated_Source\PSoC5/USBFS_std.c ****                                 cdcComNums = USBFS_Cdc_EpInit(pEP, i, cdcComNums);
 743:.\Generated_Source\PSoC5/USBFS_std.c ****                             }
 744:.\Generated_Source\PSoC5/USBFS_std.c ****                         #endif  /* (USBFS_ENABLE_CDC_CLASS) */
 745:.\Generated_Source\PSoC5/USBFS_std.c **** 
 746:.\Generated_Source\PSoC5/USBFS_std.c ****                             #if (USBFS_EP_MANAGEMENT_DMA_AUTO)
 747:.\Generated_Source\PSoC5/USBFS_std.c ****                                 break;  /* Use first EP setting in Auto memory management */
 748:.\Generated_Source\PSoC5/USBFS_std.c ****                             #endif /* (USBFS_EP_MANAGEMENT_DMA_AUTO) */
 749:.\Generated_Source\PSoC5/USBFS_std.c ****                         }
 750:.\Generated_Source\PSoC5/USBFS_std.c ****                     }
 751:.\Generated_Source\PSoC5/USBFS_std.c ****                     
 752:.\Generated_Source\PSoC5/USBFS_std.c ****                     pEP = &pEP[1u];
 753:.\Generated_Source\PSoC5/USBFS_std.c ****                 }
 754:.\Generated_Source\PSoC5/USBFS_std.c ****             }
 755:.\Generated_Source\PSoC5/USBFS_std.c ****         #endif /*  (USBFS_EP_MANAGEMENT_MANUAL && USBFS_EP_ALLOC_DYNAMIC) */
 756:.\Generated_Source\PSoC5/USBFS_std.c **** 
 757:.\Generated_Source\PSoC5/USBFS_std.c ****         /* Init class array for each interface and interface number for each EP.
 758:.\Generated_Source\PSoC5/USBFS_std.c ****         *  It is used for handling Class specific requests directed to either an
 759:.\Generated_Source\PSoC5/USBFS_std.c ****         *  interface or the endpoint.
 760:.\Generated_Source\PSoC5/USBFS_std.c ****         */
ARM GAS  C:\Users\Patrick\AppData\Local\Temp\ccvH7eQO.s 			page 18


 761:.\Generated_Source\PSoC5/USBFS_std.c ****         /* p_list points the endpoint setting table. */
 762:.\Generated_Source\PSoC5/USBFS_std.c ****         pEP = (const T_USBFS_EP_SETTINGS_BLOCK CYCODE *) pTmp->p_list;
 763:.\Generated_Source\PSoC5/USBFS_std.c ****         for (i = 0u; i < ep; i++)
 764:.\Generated_Source\PSoC5/USBFS_std.c ****         {
 765:.\Generated_Source\PSoC5/USBFS_std.c ****             /* Configure interface number for each EP */
 766:.\Generated_Source\PSoC5/USBFS_std.c ****             USBFS_EP[pEP->addr & USBFS_DIR_UNUSED].interface = pEP->interface;
 767:.\Generated_Source\PSoC5/USBFS_std.c ****             pEP = &pEP[1u];
 768:.\Generated_Source\PSoC5/USBFS_std.c ****         }
 769:.\Generated_Source\PSoC5/USBFS_std.c ****         
 770:.\Generated_Source\PSoC5/USBFS_std.c ****         /* Init pointer on interface class table */
 771:.\Generated_Source\PSoC5/USBFS_std.c ****         USBFS_interfaceClass = USBFS_GetInterfaceClassTablePtr();
 772:.\Generated_Source\PSoC5/USBFS_std.c ****         
 773:.\Generated_Source\PSoC5/USBFS_std.c ****     /* Set the endpoint buffer addresses */
 774:.\Generated_Source\PSoC5/USBFS_std.c ****     #if (!USBFS_EP_MANAGEMENT_DMA_AUTO)
 775:.\Generated_Source\PSoC5/USBFS_std.c ****         buffCount = 0u;
 776:.\Generated_Source\PSoC5/USBFS_std.c ****         for (ep = USBFS_EP1; ep < USBFS_MAX_EP; ++ep)
 777:.\Generated_Source\PSoC5/USBFS_std.c ****         {
 778:.\Generated_Source\PSoC5/USBFS_std.c ****             USBFS_EP[ep].buffOffset = buffCount;        
 779:.\Generated_Source\PSoC5/USBFS_std.c ****             buffCount += USBFS_EP[ep].bufferSize;
 780:.\Generated_Source\PSoC5/USBFS_std.c ****             
 781:.\Generated_Source\PSoC5/USBFS_std.c ****         #if (USBFS_GEN_16BITS_EP_ACCESS)
 782:.\Generated_Source\PSoC5/USBFS_std.c ****             /* Align EP buffers to be event size to access 16-bits DR register. */
 783:.\Generated_Source\PSoC5/USBFS_std.c ****             buffCount += (0u != (buffCount & 0x01u)) ? 1u : 0u;
 784:.\Generated_Source\PSoC5/USBFS_std.c ****         #endif /* (USBFS_GEN_16BITS_EP_ACCESS) */            
 785:.\Generated_Source\PSoC5/USBFS_std.c ****         }
 786:.\Generated_Source\PSoC5/USBFS_std.c ****     #endif /* (!USBFS_EP_MANAGEMENT_DMA_AUTO) */
 787:.\Generated_Source\PSoC5/USBFS_std.c **** 
 788:.\Generated_Source\PSoC5/USBFS_std.c ****         /* Configure hardware registers */
 789:.\Generated_Source\PSoC5/USBFS_std.c ****         USBFS_ConfigReg();
 790:.\Generated_Source\PSoC5/USBFS_std.c ****     }
 791:.\Generated_Source\PSoC5/USBFS_std.c **** }
 792:.\Generated_Source\PSoC5/USBFS_std.c **** 
 793:.\Generated_Source\PSoC5/USBFS_std.c **** 
 794:.\Generated_Source\PSoC5/USBFS_std.c **** /*******************************************************************************
 795:.\Generated_Source\PSoC5/USBFS_std.c **** * Function Name: USBFS_ConfigAltChanged
 796:.\Generated_Source\PSoC5/USBFS_std.c **** ****************************************************************************//**
 797:.\Generated_Source\PSoC5/USBFS_std.c **** *
 798:.\Generated_Source\PSoC5/USBFS_std.c **** *  This routine update configuration for the required endpoints only.
 799:.\Generated_Source\PSoC5/USBFS_std.c **** *  It is called after SET_INTERFACE request when Static memory allocation used.
 800:.\Generated_Source\PSoC5/USBFS_std.c **** *
 801:.\Generated_Source\PSoC5/USBFS_std.c **** * \reentrant
 802:.\Generated_Source\PSoC5/USBFS_std.c **** *  No.
 803:.\Generated_Source\PSoC5/USBFS_std.c **** *
 804:.\Generated_Source\PSoC5/USBFS_std.c **** *******************************************************************************/
 805:.\Generated_Source\PSoC5/USBFS_std.c **** void USBFS_ConfigAltChanged(void) 
 806:.\Generated_Source\PSoC5/USBFS_std.c **** {
 807:.\Generated_Source\PSoC5/USBFS_std.c ****     uint8 ep;
 808:.\Generated_Source\PSoC5/USBFS_std.c ****     uint8 curEp;
 809:.\Generated_Source\PSoC5/USBFS_std.c ****     uint8 epType;
 810:.\Generated_Source\PSoC5/USBFS_std.c ****     uint8 i;
 811:.\Generated_Source\PSoC5/USBFS_std.c ****     uint8 interfaceNum;
 812:.\Generated_Source\PSoC5/USBFS_std.c **** 
 813:.\Generated_Source\PSoC5/USBFS_std.c ****     const T_USBFS_LUT CYCODE *pTmp;
 814:.\Generated_Source\PSoC5/USBFS_std.c ****     const T_USBFS_EP_SETTINGS_BLOCK CYCODE *pEP;
 815:.\Generated_Source\PSoC5/USBFS_std.c **** 
 816:.\Generated_Source\PSoC5/USBFS_std.c ****     /* Init Endpoints and Device Status if configured */
 817:.\Generated_Source\PSoC5/USBFS_std.c ****     if (USBFS_configuration > 0u)
ARM GAS  C:\Users\Patrick\AppData\Local\Temp\ccvH7eQO.s 			page 19


 818:.\Generated_Source\PSoC5/USBFS_std.c ****     {
 819:.\Generated_Source\PSoC5/USBFS_std.c ****         /* Get number of endpoints configurations (ep). */
 820:.\Generated_Source\PSoC5/USBFS_std.c ****         pTmp = USBFS_GetConfigTablePtr(USBFS_configuration - 1u);
 821:.\Generated_Source\PSoC5/USBFS_std.c ****         pTmp = &pTmp[1u];
 822:.\Generated_Source\PSoC5/USBFS_std.c ****         ep = pTmp->c;
 823:.\Generated_Source\PSoC5/USBFS_std.c **** 
 824:.\Generated_Source\PSoC5/USBFS_std.c ****         /* Get pointer to endpoints setting table (pEP). */
 825:.\Generated_Source\PSoC5/USBFS_std.c ****         pEP = (const T_USBFS_EP_SETTINGS_BLOCK CYCODE *) pTmp->p_list;
 826:.\Generated_Source\PSoC5/USBFS_std.c ****         
 827:.\Generated_Source\PSoC5/USBFS_std.c ****         /* Look through all possible endpoint configurations. Find endpoints 
 828:.\Generated_Source\PSoC5/USBFS_std.c ****         * which belong to current interface and alternate settings for 
 829:.\Generated_Source\PSoC5/USBFS_std.c ****         * re-configuration.
 830:.\Generated_Source\PSoC5/USBFS_std.c ****         */
 831:.\Generated_Source\PSoC5/USBFS_std.c ****         interfaceNum = USBFS_interfaceNumber;
 832:.\Generated_Source\PSoC5/USBFS_std.c ****         for (i = 0u; i < ep; i++)
 833:.\Generated_Source\PSoC5/USBFS_std.c ****         {
 834:.\Generated_Source\PSoC5/USBFS_std.c ****             /* Find endpoints which belong to current interface and alternate settings. */
 835:.\Generated_Source\PSoC5/USBFS_std.c ****             if ((interfaceNum == pEP->interface) && 
 836:.\Generated_Source\PSoC5/USBFS_std.c ****                 (USBFS_interfaceSetting[interfaceNum] == pEP->altSetting))
 837:.\Generated_Source\PSoC5/USBFS_std.c ****             {
 838:.\Generated_Source\PSoC5/USBFS_std.c ****                 curEp  = ((uint8) pEP->addr & USBFS_DIR_UNUSED);
 839:.\Generated_Source\PSoC5/USBFS_std.c ****                 epType = ((uint8) pEP->attributes & USBFS_EP_TYPE_MASK);
 840:.\Generated_Source\PSoC5/USBFS_std.c ****                 
 841:.\Generated_Source\PSoC5/USBFS_std.c ****                 /* Change the SIE mode for the selected EP to NAK ALL */
 842:.\Generated_Source\PSoC5/USBFS_std.c ****                 USBFS_EP[curEp].epToggle   = 0u;
 843:.\Generated_Source\PSoC5/USBFS_std.c ****                 USBFS_EP[curEp].addr       = pEP->addr;
 844:.\Generated_Source\PSoC5/USBFS_std.c ****                 USBFS_EP[curEp].attrib     = pEP->attributes;
 845:.\Generated_Source\PSoC5/USBFS_std.c ****                 USBFS_EP[curEp].bufferSize = pEP->bufferSize;
 846:.\Generated_Source\PSoC5/USBFS_std.c **** 
 847:.\Generated_Source\PSoC5/USBFS_std.c ****                 if (0u != (pEP->addr & USBFS_DIR_IN))
 848:.\Generated_Source\PSoC5/USBFS_std.c ****                 {
 849:.\Generated_Source\PSoC5/USBFS_std.c ****                     /* IN Endpoint */
 850:.\Generated_Source\PSoC5/USBFS_std.c ****                     USBFS_EP[curEp].epMode     = USBFS_GET_ACTIVE_IN_EP_CR0_MODE(epType);
 851:.\Generated_Source\PSoC5/USBFS_std.c ****                     USBFS_EP[curEp].apiEpState = USBFS_EVENT_PENDING;
 852:.\Generated_Source\PSoC5/USBFS_std.c ****                 }
 853:.\Generated_Source\PSoC5/USBFS_std.c ****                 else
 854:.\Generated_Source\PSoC5/USBFS_std.c ****                 {
 855:.\Generated_Source\PSoC5/USBFS_std.c ****                     /* OUT Endpoint */
 856:.\Generated_Source\PSoC5/USBFS_std.c ****                     USBFS_EP[curEp].epMode     = USBFS_GET_ACTIVE_OUT_EP_CR0_MODE(epType);
 857:.\Generated_Source\PSoC5/USBFS_std.c ****                     USBFS_EP[curEp].apiEpState = USBFS_NO_EVENT_PENDING;
 858:.\Generated_Source\PSoC5/USBFS_std.c ****                 }
 859:.\Generated_Source\PSoC5/USBFS_std.c ****                 
 860:.\Generated_Source\PSoC5/USBFS_std.c ****                 /* Make SIE to NAK any endpoint requests */
 861:.\Generated_Source\PSoC5/USBFS_std.c ****                 USBFS_SIE_EP_BASE.sieEp[curEp].epCr0 = USBFS_MODE_NAK_IN_OUT;
 862:.\Generated_Source\PSoC5/USBFS_std.c **** 
 863:.\Generated_Source\PSoC5/USBFS_std.c ****             #if (USBFS_EP_MANAGEMENT_DMA_AUTO)
 864:.\Generated_Source\PSoC5/USBFS_std.c ****                 /* Clear IN data ready. */
 865:.\Generated_Source\PSoC5/USBFS_std.c ****                 USBFS_ARB_EP_BASE.arbEp[curEp].epCfg &= (uint8) ~USBFS_ARB_EPX_CFG_IN_DATA_RDY;
 866:.\Generated_Source\PSoC5/USBFS_std.c **** 
 867:.\Generated_Source\PSoC5/USBFS_std.c ****                 /* Select endpoint number of reconfiguration */
 868:.\Generated_Source\PSoC5/USBFS_std.c ****                 USBFS_DYN_RECONFIG_REG = (uint8) ((curEp - 1u) << USBFS_DYN_RECONFIG_EP_SHIFT);
 869:.\Generated_Source\PSoC5/USBFS_std.c ****                 
 870:.\Generated_Source\PSoC5/USBFS_std.c ****                 /* Request for dynamic re-configuration of endpoint. */
 871:.\Generated_Source\PSoC5/USBFS_std.c ****                 USBFS_DYN_RECONFIG_REG |= USBFS_DYN_RECONFIG_ENABLE;
 872:.\Generated_Source\PSoC5/USBFS_std.c ****                 
 873:.\Generated_Source\PSoC5/USBFS_std.c ****                 /* Wait until block is ready for re-configuration */
 874:.\Generated_Source\PSoC5/USBFS_std.c ****                 while (0u == (USBFS_DYN_RECONFIG_REG & USBFS_DYN_RECONFIG_RDY_STS))
ARM GAS  C:\Users\Patrick\AppData\Local\Temp\ccvH7eQO.s 			page 20


 875:.\Generated_Source\PSoC5/USBFS_std.c ****                 {
 876:.\Generated_Source\PSoC5/USBFS_std.c ****                 }
 877:.\Generated_Source\PSoC5/USBFS_std.c ****                 
 878:.\Generated_Source\PSoC5/USBFS_std.c ****                 /* Once DYN_RECONFIG_RDY_STS bit is set, FW can change the EP configuration. */
 879:.\Generated_Source\PSoC5/USBFS_std.c ****                 /* Change EP Type with new direction */
 880:.\Generated_Source\PSoC5/USBFS_std.c ****                 if (0u != (pEP->addr & USBFS_DIR_IN))
 881:.\Generated_Source\PSoC5/USBFS_std.c ****                 {
 882:.\Generated_Source\PSoC5/USBFS_std.c ****                     /* Set endpoint type: 0 - IN and 1 - OUT. */
 883:.\Generated_Source\PSoC5/USBFS_std.c ****                     USBFS_EP_TYPE_REG &= (uint8) ~(uint8)((uint8) 0x01u << (curEp - 1u));
 884:.\Generated_Source\PSoC5/USBFS_std.c ****                     
 885:.\Generated_Source\PSoC5/USBFS_std.c ****                 #if (CY_PSOC4)
 886:.\Generated_Source\PSoC5/USBFS_std.c ****                     /* Clear DMA_TERMIN for IN endpoint */
 887:.\Generated_Source\PSoC5/USBFS_std.c ****                     USBFS_ARB_EP_BASE.arbEp[curEp].epIntEn &= (uint32) ~USBFS_ARB_EPX_INT_DMA_TERMI
 888:.\Generated_Source\PSoC5/USBFS_std.c ****                 #endif /* (CY_PSOC4) */
 889:.\Generated_Source\PSoC5/USBFS_std.c ****                 }
 890:.\Generated_Source\PSoC5/USBFS_std.c ****                 else
 891:.\Generated_Source\PSoC5/USBFS_std.c ****                 {
 892:.\Generated_Source\PSoC5/USBFS_std.c ****                     /* Set endpoint type: 0 - IN and 1- OUT. */
 893:.\Generated_Source\PSoC5/USBFS_std.c ****                     USBFS_EP_TYPE_REG |= (uint8) ((uint8) 0x01u << (curEp - 1u));
 894:.\Generated_Source\PSoC5/USBFS_std.c ****                     
 895:.\Generated_Source\PSoC5/USBFS_std.c ****                 #if (CY_PSOC4)
 896:.\Generated_Source\PSoC5/USBFS_std.c ****                     /* Set DMA_TERMIN for OUT endpoint */
 897:.\Generated_Source\PSoC5/USBFS_std.c ****                     USBFS_ARB_EP_BASE.arbEp[curEp].epIntEn |= (uint32) USBFS_ARB_EPX_INT_DMA_TERMIN
 898:.\Generated_Source\PSoC5/USBFS_std.c ****                 #endif /* (CY_PSOC4) */
 899:.\Generated_Source\PSoC5/USBFS_std.c ****                 }
 900:.\Generated_Source\PSoC5/USBFS_std.c ****                 
 901:.\Generated_Source\PSoC5/USBFS_std.c ****                 /* Complete dynamic re-configuration: all endpoint related status and signals 
 902:.\Generated_Source\PSoC5/USBFS_std.c ****                 * are set into the default state.
 903:.\Generated_Source\PSoC5/USBFS_std.c ****                 */
 904:.\Generated_Source\PSoC5/USBFS_std.c ****                 USBFS_DYN_RECONFIG_REG &= (uint8) ~USBFS_DYN_RECONFIG_ENABLE;
 905:.\Generated_Source\PSoC5/USBFS_std.c **** 
 906:.\Generated_Source\PSoC5/USBFS_std.c ****             #else
 907:.\Generated_Source\PSoC5/USBFS_std.c ****                 USBFS_SIE_EP_BASE.sieEp[curEp].epCnt0 = HI8(USBFS_EP[curEp].bufferSize);
 908:.\Generated_Source\PSoC5/USBFS_std.c ****                 USBFS_SIE_EP_BASE.sieEp[curEp].epCnt1 = LO8(USBFS_EP[curEp].bufferSize);
 909:.\Generated_Source\PSoC5/USBFS_std.c ****                 
 910:.\Generated_Source\PSoC5/USBFS_std.c ****                 #if (CY_PSOC4)
 911:.\Generated_Source\PSoC5/USBFS_std.c ****                     USBFS_ARB_EP16_BASE.arbEp[curEp].rwRa16  = (uint32) USBFS_EP[curEp].buffOffset;
 912:.\Generated_Source\PSoC5/USBFS_std.c ****                     USBFS_ARB_EP16_BASE.arbEp[curEp].rwWa16  = (uint32) USBFS_EP[curEp].buffOffset;
 913:.\Generated_Source\PSoC5/USBFS_std.c ****                 #else
 914:.\Generated_Source\PSoC5/USBFS_std.c ****                     USBFS_ARB_EP_BASE.arbEp[curEp].rwRa    = LO8(USBFS_EP[curEp].buffOffset);
 915:.\Generated_Source\PSoC5/USBFS_std.c ****                     USBFS_ARB_EP_BASE.arbEp[curEp].rwRaMsb = HI8(USBFS_EP[curEp].buffOffset);
 916:.\Generated_Source\PSoC5/USBFS_std.c ****                     USBFS_ARB_EP_BASE.arbEp[curEp].rwWa    = LO8(USBFS_EP[curEp].buffOffset);
 917:.\Generated_Source\PSoC5/USBFS_std.c ****                     USBFS_ARB_EP_BASE.arbEp[curEp].rwWaMsb = HI8(USBFS_EP[curEp].buffOffset);
 918:.\Generated_Source\PSoC5/USBFS_std.c ****                 #endif /* (CY_PSOC4) */                
 919:.\Generated_Source\PSoC5/USBFS_std.c ****             #endif /* (USBFS_EP_MANAGEMENT_DMA_AUTO) */
 920:.\Generated_Source\PSoC5/USBFS_std.c ****             }
 921:.\Generated_Source\PSoC5/USBFS_std.c ****             
 922:.\Generated_Source\PSoC5/USBFS_std.c ****             pEP = &pEP[1u]; /* Get next EP element */
 923:.\Generated_Source\PSoC5/USBFS_std.c ****         }
 924:.\Generated_Source\PSoC5/USBFS_std.c ****         
 925:.\Generated_Source\PSoC5/USBFS_std.c ****         /* The main loop has to re-enable DMA and OUT endpoint */
 926:.\Generated_Source\PSoC5/USBFS_std.c ****     }
 927:.\Generated_Source\PSoC5/USBFS_std.c **** }
 928:.\Generated_Source\PSoC5/USBFS_std.c **** 
 929:.\Generated_Source\PSoC5/USBFS_std.c **** 
 930:.\Generated_Source\PSoC5/USBFS_std.c **** /*******************************************************************************
 931:.\Generated_Source\PSoC5/USBFS_std.c **** * Function Name: USBFS_GetConfigTablePtr
ARM GAS  C:\Users\Patrick\AppData\Local\Temp\ccvH7eQO.s 			page 21


 932:.\Generated_Source\PSoC5/USBFS_std.c **** ****************************************************************************//**
 933:.\Generated_Source\PSoC5/USBFS_std.c **** *
 934:.\Generated_Source\PSoC5/USBFS_std.c **** *  This routine returns a pointer a configuration table entry
 935:.\Generated_Source\PSoC5/USBFS_std.c **** *
 936:.\Generated_Source\PSoC5/USBFS_std.c **** *  \param confIndex:  Configuration Index
 937:.\Generated_Source\PSoC5/USBFS_std.c **** *
 938:.\Generated_Source\PSoC5/USBFS_std.c **** * \return
 939:.\Generated_Source\PSoC5/USBFS_std.c **** *  Device Descriptor pointer or NULL when descriptor does not exist.
 940:.\Generated_Source\PSoC5/USBFS_std.c **** *
 941:.\Generated_Source\PSoC5/USBFS_std.c **** *******************************************************************************/
 942:.\Generated_Source\PSoC5/USBFS_std.c **** const T_USBFS_LUT CYCODE *USBFS_GetConfigTablePtr(uint8 confIndex)
 943:.\Generated_Source\PSoC5/USBFS_std.c ****                                                         
 944:.\Generated_Source\PSoC5/USBFS_std.c **** {
 206              		.loc 1 944 0
 207              		.cfi_startproc
 208              		@ args = 0, pretend = 0, frame = 0
 209              		@ frame_needed = 0, uses_anonymous_args = 0
 210              		@ link register save eliminated.
 211              	.LVL9:
 945:.\Generated_Source\PSoC5/USBFS_std.c ****     /* Device Table */
 946:.\Generated_Source\PSoC5/USBFS_std.c ****     const T_USBFS_LUT CYCODE *pTmp;
 947:.\Generated_Source\PSoC5/USBFS_std.c **** 
 948:.\Generated_Source\PSoC5/USBFS_std.c ****     pTmp = (const T_USBFS_LUT CYCODE *) USBFS_TABLE[USBFS_device].p_list;
 212              		.loc 1 948 0
 213 0000 074B     		ldr	r3, .L20
 214 0002 1B78     		ldrb	r3, [r3]	@ zero_extendqisi2
 215 0004 074A     		ldr	r2, .L20+4
 216 0006 02EBC302 		add	r2, r2, r3, lsl #3
 217 000a 5368     		ldr	r3, [r2, #4]
 218              	.LVL10:
 949:.\Generated_Source\PSoC5/USBFS_std.c **** 
 950:.\Generated_Source\PSoC5/USBFS_std.c ****     /* The first entry points to the Device Descriptor,
 951:.\Generated_Source\PSoC5/USBFS_std.c ****     *  the second entry point to the BOS Descriptor
 952:.\Generated_Source\PSoC5/USBFS_std.c ****     *  the rest configuration entries.
 953:.\Generated_Source\PSoC5/USBFS_std.c ****     *  Set pointer to the first Configuration Descriptor
 954:.\Generated_Source\PSoC5/USBFS_std.c ****     */
 955:.\Generated_Source\PSoC5/USBFS_std.c ****     pTmp = &pTmp[2u];
 956:.\Generated_Source\PSoC5/USBFS_std.c ****     /* For this table, c is the number of configuration descriptors  */
 957:.\Generated_Source\PSoC5/USBFS_std.c ****     if(confIndex >= pTmp->c)   /* Verify that required configuration descriptor exists */
 219              		.loc 1 957 0
 220 000c 1A7C     		ldrb	r2, [r3, #16]	@ zero_extendqisi2
 221 000e 8242     		cmp	r2, r0
 222 0010 03D9     		bls	.L19
 223 0012 03EBC003 		add	r3, r3, r0, lsl #3
 224              	.LVL11:
 958:.\Generated_Source\PSoC5/USBFS_std.c ****     {
 959:.\Generated_Source\PSoC5/USBFS_std.c ****         pTmp = (const T_USBFS_LUT CYCODE *) NULL;
 960:.\Generated_Source\PSoC5/USBFS_std.c ****     }
 961:.\Generated_Source\PSoC5/USBFS_std.c ****     else
 962:.\Generated_Source\PSoC5/USBFS_std.c ****     {
 963:.\Generated_Source\PSoC5/USBFS_std.c ****         pTmp = (const T_USBFS_LUT CYCODE *) pTmp[confIndex].p_list;
 225              		.loc 1 963 0
 226 0016 5869     		ldr	r0, [r3, #20]
 227              	.LVL12:
 228 0018 7047     		bx	lr
 229              	.LVL13:
 230              	.L19:
ARM GAS  C:\Users\Patrick\AppData\Local\Temp\ccvH7eQO.s 			page 22


 959:.\Generated_Source\PSoC5/USBFS_std.c ****     }
 231              		.loc 1 959 0
 232 001a 0020     		movs	r0, #0
 233              	.LVL14:
 964:.\Generated_Source\PSoC5/USBFS_std.c ****     }
 965:.\Generated_Source\PSoC5/USBFS_std.c **** 
 966:.\Generated_Source\PSoC5/USBFS_std.c ****     return (pTmp);
 967:.\Generated_Source\PSoC5/USBFS_std.c **** }
 234              		.loc 1 967 0
 235 001c 7047     		bx	lr
 236              	.L21:
 237 001e 00BF     		.align	2
 238              	.L20:
 239 0020 00000000 		.word	USBFS_device
 240 0024 00000000 		.word	USBFS_TABLE
 241              		.cfi_endproc
 242              	.LFE5:
 243              		.size	USBFS_GetConfigTablePtr, .-USBFS_GetConfigTablePtr
 244              		.section	.text.USBFS_ConfigAltChanged,"ax",%progbits
 245              		.align	2
 246              		.global	USBFS_ConfigAltChanged
 247              		.thumb
 248              		.thumb_func
 249              		.type	USBFS_ConfigAltChanged, %function
 250              	USBFS_ConfigAltChanged:
 251              	.LFB4:
 806:.\Generated_Source\PSoC5/USBFS_std.c ****     uint8 ep;
 252              		.loc 1 806 0
 253              		.cfi_startproc
 254              		@ args = 0, pretend = 0, frame = 0
 255              		@ frame_needed = 0, uses_anonymous_args = 0
 256 0000 F8B5     		push	{r3, r4, r5, r6, r7, lr}
 257              		.cfi_def_cfa_offset 24
 258              		.cfi_offset 3, -24
 259              		.cfi_offset 4, -20
 260              		.cfi_offset 5, -16
 261              		.cfi_offset 6, -12
 262              		.cfi_offset 7, -8
 263              		.cfi_offset 14, -4
 817:.\Generated_Source\PSoC5/USBFS_std.c ****     {
 264              		.loc 1 817 0
 265 0002 404B     		ldr	r3, .L34
 266 0004 1B78     		ldrb	r3, [r3]	@ zero_extendqisi2
 267 0006 13F0FF0F 		tst	r3, #255
 268 000a 79D0     		beq	.L22
 820:.\Generated_Source\PSoC5/USBFS_std.c ****         pTmp = &pTmp[1u];
 269              		.loc 1 820 0
 270 000c 3D4B     		ldr	r3, .L34
 271 000e 1878     		ldrb	r0, [r3]	@ zero_extendqisi2
 272 0010 0138     		subs	r0, r0, #1
 273 0012 C0B2     		uxtb	r0, r0
 274 0014 FFF7FEFF 		bl	USBFS_GetConfigTablePtr
 275              	.LVL15:
 822:.\Generated_Source\PSoC5/USBFS_std.c **** 
 276              		.loc 1 822 0
 277 0018 047A     		ldrb	r4, [r0, #8]	@ zero_extendqisi2
 278              	.LVL16:
ARM GAS  C:\Users\Patrick\AppData\Local\Temp\ccvH7eQO.s 			page 23


 825:.\Generated_Source\PSoC5/USBFS_std.c ****         
 279              		.loc 1 825 0
 280 001a C268     		ldr	r2, [r0, #12]
 281              	.LVL17:
 831:.\Generated_Source\PSoC5/USBFS_std.c ****         for (i = 0u; i < ep; i++)
 282              		.loc 1 831 0
 283 001c 3A4B     		ldr	r3, .L34+4
 284 001e 1878     		ldrb	r0, [r3]	@ zero_extendqisi2
 285              	.LVL18:
 286 0020 C0B2     		uxtb	r0, r0
 287              	.LVL19:
 832:.\Generated_Source\PSoC5/USBFS_std.c ****         {
 288              		.loc 1 832 0
 289 0022 0023     		movs	r3, #0
 290 0024 6AE0     		b	.L24
 291              	.LVL20:
 292              	.L30:
 835:.\Generated_Source\PSoC5/USBFS_std.c ****                 (USBFS_interfaceSetting[interfaceNum] == pEP->altSetting))
 293              		.loc 1 835 0
 294 0026 1178     		ldrb	r1, [r2]	@ zero_extendqisi2
 295 0028 8142     		cmp	r1, r0
 296 002a 64D1     		bne	.L25
 836:.\Generated_Source\PSoC5/USBFS_std.c ****             {
 297              		.loc 1 836 0 discriminator 1
 298 002c 3749     		ldr	r1, .L34+8
 299 002e 095C     		ldrb	r1, [r1, r0]	@ zero_extendqisi2
 300 0030 C9B2     		uxtb	r1, r1
 301 0032 5578     		ldrb	r5, [r2, #1]	@ zero_extendqisi2
 835:.\Generated_Source\PSoC5/USBFS_std.c ****                 (USBFS_interfaceSetting[interfaceNum] == pEP->altSetting))
 302              		.loc 1 835 0 discriminator 1
 303 0034 A942     		cmp	r1, r5
 304 0036 5ED1     		bne	.L25
 838:.\Generated_Source\PSoC5/USBFS_std.c ****                 epType = ((uint8) pEP->attributes & USBFS_EP_TYPE_MASK);
 305              		.loc 1 838 0
 306 0038 9178     		ldrb	r1, [r2, #2]	@ zero_extendqisi2
 307 003a 01F07F01 		and	r1, r1, #127
 308              	.LVL21:
 839:.\Generated_Source\PSoC5/USBFS_std.c ****                 
 309              		.loc 1 839 0
 310 003e D678     		ldrb	r6, [r2, #3]	@ zero_extendqisi2
 311 0040 06F00306 		and	r6, r6, #3
 312              	.LVL22:
 842:.\Generated_Source\PSoC5/USBFS_std.c ****                 USBFS_EP[curEp].addr       = pEP->addr;
 313              		.loc 1 842 0
 314 0044 DFF8C8E0 		ldr	lr, .L34+12
 315 0048 4D00     		lsls	r5, r1, #1
 316 004a 0D44     		add	r5, r5, r1
 317 004c AD00     		lsls	r5, r5, #2
 318 004e 0EEB0507 		add	r7, lr, r5
 319 0052 4FF0000C 		mov	ip, #0
 320 0056 87F803C0 		strb	ip, [r7, #3]
 843:.\Generated_Source\PSoC5/USBFS_std.c ****                 USBFS_EP[curEp].attrib     = pEP->attributes;
 321              		.loc 1 843 0
 322 005a 92F802C0 		ldrb	ip, [r2, #2]	@ zero_extendqisi2
 323 005e 87F804C0 		strb	ip, [r7, #4]
 844:.\Generated_Source\PSoC5/USBFS_std.c ****                 USBFS_EP[curEp].bufferSize = pEP->bufferSize;
 324              		.loc 1 844 0
ARM GAS  C:\Users\Patrick\AppData\Local\Temp\ccvH7eQO.s 			page 24


 325 0062 92F803C0 		ldrb	ip, [r2, #3]	@ zero_extendqisi2
 326 0066 0EF805C0 		strb	ip, [lr, r5]
 845:.\Generated_Source\PSoC5/USBFS_std.c **** 
 327              		.loc 1 845 0
 328 006a 9588     		ldrh	r5, [r2, #4]
 329 006c 3D81     		strh	r5, [r7, #8]	@ movhi
 847:.\Generated_Source\PSoC5/USBFS_std.c ****                 {
 330              		.loc 1 847 0
 331 006e 92F90250 		ldrsb	r5, [r2, #2]
 332 0072 002D     		cmp	r5, #0
 333 0074 0DDA     		bge	.L26
 850:.\Generated_Source\PSoC5/USBFS_std.c ****                     USBFS_EP[curEp].apiEpState = USBFS_EVENT_PENDING;
 334              		.loc 1 850 0
 335 0076 012E     		cmp	r6, #1
 336 0078 01D1     		bne	.L31
 337 007a 0727     		movs	r7, #7
 338 007c 00E0     		b	.L27
 339              	.L31:
 340 007e 0D27     		movs	r7, #13
 341              	.L27:
 850:.\Generated_Source\PSoC5/USBFS_std.c ****                     USBFS_EP[curEp].apiEpState = USBFS_EVENT_PENDING;
 342              		.loc 1 850 0 is_stmt 0 discriminator 4
 343 0080 4D00     		lsls	r5, r1, #1
 344 0082 0D44     		add	r5, r5, r1
 345 0084 AD00     		lsls	r5, r5, #2
 346 0086 224E     		ldr	r6, .L34+12
 347              	.LVL23:
 348 0088 3544     		add	r5, r5, r6
 349 008a 6F71     		strb	r7, [r5, #5]
 851:.\Generated_Source\PSoC5/USBFS_std.c ****                 }
 350              		.loc 1 851 0 is_stmt 1 discriminator 4
 351 008c 0126     		movs	r6, #1
 352 008e 6E70     		strb	r6, [r5, #1]
 353 0090 0CE0     		b	.L28
 354              	.LVL24:
 355              	.L26:
 856:.\Generated_Source\PSoC5/USBFS_std.c ****                     USBFS_EP[curEp].apiEpState = USBFS_NO_EVENT_PENDING;
 356              		.loc 1 856 0
 357 0092 012E     		cmp	r6, #1
 358 0094 01D1     		bne	.L32
 359 0096 0527     		movs	r7, #5
 360 0098 00E0     		b	.L29
 361              	.L32:
 362 009a 0927     		movs	r7, #9
 363              	.L29:
 856:.\Generated_Source\PSoC5/USBFS_std.c ****                     USBFS_EP[curEp].apiEpState = USBFS_NO_EVENT_PENDING;
 364              		.loc 1 856 0 is_stmt 0 discriminator 4
 365 009c 4D00     		lsls	r5, r1, #1
 366 009e 0D44     		add	r5, r5, r1
 367 00a0 AD00     		lsls	r5, r5, #2
 368 00a2 1B4E     		ldr	r6, .L34+12
 369              	.LVL25:
 370 00a4 3544     		add	r5, r5, r6
 371 00a6 6F71     		strb	r7, [r5, #5]
 857:.\Generated_Source\PSoC5/USBFS_std.c ****                 }
 372              		.loc 1 857 0 is_stmt 1 discriminator 4
 373 00a8 0026     		movs	r6, #0
ARM GAS  C:\Users\Patrick\AppData\Local\Temp\ccvH7eQO.s 			page 25


 374 00aa 6E70     		strb	r6, [r5, #1]
 375              	.L28:
 861:.\Generated_Source\PSoC5/USBFS_std.c **** 
 376              		.loc 1 861 0
 377 00ac DFF868E0 		ldr	lr, .L34+20
 378 00b0 0F01     		lsls	r7, r1, #4
 379 00b2 0EEB0706 		add	r6, lr, r7
 380 00b6 0125     		movs	r5, #1
 381 00b8 B570     		strb	r5, [r6, #2]
 907:.\Generated_Source\PSoC5/USBFS_std.c ****                 USBFS_SIE_EP_BASE.sieEp[curEp].epCnt1 = LO8(USBFS_EP[curEp].bufferSize);
 382              		.loc 1 907 0
 383 00ba 01FA05F5 		lsl	r5, r1, r5
 384 00be 2944     		add	r1, r1, r5
 385              	.LVL26:
 386 00c0 8900     		lsls	r1, r1, #2
 387 00c2 134D     		ldr	r5, .L34+12
 388 00c4 2944     		add	r1, r1, r5
 389 00c6 0D89     		ldrh	r5, [r1, #8]
 390 00c8 C5F30725 		ubfx	r5, r5, #8, #8
 391 00cc 0EF80750 		strb	r5, [lr, r7]
 908:.\Generated_Source\PSoC5/USBFS_std.c ****                 
 392              		.loc 1 908 0
 393 00d0 0D89     		ldrh	r5, [r1, #8]
 394 00d2 EDB2     		uxtb	r5, r5
 395 00d4 7570     		strb	r5, [r6, #1]
 914:.\Generated_Source\PSoC5/USBFS_std.c ****                     USBFS_ARB_EP_BASE.arbEp[curEp].rwRaMsb = HI8(USBFS_EP[curEp].buffOffset);
 396              		.loc 1 914 0
 397 00d6 CE88     		ldrh	r6, [r1, #6]
 398 00d8 F6B2     		uxtb	r6, r6
 399 00da 0E4D     		ldr	r5, .L34+16
 400 00dc 3D44     		add	r5, r5, r7
 401 00de AE71     		strb	r6, [r5, #6]
 915:.\Generated_Source\PSoC5/USBFS_std.c ****                     USBFS_ARB_EP_BASE.arbEp[curEp].rwWa    = LO8(USBFS_EP[curEp].buffOffset);
 402              		.loc 1 915 0
 403 00e0 CE88     		ldrh	r6, [r1, #6]
 404 00e2 C6F30726 		ubfx	r6, r6, #8, #8
 405 00e6 EE71     		strb	r6, [r5, #7]
 916:.\Generated_Source\PSoC5/USBFS_std.c ****                     USBFS_ARB_EP_BASE.arbEp[curEp].rwWaMsb = HI8(USBFS_EP[curEp].buffOffset);
 406              		.loc 1 916 0
 407 00e8 CE88     		ldrh	r6, [r1, #6]
 408 00ea F6B2     		uxtb	r6, r6
 409 00ec 2E71     		strb	r6, [r5, #4]
 917:.\Generated_Source\PSoC5/USBFS_std.c ****                 #endif /* (CY_PSOC4) */                
 410              		.loc 1 917 0
 411 00ee C988     		ldrh	r1, [r1, #6]
 412 00f0 C1F30721 		ubfx	r1, r1, #8, #8
 413 00f4 6971     		strb	r1, [r5, #5]
 414              	.L25:
 922:.\Generated_Source\PSoC5/USBFS_std.c ****         }
 415              		.loc 1 922 0 discriminator 2
 416 00f6 0832     		adds	r2, r2, #8
 417              	.LVL27:
 832:.\Generated_Source\PSoC5/USBFS_std.c ****         {
 418              		.loc 1 832 0 discriminator 2
 419 00f8 0133     		adds	r3, r3, #1
 420              	.LVL28:
 421 00fa DBB2     		uxtb	r3, r3
ARM GAS  C:\Users\Patrick\AppData\Local\Temp\ccvH7eQO.s 			page 26


 422              	.LVL29:
 423              	.L24:
 832:.\Generated_Source\PSoC5/USBFS_std.c ****         {
 424              		.loc 1 832 0 is_stmt 0 discriminator 1
 425 00fc A342     		cmp	r3, r4
 426 00fe 92D3     		bcc	.L30
 427              	.LVL30:
 428              	.L22:
 429 0100 F8BD     		pop	{r3, r4, r5, r6, r7, pc}
 430              	.L35:
 431 0102 00BF     		.align	2
 432              	.L34:
 433 0104 00000000 		.word	USBFS_configuration
 434 0108 00000000 		.word	USBFS_interfaceNumber
 435 010c 00000000 		.word	USBFS_interfaceSetting
 436 0110 00000000 		.word	USBFS_EP
 437 0114 70600040 		.word	1073766512
 438 0118 FC5F0040 		.word	1073766396
 439              		.cfi_endproc
 440              	.LFE4:
 441              		.size	USBFS_ConfigAltChanged, .-USBFS_ConfigAltChanged
 442              		.section	.text.USBFS_GetDeviceTablePtr,"ax",%progbits
 443              		.align	2
 444              		.global	USBFS_GetDeviceTablePtr
 445              		.thumb
 446              		.thumb_func
 447              		.type	USBFS_GetDeviceTablePtr, %function
 448              	USBFS_GetDeviceTablePtr:
 449              	.LFB6:
 968:.\Generated_Source\PSoC5/USBFS_std.c **** 
 969:.\Generated_Source\PSoC5/USBFS_std.c **** 
 970:.\Generated_Source\PSoC5/USBFS_std.c **** #if (USBFS_BOS_ENABLE)
 971:.\Generated_Source\PSoC5/USBFS_std.c ****     /*******************************************************************************
 972:.\Generated_Source\PSoC5/USBFS_std.c ****     * Function Name: USBFS_GetBOSPtr
 973:.\Generated_Source\PSoC5/USBFS_std.c ****     ****************************************************************************//**
 974:.\Generated_Source\PSoC5/USBFS_std.c ****     *
 975:.\Generated_Source\PSoC5/USBFS_std.c ****     *  This routine returns a pointer a BOS table entry
 976:.\Generated_Source\PSoC5/USBFS_std.c ****     *
 977:.\Generated_Source\PSoC5/USBFS_std.c ****     *  
 978:.\Generated_Source\PSoC5/USBFS_std.c ****     *
 979:.\Generated_Source\PSoC5/USBFS_std.c ****     * \return
 980:.\Generated_Source\PSoC5/USBFS_std.c ****     *  BOS Descriptor pointer or NULL when descriptor does not exist.
 981:.\Generated_Source\PSoC5/USBFS_std.c ****     *
 982:.\Generated_Source\PSoC5/USBFS_std.c ****     *******************************************************************************/
 983:.\Generated_Source\PSoC5/USBFS_std.c ****     const T_USBFS_LUT CYCODE *USBFS_GetBOSPtr(void)
 984:.\Generated_Source\PSoC5/USBFS_std.c ****                                                             
 985:.\Generated_Source\PSoC5/USBFS_std.c ****     {
 986:.\Generated_Source\PSoC5/USBFS_std.c ****         /* Device Table */
 987:.\Generated_Source\PSoC5/USBFS_std.c ****         const T_USBFS_LUT CYCODE *pTmp;
 988:.\Generated_Source\PSoC5/USBFS_std.c **** 
 989:.\Generated_Source\PSoC5/USBFS_std.c ****         pTmp = (const T_USBFS_LUT CYCODE *) USBFS_TABLE[USBFS_device].p_list;
 990:.\Generated_Source\PSoC5/USBFS_std.c **** 
 991:.\Generated_Source\PSoC5/USBFS_std.c ****         /* The first entry points to the Device Descriptor,
 992:.\Generated_Source\PSoC5/USBFS_std.c ****         *  the second entry points to the BOS Descriptor
 993:.\Generated_Source\PSoC5/USBFS_std.c ****         */
 994:.\Generated_Source\PSoC5/USBFS_std.c ****         pTmp = &pTmp[1u];
 995:.\Generated_Source\PSoC5/USBFS_std.c ****         pTmp = (const T_USBFS_LUT CYCODE *) pTmp->p_list;
ARM GAS  C:\Users\Patrick\AppData\Local\Temp\ccvH7eQO.s 			page 27


 996:.\Generated_Source\PSoC5/USBFS_std.c ****         return (pTmp);
 997:.\Generated_Source\PSoC5/USBFS_std.c ****     }
 998:.\Generated_Source\PSoC5/USBFS_std.c **** #endif /* (USBFS_BOS_ENABLE) */
 999:.\Generated_Source\PSoC5/USBFS_std.c **** 
1000:.\Generated_Source\PSoC5/USBFS_std.c **** 
1001:.\Generated_Source\PSoC5/USBFS_std.c **** /*******************************************************************************
1002:.\Generated_Source\PSoC5/USBFS_std.c **** * Function Name: USBFS_GetDeviceTablePtr
1003:.\Generated_Source\PSoC5/USBFS_std.c **** ****************************************************************************//**
1004:.\Generated_Source\PSoC5/USBFS_std.c **** *
1005:.\Generated_Source\PSoC5/USBFS_std.c **** *  This routine returns a pointer to the Device table
1006:.\Generated_Source\PSoC5/USBFS_std.c **** *
1007:.\Generated_Source\PSoC5/USBFS_std.c **** * \return
1008:.\Generated_Source\PSoC5/USBFS_std.c **** *  Device Table pointer
1009:.\Generated_Source\PSoC5/USBFS_std.c **** *
1010:.\Generated_Source\PSoC5/USBFS_std.c **** *******************************************************************************/
1011:.\Generated_Source\PSoC5/USBFS_std.c **** const T_USBFS_LUT CYCODE *USBFS_GetDeviceTablePtr(void)
1012:.\Generated_Source\PSoC5/USBFS_std.c ****                                                             
1013:.\Generated_Source\PSoC5/USBFS_std.c **** {
 450              		.loc 1 1013 0 is_stmt 1
 451              		.cfi_startproc
 452              		@ args = 0, pretend = 0, frame = 0
 453              		@ frame_needed = 0, uses_anonymous_args = 0
 454              		@ link register save eliminated.
1014:.\Generated_Source\PSoC5/USBFS_std.c ****     /* Device Table */
1015:.\Generated_Source\PSoC5/USBFS_std.c ****     return( (const T_USBFS_LUT CYCODE *) USBFS_TABLE[USBFS_device].p_list );
 455              		.loc 1 1015 0
 456 0000 034B     		ldr	r3, .L37
 457 0002 1A78     		ldrb	r2, [r3]	@ zero_extendqisi2
 458 0004 034B     		ldr	r3, .L37+4
 459 0006 03EBC203 		add	r3, r3, r2, lsl #3
1016:.\Generated_Source\PSoC5/USBFS_std.c **** }
 460              		.loc 1 1016 0
 461 000a 5868     		ldr	r0, [r3, #4]
 462 000c 7047     		bx	lr
 463              	.L38:
 464 000e 00BF     		.align	2
 465              	.L37:
 466 0010 00000000 		.word	USBFS_device
 467 0014 00000000 		.word	USBFS_TABLE
 468              		.cfi_endproc
 469              	.LFE6:
 470              		.size	USBFS_GetDeviceTablePtr, .-USBFS_GetDeviceTablePtr
 471              		.section	.text.USBFS_GetInterfaceClassTablePtr,"ax",%progbits
 472              		.align	2
 473              		.global	USBFS_GetInterfaceClassTablePtr
 474              		.thumb
 475              		.thumb_func
 476              		.type	USBFS_GetInterfaceClassTablePtr, %function
 477              	USBFS_GetInterfaceClassTablePtr:
 478              	.LFB7:
1017:.\Generated_Source\PSoC5/USBFS_std.c **** 
1018:.\Generated_Source\PSoC5/USBFS_std.c **** 
1019:.\Generated_Source\PSoC5/USBFS_std.c **** /*******************************************************************************
1020:.\Generated_Source\PSoC5/USBFS_std.c **** * Function Name: USB_GetInterfaceClassTablePtr
1021:.\Generated_Source\PSoC5/USBFS_std.c **** ****************************************************************************//**
1022:.\Generated_Source\PSoC5/USBFS_std.c **** *
1023:.\Generated_Source\PSoC5/USBFS_std.c **** *  This routine returns Interface Class table pointer, which contains
ARM GAS  C:\Users\Patrick\AppData\Local\Temp\ccvH7eQO.s 			page 28


1024:.\Generated_Source\PSoC5/USBFS_std.c **** *  the relation between interface number and interface class.
1025:.\Generated_Source\PSoC5/USBFS_std.c **** *
1026:.\Generated_Source\PSoC5/USBFS_std.c **** * \return
1027:.\Generated_Source\PSoC5/USBFS_std.c **** *  Interface Class table pointer.
1028:.\Generated_Source\PSoC5/USBFS_std.c **** *
1029:.\Generated_Source\PSoC5/USBFS_std.c **** *******************************************************************************/
1030:.\Generated_Source\PSoC5/USBFS_std.c **** const uint8 CYCODE *USBFS_GetInterfaceClassTablePtr(void)
1031:.\Generated_Source\PSoC5/USBFS_std.c ****                                                         
1032:.\Generated_Source\PSoC5/USBFS_std.c **** {
 479              		.loc 1 1032 0
 480              		.cfi_startproc
 481              		@ args = 0, pretend = 0, frame = 0
 482              		@ frame_needed = 0, uses_anonymous_args = 0
 483 0000 08B5     		push	{r3, lr}
 484              		.cfi_def_cfa_offset 8
 485              		.cfi_offset 3, -8
 486              		.cfi_offset 14, -4
1033:.\Generated_Source\PSoC5/USBFS_std.c ****     const T_USBFS_LUT CYCODE *pTmp;
1034:.\Generated_Source\PSoC5/USBFS_std.c ****     const uint8 CYCODE *pInterfaceClass;
1035:.\Generated_Source\PSoC5/USBFS_std.c ****     uint8 currentInterfacesNum;
1036:.\Generated_Source\PSoC5/USBFS_std.c **** 
1037:.\Generated_Source\PSoC5/USBFS_std.c ****     pTmp = USBFS_GetConfigTablePtr(USBFS_configuration - 1u);
 487              		.loc 1 1037 0
 488 0002 074B     		ldr	r3, .L43
 489 0004 1878     		ldrb	r0, [r3]	@ zero_extendqisi2
 490 0006 0138     		subs	r0, r0, #1
 491 0008 C0B2     		uxtb	r0, r0
 492 000a FFF7FEFF 		bl	USBFS_GetConfigTablePtr
 493              	.LVL31:
1038:.\Generated_Source\PSoC5/USBFS_std.c ****     if (pTmp != NULL)
 494              		.loc 1 1038 0
 495 000e 28B1     		cbz	r0, .L41
1039:.\Generated_Source\PSoC5/USBFS_std.c ****     {
1040:.\Generated_Source\PSoC5/USBFS_std.c ****         currentInterfacesNum  = ((const uint8 *) pTmp->p_list)[USBFS_CONFIG_DESCR_NUM_INTERFACES];
 496              		.loc 1 1040 0
 497 0010 4268     		ldr	r2, [r0, #4]
 498 0012 1279     		ldrb	r2, [r2, #4]	@ zero_extendqisi2
 499              	.LVL32:
1041:.\Generated_Source\PSoC5/USBFS_std.c ****         /* Third entry in the LUT starts the Interface Table pointers */
1042:.\Generated_Source\PSoC5/USBFS_std.c ****         /* The INTERFACE_CLASS table is located after all interfaces */
1043:.\Generated_Source\PSoC5/USBFS_std.c ****         pTmp = &pTmp[currentInterfacesNum + 2u];
 500              		.loc 1 1043 0
 501 0014 00EBC203 		add	r3, r0, r2, lsl #3
 502              	.LVL33:
1044:.\Generated_Source\PSoC5/USBFS_std.c ****         pInterfaceClass = (const uint8 CYCODE *) pTmp->p_list;
 503              		.loc 1 1044 0
 504 0018 5869     		ldr	r0, [r3, #20]
 505              	.LVL34:
 506 001a 08BD     		pop	{r3, pc}
 507              	.LVL35:
 508              	.L41:
1045:.\Generated_Source\PSoC5/USBFS_std.c ****     }
1046:.\Generated_Source\PSoC5/USBFS_std.c ****     else
1047:.\Generated_Source\PSoC5/USBFS_std.c ****     {
1048:.\Generated_Source\PSoC5/USBFS_std.c ****         pInterfaceClass = (const uint8 CYCODE *) NULL;
 509              		.loc 1 1048 0
 510 001c 0020     		movs	r0, #0
ARM GAS  C:\Users\Patrick\AppData\Local\Temp\ccvH7eQO.s 			page 29


 511              	.LVL36:
1049:.\Generated_Source\PSoC5/USBFS_std.c ****     }
1050:.\Generated_Source\PSoC5/USBFS_std.c **** 
1051:.\Generated_Source\PSoC5/USBFS_std.c ****     return (pInterfaceClass);
1052:.\Generated_Source\PSoC5/USBFS_std.c **** }
 512              		.loc 1 1052 0
 513 001e 08BD     		pop	{r3, pc}
 514              	.L44:
 515              		.align	2
 516              	.L43:
 517 0020 00000000 		.word	USBFS_configuration
 518              		.cfi_endproc
 519              	.LFE7:
 520              		.size	USBFS_GetInterfaceClassTablePtr, .-USBFS_GetInterfaceClassTablePtr
 521              		.section	.text.USBFS_Config,"ax",%progbits
 522              		.align	2
 523              		.global	USBFS_Config
 524              		.thumb
 525              		.thumb_func
 526              		.type	USBFS_Config, %function
 527              	USBFS_Config:
 528              	.LFB3:
 571:.\Generated_Source\PSoC5/USBFS_std.c ****     uint8 ep;
 529              		.loc 1 571 0
 530              		.cfi_startproc
 531              		@ args = 0, pretend = 0, frame = 0
 532              		@ frame_needed = 0, uses_anonymous_args = 0
 533              	.LVL37:
 534 0000 F8B5     		push	{r3, r4, r5, r6, r7, lr}
 535              		.cfi_def_cfa_offset 24
 536              		.cfi_offset 3, -24
 537              		.cfi_offset 4, -20
 538              		.cfi_offset 5, -16
 539              		.cfi_offset 6, -12
 540              		.cfi_offset 7, -8
 541              		.cfi_offset 14, -4
 542              	.LVL38:
 586:.\Generated_Source\PSoC5/USBFS_std.c ****     {
 543              		.loc 1 586 0
 544 0002 0022     		movs	r2, #0
 545 0004 0EE0     		b	.L46
 546              	.LVL39:
 547              	.L47:
 588:.\Generated_Source\PSoC5/USBFS_std.c ****         USBFS_EP[ep].hwEpState  = 0u;
 548              		.loc 1 588 0 discriminator 3
 549 0006 654E     		ldr	r6, .L71
 550 0008 5300     		lsls	r3, r2, #1
 551 000a 9D18     		adds	r5, r3, r2
 552 000c AD00     		lsls	r5, r5, #2
 553 000e 7419     		adds	r4, r6, r5
 554 0010 0021     		movs	r1, #0
 555 0012 7155     		strb	r1, [r6, r5]
 589:.\Generated_Source\PSoC5/USBFS_std.c ****         USBFS_EP[ep].epToggle   = 0u;
 556              		.loc 1 589 0 discriminator 3
 557 0014 A170     		strb	r1, [r4, #2]
 590:.\Generated_Source\PSoC5/USBFS_std.c ****         USBFS_EP[ep].bufferSize = 0u;
 558              		.loc 1 590 0 discriminator 3
ARM GAS  C:\Users\Patrick\AppData\Local\Temp\ccvH7eQO.s 			page 30


 559 0016 E170     		strb	r1, [r4, #3]
 591:.\Generated_Source\PSoC5/USBFS_std.c ****         USBFS_EP[ep].interface  = 0u;
 560              		.loc 1 591 0 discriminator 3
 561 0018 2181     		strh	r1, [r4, #8]	@ movhi
 592:.\Generated_Source\PSoC5/USBFS_std.c ****         USBFS_EP[ep].apiEpState = USBFS_NO_EVENT_PENDING;
 562              		.loc 1 592 0 discriminator 3
 563 001a A172     		strb	r1, [r4, #10]
 593:.\Generated_Source\PSoC5/USBFS_std.c ****         USBFS_EP[ep].epMode     = USBFS_MODE_DISABLE;   
 564              		.loc 1 593 0 discriminator 3
 565 001c 6170     		strb	r1, [r4, #1]
 594:.\Generated_Source\PSoC5/USBFS_std.c ****     }
 566              		.loc 1 594 0 discriminator 3
 567 001e 6171     		strb	r1, [r4, #5]
 586:.\Generated_Source\PSoC5/USBFS_std.c ****     {
 568              		.loc 1 586 0 discriminator 3
 569 0020 0132     		adds	r2, r2, #1
 570              	.LVL40:
 571 0022 D2B2     		uxtb	r2, r2
 572              	.LVL41:
 573              	.L46:
 586:.\Generated_Source\PSoC5/USBFS_std.c ****     {
 574              		.loc 1 586 0 is_stmt 0 discriminator 1
 575 0024 082A     		cmp	r2, #8
 576 0026 EED9     		bls	.L47
 598:.\Generated_Source\PSoC5/USBFS_std.c ****     {
 577              		.loc 1 598 0 is_stmt 1
 578 0028 40B9     		cbnz	r0, .L67
 579 002a 0AE0     		b	.L49
 580              	.LVL42:
 581              	.L50:
 602:.\Generated_Source\PSoC5/USBFS_std.c ****             USBFS_interfaceSettingLast[i] = 0u;
 582              		.loc 1 602 0 discriminator 3
 583 002c 0022     		movs	r2, #0
 584 002e 5C49     		ldr	r1, .L71+4
 585 0030 CA54     		strb	r2, [r1, r3]
 603:.\Generated_Source\PSoC5/USBFS_std.c ****         }
 586              		.loc 1 603 0 discriminator 3
 587 0032 5C49     		ldr	r1, .L71+8
 588 0034 CA54     		strb	r2, [r1, r3]
 600:.\Generated_Source\PSoC5/USBFS_std.c ****         {
 589              		.loc 1 600 0 discriminator 3
 590 0036 0133     		adds	r3, r3, #1
 591              	.LVL43:
 592 0038 DBB2     		uxtb	r3, r3
 593              	.LVL44:
 594 003a 00E0     		b	.L48
 595              	.LVL45:
 596              	.L67:
 597 003c 0023     		movs	r3, #0
 598              	.LVL46:
 599              	.L48:
 600:.\Generated_Source\PSoC5/USBFS_std.c ****         {
 600              		.loc 1 600 0 is_stmt 0 discriminator 1
 601 003e 002B     		cmp	r3, #0
 602 0040 F4D0     		beq	.L50
 603              	.LVL47:
 604              	.L49:
ARM GAS  C:\Users\Patrick\AppData\Local\Temp\ccvH7eQO.s 			page 31


 608:.\Generated_Source\PSoC5/USBFS_std.c ****     {
 605              		.loc 1 608 0 is_stmt 1
 606 0042 594B     		ldr	r3, .L71+12
 607 0044 1B78     		ldrb	r3, [r3]	@ zero_extendqisi2
 608 0046 13F0FF0F 		tst	r3, #255
 609 004a 00F0A580 		beq	.L45
 614:.\Generated_Source\PSoC5/USBFS_std.c ****         
 610              		.loc 1 614 0
 611 004e 564B     		ldr	r3, .L71+12
 612 0050 1878     		ldrb	r0, [r3]	@ zero_extendqisi2
 613              	.LVL48:
 614 0052 0138     		subs	r0, r0, #1
 615 0054 C0B2     		uxtb	r0, r0
 616 0056 FFF7FEFF 		bl	USBFS_GetConfigTablePtr
 617              	.LVL49:
 617:.\Generated_Source\PSoC5/USBFS_std.c ****         if ((pDescr[USBFS_CONFIG_DESCR_ATTRIB] & USBFS_CONFIG_DESCR_ATTRIB_SELF_POWERED) != 0u)
 618              		.loc 1 617 0
 619 005a 4368     		ldr	r3, [r0, #4]
 620              	.LVL50:
 618:.\Generated_Source\PSoC5/USBFS_std.c ****         {
 621              		.loc 1 618 0
 622 005c DB79     		ldrb	r3, [r3, #7]	@ zero_extendqisi2
 623              	.LVL51:
 624 005e 13F0400F 		tst	r3, #64
 625 0062 05D0     		beq	.L52
 620:.\Generated_Source\PSoC5/USBFS_std.c ****         }
 626              		.loc 1 620 0
 627 0064 514A     		ldr	r2, .L71+16
 628 0066 1378     		ldrb	r3, [r2]	@ zero_extendqisi2
 629 0068 43F00103 		orr	r3, r3, #1
 630 006c 1370     		strb	r3, [r2]
 631 006e 04E0     		b	.L53
 632              	.L52:
 624:.\Generated_Source\PSoC5/USBFS_std.c ****         }
 633              		.loc 1 624 0
 634 0070 4E4A     		ldr	r2, .L71+16
 635 0072 1378     		ldrb	r3, [r2]	@ zero_extendqisi2
 636 0074 03F0FE03 		and	r3, r3, #254
 637 0078 1370     		strb	r3, [r2]
 638              	.L53:
 639              	.LVL52:
 629:.\Generated_Source\PSoC5/USBFS_std.c **** 
 640              		.loc 1 629 0
 641 007a 057A     		ldrb	r5, [r0, #8]	@ zero_extendqisi2
 642              	.LVL53:
 687:.\Generated_Source\PSoC5/USBFS_std.c ****             {
 643              		.loc 1 687 0
 644 007c 0124     		movs	r4, #1
 645 007e 61E0     		b	.L54
 646              	.LVL54:
 647              	.L62:
 690:.\Generated_Source\PSoC5/USBFS_std.c ****                 /* Find max length for each EP and select it (length could be different in differen
 648              		.loc 1 690 0
 649 0080 C168     		ldr	r1, [r0, #12]
 650              	.LVL55:
 694:.\Generated_Source\PSoC5/USBFS_std.c ****                 {
 651              		.loc 1 694 0
ARM GAS  C:\Users\Patrick\AppData\Local\Temp\ccvH7eQO.s 			page 32


 652 0082 0023     		movs	r3, #0
 653 0084 5AE0     		b	.L55
 654              	.LVL56:
 655              	.L61:
 696:.\Generated_Source\PSoC5/USBFS_std.c ****                     {
 656              		.loc 1 696 0
 657 0086 8A78     		ldrb	r2, [r1, #2]	@ zero_extendqisi2
 658 0088 02F07F02 		and	r2, r2, #127
 659 008c 9442     		cmp	r4, r2
 660 008e 52D1     		bne	.L56
 699:.\Generated_Source\PSoC5/USBFS_std.c ****                         {
 661              		.loc 1 699 0
 662 0090 2646     		mov	r6, r4
 663 0092 04EB4402 		add	r2, r4, r4, lsl #1
 664 0096 9200     		lsls	r2, r2, #2
 665 0098 404F     		ldr	r7, .L71
 666 009a 3A44     		add	r2, r2, r7
 667 009c 1289     		ldrh	r2, [r2, #8]
 668 009e 92B2     		uxth	r2, r2
 669 00a0 8F88     		ldrh	r7, [r1, #4]
 670 00a2 BA42     		cmp	r2, r7
 671 00a4 06D2     		bcs	.L57
 701:.\Generated_Source\PSoC5/USBFS_std.c ****                         }
 672              		.loc 1 701 0
 673 00a6 04EB4402 		add	r2, r4, r4, lsl #1
 674 00aa 9200     		lsls	r2, r2, #2
 675 00ac DFF8ECE0 		ldr	lr, .L71
 676 00b0 7244     		add	r2, r2, lr
 677 00b2 1781     		strh	r7, [r2, #8]	@ movhi
 678              	.L57:
 705:.\Generated_Source\PSoC5/USBFS_std.c ****                         {                            
 679              		.loc 1 705 0
 680 00b4 0A78     		ldrb	r2, [r1]	@ zero_extendqisi2
 681 00b6 3A4F     		ldr	r7, .L71+4
 682 00b8 BA5C     		ldrb	r2, [r7, r2]	@ zero_extendqisi2
 683 00ba D2B2     		uxtb	r2, r2
 684 00bc 4F78     		ldrb	r7, [r1, #1]	@ zero_extendqisi2
 685 00be BA42     		cmp	r2, r7
 686 00c0 39D1     		bne	.L56
 707:.\Generated_Source\PSoC5/USBFS_std.c ****                             USBFS_EP[i].attrib = pEP->attributes;
 687              		.loc 1 707 0
 688 00c2 91F802C0 		ldrb	ip, [r1, #2]	@ zero_extendqisi2
 689 00c6 354F     		ldr	r7, .L71
 690 00c8 7200     		lsls	r2, r6, #1
 691 00ca 3244     		add	r2, r2, r6
 692 00cc 9200     		lsls	r2, r2, #2
 693 00ce 07EB020E 		add	lr, r7, r2
 694 00d2 8EF804C0 		strb	ip, [lr, #4]
 708:.\Generated_Source\PSoC5/USBFS_std.c ****                             
 695              		.loc 1 708 0
 696 00d6 91F803E0 		ldrb	lr, [r1, #3]	@ zero_extendqisi2
 697 00da 07F802E0 		strb	lr, [r7, r2]
 710:.\Generated_Source\PSoC5/USBFS_std.c ****                             
 698              		.loc 1 710 0
 699 00de CA78     		ldrb	r2, [r1, #3]	@ zero_extendqisi2
 700 00e0 02F00302 		and	r2, r2, #3
 701              	.LVL57:
ARM GAS  C:\Users\Patrick\AppData\Local\Temp\ccvH7eQO.s 			page 33


 712:.\Generated_Source\PSoC5/USBFS_std.c ****                             {
 702              		.loc 1 712 0
 703 00e4 91F90270 		ldrsb	r7, [r1, #2]
 704 00e8 002F     		cmp	r7, #0
 705 00ea 11DA     		bge	.L58
 715:.\Generated_Source\PSoC5/USBFS_std.c ****                                 USBFS_EP[i].apiEpState = USBFS_EVENT_PENDING;
 706              		.loc 1 715 0
 707 00ec 012A     		cmp	r2, #1
 708 00ee 02D1     		bne	.L68
 709 00f0 4FF0070C 		mov	ip, #7
 710 00f4 01E0     		b	.L59
 711              	.L68:
 712 00f6 4FF00D0C 		mov	ip, #13
 713              	.L59:
 715:.\Generated_Source\PSoC5/USBFS_std.c ****                                 USBFS_EP[i].apiEpState = USBFS_EVENT_PENDING;
 714              		.loc 1 715 0 is_stmt 0 discriminator 4
 715 00fa DFF8A0E0 		ldr	lr, .L71
 716 00fe 7200     		lsls	r2, r6, #1
 717              	.LVL58:
 718 0100 9719     		adds	r7, r2, r6
 719 0102 BF00     		lsls	r7, r7, #2
 720 0104 7744     		add	r7, r7, lr
 721 0106 87F805C0 		strb	ip, [r7, #5]
 722              	.LVL59:
 716:.\Generated_Source\PSoC5/USBFS_std.c ****                                 
 723              		.loc 1 716 0 is_stmt 1 discriminator 4
 724 010a 0122     		movs	r2, #1
 725 010c 7A70     		strb	r2, [r7, #1]
 726 010e 12E0     		b	.L56
 727              	.LVL60:
 728              	.L58:
 728:.\Generated_Source\PSoC5/USBFS_std.c ****                                 USBFS_EP[i].apiEpState = USBFS_NO_EVENT_PENDING;
 729              		.loc 1 728 0
 730 0110 012A     		cmp	r2, #1
 731 0112 02D1     		bne	.L69
 732 0114 4FF0050C 		mov	ip, #5
 733 0118 01E0     		b	.L60
 734              	.L69:
 735 011a 4FF0090C 		mov	ip, #9
 736              	.L60:
 728:.\Generated_Source\PSoC5/USBFS_std.c ****                                 USBFS_EP[i].apiEpState = USBFS_NO_EVENT_PENDING;
 737              		.loc 1 728 0 is_stmt 0 discriminator 4
 738 011e 1F4F     		ldr	r7, .L71
 739 0120 4FEA460E 		lsl	lr, r6, #1
 740 0124 0EEB0602 		add	r2, lr, r6
 741              	.LVL61:
 742 0128 9200     		lsls	r2, r2, #2
 743 012a 3A44     		add	r2, r2, r7
 744 012c 82F805C0 		strb	ip, [r2, #5]
 745              	.LVL62:
 729:.\Generated_Source\PSoC5/USBFS_std.c ****                                 
 746              		.loc 1 729 0 is_stmt 1 discriminator 4
 747 0130 1646     		mov	r6, r2
 748 0132 0022     		movs	r2, #0
 749 0134 7270     		strb	r2, [r6, #1]
 750              	.L56:
 752:.\Generated_Source\PSoC5/USBFS_std.c ****                 }
ARM GAS  C:\Users\Patrick\AppData\Local\Temp\ccvH7eQO.s 			page 34


 751              		.loc 1 752 0 discriminator 2
 752 0136 0831     		adds	r1, r1, #8
 753              	.LVL63:
 694:.\Generated_Source\PSoC5/USBFS_std.c ****                 {
 754              		.loc 1 694 0 discriminator 2
 755 0138 0133     		adds	r3, r3, #1
 756              	.LVL64:
 757 013a DBB2     		uxtb	r3, r3
 758              	.LVL65:
 759              	.L55:
 694:.\Generated_Source\PSoC5/USBFS_std.c ****                 {
 760              		.loc 1 694 0 is_stmt 0 discriminator 1
 761 013c AB42     		cmp	r3, r5
 762 013e A2D3     		bcc	.L61
 687:.\Generated_Source\PSoC5/USBFS_std.c ****             {
 763              		.loc 1 687 0 is_stmt 1 discriminator 2
 764 0140 0134     		adds	r4, r4, #1
 765              	.LVL66:
 766 0142 E4B2     		uxtb	r4, r4
 767              	.LVL67:
 768              	.L54:
 687:.\Generated_Source\PSoC5/USBFS_std.c ****             {
 769              		.loc 1 687 0 is_stmt 0 discriminator 1
 770 0144 082C     		cmp	r4, #8
 771 0146 9BD9     		bls	.L62
 762:.\Generated_Source\PSoC5/USBFS_std.c ****         for (i = 0u; i < ep; i++)
 772              		.loc 1 762 0 is_stmt 1
 773 0148 C068     		ldr	r0, [r0, #12]
 774              	.LVL68:
 763:.\Generated_Source\PSoC5/USBFS_std.c ****         {
 775              		.loc 1 763 0
 776 014a 0022     		movs	r2, #0
 777 014c 0CE0     		b	.L63
 778              	.LVL69:
 779              	.L64:
 766:.\Generated_Source\PSoC5/USBFS_std.c ****             pEP = &pEP[1u];
 780              		.loc 1 766 0 discriminator 3
 781 014e 8378     		ldrb	r3, [r0, #2]	@ zero_extendqisi2
 782 0150 03F07F03 		and	r3, r3, #127
 783 0154 10F8084B 		ldrb	r4, [r0], #8	@ zero_extendqisi2
 784              	.LVL70:
 785 0158 03EB4303 		add	r3, r3, r3, lsl #1
 786 015c 9B00     		lsls	r3, r3, #2
 787 015e 1449     		ldr	r1, .L71+20
 788 0160 0B44     		add	r3, r3, r1
 789 0162 9C70     		strb	r4, [r3, #2]
 790              	.LVL71:
 763:.\Generated_Source\PSoC5/USBFS_std.c ****         {
 791              		.loc 1 763 0 discriminator 3
 792 0164 0132     		adds	r2, r2, #1
 793              	.LVL72:
 794 0166 D2B2     		uxtb	r2, r2
 795              	.LVL73:
 796              	.L63:
 763:.\Generated_Source\PSoC5/USBFS_std.c ****         {
 797              		.loc 1 763 0 is_stmt 0 discriminator 1
 798 0168 AA42     		cmp	r2, r5
ARM GAS  C:\Users\Patrick\AppData\Local\Temp\ccvH7eQO.s 			page 35


 799 016a F0D3     		bcc	.L64
 771:.\Generated_Source\PSoC5/USBFS_std.c ****         
 800              		.loc 1 771 0 is_stmt 1
 801 016c FFF7FEFF 		bl	USBFS_GetInterfaceClassTablePtr
 802              	.LVL74:
 803 0170 104B     		ldr	r3, .L71+24
 804 0172 1860     		str	r0, [r3]
 805              	.LVL75:
 775:.\Generated_Source\PSoC5/USBFS_std.c ****         for (ep = USBFS_EP1; ep < USBFS_MAX_EP; ++ep)
 806              		.loc 1 775 0
 807 0174 0020     		movs	r0, #0
 776:.\Generated_Source\PSoC5/USBFS_std.c ****         {
 808              		.loc 1 776 0
 809 0176 0122     		movs	r2, #1
 810 0178 0AE0     		b	.L65
 811              	.LVL76:
 812              	.L66:
 778:.\Generated_Source\PSoC5/USBFS_std.c ****             buffCount += USBFS_EP[ep].bufferSize;
 813              		.loc 1 778 0 discriminator 3
 814 017a 084C     		ldr	r4, .L71
 815 017c 5300     		lsls	r3, r2, #1
 816 017e 9918     		adds	r1, r3, r2
 817 0180 8900     		lsls	r1, r1, #2
 818 0182 2144     		add	r1, r1, r4
 819 0184 C880     		strh	r0, [r1, #6]	@ movhi
 779:.\Generated_Source\PSoC5/USBFS_std.c ****             
 820              		.loc 1 779 0 discriminator 3
 821 0186 0B89     		ldrh	r3, [r1, #8]
 822 0188 1844     		add	r0, r0, r3
 823              	.LVL77:
 824 018a 80B2     		uxth	r0, r0
 825              	.LVL78:
 776:.\Generated_Source\PSoC5/USBFS_std.c ****         {
 826              		.loc 1 776 0 discriminator 3
 827 018c 0132     		adds	r2, r2, #1
 828              	.LVL79:
 829 018e D2B2     		uxtb	r2, r2
 830              	.LVL80:
 831              	.L65:
 776:.\Generated_Source\PSoC5/USBFS_std.c ****         {
 832              		.loc 1 776 0 is_stmt 0 discriminator 1
 833 0190 082A     		cmp	r2, #8
 834 0192 F2D9     		bls	.L66
 789:.\Generated_Source\PSoC5/USBFS_std.c ****     }
 835              		.loc 1 789 0 is_stmt 1
 836 0194 FFF7FEFF 		bl	USBFS_ConfigReg
 837              	.LVL81:
 838              	.L45:
 839 0198 F8BD     		pop	{r3, r4, r5, r6, r7, pc}
 840              	.L72:
 841 019a 00BF     		.align	2
 842              	.L71:
 843 019c 00000000 		.word	USBFS_EP
 844 01a0 00000000 		.word	USBFS_interfaceSetting
 845 01a4 00000000 		.word	USBFS_interfaceSettingLast
 846 01a8 00000000 		.word	USBFS_configuration
 847 01ac 00000000 		.word	USBFS_deviceStatus
ARM GAS  C:\Users\Patrick\AppData\Local\Temp\ccvH7eQO.s 			page 36


 848 01b0 08000000 		.word	USBFS_EP+8
 849 01b4 00000000 		.word	USBFS_interfaceClass
 850              		.cfi_endproc
 851              	.LFE3:
 852              		.size	USBFS_Config, .-USBFS_Config
 853              		.section	.text.USBFS_TerminateEP,"ax",%progbits
 854              		.align	2
 855              		.global	USBFS_TerminateEP
 856              		.thumb
 857              		.thumb_func
 858              		.type	USBFS_TerminateEP, %function
 859              	USBFS_TerminateEP:
 860              	.LFB8:
1053:.\Generated_Source\PSoC5/USBFS_std.c **** 
1054:.\Generated_Source\PSoC5/USBFS_std.c **** 
1055:.\Generated_Source\PSoC5/USBFS_std.c **** /*******************************************************************************
1056:.\Generated_Source\PSoC5/USBFS_std.c **** * Function Name: USBFS_TerminateEP
1057:.\Generated_Source\PSoC5/USBFS_std.c **** ****************************************************************************//**
1058:.\Generated_Source\PSoC5/USBFS_std.c **** *
1059:.\Generated_Source\PSoC5/USBFS_std.c **** *  This function terminates the specified USBFS endpoint.
1060:.\Generated_Source\PSoC5/USBFS_std.c **** *  This function should be used before endpoint reconfiguration.
1061:.\Generated_Source\PSoC5/USBFS_std.c **** *
1062:.\Generated_Source\PSoC5/USBFS_std.c **** *  \param ep Contains the data endpoint number.
1063:.\Generated_Source\PSoC5/USBFS_std.c **** *
1064:.\Generated_Source\PSoC5/USBFS_std.c **** *  \reentrant
1065:.\Generated_Source\PSoC5/USBFS_std.c **** *  No.
1066:.\Generated_Source\PSoC5/USBFS_std.c **** *
1067:.\Generated_Source\PSoC5/USBFS_std.c **** * \sideeffect
1068:.\Generated_Source\PSoC5/USBFS_std.c **** * 
1069:.\Generated_Source\PSoC5/USBFS_std.c **** * The device responds with a NAK for any transactions on the selected endpoint.
1070:.\Generated_Source\PSoC5/USBFS_std.c **** *   
1071:.\Generated_Source\PSoC5/USBFS_std.c **** *******************************************************************************/
1072:.\Generated_Source\PSoC5/USBFS_std.c **** void USBFS_TerminateEP(uint8 epNumber) 
1073:.\Generated_Source\PSoC5/USBFS_std.c **** {
 861              		.loc 1 1073 0
 862              		.cfi_startproc
 863              		@ args = 0, pretend = 0, frame = 0
 864              		@ frame_needed = 0, uses_anonymous_args = 0
 865              		@ link register save eliminated.
 866              	.LVL82:
1074:.\Generated_Source\PSoC5/USBFS_std.c ****     /* Get endpoint number */
1075:.\Generated_Source\PSoC5/USBFS_std.c ****     epNumber &= USBFS_DIR_UNUSED;
 867              		.loc 1 1075 0
 868 0000 00F07F00 		and	r0, r0, #127
 869              	.LVL83:
1076:.\Generated_Source\PSoC5/USBFS_std.c **** 
1077:.\Generated_Source\PSoC5/USBFS_std.c ****     if ((epNumber > USBFS_EP0) && (epNumber < USBFS_MAX_EP))
 870              		.loc 1 1077 0
 871 0004 431E     		subs	r3, r0, #1
 872 0006 DBB2     		uxtb	r3, r3
 873 0008 072B     		cmp	r3, #7
 874 000a 19D8     		bhi	.L73
1078:.\Generated_Source\PSoC5/USBFS_std.c ****     {
1079:.\Generated_Source\PSoC5/USBFS_std.c ****         /* Set the endpoint Halt */
1080:.\Generated_Source\PSoC5/USBFS_std.c ****         USBFS_EP[epNumber].hwEpState |= USBFS_ENDPOINT_STATUS_HALT;
 875              		.loc 1 1080 0
 876 000c 4300     		lsls	r3, r0, #1
ARM GAS  C:\Users\Patrick\AppData\Local\Temp\ccvH7eQO.s 			page 37


 877 000e 0344     		add	r3, r3, r0
 878 0010 9B00     		lsls	r3, r3, #2
 879 0012 0C4A     		ldr	r2, .L76
 880 0014 1344     		add	r3, r3, r2
 881 0016 9A78     		ldrb	r2, [r3, #2]	@ zero_extendqisi2
 882 0018 42F00102 		orr	r2, r2, #1
 883 001c 9A70     		strb	r2, [r3, #2]
1081:.\Generated_Source\PSoC5/USBFS_std.c **** 
1082:.\Generated_Source\PSoC5/USBFS_std.c ****         /* Clear the data toggle */
1083:.\Generated_Source\PSoC5/USBFS_std.c ****         USBFS_EP[epNumber].epToggle = 0u;
 884              		.loc 1 1083 0
 885 001e 0022     		movs	r2, #0
 886 0020 DA70     		strb	r2, [r3, #3]
1084:.\Generated_Source\PSoC5/USBFS_std.c ****         USBFS_EP[epNumber].apiEpState = USBFS_NO_EVENT_ALLOWED;
 887              		.loc 1 1084 0
 888 0022 0222     		movs	r2, #2
 889 0024 5A70     		strb	r2, [r3, #1]
1085:.\Generated_Source\PSoC5/USBFS_std.c **** 
1086:.\Generated_Source\PSoC5/USBFS_std.c ****         if ((USBFS_EP[epNumber].addr & USBFS_DIR_IN) != 0u)
 890              		.loc 1 1086 0
 891 0026 1B79     		ldrb	r3, [r3, #4]	@ zero_extendqisi2
 892 0028 13F0800F 		tst	r3, #128
 893 002c 04D0     		beq	.L75
1087:.\Generated_Source\PSoC5/USBFS_std.c ****         {   
1088:.\Generated_Source\PSoC5/USBFS_std.c ****             /* IN Endpoint */
1089:.\Generated_Source\PSoC5/USBFS_std.c ****             USBFS_SIE_EP_BASE.sieEp[epNumber].epCr0 = USBFS_MODE_NAK_IN;
 894              		.loc 1 1089 0
 895 002e 0001     		lsls	r0, r0, #4
 896              	.LVL84:
 897 0030 054B     		ldr	r3, .L76+4
 898 0032 0C22     		movs	r2, #12
 899 0034 1A54     		strb	r2, [r3, r0]
 900 0036 7047     		bx	lr
 901              	.LVL85:
 902              	.L75:
1090:.\Generated_Source\PSoC5/USBFS_std.c ****         }
1091:.\Generated_Source\PSoC5/USBFS_std.c ****         else
1092:.\Generated_Source\PSoC5/USBFS_std.c ****         {
1093:.\Generated_Source\PSoC5/USBFS_std.c ****             /* OUT Endpoint */
1094:.\Generated_Source\PSoC5/USBFS_std.c ****             USBFS_SIE_EP_BASE.sieEp[epNumber].epCr0 = USBFS_MODE_NAK_OUT;
 903              		.loc 1 1094 0
 904 0038 0001     		lsls	r0, r0, #4
 905              	.LVL86:
 906 003a 034B     		ldr	r3, .L76+4
 907 003c 0822     		movs	r2, #8
 908 003e 1A54     		strb	r2, [r3, r0]
 909              	.L73:
 910 0040 7047     		bx	lr
 911              	.L77:
 912 0042 00BF     		.align	2
 913              	.L76:
 914 0044 00000000 		.word	USBFS_EP
 915 0048 FE5F0040 		.word	1073766398
 916              		.cfi_endproc
 917              	.LFE8:
 918              		.size	USBFS_TerminateEP, .-USBFS_TerminateEP
 919              		.section	.text.USBFS_SetEndpointHalt,"ax",%progbits
ARM GAS  C:\Users\Patrick\AppData\Local\Temp\ccvH7eQO.s 			page 38


 920              		.align	2
 921              		.global	USBFS_SetEndpointHalt
 922              		.thumb
 923              		.thumb_func
 924              		.type	USBFS_SetEndpointHalt, %function
 925              	USBFS_SetEndpointHalt:
 926              	.LFB9:
1095:.\Generated_Source\PSoC5/USBFS_std.c ****         }
1096:.\Generated_Source\PSoC5/USBFS_std.c ****     }
1097:.\Generated_Source\PSoC5/USBFS_std.c **** }
1098:.\Generated_Source\PSoC5/USBFS_std.c **** 
1099:.\Generated_Source\PSoC5/USBFS_std.c **** 
1100:.\Generated_Source\PSoC5/USBFS_std.c **** /*******************************************************************************
1101:.\Generated_Source\PSoC5/USBFS_std.c **** * Function Name: USBFS_SetEndpointHalt
1102:.\Generated_Source\PSoC5/USBFS_std.c **** ****************************************************************************//**
1103:.\Generated_Source\PSoC5/USBFS_std.c **** *
1104:.\Generated_Source\PSoC5/USBFS_std.c **** *  This routine handles set endpoint halt.
1105:.\Generated_Source\PSoC5/USBFS_std.c **** *
1106:.\Generated_Source\PSoC5/USBFS_std.c **** * \return
1107:.\Generated_Source\PSoC5/USBFS_std.c **** *  requestHandled.
1108:.\Generated_Source\PSoC5/USBFS_std.c **** *
1109:.\Generated_Source\PSoC5/USBFS_std.c **** * \reentrant
1110:.\Generated_Source\PSoC5/USBFS_std.c **** *  No.
1111:.\Generated_Source\PSoC5/USBFS_std.c **** *
1112:.\Generated_Source\PSoC5/USBFS_std.c **** *******************************************************************************/
1113:.\Generated_Source\PSoC5/USBFS_std.c **** uint8 USBFS_SetEndpointHalt(void) 
1114:.\Generated_Source\PSoC5/USBFS_std.c **** {
 927              		.loc 1 1114 0
 928              		.cfi_startproc
 929              		@ args = 0, pretend = 0, frame = 0
 930              		@ frame_needed = 0, uses_anonymous_args = 0
 931 0000 08B5     		push	{r3, lr}
 932              		.cfi_def_cfa_offset 8
 933              		.cfi_offset 3, -8
 934              		.cfi_offset 14, -4
 935              	.LVL87:
1115:.\Generated_Source\PSoC5/USBFS_std.c ****     uint8 requestHandled = USBFS_FALSE;
1116:.\Generated_Source\PSoC5/USBFS_std.c ****     uint8 ep;
1117:.\Generated_Source\PSoC5/USBFS_std.c ****     
1118:.\Generated_Source\PSoC5/USBFS_std.c ****     /* Set endpoint halt */
1119:.\Generated_Source\PSoC5/USBFS_std.c ****     ep = USBFS_wIndexLoReg & USBFS_DIR_UNUSED;
 936              		.loc 1 1119 0
 937 0002 154B     		ldr	r3, .L84
 938 0004 1A79     		ldrb	r2, [r3, #4]	@ zero_extendqisi2
 939 0006 02F07F02 		and	r2, r2, #127
 940              	.LVL88:
1120:.\Generated_Source\PSoC5/USBFS_std.c **** 
1121:.\Generated_Source\PSoC5/USBFS_std.c ****     if ((ep > USBFS_EP0) && (ep < USBFS_MAX_EP))
 941              		.loc 1 1121 0
 942 000a 531E     		subs	r3, r2, #1
 943 000c DBB2     		uxtb	r3, r3
 944 000e 072B     		cmp	r3, #7
 945 0010 20D8     		bhi	.L82
1122:.\Generated_Source\PSoC5/USBFS_std.c ****     {
1123:.\Generated_Source\PSoC5/USBFS_std.c ****         /* Set the endpoint Halt */
1124:.\Generated_Source\PSoC5/USBFS_std.c ****         USBFS_EP[ep].hwEpState |= (USBFS_ENDPOINT_STATUS_HALT);
 946              		.loc 1 1124 0
ARM GAS  C:\Users\Patrick\AppData\Local\Temp\ccvH7eQO.s 			page 39


 947 0012 5300     		lsls	r3, r2, #1
 948 0014 1344     		add	r3, r3, r2
 949 0016 9B00     		lsls	r3, r3, #2
 950 0018 1049     		ldr	r1, .L84+4
 951 001a 0B44     		add	r3, r3, r1
 952 001c 9978     		ldrb	r1, [r3, #2]	@ zero_extendqisi2
 953 001e 41F00101 		orr	r1, r1, #1
 954 0022 9970     		strb	r1, [r3, #2]
1125:.\Generated_Source\PSoC5/USBFS_std.c **** 
1126:.\Generated_Source\PSoC5/USBFS_std.c ****         /* Clear the data toggle */
1127:.\Generated_Source\PSoC5/USBFS_std.c ****         USBFS_EP[ep].epToggle = 0u;
 955              		.loc 1 1127 0
 956 0024 0021     		movs	r1, #0
 957 0026 D970     		strb	r1, [r3, #3]
1128:.\Generated_Source\PSoC5/USBFS_std.c ****         USBFS_EP[ep].apiEpState |= USBFS_NO_EVENT_ALLOWED;
 958              		.loc 1 1128 0
 959 0028 5978     		ldrb	r1, [r3, #1]	@ zero_extendqisi2
 960 002a 41F00201 		orr	r1, r1, #2
 961 002e 5970     		strb	r1, [r3, #1]
1129:.\Generated_Source\PSoC5/USBFS_std.c **** 
1130:.\Generated_Source\PSoC5/USBFS_std.c ****         if ((USBFS_EP[ep].addr & USBFS_DIR_IN) != 0u)
 962              		.loc 1 1130 0
 963 0030 1B79     		ldrb	r3, [r3, #4]	@ zero_extendqisi2
 964 0032 13F0800F 		tst	r3, #128
 965 0036 05D0     		beq	.L80
1131:.\Generated_Source\PSoC5/USBFS_std.c ****         {
1132:.\Generated_Source\PSoC5/USBFS_std.c ****             /* IN Endpoint */
1133:.\Generated_Source\PSoC5/USBFS_std.c ****             USBFS_SIE_EP_BASE.sieEp[ep].epCr0 = (USBFS_MODE_STALL_DATA_EP | 
 966              		.loc 1 1133 0
 967 0038 1201     		lsls	r2, r2, #4
 968              	.LVL89:
 969 003a 094B     		ldr	r3, .L84+8
 970 003c 1344     		add	r3, r3, r2
 971 003e 8D22     		movs	r2, #141
 972 0040 9A70     		strb	r2, [r3, #2]
 973 0042 04E0     		b	.L81
 974              	.LVL90:
 975              	.L80:
1134:.\Generated_Source\PSoC5/USBFS_std.c ****                                                             USBFS_MODE_ACK_IN);
1135:.\Generated_Source\PSoC5/USBFS_std.c ****         }
1136:.\Generated_Source\PSoC5/USBFS_std.c ****         else
1137:.\Generated_Source\PSoC5/USBFS_std.c ****         {
1138:.\Generated_Source\PSoC5/USBFS_std.c ****             /* OUT Endpoint */
1139:.\Generated_Source\PSoC5/USBFS_std.c ****             USBFS_SIE_EP_BASE.sieEp[ep].epCr0 = (USBFS_MODE_STALL_DATA_EP | 
 976              		.loc 1 1139 0
 977 0044 1201     		lsls	r2, r2, #4
 978              	.LVL91:
 979 0046 064B     		ldr	r3, .L84+8
 980 0048 1344     		add	r3, r3, r2
 981 004a 8922     		movs	r2, #137
 982 004c 9A70     		strb	r2, [r3, #2]
 983              	.L81:
1140:.\Generated_Source\PSoC5/USBFS_std.c ****                                                             USBFS_MODE_ACK_OUT);
1141:.\Generated_Source\PSoC5/USBFS_std.c ****         }
1142:.\Generated_Source\PSoC5/USBFS_std.c ****         requestHandled = USBFS_InitNoDataControlTransfer();
 984              		.loc 1 1142 0
 985 004e FFF7FEFF 		bl	USBFS_InitNoDataControlTransfer
ARM GAS  C:\Users\Patrick\AppData\Local\Temp\ccvH7eQO.s 			page 40


 986              	.LVL92:
 987 0052 08BD     		pop	{r3, pc}
 988              	.LVL93:
 989              	.L82:
1115:.\Generated_Source\PSoC5/USBFS_std.c ****     uint8 ep;
 990              		.loc 1 1115 0
 991 0054 0020     		movs	r0, #0
 992              	.LVL94:
1143:.\Generated_Source\PSoC5/USBFS_std.c ****     }
1144:.\Generated_Source\PSoC5/USBFS_std.c **** 
1145:.\Generated_Source\PSoC5/USBFS_std.c ****     return (requestHandled);
1146:.\Generated_Source\PSoC5/USBFS_std.c **** }
 993              		.loc 1 1146 0
 994 0056 08BD     		pop	{r3, pc}
 995              	.L85:
 996              		.align	2
 997              	.L84:
 998 0058 00600040 		.word	1073766400
 999 005c 00000000 		.word	USBFS_EP
 1000 0060 FC5F0040 		.word	1073766396
 1001              		.cfi_endproc
 1002              	.LFE9:
 1003              		.size	USBFS_SetEndpointHalt, .-USBFS_SetEndpointHalt
 1004              		.section	.text.USBFS_ClearEndpointHalt,"ax",%progbits
 1005              		.align	2
 1006              		.global	USBFS_ClearEndpointHalt
 1007              		.thumb
 1008              		.thumb_func
 1009              		.type	USBFS_ClearEndpointHalt, %function
 1010              	USBFS_ClearEndpointHalt:
 1011              	.LFB10:
1147:.\Generated_Source\PSoC5/USBFS_std.c **** 
1148:.\Generated_Source\PSoC5/USBFS_std.c **** 
1149:.\Generated_Source\PSoC5/USBFS_std.c **** /*******************************************************************************
1150:.\Generated_Source\PSoC5/USBFS_std.c **** * Function Name: USBFS_ClearEndpointHalt
1151:.\Generated_Source\PSoC5/USBFS_std.c **** ****************************************************************************//**
1152:.\Generated_Source\PSoC5/USBFS_std.c **** *
1153:.\Generated_Source\PSoC5/USBFS_std.c **** *  This routine handles clear endpoint halt.
1154:.\Generated_Source\PSoC5/USBFS_std.c **** *
1155:.\Generated_Source\PSoC5/USBFS_std.c **** * \return
1156:.\Generated_Source\PSoC5/USBFS_std.c **** *  requestHandled.
1157:.\Generated_Source\PSoC5/USBFS_std.c **** *
1158:.\Generated_Source\PSoC5/USBFS_std.c **** * \reentrant
1159:.\Generated_Source\PSoC5/USBFS_std.c **** *  No.
1160:.\Generated_Source\PSoC5/USBFS_std.c **** *
1161:.\Generated_Source\PSoC5/USBFS_std.c **** *******************************************************************************/
1162:.\Generated_Source\PSoC5/USBFS_std.c **** uint8 USBFS_ClearEndpointHalt(void) 
1163:.\Generated_Source\PSoC5/USBFS_std.c **** {
 1012              		.loc 1 1163 0
 1013              		.cfi_startproc
 1014              		@ args = 0, pretend = 0, frame = 0
 1015              		@ frame_needed = 0, uses_anonymous_args = 0
 1016              	.LVL95:
1164:.\Generated_Source\PSoC5/USBFS_std.c ****     uint8 requestHandled = USBFS_FALSE;
1165:.\Generated_Source\PSoC5/USBFS_std.c ****     uint8 ep;
1166:.\Generated_Source\PSoC5/USBFS_std.c **** 
1167:.\Generated_Source\PSoC5/USBFS_std.c ****     /* Clear endpoint halt */
ARM GAS  C:\Users\Patrick\AppData\Local\Temp\ccvH7eQO.s 			page 41


1168:.\Generated_Source\PSoC5/USBFS_std.c ****     ep = USBFS_wIndexLoReg & USBFS_DIR_UNUSED;
 1017              		.loc 1 1168 0
 1018 0000 264B     		ldr	r3, .L95
 1019 0002 1B79     		ldrb	r3, [r3, #4]	@ zero_extendqisi2
 1020 0004 03F07F03 		and	r3, r3, #127
 1021              	.LVL96:
1169:.\Generated_Source\PSoC5/USBFS_std.c **** 
1170:.\Generated_Source\PSoC5/USBFS_std.c ****     if ((ep > USBFS_EP0) && (ep < USBFS_MAX_EP))
 1022              		.loc 1 1170 0
 1023 0008 5A1E     		subs	r2, r3, #1
 1024 000a D2B2     		uxtb	r2, r2
 1025 000c 072A     		cmp	r2, #7
 1026 000e 43D8     		bhi	.L92
1163:.\Generated_Source\PSoC5/USBFS_std.c ****     uint8 requestHandled = USBFS_FALSE;
 1027              		.loc 1 1163 0
 1028 0010 10B5     		push	{r4, lr}
 1029              		.cfi_def_cfa_offset 8
 1030              		.cfi_offset 4, -8
 1031              		.cfi_offset 14, -4
1171:.\Generated_Source\PSoC5/USBFS_std.c ****     {
1172:.\Generated_Source\PSoC5/USBFS_std.c ****         /* Clear the endpoint Halt */
1173:.\Generated_Source\PSoC5/USBFS_std.c ****         USBFS_EP[ep].hwEpState &= (uint8) ~USBFS_ENDPOINT_STATUS_HALT;
 1032              		.loc 1 1173 0
 1033 0012 5A00     		lsls	r2, r3, #1
 1034 0014 1A44     		add	r2, r2, r3
 1035 0016 9200     		lsls	r2, r2, #2
 1036 0018 2149     		ldr	r1, .L95+4
 1037 001a 0A44     		add	r2, r2, r1
 1038 001c 9178     		ldrb	r1, [r2, #2]	@ zero_extendqisi2
 1039 001e 01F0FE01 		and	r1, r1, #254
 1040 0022 9170     		strb	r1, [r2, #2]
1174:.\Generated_Source\PSoC5/USBFS_std.c **** 
1175:.\Generated_Source\PSoC5/USBFS_std.c ****         /* Clear the data toggle */
1176:.\Generated_Source\PSoC5/USBFS_std.c ****         USBFS_EP[ep].epToggle = 0u;
 1041              		.loc 1 1176 0
 1042 0024 0021     		movs	r1, #0
 1043 0026 D170     		strb	r1, [r2, #3]
1177:.\Generated_Source\PSoC5/USBFS_std.c ****         
1178:.\Generated_Source\PSoC5/USBFS_std.c ****         /* Clear toggle bit for already armed packet */
1179:.\Generated_Source\PSoC5/USBFS_std.c ****         USBFS_SIE_EP_BASE.sieEp[ep].epCnt0 = (uint8) ~(uint8)USBFS_EPX_CNT_DATA_TOGGLE;
 1044              		.loc 1 1179 0
 1045 0028 1901     		lsls	r1, r3, #4
 1046 002a 7F24     		movs	r4, #127
 1047 002c 1D48     		ldr	r0, .L95+8
 1048 002e 4454     		strb	r4, [r0, r1]
1180:.\Generated_Source\PSoC5/USBFS_std.c ****         
1181:.\Generated_Source\PSoC5/USBFS_std.c ****         /* Return API State as it was defined before */
1182:.\Generated_Source\PSoC5/USBFS_std.c ****         USBFS_EP[ep].apiEpState &= (uint8) ~USBFS_NO_EVENT_ALLOWED;
 1049              		.loc 1 1182 0
 1050 0030 5178     		ldrb	r1, [r2, #1]	@ zero_extendqisi2
 1051 0032 01F0FD01 		and	r1, r1, #253
 1052 0036 5170     		strb	r1, [r2, #1]
1183:.\Generated_Source\PSoC5/USBFS_std.c **** 
1184:.\Generated_Source\PSoC5/USBFS_std.c ****         if ((USBFS_EP[ep].addr & USBFS_DIR_IN) != 0u)
 1053              		.loc 1 1184 0
 1054 0038 1279     		ldrb	r2, [r2, #4]	@ zero_extendqisi2
 1055 003a 12F0800F 		tst	r2, #128
ARM GAS  C:\Users\Patrick\AppData\Local\Temp\ccvH7eQO.s 			page 42


 1056 003e 14D0     		beq	.L88
1185:.\Generated_Source\PSoC5/USBFS_std.c ****         {
1186:.\Generated_Source\PSoC5/USBFS_std.c ****             /* IN Endpoint */
1187:.\Generated_Source\PSoC5/USBFS_std.c ****             if(USBFS_EP[ep].apiEpState == USBFS_IN_BUFFER_EMPTY)
 1057              		.loc 1 1187 0
 1058 0040 03EB4302 		add	r2, r3, r3, lsl #1
 1059 0044 9200     		lsls	r2, r2, #2
 1060 0046 1649     		ldr	r1, .L95+4
 1061 0048 0A44     		add	r2, r2, r1
 1062 004a 5278     		ldrb	r2, [r2, #1]	@ zero_extendqisi2
 1063 004c D2B2     		uxtb	r2, r2
 1064 004e 012A     		cmp	r2, #1
 1065 0050 05D1     		bne	.L89
1188:.\Generated_Source\PSoC5/USBFS_std.c ****             {       
1189:.\Generated_Source\PSoC5/USBFS_std.c ****                 /* Wait for next packet from application */
1190:.\Generated_Source\PSoC5/USBFS_std.c ****                 USBFS_SIE_EP_BASE.sieEp[ep].epCr0 = USBFS_MODE_NAK_IN;
 1066              		.loc 1 1190 0
 1067 0052 1B01     		lsls	r3, r3, #4
 1068              	.LVL97:
 1069 0054 0246     		mov	r2, r0
 1070 0056 1A44     		add	r2, r2, r3
 1071 0058 0C23     		movs	r3, #12
 1072 005a 9370     		strb	r3, [r2, #2]
 1073 005c 19E0     		b	.L90
 1074              	.LVL98:
 1075              	.L89:
1191:.\Generated_Source\PSoC5/USBFS_std.c ****             }
1192:.\Generated_Source\PSoC5/USBFS_std.c ****             else    /* Continue armed transfer */
1193:.\Generated_Source\PSoC5/USBFS_std.c ****             {
1194:.\Generated_Source\PSoC5/USBFS_std.c ****                 USBFS_SIE_EP_BASE.sieEp[ep].epCr0 = USBFS_MODE_ACK_IN;
 1076              		.loc 1 1194 0
 1077 005e 1B01     		lsls	r3, r3, #4
 1078              	.LVL99:
 1079 0060 104A     		ldr	r2, .L95+8
 1080 0062 1A44     		add	r2, r2, r3
 1081 0064 0D23     		movs	r3, #13
 1082 0066 9370     		strb	r3, [r2, #2]
 1083 0068 13E0     		b	.L90
 1084              	.LVL100:
 1085              	.L88:
1195:.\Generated_Source\PSoC5/USBFS_std.c ****             }
1196:.\Generated_Source\PSoC5/USBFS_std.c ****         }
1197:.\Generated_Source\PSoC5/USBFS_std.c ****         else
1198:.\Generated_Source\PSoC5/USBFS_std.c ****         {
1199:.\Generated_Source\PSoC5/USBFS_std.c ****             /* OUT Endpoint */
1200:.\Generated_Source\PSoC5/USBFS_std.c ****             if (USBFS_EP[ep].apiEpState == USBFS_OUT_BUFFER_FULL)
 1086              		.loc 1 1200 0
 1087 006a 03EB4302 		add	r2, r3, r3, lsl #1
 1088 006e 9200     		lsls	r2, r2, #2
 1089 0070 0B49     		ldr	r1, .L95+4
 1090 0072 0A44     		add	r2, r2, r1
 1091 0074 5278     		ldrb	r2, [r2, #1]	@ zero_extendqisi2
 1092 0076 D2B2     		uxtb	r2, r2
 1093 0078 012A     		cmp	r2, #1
 1094 007a 05D1     		bne	.L91
1201:.\Generated_Source\PSoC5/USBFS_std.c ****             {       
1202:.\Generated_Source\PSoC5/USBFS_std.c ****                 /* Allow application to read full buffer */
ARM GAS  C:\Users\Patrick\AppData\Local\Temp\ccvH7eQO.s 			page 43


1203:.\Generated_Source\PSoC5/USBFS_std.c ****                 USBFS_SIE_EP_BASE.sieEp[ep].epCr0 = USBFS_MODE_NAK_OUT;
 1095              		.loc 1 1203 0
 1096 007c 1B01     		lsls	r3, r3, #4
 1097              	.LVL101:
 1098 007e 094A     		ldr	r2, .L95+8
 1099 0080 1A44     		add	r2, r2, r3
 1100 0082 0823     		movs	r3, #8
 1101 0084 9370     		strb	r3, [r2, #2]
 1102 0086 04E0     		b	.L90
 1103              	.LVL102:
 1104              	.L91:
1204:.\Generated_Source\PSoC5/USBFS_std.c ****             }
1205:.\Generated_Source\PSoC5/USBFS_std.c ****             else    /* Mark endpoint as empty, so it will be reloaded */
1206:.\Generated_Source\PSoC5/USBFS_std.c ****             {
1207:.\Generated_Source\PSoC5/USBFS_std.c ****                 USBFS_SIE_EP_BASE.sieEp[ep].epCr0 = USBFS_MODE_ACK_OUT;
 1105              		.loc 1 1207 0
 1106 0088 1B01     		lsls	r3, r3, #4
 1107              	.LVL103:
 1108 008a 064A     		ldr	r2, .L95+8
 1109 008c 1A44     		add	r2, r2, r3
 1110 008e 0923     		movs	r3, #9
 1111 0090 9370     		strb	r3, [r2, #2]
 1112              	.L90:
1208:.\Generated_Source\PSoC5/USBFS_std.c ****             }
1209:.\Generated_Source\PSoC5/USBFS_std.c ****         }
1210:.\Generated_Source\PSoC5/USBFS_std.c ****         
1211:.\Generated_Source\PSoC5/USBFS_std.c ****         requestHandled = USBFS_InitNoDataControlTransfer();
 1113              		.loc 1 1211 0
 1114 0092 FFF7FEFF 		bl	USBFS_InitNoDataControlTransfer
 1115              	.LVL104:
 1116 0096 10BD     		pop	{r4, pc}
 1117              	.LVL105:
 1118              	.L92:
 1119              		.cfi_def_cfa_offset 0
 1120              		.cfi_restore 4
 1121              		.cfi_restore 14
1164:.\Generated_Source\PSoC5/USBFS_std.c ****     uint8 ep;
 1122              		.loc 1 1164 0
 1123 0098 0020     		movs	r0, #0
 1124 009a 7047     		bx	lr
 1125              	.L96:
 1126              		.align	2
 1127              	.L95:
 1128 009c 00600040 		.word	1073766400
 1129 00a0 00000000 		.word	USBFS_EP
 1130 00a4 FC5F0040 		.word	1073766396
 1131              		.cfi_endproc
 1132              	.LFE10:
 1133              		.size	USBFS_ClearEndpointHalt, .-USBFS_ClearEndpointHalt
 1134              		.section	.text.USBFS_ValidateAlternateSetting,"ax",%progbits
 1135              		.align	2
 1136              		.global	USBFS_ValidateAlternateSetting
 1137              		.thumb
 1138              		.thumb_func
 1139              		.type	USBFS_ValidateAlternateSetting, %function
 1140              	USBFS_ValidateAlternateSetting:
 1141              	.LFB11:
ARM GAS  C:\Users\Patrick\AppData\Local\Temp\ccvH7eQO.s 			page 44


1212:.\Generated_Source\PSoC5/USBFS_std.c ****     }
1213:.\Generated_Source\PSoC5/USBFS_std.c **** 
1214:.\Generated_Source\PSoC5/USBFS_std.c ****     return(requestHandled);
1215:.\Generated_Source\PSoC5/USBFS_std.c **** }
1216:.\Generated_Source\PSoC5/USBFS_std.c **** 
1217:.\Generated_Source\PSoC5/USBFS_std.c **** 
1218:.\Generated_Source\PSoC5/USBFS_std.c **** /*******************************************************************************
1219:.\Generated_Source\PSoC5/USBFS_std.c **** * Function Name: USBFS_ValidateAlternateSetting
1220:.\Generated_Source\PSoC5/USBFS_std.c **** ****************************************************************************//**
1221:.\Generated_Source\PSoC5/USBFS_std.c **** *
1222:.\Generated_Source\PSoC5/USBFS_std.c **** *  Validates (and records) a SET INTERFACE request.
1223:.\Generated_Source\PSoC5/USBFS_std.c **** *
1224:.\Generated_Source\PSoC5/USBFS_std.c **** * \return
1225:.\Generated_Source\PSoC5/USBFS_std.c **** *  requestHandled.
1226:.\Generated_Source\PSoC5/USBFS_std.c **** *
1227:.\Generated_Source\PSoC5/USBFS_std.c **** * \reentrant
1228:.\Generated_Source\PSoC5/USBFS_std.c **** *  No.
1229:.\Generated_Source\PSoC5/USBFS_std.c **** *
1230:.\Generated_Source\PSoC5/USBFS_std.c **** *******************************************************************************/
1231:.\Generated_Source\PSoC5/USBFS_std.c **** uint8 USBFS_ValidateAlternateSetting(void) 
1232:.\Generated_Source\PSoC5/USBFS_std.c **** {
 1142              		.loc 1 1232 0
 1143              		.cfi_startproc
 1144              		@ args = 0, pretend = 0, frame = 0
 1145              		@ frame_needed = 0, uses_anonymous_args = 0
 1146 0000 10B5     		push	{r4, lr}
 1147              		.cfi_def_cfa_offset 8
 1148              		.cfi_offset 4, -8
 1149              		.cfi_offset 14, -4
 1150              	.LVL106:
1233:.\Generated_Source\PSoC5/USBFS_std.c ****     uint8 requestHandled = USBFS_FALSE;
1234:.\Generated_Source\PSoC5/USBFS_std.c ****     
1235:.\Generated_Source\PSoC5/USBFS_std.c ****     uint8 interfaceNum;
1236:.\Generated_Source\PSoC5/USBFS_std.c ****     uint8 curInterfacesNum;
1237:.\Generated_Source\PSoC5/USBFS_std.c ****     const T_USBFS_LUT CYCODE *pTmp;
1238:.\Generated_Source\PSoC5/USBFS_std.c ****     
1239:.\Generated_Source\PSoC5/USBFS_std.c ****     /* Get interface number from the request. */
1240:.\Generated_Source\PSoC5/USBFS_std.c ****     interfaceNum = (uint8) USBFS_wIndexLoReg;
 1151              		.loc 1 1240 0
 1152 0002 0E4B     		ldr	r3, .L102
 1153 0004 1C79     		ldrb	r4, [r3, #4]	@ zero_extendqisi2
 1154 0006 E4B2     		uxtb	r4, r4
 1155              	.LVL107:
1241:.\Generated_Source\PSoC5/USBFS_std.c ****     
1242:.\Generated_Source\PSoC5/USBFS_std.c ****     /* Get number of interfaces for current configuration. */
1243:.\Generated_Source\PSoC5/USBFS_std.c ****     pTmp = USBFS_GetConfigTablePtr(USBFS_configuration - 1u);
 1156              		.loc 1 1243 0
 1157 0008 0D4B     		ldr	r3, .L102+4
 1158 000a 1878     		ldrb	r0, [r3]	@ zero_extendqisi2
 1159 000c 0138     		subs	r0, r0, #1
 1160 000e C0B2     		uxtb	r0, r0
 1161 0010 FFF7FEFF 		bl	USBFS_GetConfigTablePtr
 1162              	.LVL108:
1244:.\Generated_Source\PSoC5/USBFS_std.c ****     curInterfacesNum  = ((const uint8 *) pTmp->p_list)[USBFS_CONFIG_DESCR_NUM_INTERFACES];
 1163              		.loc 1 1244 0
 1164 0014 4368     		ldr	r3, [r0, #4]
 1165 0016 1B79     		ldrb	r3, [r3, #4]	@ zero_extendqisi2
ARM GAS  C:\Users\Patrick\AppData\Local\Temp\ccvH7eQO.s 			page 45


 1166              	.LVL109:
1245:.\Generated_Source\PSoC5/USBFS_std.c **** 
1246:.\Generated_Source\PSoC5/USBFS_std.c ****     /* Validate that interface number is within range. */
1247:.\Generated_Source\PSoC5/USBFS_std.c ****     if ((interfaceNum <= curInterfacesNum) || (interfaceNum <= USBFS_MAX_INTERFACES_NUMBER))
 1167              		.loc 1 1247 0
 1168 0018 9C42     		cmp	r4, r3
 1169 001a 01D9     		bls	.L98
 1170              		.loc 1 1247 0 is_stmt 0 discriminator 1
 1171 001c 012C     		cmp	r4, #1
 1172 001e 0AD8     		bhi	.L100
 1173              	.L98:
1248:.\Generated_Source\PSoC5/USBFS_std.c ****     {
1249:.\Generated_Source\PSoC5/USBFS_std.c ****         /* Save current and new alternate settings (come with request) to make 
1250:.\Generated_Source\PSoC5/USBFS_std.c ****         * desicion about following endpoint re-configuration.
1251:.\Generated_Source\PSoC5/USBFS_std.c ****         */
1252:.\Generated_Source\PSoC5/USBFS_std.c ****         USBFS_interfaceSettingLast[interfaceNum] = USBFS_interfaceSetting[interfaceNum];
 1174              		.loc 1 1252 0 is_stmt 1
 1175 0020 084A     		ldr	r2, .L102+8
 1176 0022 135D     		ldrb	r3, [r2, r4]	@ zero_extendqisi2
 1177              	.LVL110:
 1178 0024 DBB2     		uxtb	r3, r3
 1179 0026 0849     		ldr	r1, .L102+12
 1180 0028 0B55     		strb	r3, [r1, r4]
1253:.\Generated_Source\PSoC5/USBFS_std.c ****         USBFS_interfaceSetting[interfaceNum]     = (uint8) USBFS_wValueLoReg;
 1181              		.loc 1 1253 0
 1182 002a 044B     		ldr	r3, .L102
 1183 002c 9B78     		ldrb	r3, [r3, #2]	@ zero_extendqisi2
 1184 002e DBB2     		uxtb	r3, r3
 1185 0030 1355     		strb	r3, [r2, r4]
 1186              	.LVL111:
1254:.\Generated_Source\PSoC5/USBFS_std.c ****         
1255:.\Generated_Source\PSoC5/USBFS_std.c ****         requestHandled = USBFS_TRUE;
 1187              		.loc 1 1255 0
 1188 0032 0120     		movs	r0, #1
 1189              	.LVL112:
 1190 0034 10BD     		pop	{r4, pc}
 1191              	.LVL113:
 1192              	.L100:
1233:.\Generated_Source\PSoC5/USBFS_std.c ****     
 1193              		.loc 1 1233 0
 1194 0036 0020     		movs	r0, #0
 1195              	.LVL114:
1256:.\Generated_Source\PSoC5/USBFS_std.c ****     }
1257:.\Generated_Source\PSoC5/USBFS_std.c **** 
1258:.\Generated_Source\PSoC5/USBFS_std.c ****     return (requestHandled);
1259:.\Generated_Source\PSoC5/USBFS_std.c **** }
 1196              		.loc 1 1259 0
 1197 0038 10BD     		pop	{r4, pc}
 1198              	.LVL115:
 1199              	.L103:
 1200 003a 00BF     		.align	2
 1201              	.L102:
 1202 003c 00600040 		.word	1073766400
 1203 0040 00000000 		.word	USBFS_configuration
 1204 0044 00000000 		.word	USBFS_interfaceSetting
 1205 0048 00000000 		.word	USBFS_interfaceSettingLast
 1206              		.cfi_endproc
ARM GAS  C:\Users\Patrick\AppData\Local\Temp\ccvH7eQO.s 			page 46


 1207              	.LFE11:
 1208              		.size	USBFS_ValidateAlternateSetting, .-USBFS_ValidateAlternateSetting
 1209              		.section	.text.USBFS_HandleStandardRqst,"ax",%progbits
 1210              		.align	2
 1211              		.global	USBFS_HandleStandardRqst
 1212              		.thumb
 1213              		.thumb_func
 1214              		.type	USBFS_HandleStandardRqst, %function
 1215              	USBFS_HandleStandardRqst:
 1216              	.LFB0:
  85:.\Generated_Source\PSoC5/USBFS_std.c ****     uint8 requestHandled = USBFS_FALSE;
 1217              		.loc 1 85 0
 1218              		.cfi_startproc
 1219              		@ args = 0, pretend = 0, frame = 0
 1220              		@ frame_needed = 0, uses_anonymous_args = 0
 1221 0000 10B5     		push	{r4, lr}
 1222              		.cfi_def_cfa_offset 8
 1223              		.cfi_offset 4, -8
 1224              		.cfi_offset 14, -4
 1225              	.LVL116:
  89:.\Generated_Source\PSoC5/USBFS_std.c **** 
 1226              		.loc 1 89 0
 1227 0002 994B     		ldr	r3, .L160
 1228 0004 1B78     		ldrb	r3, [r3]	@ zero_extendqisi2
 1229 0006 DBB2     		uxtb	r3, r3
 1230              	.LVL117:
 102:.\Generated_Source\PSoC5/USBFS_std.c **** 
 1231              		.loc 1 102 0
 1232 0008 0021     		movs	r1, #0
 1233 000a 984A     		ldr	r2, .L160+4
 1234 000c 1180     		strh	r1, [r2]	@ movhi
 104:.\Generated_Source\PSoC5/USBFS_std.c ****     {
 1235              		.loc 1 104 0
 1236 000e 13F0800F 		tst	r3, #128
 1237 0012 00F0A980 		beq	.L105
 107:.\Generated_Source\PSoC5/USBFS_std.c ****         {
 1238              		.loc 1 107 0
 1239 0016 944A     		ldr	r2, .L160
 1240 0018 5278     		ldrb	r2, [r2, #1]	@ zero_extendqisi2
 1241 001a D2B2     		uxtb	r2, r2
 1242 001c 0A2A     		cmp	r2, #10
 1243 001e 00F26E81 		bhi	.L138
 1244 0022 DFE812F0 		tbh	[pc, r2, lsl #1]
 1245              	.L108:
 1246 0026 6500     		.2byte	(.L107-.L108)/2
 1247 0028 6C01     		.2byte	(.L138-.L108)/2
 1248 002a 6C01     		.2byte	(.L138-.L108)/2
 1249 002c 6C01     		.2byte	(.L138-.L108)/2
 1250 002e 6C01     		.2byte	(.L138-.L108)/2
 1251 0030 6C01     		.2byte	(.L138-.L108)/2
 1252 0032 0B00     		.2byte	(.L109-.L108)/2
 1253 0034 6C01     		.2byte	(.L138-.L108)/2
 1254 0036 8E00     		.2byte	(.L110-.L108)/2
 1255 0038 6C01     		.2byte	(.L138-.L108)/2
 1256 003a 9600     		.2byte	(.L111-.L108)/2
 1257              		.p2align 1
 1258              	.L109:
ARM GAS  C:\Users\Patrick\AppData\Local\Temp\ccvH7eQO.s 			page 47


 110:.\Generated_Source\PSoC5/USBFS_std.c ****                 {
 1259              		.loc 1 110 0
 1260 003c 8A4B     		ldr	r3, .L160
 1261              	.LVL118:
 1262 003e DB78     		ldrb	r3, [r3, #3]	@ zero_extendqisi2
 1263 0040 DBB2     		uxtb	r3, r3
 1264 0042 012B     		cmp	r3, #1
 1265 0044 09D1     		bne	.L112
 112:.\Generated_Source\PSoC5/USBFS_std.c ****                     USBFS_currentTD.pData = (volatile uint8 *)pTmp->p_list;
 1266              		.loc 1 112 0
 1267 0046 FFF7FEFF 		bl	USBFS_GetDeviceTablePtr
 1268              	.LVL119:
 113:.\Generated_Source\PSoC5/USBFS_std.c ****                     USBFS_currentTD.count = USBFS_DEVICE_DESCR_LENGTH;
 1269              		.loc 1 113 0
 1270 004a 4268     		ldr	r2, [r0, #4]
 1271 004c 874B     		ldr	r3, .L160+4
 1272 004e 5A60     		str	r2, [r3, #4]
 114:.\Generated_Source\PSoC5/USBFS_std.c ****                     
 1273              		.loc 1 114 0
 1274 0050 1222     		movs	r2, #18
 1275 0052 1A80     		strh	r2, [r3]	@ movhi
 116:.\Generated_Source\PSoC5/USBFS_std.c ****                 }
 1276              		.loc 1 116 0
 1277 0054 FFF7FEFF 		bl	USBFS_InitControlRead
 1278              	.LVL120:
 1279 0058 10BD     		pop	{r4, pc}
 1280              	.LVL121:
 1281              	.L112:
 118:.\Generated_Source\PSoC5/USBFS_std.c ****                 {
 1282              		.loc 1 118 0
 1283 005a 834B     		ldr	r3, .L160
 1284 005c DB78     		ldrb	r3, [r3, #3]	@ zero_extendqisi2
 1285 005e DBB2     		uxtb	r3, r3
 1286 0060 022B     		cmp	r3, #2
 1287 0062 13D1     		bne	.L113
 120:.\Generated_Source\PSoC5/USBFS_std.c ****                     
 1288              		.loc 1 120 0
 1289 0064 804B     		ldr	r3, .L160
 1290 0066 9878     		ldrb	r0, [r3, #2]	@ zero_extendqisi2
 1291 0068 FFF7FEFF 		bl	USBFS_GetConfigTablePtr
 1292              	.LVL122:
 123:.\Generated_Source\PSoC5/USBFS_std.c ****                     {
 1293              		.loc 1 123 0
 1294 006c 0028     		cmp	r0, #0
 1295 006e 00F04881 		beq	.L139
 125:.\Generated_Source\PSoC5/USBFS_std.c ****                         USBFS_currentTD.count = (uint16)((uint16)(USBFS_currentTD.pData)[USBFS_CONF
 1296              		.loc 1 125 0
 1297 0072 4268     		ldr	r2, [r0, #4]
 1298 0074 7D4B     		ldr	r3, .L160+4
 1299 0076 5A60     		str	r2, [r3, #4]
 126:.\Generated_Source\PSoC5/USBFS_std.c ****                                                                             (USBFS_currentTD.pData)
 1300              		.loc 1 126 0
 1301 0078 5A68     		ldr	r2, [r3, #4]
 1302 007a D178     		ldrb	r1, [r2, #3]	@ zero_extendqisi2
 127:.\Generated_Source\PSoC5/USBFS_std.c ****                         requestHandled  = USBFS_InitControlRead();
 1303              		.loc 1 127 0
 1304 007c 5A68     		ldr	r2, [r3, #4]
ARM GAS  C:\Users\Patrick\AppData\Local\Temp\ccvH7eQO.s 			page 48


 1305 007e 9278     		ldrb	r2, [r2, #2]	@ zero_extendqisi2
 126:.\Generated_Source\PSoC5/USBFS_std.c ****                                                                             (USBFS_currentTD.pData)
 1306              		.loc 1 126 0
 1307 0080 42EA0122 		orr	r2, r2, r1, lsl #8
 1308 0084 1A80     		strh	r2, [r3]	@ movhi
 128:.\Generated_Source\PSoC5/USBFS_std.c ****                     }
 1309              		.loc 1 128 0
 1310 0086 FFF7FEFF 		bl	USBFS_InitControlRead
 1311              	.LVL123:
 1312 008a 10BD     		pop	{r4, pc}
 1313              	.LVL124:
 1314              	.L113:
 149:.\Generated_Source\PSoC5/USBFS_std.c ****                 {
 1315              		.loc 1 149 0
 1316 008c 764B     		ldr	r3, .L160
 1317 008e DB78     		ldrb	r3, [r3, #3]	@ zero_extendqisi2
 1318 0090 DBB2     		uxtb	r3, r3
 1319 0092 032B     		cmp	r3, #3
 1320 0094 05D0     		beq	.L140
 1321 0096 28E0     		b	.L155
 1322              	.LVL125:
 1323              	.L117:
 159:.\Generated_Source\PSoC5/USBFS_std.c ****                         /* Move to next string descriptor */
 1324              		.loc 1 159 0
 1325 0098 0A78     		ldrb	r2, [r1]	@ zero_extendqisi2
 1326              	.LVL126:
 161:.\Generated_Source\PSoC5/USBFS_std.c ****                         nStr++;
 1327              		.loc 1 161 0
 1328 009a 1144     		add	r1, r1, r2
 1329              	.LVL127:
 162:.\Generated_Source\PSoC5/USBFS_std.c ****                     }
 1330              		.loc 1 162 0
 1331 009c 0133     		adds	r3, r3, #1
 1332              	.LVL128:
 1333 009e DBB2     		uxtb	r3, r3
 1334              	.LVL129:
 1335 00a0 01E0     		b	.L114
 1336              	.LVL130:
 1337              	.L140:
 1338 00a2 0023     		movs	r3, #0
 1339 00a4 7249     		ldr	r1, .L160+8
 1340              	.LVL131:
 1341              	.L114:
 156:.\Generated_Source\PSoC5/USBFS_std.c ****                     {
 1342              		.loc 1 156 0
 1343 00a6 704A     		ldr	r2, .L160
 1344 00a8 9278     		ldrb	r2, [r2, #2]	@ zero_extendqisi2
 1345 00aa D2B2     		uxtb	r2, r2
 1346 00ac 9A42     		cmp	r2, r3
 1347 00ae 03D9     		bls	.L116
 156:.\Generated_Source\PSoC5/USBFS_std.c ****                     {
 1348              		.loc 1 156 0 is_stmt 0 discriminator 1
 1349 00b0 0A78     		ldrb	r2, [r1]	@ zero_extendqisi2
 1350 00b2 12F0FF0F 		tst	r2, #255
 1351 00b6 EFD1     		bne	.L117
 1352              	.L116:
 176:.\Generated_Source\PSoC5/USBFS_std.c ****                         (USBFS_wValueLoReg == USBFS_DEVICE0_DESCR[USBFS_DEVICE_DESCR_SN_SHIFT]))
ARM GAS  C:\Users\Patrick\AppData\Local\Temp\ccvH7eQO.s 			page 49


 1353              		.loc 1 176 0 is_stmt 1
 1354 00b8 6B4B     		ldr	r3, .L160
 1355              	.LVL132:
 1356 00ba 9B78     		ldrb	r3, [r3, #2]	@ zero_extendqisi2
 1357 00bc 13F0FF0F 		tst	r3, #255
 1358 00c0 07D0     		beq	.L118
 177:.\Generated_Source\PSoC5/USBFS_std.c ****                     {
 1359              		.loc 1 177 0 discriminator 1
 1360 00c2 694B     		ldr	r3, .L160
 1361 00c4 9B78     		ldrb	r3, [r3, #2]	@ zero_extendqisi2
 1362 00c6 DBB2     		uxtb	r3, r3
 1363 00c8 6A4A     		ldr	r2, .L160+12
 1364 00ca 127C     		ldrb	r2, [r2, #16]	@ zero_extendqisi2
 176:.\Generated_Source\PSoC5/USBFS_std.c ****                         (USBFS_wValueLoReg == USBFS_DEVICE0_DESCR[USBFS_DEVICE_DESCR_SN_SHIFT]))
 1365              		.loc 1 176 0 discriminator 1
 1366 00cc 9342     		cmp	r3, r2
 1367 00ce 00D1     		bne	.L118
 194:.\Generated_Source\PSoC5/USBFS_std.c ****                     #endif  /* (USBFS_ENABLE_IDSN_STRING) */
 1368              		.loc 1 194 0
 1369 00d0 6949     		ldr	r1, .L160+16
 1370              	.LVL133:
 1371              	.L118:
 199:.\Generated_Source\PSoC5/USBFS_std.c ****                     {
 1372              		.loc 1 199 0
 1373 00d2 0B78     		ldrb	r3, [r1]	@ zero_extendqisi2
 1374 00d4 13F0FF0F 		tst	r3, #255
 1375 00d8 00F01581 		beq	.L142
 201:.\Generated_Source\PSoC5/USBFS_std.c ****                         USBFS_currentTD.pData = pStr;
 1376              		.loc 1 201 0
 1377 00dc 0B78     		ldrb	r3, [r1]	@ zero_extendqisi2
 1378 00de 634A     		ldr	r2, .L160+4
 1379 00e0 1380     		strh	r3, [r2]	@ movhi
 202:.\Generated_Source\PSoC5/USBFS_std.c ****                         requestHandled  = USBFS_InitControlRead();
 1380              		.loc 1 202 0
 1381 00e2 5160     		str	r1, [r2, #4]
 203:.\Generated_Source\PSoC5/USBFS_std.c ****                     }
 1382              		.loc 1 203 0
 1383 00e4 FFF7FEFF 		bl	USBFS_InitControlRead
 1384              	.LVL134:
 1385 00e8 10BD     		pop	{r4, pc}
 1386              	.LVL135:
 1387              	.L155:
 209:.\Generated_Source\PSoC5/USBFS_std.c ****                 }
 1388              		.loc 1 209 0
 1389 00ea FFF7FEFF 		bl	USBFS_DispatchClassRqst
 1390              	.LVL136:
 1391 00ee 10BD     		pop	{r4, pc}
 1392              	.LVL137:
 1393              	.L107:
 214:.\Generated_Source\PSoC5/USBFS_std.c ****                 {
 1394              		.loc 1 214 0
 1395 00f0 13F00303 		ands	r3, r3, #3
 1396              	.LVL138:
 1397 00f4 17D0     		beq	.L119
 1398 00f6 022B     		cmp	r3, #2
 1399 00f8 40F00781 		bne	.L156
 217:.\Generated_Source\PSoC5/USBFS_std.c ****                         USBFS_tBuffer[0u]     = USBFS_EP[USBFS_wIndexLoReg & USBFS_DIR_UNUSED].hwEp
ARM GAS  C:\Users\Patrick\AppData\Local\Temp\ccvH7eQO.s 			page 50


 1400              		.loc 1 217 0
 1401 00fc 5B49     		ldr	r1, .L160+4
 1402 00fe 0B80     		strh	r3, [r1]	@ movhi
 218:.\Generated_Source\PSoC5/USBFS_std.c ****                         USBFS_tBuffer[1u]     = 0u;
 1403              		.loc 1 218 0
 1404 0100 594B     		ldr	r3, .L160
 1405 0102 1B79     		ldrb	r3, [r3, #4]	@ zero_extendqisi2
 1406 0104 03F07F03 		and	r3, r3, #127
 1407 0108 03EB4303 		add	r3, r3, r3, lsl #1
 1408 010c 9B00     		lsls	r3, r3, #2
 1409 010e 5B4A     		ldr	r2, .L160+20
 1410 0110 1344     		add	r3, r3, r2
 1411 0112 9A78     		ldrb	r2, [r3, #2]	@ zero_extendqisi2
 1412 0114 D2B2     		uxtb	r2, r2
 1413 0116 5A4B     		ldr	r3, .L160+24
 1414 0118 1A70     		strb	r2, [r3]
 219:.\Generated_Source\PSoC5/USBFS_std.c ****                         USBFS_currentTD.pData = &USBFS_tBuffer[0u];
 1415              		.loc 1 219 0
 1416 011a 0022     		movs	r2, #0
 1417 011c 5A70     		strb	r2, [r3, #1]
 220:.\Generated_Source\PSoC5/USBFS_std.c ****                         
 1418              		.loc 1 220 0
 1419 011e 4B60     		str	r3, [r1, #4]
 222:.\Generated_Source\PSoC5/USBFS_std.c ****                         break;
 1420              		.loc 1 222 0
 1421 0120 FFF7FEFF 		bl	USBFS_InitControlRead
 1422              	.LVL139:
 223:.\Generated_Source\PSoC5/USBFS_std.c ****                     case USBFS_RQST_RCPT_DEV:
 1423              		.loc 1 223 0
 1424 0124 10BD     		pop	{r4, pc}
 1425              	.LVL140:
 1426              	.L119:
 225:.\Generated_Source\PSoC5/USBFS_std.c ****                         USBFS_tBuffer[0u]     = USBFS_deviceStatus;
 1427              		.loc 1 225 0
 1428 0126 5149     		ldr	r1, .L160+4
 1429 0128 0223     		movs	r3, #2
 1430 012a 0B80     		strh	r3, [r1]	@ movhi
 226:.\Generated_Source\PSoC5/USBFS_std.c ****                         USBFS_tBuffer[1u]     = 0u;
 1431              		.loc 1 226 0
 1432 012c 554B     		ldr	r3, .L160+28
 1433 012e 1A78     		ldrb	r2, [r3]	@ zero_extendqisi2
 1434 0130 D2B2     		uxtb	r2, r2
 1435 0132 534B     		ldr	r3, .L160+24
 1436 0134 1A70     		strb	r2, [r3]
 227:.\Generated_Source\PSoC5/USBFS_std.c ****                         USBFS_currentTD.pData = &USBFS_tBuffer[0u];
 1437              		.loc 1 227 0
 1438 0136 0022     		movs	r2, #0
 1439 0138 5A70     		strb	r2, [r3, #1]
 228:.\Generated_Source\PSoC5/USBFS_std.c ****                         
 1440              		.loc 1 228 0
 1441 013a 4B60     		str	r3, [r1, #4]
 230:.\Generated_Source\PSoC5/USBFS_std.c ****                         break;
 1442              		.loc 1 230 0
 1443 013c FFF7FEFF 		bl	USBFS_InitControlRead
 1444              	.LVL141:
 231:.\Generated_Source\PSoC5/USBFS_std.c ****                     default:    /* requestHandled is initialized as FALSE by default */
 1445              		.loc 1 231 0
ARM GAS  C:\Users\Patrick\AppData\Local\Temp\ccvH7eQO.s 			page 51


 1446 0140 10BD     		pop	{r4, pc}
 1447              	.LVL142:
 1448              	.L110:
 238:.\Generated_Source\PSoC5/USBFS_std.c ****                 USBFS_currentTD.pData = (volatile uint8 *) &USBFS_configuration;
 1449              		.loc 1 238 0
 1450 0142 4A4B     		ldr	r3, .L160+4
 1451              	.LVL143:
 1452 0144 0122     		movs	r2, #1
 1453 0146 1A80     		strh	r2, [r3]	@ movhi
 239:.\Generated_Source\PSoC5/USBFS_std.c ****                 requestHandled  = USBFS_InitControlRead();
 1454              		.loc 1 239 0
 1455 0148 4F4A     		ldr	r2, .L160+32
 1456 014a 5A60     		str	r2, [r3, #4]
 240:.\Generated_Source\PSoC5/USBFS_std.c ****                 break;
 1457              		.loc 1 240 0
 1458 014c FFF7FEFF 		bl	USBFS_InitControlRead
 1459              	.LVL144:
 241:.\Generated_Source\PSoC5/USBFS_std.c ****                 
 1460              		.loc 1 241 0
 1461 0150 10BD     		pop	{r4, pc}
 1462              	.LVL145:
 1463              	.L111:
 244:.\Generated_Source\PSoC5/USBFS_std.c ****                 USBFS_currentTD.pData = (volatile uint8 *) &USBFS_interfaceSetting[USBFS_wIndexLoRe
 1464              		.loc 1 244 0
 1465 0152 464A     		ldr	r2, .L160+4
 1466 0154 0123     		movs	r3, #1
 1467              	.LVL146:
 1468 0156 1380     		strh	r3, [r2]	@ movhi
 245:.\Generated_Source\PSoC5/USBFS_std.c ****                 requestHandled  = USBFS_InitControlRead();
 1469              		.loc 1 245 0
 1470 0158 434B     		ldr	r3, .L160
 1471 015a 1B79     		ldrb	r3, [r3, #4]	@ zero_extendqisi2
 1472 015c 4B49     		ldr	r1, .L160+36
 1473 015e 0B44     		add	r3, r3, r1
 1474 0160 5360     		str	r3, [r2, #4]
 246:.\Generated_Source\PSoC5/USBFS_std.c ****                 break;
 1475              		.loc 1 246 0
 1476 0162 FFF7FEFF 		bl	USBFS_InitControlRead
 1477              	.LVL147:
 247:.\Generated_Source\PSoC5/USBFS_std.c ****                 
 1478              		.loc 1 247 0
 1479 0166 10BD     		pop	{r4, pc}
 1480              	.LVL148:
 1481              	.L105:
 256:.\Generated_Source\PSoC5/USBFS_std.c ****         {
 1482              		.loc 1 256 0
 1483 0168 3F4A     		ldr	r2, .L160
 1484 016a 5278     		ldrb	r2, [r2, #1]	@ zero_extendqisi2
 1485 016c 013A     		subs	r2, r2, #1
 1486 016e 0A2A     		cmp	r2, #10
 1487 0170 00F2CD80 		bhi	.L144
 1488 0174 DFE812F0 		tbh	[pc, r2, lsl #1]
 1489              	.L122:
 1490 0178 4B00     		.2byte	(.L121-.L122)/2
 1491 017a CB00     		.2byte	(.L144-.L122)/2
 1492 017c 9600     		.2byte	(.L123-.L122)/2
 1493 017e CB00     		.2byte	(.L144-.L122)/2
ARM GAS  C:\Users\Patrick\AppData\Local\Temp\ccvH7eQO.s 			page 52


 1494 0180 0B00     		.2byte	(.L124-.L122)/2
 1495 0182 CB00     		.2byte	(.L144-.L122)/2
 1496 0184 CB00     		.2byte	(.L144-.L122)/2
 1497 0186 CB00     		.2byte	(.L144-.L122)/2
 1498 0188 1300     		.2byte	(.L125-.L122)/2
 1499 018a CB00     		.2byte	(.L144-.L122)/2
 1500 018c 3000     		.2byte	(.L126-.L122)/2
 1501              		.p2align 1
 1502              	.L124:
 260:.\Generated_Source\PSoC5/USBFS_std.c ****                 requestHandled = USBFS_InitNoDataControlTransfer();
 1503              		.loc 1 260 0
 1504 018e 364B     		ldr	r3, .L160
 1505              	.LVL149:
 1506 0190 9B78     		ldrb	r3, [r3, #2]	@ zero_extendqisi2
 1507 0192 DBB2     		uxtb	r3, r3
 1508 0194 3E4A     		ldr	r2, .L160+40
 1509 0196 1370     		strb	r3, [r2]
 261:.\Generated_Source\PSoC5/USBFS_std.c ****                 break;
 1510              		.loc 1 261 0
 1511 0198 FFF7FEFF 		bl	USBFS_InitNoDataControlTransfer
 1512              	.LVL150:
 262:.\Generated_Source\PSoC5/USBFS_std.c ****                 
 1513              		.loc 1 262 0
 1514 019c 10BD     		pop	{r4, pc}
 1515              	.LVL151:
 1516              	.L125:
 265:.\Generated_Source\PSoC5/USBFS_std.c ****                 
 1517              		.loc 1 265 0
 1518 019e 324B     		ldr	r3, .L160
 1519              	.LVL152:
 1520 01a0 9B78     		ldrb	r3, [r3, #2]	@ zero_extendqisi2
 1521              	.LVL153:
 268:.\Generated_Source\PSoC5/USBFS_std.c ****                 {
 1522              		.loc 1 268 0
 1523 01a2 03F0FF04 		and	r4, r3, #255
 1524 01a6 1BB1     		cbz	r3, .L127
 270:.\Generated_Source\PSoC5/USBFS_std.c ****                 }
 1525              		.loc 1 270 0
 1526 01a8 601E     		subs	r0, r4, #1
 1527 01aa C0B2     		uxtb	r0, r0
 1528 01ac FFF7FEFF 		bl	USBFS_GetConfigTablePtr
 1529              	.LVL154:
 1530              	.L127:
 274:.\Generated_Source\PSoC5/USBFS_std.c ****                 {
 1531              		.loc 1 274 0
 1532 01b0 04B1     		cbz	r4, .L128
 274:.\Generated_Source\PSoC5/USBFS_std.c ****                 {
 1533              		.loc 1 274 0 is_stmt 0 discriminator 1
 1534 01b2 10B9     		cbnz	r0, .L129
 1535              	.L128:
 274:.\Generated_Source\PSoC5/USBFS_std.c ****                 {
 1536              		.loc 1 274 0 discriminator 3
 1537 01b4 002C     		cmp	r4, #0
 1538 01b6 40F0AC80 		bne	.L145
 1539              	.L129:
 277:.\Generated_Source\PSoC5/USBFS_std.c ****                     {
 1540              		.loc 1 277 0 is_stmt 1
ARM GAS  C:\Users\Patrick\AppData\Local\Temp\ccvH7eQO.s 			page 53


 1541 01ba 334B     		ldr	r3, .L160+32
 1542 01bc 1B78     		ldrb	r3, [r3]	@ zero_extendqisi2
 1543 01be DBB2     		uxtb	r3, r3
 1544 01c0 9C42     		cmp	r4, r3
 1545 01c2 06D0     		beq	.L130
 279:.\Generated_Source\PSoC5/USBFS_std.c ****                         USBFS_configurationChanged = USBFS_TRUE;
 1546              		.loc 1 279 0
 1547 01c4 304B     		ldr	r3, .L160+32
 1548 01c6 1C70     		strb	r4, [r3]
 280:.\Generated_Source\PSoC5/USBFS_std.c ****                         USBFS_Config(USBFS_TRUE);
 1549              		.loc 1 280 0
 1550 01c8 0120     		movs	r0, #1
 1551              	.LVL155:
 1552 01ca 324B     		ldr	r3, .L160+44
 1553 01cc 1870     		strb	r0, [r3]
 281:.\Generated_Source\PSoC5/USBFS_std.c ****                     }
 1554              		.loc 1 281 0
 1555 01ce FFF7FEFF 		bl	USBFS_Config
 1556              	.LVL156:
 1557              	.L130:
 283:.\Generated_Source\PSoC5/USBFS_std.c ****                 }
 1558              		.loc 1 283 0
 1559 01d2 FFF7FEFF 		bl	USBFS_InitNoDataControlTransfer
 1560              	.LVL157:
 1561 01d6 10BD     		pop	{r4, pc}
 1562              	.LVL158:
 1563              	.L126:
 288:.\Generated_Source\PSoC5/USBFS_std.c ****                 {
 1564              		.loc 1 288 0
 1565 01d8 FFF7FEFF 		bl	USBFS_ValidateAlternateSetting
 1566              	.LVL159:
 1567 01dc 0028     		cmp	r0, #0
 1568 01de 00F09A80 		beq	.L146
 291:.\Generated_Source\PSoC5/USBFS_std.c ****                     USBFS_interfaceNumber = (uint8) USBFS_wIndexLoReg;
 1569              		.loc 1 291 0
 1570 01e2 214A     		ldr	r2, .L160
 1571 01e4 1379     		ldrb	r3, [r2, #4]	@ zero_extendqisi2
 1572 01e6 DBB2     		uxtb	r3, r3
 1573              	.LVL160:
 292:.\Generated_Source\PSoC5/USBFS_std.c ****                      
 1574              		.loc 1 292 0
 1575 01e8 1279     		ldrb	r2, [r2, #4]	@ zero_extendqisi2
 1576 01ea D2B2     		uxtb	r2, r2
 1577 01ec 2A49     		ldr	r1, .L160+48
 1578 01ee 0A70     		strb	r2, [r1]
 295:.\Generated_Source\PSoC5/USBFS_std.c ****                     {
 1579              		.loc 1 295 0
 1580 01f0 2A4A     		ldr	r2, .L160+52
 1581 01f2 D25C     		ldrb	r2, [r2, r3]	@ zero_extendqisi2
 1582 01f4 2549     		ldr	r1, .L160+36
 1583 01f6 C95C     		ldrb	r1, [r1, r3]	@ zero_extendqisi2
 1584 01f8 D3B2     		uxtb	r3, r2
 1585              	.LVL161:
 1586 01fa 8B42     		cmp	r3, r1
 1587 01fc 04D0     		beq	.L131
 297:.\Generated_Source\PSoC5/USBFS_std.c ****                     
 1588              		.loc 1 297 0
ARM GAS  C:\Users\Patrick\AppData\Local\Temp\ccvH7eQO.s 			page 54


 1589 01fe 0122     		movs	r2, #1
 1590 0200 244B     		ldr	r3, .L160+44
 1591 0202 1A70     		strb	r2, [r3]
 303:.\Generated_Source\PSoC5/USBFS_std.c ****                     #endif /* (USBFS_EP_MANAGEMENT_MANUAL && USBFS_EP_ALLOC_DYNAMIC) */
 1592              		.loc 1 303 0
 1593 0204 FFF7FEFF 		bl	USBFS_ConfigAltChanged
 1594              	.LVL162:
 1595              	.L131:
 307:.\Generated_Source\PSoC5/USBFS_std.c ****                 }
 1596              		.loc 1 307 0
 1597 0208 FFF7FEFF 		bl	USBFS_InitNoDataControlTransfer
 1598              	.LVL163:
 1599 020c 10BD     		pop	{r4, pc}
 1600              	.LVL164:
 1601              	.L121:
 312:.\Generated_Source\PSoC5/USBFS_std.c ****                 {
 1602              		.loc 1 312 0
 1603 020e 03F00303 		and	r3, r3, #3
 1604              	.LVL165:
 1605 0212 012B     		cmp	r3, #1
 1606 0214 17D0     		beq	.L132
 1607 0216 4BB1     		cbz	r3, .L133
 1608 0218 022B     		cmp	r3, #2
 1609 021a 7ED1     		bne	.L157
 315:.\Generated_Source\PSoC5/USBFS_std.c ****                         {
 1610              		.loc 1 315 0
 1611 021c 124B     		ldr	r3, .L160
 1612 021e 9B78     		ldrb	r3, [r3, #2]	@ zero_extendqisi2
 1613 0220 13F0FF0F 		tst	r3, #255
 1614 0224 7BD1     		bne	.L148
 317:.\Generated_Source\PSoC5/USBFS_std.c ****                         }
 1615              		.loc 1 317 0
 1616 0226 FFF7FEFF 		bl	USBFS_ClearEndpointHalt
 1617              	.LVL166:
 1618 022a 10BD     		pop	{r4, pc}
 1619              	.LVL167:
 1620              	.L133:
 322:.\Generated_Source\PSoC5/USBFS_std.c ****                         {
 1621              		.loc 1 322 0
 1622 022c 0E4B     		ldr	r3, .L160
 1623 022e 9B78     		ldrb	r3, [r3, #2]	@ zero_extendqisi2
 1624 0230 DBB2     		uxtb	r3, r3
 1625 0232 012B     		cmp	r3, #1
 1626 0234 75D1     		bne	.L149
 324:.\Generated_Source\PSoC5/USBFS_std.c ****                             requestHandled = USBFS_InitNoDataControlTransfer();
 1627              		.loc 1 324 0
 1628 0236 134A     		ldr	r2, .L160+28
 1629 0238 1378     		ldrb	r3, [r2]	@ zero_extendqisi2
 1630 023a 03F0FD03 		and	r3, r3, #253
 1631 023e 1370     		strb	r3, [r2]
 325:.\Generated_Source\PSoC5/USBFS_std.c ****                         }
 1632              		.loc 1 325 0
 1633 0240 FFF7FEFF 		bl	USBFS_InitNoDataControlTransfer
 1634              	.LVL168:
 1635 0244 10BD     		pop	{r4, pc}
 1636              	.LVL169:
 1637              	.L132:
ARM GAS  C:\Users\Patrick\AppData\Local\Temp\ccvH7eQO.s 			page 55


 330:.\Generated_Source\PSoC5/USBFS_std.c ****                         {
 1638              		.loc 1 330 0
 1639 0246 084B     		ldr	r3, .L160
 1640 0248 1B79     		ldrb	r3, [r3, #4]	@ zero_extendqisi2
 1641 024a 13F0FF0F 		tst	r3, #255
 1642 024e 6AD1     		bne	.L150
 332:.\Generated_Source\PSoC5/USBFS_std.c ****                             requestHandled = USBFS_InitNoDataControlTransfer();
 1643              		.loc 1 332 0
 1644 0250 054B     		ldr	r3, .L160
 1645 0252 9878     		ldrb	r0, [r3, #2]	@ zero_extendqisi2
 1646 0254 1B79     		ldrb	r3, [r3, #4]	@ zero_extendqisi2
 1647 0256 DBB2     		uxtb	r3, r3
 1648 0258 1149     		ldr	r1, .L160+56
 1649 025a CA5C     		ldrb	r2, [r1, r3]	@ zero_extendqisi2
 1650 025c 22EA0002 		bic	r2, r2, r0
 1651 0260 CA54     		strb	r2, [r1, r3]
 333:.\Generated_Source\PSoC5/USBFS_std.c ****                         }
 1652              		.loc 1 333 0
 1653 0262 FFF7FEFF 		bl	USBFS_InitNoDataControlTransfer
 1654              	.LVL170:
 1655 0266 10BD     		pop	{r4, pc}
 1656              	.L161:
 1657              		.align	2
 1658              	.L160:
 1659 0268 00600040 		.word	1073766400
 1660 026c 00000000 		.word	USBFS_currentTD
 1661 0270 00000000 		.word	USBFS_STRING_DESCRIPTORS
 1662 0274 00000000 		.word	USBFS_DEVICE0_DESCR
 1663 0278 00000000 		.word	USBFS_SN_STRING_DESCRIPTOR
 1664 027c 00000000 		.word	USBFS_EP
 1665 0280 00000000 		.word	.LANCHOR0
 1666 0284 00000000 		.word	USBFS_deviceStatus
 1667 0288 00000000 		.word	USBFS_configuration
 1668 028c 00000000 		.word	USBFS_interfaceSetting
 1669 0290 00000000 		.word	USBFS_deviceAddress
 1670 0294 00000000 		.word	USBFS_configurationChanged
 1671 0298 00000000 		.word	USBFS_interfaceNumber
 1672 029c 00000000 		.word	USBFS_interfaceSettingLast
 1673 02a0 00000000 		.word	USBFS_interfaceStatus
 1674              	.LVL171:
 1675              	.L123:
 342:.\Generated_Source\PSoC5/USBFS_std.c ****                 {
 1676              		.loc 1 342 0
 1677 02a4 03F00303 		and	r3, r3, #3
 1678              	.LVL172:
 1679 02a8 012B     		cmp	r3, #1
 1680 02aa 17D0     		beq	.L135
 1681 02ac 4BB1     		cbz	r3, .L136
 1682 02ae 022B     		cmp	r3, #2
 1683 02b0 3BD1     		bne	.L158
 345:.\Generated_Source\PSoC5/USBFS_std.c ****                         {
 1684              		.loc 1 345 0
 1685 02b2 224B     		ldr	r3, .L162
 1686 02b4 9B78     		ldrb	r3, [r3, #2]	@ zero_extendqisi2
 1687 02b6 13F0FF0F 		tst	r3, #255
 1688 02ba 38D1     		bne	.L152
 347:.\Generated_Source\PSoC5/USBFS_std.c ****                         }
ARM GAS  C:\Users\Patrick\AppData\Local\Temp\ccvH7eQO.s 			page 56


 1689              		.loc 1 347 0
 1690 02bc FFF7FEFF 		bl	USBFS_SetEndpointHalt
 1691              	.LVL173:
 1692 02c0 10BD     		pop	{r4, pc}
 1693              	.LVL174:
 1694              	.L136:
 353:.\Generated_Source\PSoC5/USBFS_std.c ****                         {
 1695              		.loc 1 353 0
 1696 02c2 1E4B     		ldr	r3, .L162
 1697 02c4 9B78     		ldrb	r3, [r3, #2]	@ zero_extendqisi2
 1698 02c6 DBB2     		uxtb	r3, r3
 1699 02c8 012B     		cmp	r3, #1
 1700 02ca 32D1     		bne	.L153
 355:.\Generated_Source\PSoC5/USBFS_std.c ****                             requestHandled = USBFS_InitNoDataControlTransfer();
 1701              		.loc 1 355 0
 1702 02cc 1C4A     		ldr	r2, .L162+4
 1703 02ce 1378     		ldrb	r3, [r2]	@ zero_extendqisi2
 1704 02d0 43F00203 		orr	r3, r3, #2
 1705 02d4 1370     		strb	r3, [r2]
 356:.\Generated_Source\PSoC5/USBFS_std.c ****                         }
 1706              		.loc 1 356 0
 1707 02d6 FFF7FEFF 		bl	USBFS_InitNoDataControlTransfer
 1708              	.LVL175:
 1709 02da 10BD     		pop	{r4, pc}
 1710              	.LVL176:
 1711              	.L135:
 362:.\Generated_Source\PSoC5/USBFS_std.c ****                         {
 1712              		.loc 1 362 0
 1713 02dc 174B     		ldr	r3, .L162
 1714 02de 1B79     		ldrb	r3, [r3, #4]	@ zero_extendqisi2
 1715 02e0 13F0FF0F 		tst	r3, #255
 1716 02e4 27D1     		bne	.L154
 364:.\Generated_Source\PSoC5/USBFS_std.c ****                             requestHandled = USBFS_InitNoDataControlTransfer();
 1717              		.loc 1 364 0
 1718 02e6 154B     		ldr	r3, .L162
 1719 02e8 9878     		ldrb	r0, [r3, #2]	@ zero_extendqisi2
 1720 02ea 1B79     		ldrb	r3, [r3, #4]	@ zero_extendqisi2
 1721 02ec DBB2     		uxtb	r3, r3
 1722 02ee 1549     		ldr	r1, .L162+8
 1723 02f0 CA5C     		ldrb	r2, [r1, r3]	@ zero_extendqisi2
 1724 02f2 22EA0002 		bic	r2, r2, r0
 1725 02f6 CA54     		strb	r2, [r1, r3]
 365:.\Generated_Source\PSoC5/USBFS_std.c ****                         }
 1726              		.loc 1 365 0
 1727 02f8 FFF7FEFF 		bl	USBFS_InitNoDataControlTransfer
 1728              	.LVL177:
 1729 02fc 10BD     		pop	{r4, pc}
 1730              	.LVL178:
 1731              	.L138:
  86:.\Generated_Source\PSoC5/USBFS_std.c ****     uint8 interfaceNumber;
 1732              		.loc 1 86 0
 1733 02fe 0020     		movs	r0, #0
 1734 0300 10BD     		pop	{r4, pc}
 1735              	.LVL179:
 1736              	.L139:
 1737 0302 0020     		movs	r0, #0
 1738              	.LVL180:
ARM GAS  C:\Users\Patrick\AppData\Local\Temp\ccvH7eQO.s 			page 57


 1739 0304 10BD     		pop	{r4, pc}
 1740              	.LVL181:
 1741              	.L142:
 1742 0306 0020     		movs	r0, #0
 1743 0308 10BD     		pop	{r4, pc}
 1744              	.LVL182:
 1745              	.L156:
 1746 030a 0020     		movs	r0, #0
 1747 030c 10BD     		pop	{r4, pc}
 1748              	.LVL183:
 1749              	.L144:
 1750 030e 0020     		movs	r0, #0
 1751 0310 10BD     		pop	{r4, pc}
 1752              	.LVL184:
 1753              	.L145:
 1754 0312 0020     		movs	r0, #0
 1755              	.LVL185:
 1756 0314 10BD     		pop	{r4, pc}
 1757              	.L146:
 1758 0316 0020     		movs	r0, #0
 1759 0318 10BD     		pop	{r4, pc}
 1760              	.L157:
 1761 031a 0020     		movs	r0, #0
 1762 031c 10BD     		pop	{r4, pc}
 1763              	.L148:
 1764 031e 0020     		movs	r0, #0
 1765 0320 10BD     		pop	{r4, pc}
 1766              	.L149:
 1767 0322 0020     		movs	r0, #0
 1768 0324 10BD     		pop	{r4, pc}
 1769              	.L150:
 1770 0326 0020     		movs	r0, #0
 1771 0328 10BD     		pop	{r4, pc}
 1772              	.L158:
 1773 032a 0020     		movs	r0, #0
 1774 032c 10BD     		pop	{r4, pc}
 1775              	.L152:
 1776 032e 0020     		movs	r0, #0
 1777 0330 10BD     		pop	{r4, pc}
 1778              	.L153:
 1779 0332 0020     		movs	r0, #0
 1780 0334 10BD     		pop	{r4, pc}
 1781              	.L154:
 1782 0336 0020     		movs	r0, #0
 1783              	.LVL186:
 380:.\Generated_Source\PSoC5/USBFS_std.c **** 
 1784              		.loc 1 380 0
 1785 0338 10BD     		pop	{r4, pc}
 1786              	.L163:
 1787 033a 00BF     		.align	2
 1788              	.L162:
 1789 033c 00600040 		.word	1073766400
 1790 0340 00000000 		.word	USBFS_deviceStatus
 1791 0344 00000000 		.word	USBFS_interfaceStatus
 1792              		.cfi_endproc
 1793              	.LFE0:
 1794              		.size	USBFS_HandleStandardRqst, .-USBFS_HandleStandardRqst
ARM GAS  C:\Users\Patrick\AppData\Local\Temp\ccvH7eQO.s 			page 58


 1795              		.bss
 1796              		.align	2
 1797              		.set	.LANCHOR0,. + 0
 1798              		.type	USBFS_tBuffer.5070, %object
 1799              		.size	USBFS_tBuffer.5070, 2
 1800              	USBFS_tBuffer.5070:
 1801 0000 0000     		.space	2
 1802 0002 0000     		.text
 1803              	.Letext0:
 1804              		.file 2 ".\\Generated_Source\\PSoC5\\cytypes.h"
 1805              		.file 3 ".\\Generated_Source\\PSoC5\\USBFS.h"
 1806              		.file 4 ".\\Generated_Source\\PSoC5\\USBFS_pvt.h"