ARM GAS  C:\Users\Patrick\AppData\Local\Temp\cc4CvmVx.s 			page 1


   1              		.syntax unified
   2              		.cpu cortex-m3
   3              		.fpu softvfp
   4              		.eabi_attribute 20, 1
   5              		.eabi_attribute 21, 1
   6              		.eabi_attribute 23, 3
   7              		.eabi_attribute 24, 1
   8              		.eabi_attribute 25, 1
   9              		.eabi_attribute 26, 1
  10              		.eabi_attribute 30, 1
  11              		.eabi_attribute 34, 1
  12              		.eabi_attribute 18, 4
  13              		.thumb
  14              		.file	"USBFS.c"
  15              		.text
  16              	.Ltext0:
  17              		.cfi_sections	.debug_frame
  18              		.section	.text.USBFS_Init,"ax",%progbits
  19              		.align	2
  20              		.global	USBFS_Init
  21              		.thumb
  22              		.thumb_func
  23              		.type	USBFS_Init, %function
  24              	USBFS_Init:
  25              	.LFB1:
  26              		.file 1 ".\\Generated_Source\\PSoC5\\USBFS.c"
   1:.\Generated_Source\PSoC5/USBFS.c **** /***************************************************************************//**
   2:.\Generated_Source\PSoC5/USBFS.c **** * \file USBFS.c
   3:.\Generated_Source\PSoC5/USBFS.c **** * \version 3.0
   4:.\Generated_Source\PSoC5/USBFS.c **** *
   5:.\Generated_Source\PSoC5/USBFS.c **** * \brief
   6:.\Generated_Source\PSoC5/USBFS.c **** *  This file contains the global USBFS API functions.
   7:.\Generated_Source\PSoC5/USBFS.c **** *
   8:.\Generated_Source\PSoC5/USBFS.c **** * Note:
   9:.\Generated_Source\PSoC5/USBFS.c **** *  Many of the functions use an endpoint number. SRAM arrays are sized with 9
  10:.\Generated_Source\PSoC5/USBFS.c **** *  elements, so they are indexed directly by epNumber.  The SIE and ARB
  11:.\Generated_Source\PSoC5/USBFS.c **** *  registers are indexed by variations of epNumber - 1.
  12:.\Generated_Source\PSoC5/USBFS.c **** *
  13:.\Generated_Source\PSoC5/USBFS.c **** ********************************************************************************
  14:.\Generated_Source\PSoC5/USBFS.c **** * \copyright
  15:.\Generated_Source\PSoC5/USBFS.c **** * Copyright 2008-2015, Cypress Semiconductor Corporation.  All rights reserved.
  16:.\Generated_Source\PSoC5/USBFS.c **** * You may use this file only in accordance with the license, terms, conditions,
  17:.\Generated_Source\PSoC5/USBFS.c **** * disclaimers, and limitations in the end user license agreement accompanying
  18:.\Generated_Source\PSoC5/USBFS.c **** * the software package with which this file was provided.
  19:.\Generated_Source\PSoC5/USBFS.c **** *******************************************************************************/
  20:.\Generated_Source\PSoC5/USBFS.c **** 
  21:.\Generated_Source\PSoC5/USBFS.c **** #include "USBFS_pvt.h"
  22:.\Generated_Source\PSoC5/USBFS.c **** #include "USBFS_cydmac.h"
  23:.\Generated_Source\PSoC5/USBFS.c **** #include "USBFS_hid.h"
  24:.\Generated_Source\PSoC5/USBFS.c **** 
  25:.\Generated_Source\PSoC5/USBFS.c **** 
  26:.\Generated_Source\PSoC5/USBFS.c **** /***************************************
  27:.\Generated_Source\PSoC5/USBFS.c **** * Global data allocation
  28:.\Generated_Source\PSoC5/USBFS.c **** ***************************************/
  29:.\Generated_Source\PSoC5/USBFS.c **** 
  30:.\Generated_Source\PSoC5/USBFS.c **** /** Indicates whether the USBFS has been initialized. The variable is
  31:.\Generated_Source\PSoC5/USBFS.c **** * initialized to 0 after device reset and set to 1 the first time USBFS_Start()
ARM GAS  C:\Users\Patrick\AppData\Local\Temp\cc4CvmVx.s 			page 2


  32:.\Generated_Source\PSoC5/USBFS.c **** * is called. This allows the Component to restart without reinitialization after
  33:.\Generated_Source\PSoC5/USBFS.c **** * the first call to the USBFS_Start() routine.
  34:.\Generated_Source\PSoC5/USBFS.c **** * If re-initialization of the Component is required, the variable should be set
  35:.\Generated_Source\PSoC5/USBFS.c **** * to 0 before the USBFS_Start() routine is called. Alternatively, the USBFS can
  36:.\Generated_Source\PSoC5/USBFS.c **** * be reinitialized by calling both USBFS_Init() and USBFS_InitComponent()
  37:.\Generated_Source\PSoC5/USBFS.c **** * functions.
  38:.\Generated_Source\PSoC5/USBFS.c **** */
  39:.\Generated_Source\PSoC5/USBFS.c **** uint8 USBFS_initVar = 0u;
  40:.\Generated_Source\PSoC5/USBFS.c **** 
  41:.\Generated_Source\PSoC5/USBFS.c **** #if (USBFS_EP_MANAGEMENT_DMA)
  42:.\Generated_Source\PSoC5/USBFS.c ****     #if (CY_PSOC4)
  43:.\Generated_Source\PSoC5/USBFS.c ****         static void USBFS_InitEpDma(void);
  44:.\Generated_Source\PSoC5/USBFS.c **** 
  45:.\Generated_Source\PSoC5/USBFS.c ****         /* DMA chanels assigend for endpoints. */
  46:.\Generated_Source\PSoC5/USBFS.c ****         const uint8 USBFS_DmaChan[USBFS_MAX_EP] =
  47:.\Generated_Source\PSoC5/USBFS.c ****         {
  48:.\Generated_Source\PSoC5/USBFS.c ****             0u,
  49:.\Generated_Source\PSoC5/USBFS.c ****             0u,
  50:.\Generated_Source\PSoC5/USBFS.c ****             0u,
  51:.\Generated_Source\PSoC5/USBFS.c ****             0u,
  52:.\Generated_Source\PSoC5/USBFS.c ****             0u,
  53:.\Generated_Source\PSoC5/USBFS.c ****             0u,
  54:.\Generated_Source\PSoC5/USBFS.c ****             0u,
  55:.\Generated_Source\PSoC5/USBFS.c ****             0u,
  56:.\Generated_Source\PSoC5/USBFS.c ****             0u,
  57:.\Generated_Source\PSoC5/USBFS.c ****         };        
  58:.\Generated_Source\PSoC5/USBFS.c ****     #else
  59:.\Generated_Source\PSoC5/USBFS.c ****         /* DMA chanels assigend for endpoints. */
  60:.\Generated_Source\PSoC5/USBFS.c ****         uint8 USBFS_DmaChan[USBFS_MAX_EP];
  61:.\Generated_Source\PSoC5/USBFS.c ****         
  62:.\Generated_Source\PSoC5/USBFS.c ****         /* DMA TDs require for PSoC 3/5LP operation. */
  63:.\Generated_Source\PSoC5/USBFS.c ****         uint8 USBFS_DmaTd[USBFS_MAX_EP];
  64:.\Generated_Source\PSoC5/USBFS.c ****     #endif /* (CY_PSOC4) */
  65:.\Generated_Source\PSoC5/USBFS.c **** #endif /* (USBFS_EP_MANAGEMENT_DMA) */
  66:.\Generated_Source\PSoC5/USBFS.c **** 
  67:.\Generated_Source\PSoC5/USBFS.c **** #if (USBFS_EP_MANAGEMENT_DMA_AUTO)
  68:.\Generated_Source\PSoC5/USBFS.c **** #if (CY_PSOC4)
  69:.\Generated_Source\PSoC5/USBFS.c ****     /* Number of DMA bursts. */
  70:.\Generated_Source\PSoC5/USBFS.c ****     uint8  USBFS_DmaEpBurstCnt   [USBFS_MAX_EP];
  71:.\Generated_Source\PSoC5/USBFS.c ****     
  72:.\Generated_Source\PSoC5/USBFS.c ****     /* Number of bytes to transfer in last DMA burst. */
  73:.\Generated_Source\PSoC5/USBFS.c ****     uint8  USBFS_DmaEpLastBurstEl[USBFS_MAX_EP];
  74:.\Generated_Source\PSoC5/USBFS.c **** 
  75:.\Generated_Source\PSoC5/USBFS.c ****     /* Storage for arrays above. */
  76:.\Generated_Source\PSoC5/USBFS.c ****     uint8  USBFS_DmaEpBurstCntBackup  [USBFS_MAX_EP];
  77:.\Generated_Source\PSoC5/USBFS.c ****     uint32 USBFS_DmaEpBufferAddrBackup[USBFS_MAX_EP];
  78:.\Generated_Source\PSoC5/USBFS.c ****      
  79:.\Generated_Source\PSoC5/USBFS.c ****     /* DMA trigger mux output for usb.dma_req[0-7]. */
  80:.\Generated_Source\PSoC5/USBFS.c ****     const uint8 USBFS_DmaReqOut[USBFS_MAX_EP] =
  81:.\Generated_Source\PSoC5/USBFS.c ****     {
  82:.\Generated_Source\PSoC5/USBFS.c ****         0u,
  83:.\Generated_Source\PSoC5/USBFS.c ****         USBFS_ep1_dma__TR_OUTPUT,
  84:.\Generated_Source\PSoC5/USBFS.c ****         USBFS_ep2_dma__TR_OUTPUT,
  85:.\Generated_Source\PSoC5/USBFS.c ****         0u,
  86:.\Generated_Source\PSoC5/USBFS.c ****         0u,
  87:.\Generated_Source\PSoC5/USBFS.c ****         0u,
  88:.\Generated_Source\PSoC5/USBFS.c ****         0u,
ARM GAS  C:\Users\Patrick\AppData\Local\Temp\cc4CvmVx.s 			page 3


  89:.\Generated_Source\PSoC5/USBFS.c ****         0u,
  90:.\Generated_Source\PSoC5/USBFS.c ****         0u,
  91:.\Generated_Source\PSoC5/USBFS.c ****     };
  92:.\Generated_Source\PSoC5/USBFS.c **** 
  93:.\Generated_Source\PSoC5/USBFS.c ****     /* DMA trigger mux output for usb.dma_burstend[0-7]. */
  94:.\Generated_Source\PSoC5/USBFS.c ****     const uint8 USBFS_DmaBurstEndOut[USBFS_MAX_EP] =
  95:.\Generated_Source\PSoC5/USBFS.c ****     {
  96:.\Generated_Source\PSoC5/USBFS.c ****         0u,
  97:.\Generated_Source\PSoC5/USBFS.c ****         USBFS_BURSTEND_0_TR_OUTPUT,
  98:.\Generated_Source\PSoC5/USBFS.c ****         USBFS_BURSTEND_1_TR_OUTPUT,
  99:.\Generated_Source\PSoC5/USBFS.c ****         USBFS_BURSTEND_2_TR_OUTPUT,
 100:.\Generated_Source\PSoC5/USBFS.c ****         USBFS_BURSTEND_3_TR_OUTPUT,
 101:.\Generated_Source\PSoC5/USBFS.c ****         USBFS_BURSTEND_4_TR_OUTPUT,
 102:.\Generated_Source\PSoC5/USBFS.c ****         USBFS_BURSTEND_5_TR_OUTPUT,
 103:.\Generated_Source\PSoC5/USBFS.c ****         USBFS_BURSTEND_6_TR_OUTPUT,
 104:.\Generated_Source\PSoC5/USBFS.c ****         USBFS_BURSTEND_7_TR_OUTPUT
 105:.\Generated_Source\PSoC5/USBFS.c ****     };
 106:.\Generated_Source\PSoC5/USBFS.c ****     
 107:.\Generated_Source\PSoC5/USBFS.c **** #else
 108:.\Generated_Source\PSoC5/USBFS.c ****     #if (USBFS_EP_DMA_AUTO_OPT == 0u)
 109:.\Generated_Source\PSoC5/USBFS.c ****         static uint8 clearInDataRdyStatus = USBFS_ARB_EPX_CFG_DEFAULT;
 110:.\Generated_Source\PSoC5/USBFS.c ****         uint8 USBFS_DmaNextTd[USBFS_MAX_EP];
 111:.\Generated_Source\PSoC5/USBFS.c ****         const uint8 USBFS_epX_TD_TERMOUT_EN[USBFS_MAX_EP] =
 112:.\Generated_Source\PSoC5/USBFS.c ****         {
 113:.\Generated_Source\PSoC5/USBFS.c ****             0u,
 114:.\Generated_Source\PSoC5/USBFS.c ****             0u,
 115:.\Generated_Source\PSoC5/USBFS.c ****             0u,
 116:.\Generated_Source\PSoC5/USBFS.c ****             0u,
 117:.\Generated_Source\PSoC5/USBFS.c ****             0u,
 118:.\Generated_Source\PSoC5/USBFS.c ****             0u,
 119:.\Generated_Source\PSoC5/USBFS.c ****             0u,
 120:.\Generated_Source\PSoC5/USBFS.c ****             0u,
 121:.\Generated_Source\PSoC5/USBFS.c ****             0u,
 122:.\Generated_Source\PSoC5/USBFS.c ****         };
 123:.\Generated_Source\PSoC5/USBFS.c **** 
 124:.\Generated_Source\PSoC5/USBFS.c ****         volatile uint16 USBFS_inLength[USBFS_MAX_EP];
 125:.\Generated_Source\PSoC5/USBFS.c ****         const uint8 *USBFS_inDataPointer[USBFS_MAX_EP];
 126:.\Generated_Source\PSoC5/USBFS.c ****         volatile uint8 USBFS_inBufFull[USBFS_MAX_EP];
 127:.\Generated_Source\PSoC5/USBFS.c ****     #endif /* (USBFS_EP_DMA_AUTO_OPT == 0u) */
 128:.\Generated_Source\PSoC5/USBFS.c **** #endif /* (CY_PSOC4) */
 129:.\Generated_Source\PSoC5/USBFS.c **** #endif /* (USBFS_EP_MANAGEMENT_DMA_AUTO) */
 130:.\Generated_Source\PSoC5/USBFS.c **** 
 131:.\Generated_Source\PSoC5/USBFS.c **** 
 132:.\Generated_Source\PSoC5/USBFS.c **** /*******************************************************************************
 133:.\Generated_Source\PSoC5/USBFS.c **** * Function Name: USBFS_Start
 134:.\Generated_Source\PSoC5/USBFS.c **** ****************************************************************************//**
 135:.\Generated_Source\PSoC5/USBFS.c **** *
 136:.\Generated_Source\PSoC5/USBFS.c **** *   This function performs all required initialization for the USBFS component.
 137:.\Generated_Source\PSoC5/USBFS.c **** *   After this function call, the USB device initiates communication with the
 138:.\Generated_Source\PSoC5/USBFS.c **** *   host by pull-up D+ line. This is the preferred method to begin component
 139:.\Generated_Source\PSoC5/USBFS.c **** *   operation.
 140:.\Generated_Source\PSoC5/USBFS.c **** *
 141:.\Generated_Source\PSoC5/USBFS.c **** *   Note that global interrupts have to be enabled because interrupts are
 142:.\Generated_Source\PSoC5/USBFS.c **** *   required for USBFS component operation.
 143:.\Generated_Source\PSoC5/USBFS.c **** *
 144:.\Generated_Source\PSoC5/USBFS.c **** *   PSoC 4200L devices: when USBFS component configured to DMA with Automatic
 145:.\Generated_Source\PSoC5/USBFS.c **** *   Buffer Management, the DMA interrupt priority is changed to the highest
ARM GAS  C:\Users\Patrick\AppData\Local\Temp\cc4CvmVx.s 			page 4


 146:.\Generated_Source\PSoC5/USBFS.c **** *   (priority 0) inside this function.
 147:.\Generated_Source\PSoC5/USBFS.c **** *
 148:.\Generated_Source\PSoC5/USBFS.c **** *   PSoC 3/PSoC 5LP devices: when USBFS component configured to DMA with
 149:.\Generated_Source\PSoC5/USBFS.c **** *   Automatic Buffer Management, the Arbiter interrupt priority is changed to
 150:.\Generated_Source\PSoC5/USBFS.c **** *   the highest (priority 0) inside this function.
 151:.\Generated_Source\PSoC5/USBFS.c **** *
 152:.\Generated_Source\PSoC5/USBFS.c **** *  \param device
 153:.\Generated_Source\PSoC5/USBFS.c **** *          Contains the device number of the desired device descriptor.
 154:.\Generated_Source\PSoC5/USBFS.c **** *          The device number can be found in the Device Descriptor Tab of
 155:.\Generated_Source\PSoC5/USBFS.c **** *          "Configure" dialog, under the settings of desired Device Descriptor,
 156:.\Generated_Source\PSoC5/USBFS.c **** *          in the "Device Number" field.
 157:.\Generated_Source\PSoC5/USBFS.c **** *  \param mode:
 158:.\Generated_Source\PSoC5/USBFS.c **** *   The operating voltage. This determines whether the voltage regulator
 159:.\Generated_Source\PSoC5/USBFS.c **** *   is enabled for 5V operation or if pass through mode is used for 3.3V
 160:.\Generated_Source\PSoC5/USBFS.c **** *   operation. Symbolic names and their associated values are given in the
 161:.\Generated_Source\PSoC5/USBFS.c **** *   following list.
 162:.\Generated_Source\PSoC5/USBFS.c **** *
 163:.\Generated_Source\PSoC5/USBFS.c **** *       *USBFS_3V_OPERATION* - Disable voltage regulator and pass-
 164:.\Generated_Source\PSoC5/USBFS.c **** *                                      through Vcc for pull-up
 165:.\Generated_Source\PSoC5/USBFS.c **** *
 166:.\Generated_Source\PSoC5/USBFS.c **** *       *USBFS_5V_OPERATION* - Enable voltage regulator and use
 167:.\Generated_Source\PSoC5/USBFS.c **** *                                      regulator for pull-up
 168:.\Generated_Source\PSoC5/USBFS.c **** *
 169:.\Generated_Source\PSoC5/USBFS.c **** *       *USBFS_DWR_POWER_OPERATION* - Enable or disable the voltage
 170:.\Generated_Source\PSoC5/USBFS.c **** *                                      regulator depending on the power supply
 171:.\Generated_Source\PSoC5/USBFS.c **** *                                      voltage configuration in the DWR tab.
 172:.\Generated_Source\PSoC5/USBFS.c **** *                                      For PSoC 3/5LP devices, the VDDD supply
 173:.\Generated_Source\PSoC5/USBFS.c **** *                                      voltage is considered and for PSoC 4A-L,
 174:.\Generated_Source\PSoC5/USBFS.c **** *                                      the VBUS supply voltage is considered.*
 175:.\Generated_Source\PSoC5/USBFS.c **** * \globalvars
 176:.\Generated_Source\PSoC5/USBFS.c **** *  \ref USBFS_initVar
 177:.\Generated_Source\PSoC5/USBFS.c **** *
 178:.\Generated_Source\PSoC5/USBFS.c **** * \sideeffect
 179:.\Generated_Source\PSoC5/USBFS.c **** *   This function will reset all communication states to default.
 180:.\Generated_Source\PSoC5/USBFS.c **** *
 181:.\Generated_Source\PSoC5/USBFS.c **** * \reentrant
 182:.\Generated_Source\PSoC5/USBFS.c **** *  No.
 183:.\Generated_Source\PSoC5/USBFS.c **** *
 184:.\Generated_Source\PSoC5/USBFS.c **** *******************************************************************************/
 185:.\Generated_Source\PSoC5/USBFS.c **** void USBFS_Start(uint8 device, uint8 mode) 
 186:.\Generated_Source\PSoC5/USBFS.c **** {
 187:.\Generated_Source\PSoC5/USBFS.c ****     if (0u == USBFS_initVar)
 188:.\Generated_Source\PSoC5/USBFS.c ****     {
 189:.\Generated_Source\PSoC5/USBFS.c ****         USBFS_Init();
 190:.\Generated_Source\PSoC5/USBFS.c ****         USBFS_initVar = 1u;
 191:.\Generated_Source\PSoC5/USBFS.c ****     }
 192:.\Generated_Source\PSoC5/USBFS.c **** 
 193:.\Generated_Source\PSoC5/USBFS.c ****     USBFS_InitComponent(device, mode);
 194:.\Generated_Source\PSoC5/USBFS.c **** }
 195:.\Generated_Source\PSoC5/USBFS.c **** 
 196:.\Generated_Source\PSoC5/USBFS.c **** 
 197:.\Generated_Source\PSoC5/USBFS.c **** /*******************************************************************************
 198:.\Generated_Source\PSoC5/USBFS.c **** * Function Name: USBFS_Init
 199:.\Generated_Source\PSoC5/USBFS.c **** ****************************************************************************//**
 200:.\Generated_Source\PSoC5/USBFS.c **** *
 201:.\Generated_Source\PSoC5/USBFS.c **** * This function initializes or restores the component according to the
 202:.\Generated_Source\PSoC5/USBFS.c **** * customizer Configure dialog settings. It is not necessary to call
ARM GAS  C:\Users\Patrick\AppData\Local\Temp\cc4CvmVx.s 			page 5


 203:.\Generated_Source\PSoC5/USBFS.c **** * USBFS_Init() because the USBFS_Start() routine calls
 204:.\Generated_Source\PSoC5/USBFS.c **** * this function and is the preferred method to begin component operation.
 205:.\Generated_Source\PSoC5/USBFS.c **** *
 206:.\Generated_Source\PSoC5/USBFS.c **** * \reentrant
 207:.\Generated_Source\PSoC5/USBFS.c **** *  No.
 208:.\Generated_Source\PSoC5/USBFS.c **** *
 209:.\Generated_Source\PSoC5/USBFS.c **** *******************************************************************************/
 210:.\Generated_Source\PSoC5/USBFS.c **** void USBFS_Init(void) 
 211:.\Generated_Source\PSoC5/USBFS.c **** {
  27              		.loc 1 211 0
  28              		.cfi_startproc
  29              		@ args = 0, pretend = 0, frame = 0
  30              		@ frame_needed = 0, uses_anonymous_args = 0
  31 0000 F8B5     		push	{r3, r4, r5, r6, r7, lr}
  32              		.cfi_def_cfa_offset 24
  33              		.cfi_offset 3, -24
  34              		.cfi_offset 4, -20
  35              		.cfi_offset 5, -16
  36              		.cfi_offset 6, -12
  37              		.cfi_offset 7, -8
  38              		.cfi_offset 14, -4
 212:.\Generated_Source\PSoC5/USBFS.c **** #if (CY_PSOC4)
 213:.\Generated_Source\PSoC5/USBFS.c ****     /* Enable clock to USB IP. */
 214:.\Generated_Source\PSoC5/USBFS.c ****     USBFS_USB_CLK_EN_REG = USBFS_USB_CLK_CSR_CLK_EN;
 215:.\Generated_Source\PSoC5/USBFS.c **** 
 216:.\Generated_Source\PSoC5/USBFS.c ****     /* The internal regulator (CR1.REG_ENABLE) is enabled in
 217:.\Generated_Source\PSoC5/USBFS.c ****     * USBFS_InitComponent() if it is required.
 218:.\Generated_Source\PSoC5/USBFS.c ****     */
 219:.\Generated_Source\PSoC5/USBFS.c **** 
 220:.\Generated_Source\PSoC5/USBFS.c ****     /* Enable USBIO control on drive mode of D+ and D- pins. */
 221:.\Generated_Source\PSoC5/USBFS.c ****     USBFS_USBIO_CR1_REG &= ~ (uint32) USBFS_USBIO_CR1_IOMODE;
 222:.\Generated_Source\PSoC5/USBFS.c **** 
 223:.\Generated_Source\PSoC5/USBFS.c ****     /* Set number of LF CLK to detect UBS bus reset. */
 224:.\Generated_Source\PSoC5/USBFS.c ****     USBFS_BUS_RST_CNT_REG = USBFS_DEFUALT_BUS_RST_CNT;
 225:.\Generated_Source\PSoC5/USBFS.c **** 
 226:.\Generated_Source\PSoC5/USBFS.c ****     /* Select VBUS detection source and clear PHY isolate. The application level
 227:.\Generated_Source\PSoC5/USBFS.c ****     * must ensure that VBUS is valid. There is no need to wait 2us before VBUS is valid.
 228:.\Generated_Source\PSoC5/USBFS.c ****     */
 229:.\Generated_Source\PSoC5/USBFS.c ****     USBFS_POWER_CTRL_REG = USBFS_DEFAULT_POWER_CTRL_VBUS;
 230:.\Generated_Source\PSoC5/USBFS.c **** 
 231:.\Generated_Source\PSoC5/USBFS.c ****     /* Enable PHY detector and single-ended and differential receivers. */
 232:.\Generated_Source\PSoC5/USBFS.c ****     USBFS_POWER_CTRL_REG |= USBFS_DEFAULT_POWER_CTRL_PHY;
 233:.\Generated_Source\PSoC5/USBFS.c **** 
 234:.\Generated_Source\PSoC5/USBFS.c ****     /* Suspend clear sequence. */
 235:.\Generated_Source\PSoC5/USBFS.c ****     USBFS_POWER_CTRL_REG &= (uint32) ~USBFS_POWER_CTRL_SUSPEND;
 236:.\Generated_Source\PSoC5/USBFS.c ****     CyDelayUs(USBFS_WAIT_SUSPEND_DEL_DISABLE);
 237:.\Generated_Source\PSoC5/USBFS.c ****     USBFS_POWER_CTRL_REG &= (uint32) ~USBFS_POWER_CTRL_SUSPEND_DEL;
 238:.\Generated_Source\PSoC5/USBFS.c **** 
 239:.\Generated_Source\PSoC5/USBFS.c ****     /* Sets IMO lock options and clear all other bits. */
 240:.\Generated_Source\PSoC5/USBFS.c ****     USBFS_CR1_REG = USBFS_DEFUALT_CR1;
 241:.\Generated_Source\PSoC5/USBFS.c **** 
 242:.\Generated_Source\PSoC5/USBFS.c ****     /* Configure level (hi, lo, med) for each interrupt source. */
 243:.\Generated_Source\PSoC5/USBFS.c ****     USBFS_INTR_LVL_SEL_REG = USBFS_DEFAULT_INTR_LVL_SEL;
 244:.\Generated_Source\PSoC5/USBFS.c **** 
 245:.\Generated_Source\PSoC5/USBFS.c ****     /* Configure interrupt sources from: SOF, Bus Reset and EP0. */
 246:.\Generated_Source\PSoC5/USBFS.c ****     USBFS_INTR_SIE_MASK_REG = USBFS_DEFAULT_INTR_SIE_MASK;
 247:.\Generated_Source\PSoC5/USBFS.c **** 
ARM GAS  C:\Users\Patrick\AppData\Local\Temp\cc4CvmVx.s 			page 6


 248:.\Generated_Source\PSoC5/USBFS.c **** #else
 249:.\Generated_Source\PSoC5/USBFS.c ****     uint8 enableInterrupts = CyEnterCriticalSection();
  39              		.loc 1 249 0
  40 0002 FFF7FEFF 		bl	CyEnterCriticalSection
  41              	.LVL0:
  42 0006 0646     		mov	r6, r0
  43              	.LVL1:
 250:.\Generated_Source\PSoC5/USBFS.c **** 
 251:.\Generated_Source\PSoC5/USBFS.c **** #if (USBFS_EP_MANAGEMENT_DMA)
 252:.\Generated_Source\PSoC5/USBFS.c ****     uint16 i;
 253:.\Generated_Source\PSoC5/USBFS.c **** #endif /* (USBFS_EP_MANAGEMENT_DMA) */
 254:.\Generated_Source\PSoC5/USBFS.c **** 
 255:.\Generated_Source\PSoC5/USBFS.c ****     /* Enable USB block. */
 256:.\Generated_Source\PSoC5/USBFS.c ****     USBFS_PM_ACT_CFG_REG |= USBFS_PM_ACT_EN_FSUSB;
  44              		.loc 1 256 0
  45 0008 384A     		ldr	r2, .L3
  46 000a 1378     		ldrb	r3, [r2]	@ zero_extendqisi2
  47 000c 43F00103 		orr	r3, r3, #1
  48 0010 1370     		strb	r3, [r2]
 257:.\Generated_Source\PSoC5/USBFS.c ****     /* Enable USB block for Standby Power Mode. */
 258:.\Generated_Source\PSoC5/USBFS.c ****     USBFS_PM_STBY_CFG_REG |= USBFS_PM_STBY_EN_FSUSB;
  49              		.loc 1 258 0
  50 0012 1032     		adds	r2, r2, #16
  51 0014 1378     		ldrb	r3, [r2]	@ zero_extendqisi2
  52 0016 43F00103 		orr	r3, r3, #1
  53 001a 1370     		strb	r3, [r2]
 259:.\Generated_Source\PSoC5/USBFS.c **** 
 260:.\Generated_Source\PSoC5/USBFS.c ****     /* Enable core clock. */
 261:.\Generated_Source\PSoC5/USBFS.c ****     USBFS_USB_CLK_EN_REG = USBFS_USB_CLK_ENABLE;
  54              		.loc 1 261 0
  55 001c 0125     		movs	r5, #1
  56 001e 344B     		ldr	r3, .L3+4
  57 0020 1D70     		strb	r5, [r3]
 262:.\Generated_Source\PSoC5/USBFS.c **** 
 263:.\Generated_Source\PSoC5/USBFS.c ****     USBFS_CR1_REG = USBFS_CR1_ENABLE_LOCK;
  58              		.loc 1 263 0
  59 0022 0227     		movs	r7, #2
  60 0024 943B     		subs	r3, r3, #148
  61 0026 1F70     		strb	r7, [r3]
 264:.\Generated_Source\PSoC5/USBFS.c **** 
 265:.\Generated_Source\PSoC5/USBFS.c ****     /* ENABLING USBIO PADS IN USB MODE FROM I/O MODE. */
 266:.\Generated_Source\PSoC5/USBFS.c ****     /* Ensure USB transmit enable is low (USB_USBIO_CR0.ten). - Manual Transmission - Disabled. */
 267:.\Generated_Source\PSoC5/USBFS.c ****     USBFS_USBIO_CR0_REG &= (uint8) ~USBFS_USBIO_CR0_TEN;
  62              		.loc 1 267 0
  63 0028 02F5E252 		add	r2, r2, #7232
  64 002c 1B32     		adds	r2, r2, #27
  65 002e 1378     		ldrb	r3, [r2]	@ zero_extendqisi2
  66 0030 03F07F03 		and	r3, r3, #127
  67 0034 1370     		strb	r3, [r2]
 268:.\Generated_Source\PSoC5/USBFS.c ****     CyDelayUs(USBFS_WAIT_REG_STABILITY_50NS);  /* ~50ns delay. */
  68              		.loc 1 268 0
  69 0036 0020     		movs	r0, #0
  70 0038 FFF7FEFF 		bl	CyDelayUs
  71              	.LVL2:
 269:.\Generated_Source\PSoC5/USBFS.c ****     /* Disable USBIO by asserting PM.USB_CR0.fsusbio_pd_n(Inverted.
 270:.\Generated_Source\PSoC5/USBFS.c ****     *  high. These bits will be set low by the power manager out-of-reset.
 271:.\Generated_Source\PSoC5/USBFS.c ****     *  Also confirm USBIO pull-up is disabled.
ARM GAS  C:\Users\Patrick\AppData\Local\Temp\cc4CvmVx.s 			page 7


 272:.\Generated_Source\PSoC5/USBFS.c ****     */
 273:.\Generated_Source\PSoC5/USBFS.c ****     USBFS_PM_USB_CR0_REG &= (uint8) ~(USBFS_PM_USB_CR0_PD_N |
  72              		.loc 1 273 0
  73 003c 2D4C     		ldr	r4, .L3+8
  74 003e 2378     		ldrb	r3, [r4]	@ zero_extendqisi2
  75 0040 03F0F903 		and	r3, r3, #249
  76 0044 2370     		strb	r3, [r4]
 274:.\Generated_Source\PSoC5/USBFS.c ****                                                  USBFS_PM_USB_CR0_PD_PULLUP_N);
 275:.\Generated_Source\PSoC5/USBFS.c **** 
 276:.\Generated_Source\PSoC5/USBFS.c ****     /* Select IOMODE to USB mode. */
 277:.\Generated_Source\PSoC5/USBFS.c ****     USBFS_USBIO_CR1_REG &= (uint8) ~USBFS_USBIO_CR1_IOMODE;
  77              		.loc 1 277 0
  78 0046 2C4A     		ldr	r2, .L3+12
  79 0048 1378     		ldrb	r3, [r2]	@ zero_extendqisi2
  80 004a 03F0DF03 		and	r3, r3, #223
  81 004e 1370     		strb	r3, [r2]
 278:.\Generated_Source\PSoC5/USBFS.c **** 
 279:.\Generated_Source\PSoC5/USBFS.c ****     /* Enable USBIO reference by setting PM.USB_CR0.fsusbio_ref_en. */
 280:.\Generated_Source\PSoC5/USBFS.c ****     USBFS_PM_USB_CR0_REG |= USBFS_PM_USB_CR0_REF_EN;
  82              		.loc 1 280 0
  83 0050 2378     		ldrb	r3, [r4]	@ zero_extendqisi2
  84 0052 2B43     		orrs	r3, r3, r5
  85 0054 2370     		strb	r3, [r4]
 281:.\Generated_Source\PSoC5/USBFS.c ****     /* Reference is available for 1us after regulator is enabled. */
 282:.\Generated_Source\PSoC5/USBFS.c ****     CyDelayUs(USBFS_WAIT_REG_STABILITY_1US);
  86              		.loc 1 282 0
  87 0056 2846     		mov	r0, r5
  88 0058 FFF7FEFF 		bl	CyDelayUs
  89              	.LVL3:
 283:.\Generated_Source\PSoC5/USBFS.c ****     /* OR 40us after power is restored. */
 284:.\Generated_Source\PSoC5/USBFS.c ****     CyDelayUs(USBFS_WAIT_VREF_RESTORE);
  90              		.loc 1 284 0
  91 005c 2820     		movs	r0, #40
  92 005e FFF7FEFF 		bl	CyDelayUs
  93              	.LVL4:
 285:.\Generated_Source\PSoC5/USBFS.c ****     /* Ensure single-ended disable bits are low (PRT15.INP_DIS[7:6])(input receiver enabled). */
 286:.\Generated_Source\PSoC5/USBFS.c ****     USBFS_DM_INP_DIS_REG &= (uint8) ~USBFS_DM_MASK;
  94              		.loc 1 286 0
  95 0062 264B     		ldr	r3, .L3+16
  96 0064 1A78     		ldrb	r2, [r3]	@ zero_extendqisi2
  97 0066 02F07F02 		and	r2, r2, #127
  98 006a 1A70     		strb	r2, [r3]
 287:.\Generated_Source\PSoC5/USBFS.c ****     USBFS_DP_INP_DIS_REG &= (uint8) ~USBFS_DP_MASK;
  99              		.loc 1 287 0
 100 006c 1A78     		ldrb	r2, [r3]	@ zero_extendqisi2
 101 006e 02F0BF02 		and	r2, r2, #191
 102 0072 1A70     		strb	r2, [r3]
 288:.\Generated_Source\PSoC5/USBFS.c **** 
 289:.\Generated_Source\PSoC5/USBFS.c ****     /* Enable USBIO. */
 290:.\Generated_Source\PSoC5/USBFS.c ****     USBFS_PM_USB_CR0_REG |= USBFS_PM_USB_CR0_PD_N;
 103              		.loc 1 290 0
 104 0074 2378     		ldrb	r3, [r4]	@ zero_extendqisi2
 105 0076 3B43     		orrs	r3, r3, r7
 106 0078 2370     		strb	r3, [r4]
 291:.\Generated_Source\PSoC5/USBFS.c ****     CyDelayUs(USBFS_WAIT_PD_PULLUP_N_ENABLE);
 107              		.loc 1 291 0
 108 007a 3846     		mov	r0, r7
ARM GAS  C:\Users\Patrick\AppData\Local\Temp\cc4CvmVx.s 			page 8


 109 007c FFF7FEFF 		bl	CyDelayUs
 110              	.LVL5:
 292:.\Generated_Source\PSoC5/USBFS.c ****     /* Set USBIO pull-up enable. */
 293:.\Generated_Source\PSoC5/USBFS.c ****     USBFS_PM_USB_CR0_REG |= USBFS_PM_USB_CR0_PD_PULLUP_N;
 111              		.loc 1 293 0
 112 0080 2378     		ldrb	r3, [r4]	@ zero_extendqisi2
 113 0082 43F00403 		orr	r3, r3, #4
 114 0086 2370     		strb	r3, [r4]
 294:.\Generated_Source\PSoC5/USBFS.c **** 
 295:.\Generated_Source\PSoC5/USBFS.c ****     /* Reset Arbiter Write Address register for endpoint 1. */
 296:.\Generated_Source\PSoC5/USBFS.c ****     CY_SET_REG8(USBFS_ARB_RW1_WA_PTR,     0u);
 115              		.loc 1 296 0
 116 0088 0024     		movs	r4, #0
 117 008a 1D4B     		ldr	r3, .L3+20
 118 008c 1C70     		strb	r4, [r3]
 297:.\Generated_Source\PSoC5/USBFS.c ****     CY_SET_REG8(USBFS_ARB_RW1_WA_MSB_PTR, 0u);
 119              		.loc 1 297 0
 120 008e 0133     		adds	r3, r3, #1
 121 0090 1C70     		strb	r4, [r3]
 298:.\Generated_Source\PSoC5/USBFS.c **** 
 299:.\Generated_Source\PSoC5/USBFS.c **** #if (USBFS_EP_MANAGEMENT_DMA)
 300:.\Generated_Source\PSoC5/USBFS.c ****     /* Initialize transfer descriptor. This will be used to detect DMA state - initialized or not. 
 301:.\Generated_Source\PSoC5/USBFS.c ****     for (i = 0u; i < USBFS_MAX_EP; ++i)
 302:.\Generated_Source\PSoC5/USBFS.c ****     {
 303:.\Generated_Source\PSoC5/USBFS.c ****         USBFS_DmaTd[i] = DMA_INVALID_TD;
 304:.\Generated_Source\PSoC5/USBFS.c **** 
 305:.\Generated_Source\PSoC5/USBFS.c ****     #if (USBFS_EP_MANAGEMENT_DMA_AUTO && (USBFS_EP_DMA_AUTO_OPT == 0u))
 306:.\Generated_Source\PSoC5/USBFS.c ****         USBFS_DmaNextTd[i] = DMA_INVALID_TD;
 307:.\Generated_Source\PSoC5/USBFS.c ****     #endif /* (USBFS_EP_MANAGEMENT_DMA_AUTO && (USBFS_EP_DMA_AUTO_OPT == 0u)) */
 308:.\Generated_Source\PSoC5/USBFS.c ****     }
 309:.\Generated_Source\PSoC5/USBFS.c **** #endif /* (USBFS_EP_MANAGEMENT_DMA) */
 310:.\Generated_Source\PSoC5/USBFS.c **** 
 311:.\Generated_Source\PSoC5/USBFS.c ****     CyExitCriticalSection(enableInterrupts);
 122              		.loc 1 311 0
 123 0092 3046     		mov	r0, r6
 124 0094 FFF7FEFF 		bl	CyExitCriticalSection
 125              	.LVL6:
 312:.\Generated_Source\PSoC5/USBFS.c **** #endif /* (CY_PSOC4) */
 313:.\Generated_Source\PSoC5/USBFS.c **** 
 314:.\Generated_Source\PSoC5/USBFS.c ****     /* Configure interrupts from USB block. */
 315:.\Generated_Source\PSoC5/USBFS.c **** #if (CY_PSOC4)
 316:.\Generated_Source\PSoC5/USBFS.c ****     /* Configure hi_int: set handler and priority. */
 317:.\Generated_Source\PSoC5/USBFS.c ****     CyIntSetPriority     (USBFS_INTR_HI_VECT_NUM,  USBFS_INTR_HI_PRIORITY);
 318:.\Generated_Source\PSoC5/USBFS.c ****     (void) CyIntSetVector(USBFS_INTR_HI_VECT_NUM, &USBFS_INTR_HI_ISR);
 319:.\Generated_Source\PSoC5/USBFS.c **** 
 320:.\Generated_Source\PSoC5/USBFS.c ****     /* Configure lo_int: set handler and priority. */
 321:.\Generated_Source\PSoC5/USBFS.c ****     CyIntSetPriority     (USBFS_INTR_LO_VECT_NUM,  USBFS_INTR_LO_PRIORITY);
 322:.\Generated_Source\PSoC5/USBFS.c ****     (void) CyIntSetVector(USBFS_INTR_LO_VECT_NUM, &USBFS_INTR_LO_ISR);
 323:.\Generated_Source\PSoC5/USBFS.c **** 
 324:.\Generated_Source\PSoC5/USBFS.c ****     /* Configure med_int: set handler and priority (routed through DSI). */
 325:.\Generated_Source\PSoC5/USBFS.c ****     CyIntSetPriority     (USBFS_INTR_MED_VECT_NUM,  USBFS_INTR_MED_PRIORITY);
 326:.\Generated_Source\PSoC5/USBFS.c ****     (void) CyIntSetVector(USBFS_INTR_MED_VECT_NUM, &USBFS_INTR_MED_ISR);
 327:.\Generated_Source\PSoC5/USBFS.c **** 
 328:.\Generated_Source\PSoC5/USBFS.c **** #else
 329:.\Generated_Source\PSoC5/USBFS.c ****     /* Set bus reset interrupt. */
 330:.\Generated_Source\PSoC5/USBFS.c ****     CyIntSetPriority(USBFS_BUS_RESET_VECT_NUM, USBFS_BUS_RESET_PRIOR);
 126              		.loc 1 330 0
ARM GAS  C:\Users\Patrick\AppData\Local\Temp\cc4CvmVx.s 			page 9


 127 0098 1720     		movs	r0, #23
 128 009a 0721     		movs	r1, #7
 129 009c FFF7FEFF 		bl	CyIntSetPriority
 130              	.LVL7:
 331:.\Generated_Source\PSoC5/USBFS.c ****     (void) CyIntSetVector(USBFS_BUS_RESET_VECT_NUM,   &USBFS_BUS_RESET_ISR);
 131              		.loc 1 331 0
 132 00a0 1720     		movs	r0, #23
 133 00a2 1849     		ldr	r1, .L3+24
 134 00a4 FFF7FEFF 		bl	CyIntSetVector
 135              	.LVL8:
 332:.\Generated_Source\PSoC5/USBFS.c **** 
 333:.\Generated_Source\PSoC5/USBFS.c ****     /* Set Control Endpoint Interrupt. */
 334:.\Generated_Source\PSoC5/USBFS.c ****     CyIntSetPriority(USBFS_EP_0_VECT_NUM, USBFS_EP_0_PRIOR);
 136              		.loc 1 334 0
 137 00a8 1820     		movs	r0, #24
 138 00aa 0721     		movs	r1, #7
 139 00ac FFF7FEFF 		bl	CyIntSetPriority
 140              	.LVL9:
 335:.\Generated_Source\PSoC5/USBFS.c ****     (void) CyIntSetVector(USBFS_EP_0_VECT_NUM,   &USBFS_EP_0_ISR);
 141              		.loc 1 335 0
 142 00b0 1820     		movs	r0, #24
 143 00b2 1549     		ldr	r1, .L3+28
 144 00b4 FFF7FEFF 		bl	CyIntSetVector
 145              	.LVL10:
 336:.\Generated_Source\PSoC5/USBFS.c **** 
 337:.\Generated_Source\PSoC5/USBFS.c ****     /* Set SOF interrupt. */
 338:.\Generated_Source\PSoC5/USBFS.c ****     #if (USBFS_SOF_ISR_ACTIVE)
 339:.\Generated_Source\PSoC5/USBFS.c ****         CyIntSetPriority     (USBFS_SOF_VECT_NUM,  USBFS_SOF_PRIOR);
 340:.\Generated_Source\PSoC5/USBFS.c ****         (void) CyIntSetVector(USBFS_SOF_VECT_NUM, &USBFS_SOF_ISR);
 341:.\Generated_Source\PSoC5/USBFS.c ****     #endif /* (USBFS_SOF_ISR_ACTIVE) */
 342:.\Generated_Source\PSoC5/USBFS.c **** 
 343:.\Generated_Source\PSoC5/USBFS.c ****     /* Set Data Endpoint 1 Interrupt. */
 344:.\Generated_Source\PSoC5/USBFS.c ****     #if (USBFS_EP1_ISR_ACTIVE)
 345:.\Generated_Source\PSoC5/USBFS.c ****         CyIntSetPriority     (USBFS_EP_1_VECT_NUM,  USBFS_EP_1_PRIOR);
 146              		.loc 1 345 0
 147 00b8 2046     		mov	r0, r4
 148 00ba 0721     		movs	r1, #7
 149 00bc FFF7FEFF 		bl	CyIntSetPriority
 150              	.LVL11:
 346:.\Generated_Source\PSoC5/USBFS.c ****         (void) CyIntSetVector(USBFS_EP_1_VECT_NUM,  &USBFS_EP_1_ISR);
 151              		.loc 1 346 0
 152 00c0 2046     		mov	r0, r4
 153 00c2 1249     		ldr	r1, .L3+32
 154 00c4 FFF7FEFF 		bl	CyIntSetVector
 155              	.LVL12:
 347:.\Generated_Source\PSoC5/USBFS.c ****     #endif /* (USBFS_EP1_ISR_ACTIVE) */
 348:.\Generated_Source\PSoC5/USBFS.c **** 
 349:.\Generated_Source\PSoC5/USBFS.c ****     /* Set Data Endpoint 2 Interrupt. */
 350:.\Generated_Source\PSoC5/USBFS.c ****     #if (USBFS_EP2_ISR_ACTIVE)
 351:.\Generated_Source\PSoC5/USBFS.c ****         CyIntSetPriority     (USBFS_EP_2_VECT_NUM,  USBFS_EP_2_PRIOR);
 156              		.loc 1 351 0
 157 00c8 2846     		mov	r0, r5
 158 00ca 0721     		movs	r1, #7
 159 00cc FFF7FEFF 		bl	CyIntSetPriority
 160              	.LVL13:
 352:.\Generated_Source\PSoC5/USBFS.c ****         (void) CyIntSetVector(USBFS_EP_2_VECT_NUM, &USBFS_EP_2_ISR);
 161              		.loc 1 352 0
ARM GAS  C:\Users\Patrick\AppData\Local\Temp\cc4CvmVx.s 			page 10


 162 00d0 2846     		mov	r0, r5
 163 00d2 0F49     		ldr	r1, .L3+36
 164 00d4 FFF7FEFF 		bl	CyIntSetVector
 165              	.LVL14:
 353:.\Generated_Source\PSoC5/USBFS.c ****     #endif /* (USBFS_EP2_ISR_ACTIVE) */
 354:.\Generated_Source\PSoC5/USBFS.c **** 
 355:.\Generated_Source\PSoC5/USBFS.c ****     /* Set Data Endpoint 3 Interrupt. */
 356:.\Generated_Source\PSoC5/USBFS.c ****     #if (USBFS_EP3_ISR_ACTIVE)
 357:.\Generated_Source\PSoC5/USBFS.c ****         CyIntSetPriority     (USBFS_EP_3_VECT_NUM,  USBFS_EP_3_PRIOR);
 358:.\Generated_Source\PSoC5/USBFS.c ****         (void) CyIntSetVector(USBFS_EP_3_VECT_NUM, &USBFS_EP_3_ISR);
 359:.\Generated_Source\PSoC5/USBFS.c ****     #endif /* (USBFS_EP3_ISR_ACTIVE) */
 360:.\Generated_Source\PSoC5/USBFS.c **** 
 361:.\Generated_Source\PSoC5/USBFS.c ****     /* Set Data Endpoint 4 Interrupt. */
 362:.\Generated_Source\PSoC5/USBFS.c ****     #if (USBFS_EP4_ISR_ACTIVE)
 363:.\Generated_Source\PSoC5/USBFS.c ****         CyIntSetPriority     (USBFS_EP_4_VECT_NUM,  USBFS_EP_4_PRIOR);
 364:.\Generated_Source\PSoC5/USBFS.c ****         (void) CyIntSetVector(USBFS_EP_4_VECT_NUM, &USBFS_EP_4_ISR);
 365:.\Generated_Source\PSoC5/USBFS.c ****     #endif /* (USBFS_EP4_ISR_ACTIVE) */
 366:.\Generated_Source\PSoC5/USBFS.c **** 
 367:.\Generated_Source\PSoC5/USBFS.c ****     /* Set Data Endpoint 5 Interrupt. */
 368:.\Generated_Source\PSoC5/USBFS.c ****     #if (USBFS_EP5_ISR_ACTIVE)
 369:.\Generated_Source\PSoC5/USBFS.c ****         CyIntSetPriority     (USBFS_EP_5_VECT_NUM,  USBFS_EP_5_PRIOR);
 370:.\Generated_Source\PSoC5/USBFS.c ****         (void) CyIntSetVector(USBFS_EP_5_VECT_NUM, &USBFS_EP_5_ISR);
 371:.\Generated_Source\PSoC5/USBFS.c ****     #endif /* (USBFS_EP5_ISR_ACTIVE) */
 372:.\Generated_Source\PSoC5/USBFS.c **** 
 373:.\Generated_Source\PSoC5/USBFS.c ****     /* Set Data Endpoint 6 Interrupt. */
 374:.\Generated_Source\PSoC5/USBFS.c ****     #if (USBFS_EP6_ISR_ACTIVE)
 375:.\Generated_Source\PSoC5/USBFS.c ****         CyIntSetPriority     (USBFS_EP_6_VECT_NUM,  USBFS_EP_6_PRIOR);
 376:.\Generated_Source\PSoC5/USBFS.c ****         (void) CyIntSetVector(USBFS_EP_6_VECT_NUM, &USBFS_EP_6_ISR);
 377:.\Generated_Source\PSoC5/USBFS.c ****     #endif /* (USBFS_EP6_ISR_ACTIVE) */
 378:.\Generated_Source\PSoC5/USBFS.c **** 
 379:.\Generated_Source\PSoC5/USBFS.c ****      /* Set Data Endpoint 7 Interrupt. */
 380:.\Generated_Source\PSoC5/USBFS.c ****     #if (USBFS_EP7_ISR_ACTIVE)
 381:.\Generated_Source\PSoC5/USBFS.c ****         CyIntSetPriority     (USBFS_EP_7_VECT_NUM,  USBFS_EP_7_PRIOR);
 382:.\Generated_Source\PSoC5/USBFS.c ****         (void) CyIntSetVector(USBFS_EP_7_VECT_NUM, &USBFS_EP_7_ISR);
 383:.\Generated_Source\PSoC5/USBFS.c ****     #endif /* (USBFS_EP7_ISR_ACTIVE) */
 384:.\Generated_Source\PSoC5/USBFS.c **** 
 385:.\Generated_Source\PSoC5/USBFS.c ****     /* Set Data Endpoint 8 Interrupt. */
 386:.\Generated_Source\PSoC5/USBFS.c ****     #if (USBFS_EP8_ISR_ACTIVE)
 387:.\Generated_Source\PSoC5/USBFS.c ****         CyIntSetPriority     (USBFS_EP_8_VECT_NUM,  USBFS_EP_8_PRIOR);
 388:.\Generated_Source\PSoC5/USBFS.c ****         (void) CyIntSetVector(USBFS_EP_8_VECT_NUM, &USBFS_EP_8_ISR);
 389:.\Generated_Source\PSoC5/USBFS.c ****     #endif /* (USBFS_EP8_ISR_ACTIVE) */
 390:.\Generated_Source\PSoC5/USBFS.c **** 
 391:.\Generated_Source\PSoC5/USBFS.c ****     /* Set ARB Interrupt. */
 392:.\Generated_Source\PSoC5/USBFS.c ****     #if (USBFS_EP_MANAGEMENT_DMA && USBFS_ARB_ISR_ACTIVE)
 393:.\Generated_Source\PSoC5/USBFS.c ****         CyIntSetPriority     (USBFS_ARB_VECT_NUM,  USBFS_ARB_PRIOR);
 394:.\Generated_Source\PSoC5/USBFS.c ****         (void) CyIntSetVector(USBFS_ARB_VECT_NUM, &USBFS_ARB_ISR);
 395:.\Generated_Source\PSoC5/USBFS.c ****     #endif /* (USBFS_EP_MANAGEMENT_DMA && USBFS_ARB_ISR_ACTIVE) */
 396:.\Generated_Source\PSoC5/USBFS.c **** #endif /* (CY_PSOC4) */
 397:.\Generated_Source\PSoC5/USBFS.c **** 
 398:.\Generated_Source\PSoC5/USBFS.c ****     /* Common: Configure GPIO interrupt for wakeup. */
 399:.\Generated_Source\PSoC5/USBFS.c **** #if (USBFS_DP_ISR_ACTIVE)
 400:.\Generated_Source\PSoC5/USBFS.c ****     CyIntSetPriority     (USBFS_DP_INTC_VECT_NUM,  USBFS_DP_INTC_PRIORITY);
 166              		.loc 1 400 0
 167 00d8 0C20     		movs	r0, #12
 168 00da 0721     		movs	r1, #7
 169 00dc FFF7FEFF 		bl	CyIntSetPriority
 170              	.LVL15:
ARM GAS  C:\Users\Patrick\AppData\Local\Temp\cc4CvmVx.s 			page 11


 401:.\Generated_Source\PSoC5/USBFS.c ****     (void) CyIntSetVector(USBFS_DP_INTC_VECT_NUM, &USBFS_DP_ISR);
 171              		.loc 1 401 0
 172 00e0 0C20     		movs	r0, #12
 173 00e2 0C49     		ldr	r1, .L3+40
 174 00e4 FFF7FEFF 		bl	CyIntSetVector
 175              	.LVL16:
 176 00e8 F8BD     		pop	{r3, r4, r5, r6, r7, pc}
 177              	.LVL17:
 178              	.L4:
 179 00ea 00BF     		.align	2
 180              	.L3:
 181 00ec A5430040 		.word	1073759141
 182 00f0 9D600040 		.word	1073766557
 183 00f4 94430040 		.word	1073759124
 184 00f8 12600040 		.word	1073766418
 185 00fc F8510040 		.word	1073762808
 186 0100 84600040 		.word	1073766532
 187 0104 00000000 		.word	USBFS_BUS_RESET_ISR
 188 0108 00000000 		.word	USBFS_EP_0_ISR
 189 010c 00000000 		.word	USBFS_EP_1_ISR
 190 0110 00000000 		.word	USBFS_EP_2_ISR
 191 0114 00000000 		.word	USBFS_DP_ISR
 192              		.cfi_endproc
 193              	.LFE1:
 194              		.size	USBFS_Init, .-USBFS_Init
 195              		.section	.text.USBFS_InitComponent,"ax",%progbits
 196              		.align	2
 197              		.global	USBFS_InitComponent
 198              		.thumb
 199              		.thumb_func
 200              		.type	USBFS_InitComponent, %function
 201              	USBFS_InitComponent:
 202              	.LFB2:
 402:.\Generated_Source\PSoC5/USBFS.c **** #endif /* (USBFS_DP_ISR_ACTIVE) */
 403:.\Generated_Source\PSoC5/USBFS.c **** 
 404:.\Generated_Source\PSoC5/USBFS.c **** #if (USBFS_EP_MANAGEMENT_DMA && CY_PSOC4)
 405:.\Generated_Source\PSoC5/USBFS.c ****     /* Initialize DMA channels. */
 406:.\Generated_Source\PSoC5/USBFS.c ****     USBFS_InitEpDma();
 407:.\Generated_Source\PSoC5/USBFS.c **** #endif /* (USBFS_EP_MANAGEMENT_DMA && CY_PSOC4) */
 408:.\Generated_Source\PSoC5/USBFS.c **** }
 409:.\Generated_Source\PSoC5/USBFS.c **** 
 410:.\Generated_Source\PSoC5/USBFS.c **** 
 411:.\Generated_Source\PSoC5/USBFS.c **** /*******************************************************************************
 412:.\Generated_Source\PSoC5/USBFS.c **** * Function Name: USBFS_InitComponent
 413:.\Generated_Source\PSoC5/USBFS.c **** ****************************************************************************//**
 414:.\Generated_Source\PSoC5/USBFS.c **** *
 415:.\Generated_Source\PSoC5/USBFS.c **** *   This function initializes the component’s global variables and initiates
 416:.\Generated_Source\PSoC5/USBFS.c **** *   communication with the host by pull-up D+ line.
 417:.\Generated_Source\PSoC5/USBFS.c **** *
 418:.\Generated_Source\PSoC5/USBFS.c **** * \param device:
 419:.\Generated_Source\PSoC5/USBFS.c **** *   Contains the device number of the desired device descriptor. The device
 420:.\Generated_Source\PSoC5/USBFS.c **** *   number can be found in the Device Descriptor Tab of "Configure" dialog,
 421:.\Generated_Source\PSoC5/USBFS.c **** *   under the settings of desired Device Descriptor, in the *Device Number*
 422:.\Generated_Source\PSoC5/USBFS.c **** *   field.
 423:.\Generated_Source\PSoC5/USBFS.c **** *  \param mode:
 424:.\Generated_Source\PSoC5/USBFS.c **** *   The operating voltage. This determines whether the voltage regulator
 425:.\Generated_Source\PSoC5/USBFS.c **** *   is enabled for 5V operation or if pass through mode is used for 3.3V
ARM GAS  C:\Users\Patrick\AppData\Local\Temp\cc4CvmVx.s 			page 12


 426:.\Generated_Source\PSoC5/USBFS.c **** *   operation. Symbolic names and their associated values are given in the
 427:.\Generated_Source\PSoC5/USBFS.c **** *   following list.
 428:.\Generated_Source\PSoC5/USBFS.c **** *
 429:.\Generated_Source\PSoC5/USBFS.c **** *       *USBFS_3V_OPERATION* - Disable voltage regulator and pass-
 430:.\Generated_Source\PSoC5/USBFS.c **** *                                      through Vcc for pull-up
 431:.\Generated_Source\PSoC5/USBFS.c **** *
 432:.\Generated_Source\PSoC5/USBFS.c **** *       *USBFS_5V_OPERATION* - Enable voltage regulator and use
 433:.\Generated_Source\PSoC5/USBFS.c **** *                                      regulator for pull-up
 434:.\Generated_Source\PSoC5/USBFS.c **** *
 435:.\Generated_Source\PSoC5/USBFS.c **** *       *USBFS_DWR_POWER_OPERATION* - Enable or disable the voltage
 436:.\Generated_Source\PSoC5/USBFS.c **** *                                      regulator depending on the power supply
 437:.\Generated_Source\PSoC5/USBFS.c **** *                                      voltage configuration in the DWR tab.
 438:.\Generated_Source\PSoC5/USBFS.c **** *                                      For PSoC 3/5LP devices, the VDDD supply
 439:.\Generated_Source\PSoC5/USBFS.c **** *                                      voltage is considered and for PSoC 4A-L,
 440:.\Generated_Source\PSoC5/USBFS.c **** *                                      the VBUS supply voltage is considered.
 441:.\Generated_Source\PSoC5/USBFS.c **** *
 442:.\Generated_Source\PSoC5/USBFS.c **** * \globalvars
 443:.\Generated_Source\PSoC5/USBFS.c **** *   \ref USBFS_device
 444:.\Generated_Source\PSoC5/USBFS.c **** *   \ref USBFS_transferState
 445:.\Generated_Source\PSoC5/USBFS.c **** *   \ref USBFS_configuration
 446:.\Generated_Source\PSoC5/USBFS.c **** *   \ref USBFS_deviceStatus
 447:.\Generated_Source\PSoC5/USBFS.c **** *
 448:.\Generated_Source\PSoC5/USBFS.c **** *   \ref USBFS_deviceAddress - Contains the current device address. This
 449:.\Generated_Source\PSoC5/USBFS.c **** *       variable is initialized to zero in this API. The Host starts to communicate
 450:.\Generated_Source\PSoC5/USBFS.c **** *      to the device with address 0 and then sets it to a whatever value using a
 451:.\Generated_Source\PSoC5/USBFS.c **** *      SET_ADDRESS request.
 452:.\Generated_Source\PSoC5/USBFS.c **** *
 453:.\Generated_Source\PSoC5/USBFS.c **** *   \ref USBFS_lastPacketSize - Initialized to 0;
 454:.\Generated_Source\PSoC5/USBFS.c **** *
 455:.\Generated_Source\PSoC5/USBFS.c **** * \reentrant
 456:.\Generated_Source\PSoC5/USBFS.c **** *  No.
 457:.\Generated_Source\PSoC5/USBFS.c **** *
 458:.\Generated_Source\PSoC5/USBFS.c **** *******************************************************************************/
 459:.\Generated_Source\PSoC5/USBFS.c **** void USBFS_InitComponent(uint8 device, uint8 mode) 
 460:.\Generated_Source\PSoC5/USBFS.c **** {
 203              		.loc 1 460 0
 204              		.cfi_startproc
 205              		@ args = 0, pretend = 0, frame = 0
 206              		@ frame_needed = 0, uses_anonymous_args = 0
 207              	.LVL18:
 208 0000 10B5     		push	{r4, lr}
 209              		.cfi_def_cfa_offset 8
 210              		.cfi_offset 4, -8
 211              		.cfi_offset 14, -4
 212              	.LVL19:
 461:.\Generated_Source\PSoC5/USBFS.c ****     /* Initialize _hidProtocol variable to comply with
 462:.\Generated_Source\PSoC5/USBFS.c ****     *  HID 7.2.6 Set_Protocol Request:
 463:.\Generated_Source\PSoC5/USBFS.c ****     *  "When initialized, all devices default to report protocol."
 464:.\Generated_Source\PSoC5/USBFS.c ****     */
 465:.\Generated_Source\PSoC5/USBFS.c **** #if defined(USBFS_ENABLE_HID_CLASS)
 466:.\Generated_Source\PSoC5/USBFS.c ****     uint8 i;
 467:.\Generated_Source\PSoC5/USBFS.c **** 
 468:.\Generated_Source\PSoC5/USBFS.c ****     for (i = 0u; i < USBFS_MAX_INTERFACES_NUMBER; i++)
 213              		.loc 1 468 0
 214 0002 0023     		movs	r3, #0
 215 0004 04E0     		b	.L6
 216              	.LVL20:
ARM GAS  C:\Users\Patrick\AppData\Local\Temp\cc4CvmVx.s 			page 13


 217              	.L7:
 469:.\Generated_Source\PSoC5/USBFS.c ****     {
 470:.\Generated_Source\PSoC5/USBFS.c ****         USBFS_hidProtocol[i] = USBFS_PROTOCOL_REPORT;
 218              		.loc 1 470 0 discriminator 3
 219 0006 0124     		movs	r4, #1
 220 0008 214A     		ldr	r2, .L14
 221 000a D454     		strb	r4, [r2, r3]
 468:.\Generated_Source\PSoC5/USBFS.c ****     {
 222              		.loc 1 468 0 discriminator 3
 223 000c 2344     		add	r3, r3, r4
 224              	.LVL21:
 225 000e DBB2     		uxtb	r3, r3
 226              	.LVL22:
 227              	.L6:
 468:.\Generated_Source\PSoC5/USBFS.c ****     {
 228              		.loc 1 468 0 is_stmt 0 discriminator 1
 229 0010 002B     		cmp	r3, #0
 230 0012 F8D0     		beq	.L7
 471:.\Generated_Source\PSoC5/USBFS.c ****     }
 472:.\Generated_Source\PSoC5/USBFS.c **** #endif /* USBFS_ENABLE_HID_CLASS */
 473:.\Generated_Source\PSoC5/USBFS.c **** 
 474:.\Generated_Source\PSoC5/USBFS.c ****     /* Store device number to access descriptor. */
 475:.\Generated_Source\PSoC5/USBFS.c ****     USBFS_device = device;
 231              		.loc 1 475 0 is_stmt 1
 232 0014 1F4B     		ldr	r3, .L14+4
 233              	.LVL23:
 234 0016 1870     		strb	r0, [r3]
 476:.\Generated_Source\PSoC5/USBFS.c **** 
 477:.\Generated_Source\PSoC5/USBFS.c ****     /* Reset component internal variables. */
 478:.\Generated_Source\PSoC5/USBFS.c ****     USBFS_transferState   = USBFS_TRANS_STATE_IDLE;
 235              		.loc 1 478 0
 236 0018 0023     		movs	r3, #0
 237 001a 1F4A     		ldr	r2, .L14+8
 238 001c 1370     		strb	r3, [r2]
 479:.\Generated_Source\PSoC5/USBFS.c ****     USBFS_configurationChanged = 0u;
 239              		.loc 1 479 0
 240 001e 1F4A     		ldr	r2, .L14+12
 241 0020 1370     		strb	r3, [r2]
 480:.\Generated_Source\PSoC5/USBFS.c ****     USBFS_configuration   = 0u;
 242              		.loc 1 480 0
 243 0022 1F4A     		ldr	r2, .L14+16
 244 0024 1370     		strb	r3, [r2]
 481:.\Generated_Source\PSoC5/USBFS.c ****     USBFS_interfaceNumber = 0u;
 245              		.loc 1 481 0
 246 0026 1F4A     		ldr	r2, .L14+20
 247 0028 1370     		strb	r3, [r2]
 482:.\Generated_Source\PSoC5/USBFS.c ****     USBFS_deviceAddress   = 0u;
 248              		.loc 1 482 0
 249 002a 1F4A     		ldr	r2, .L14+24
 250 002c 1370     		strb	r3, [r2]
 483:.\Generated_Source\PSoC5/USBFS.c ****     USBFS_deviceStatus    = 0u;
 251              		.loc 1 483 0
 252 002e 1F4A     		ldr	r2, .L14+28
 253 0030 1370     		strb	r3, [r2]
 484:.\Generated_Source\PSoC5/USBFS.c ****     USBFS_lastPacketSize  = 0u;
 254              		.loc 1 484 0
 255 0032 1F4A     		ldr	r2, .L14+32
ARM GAS  C:\Users\Patrick\AppData\Local\Temp\cc4CvmVx.s 			page 14


 256 0034 1370     		strb	r3, [r2]
 485:.\Generated_Source\PSoC5/USBFS.c **** 
 486:.\Generated_Source\PSoC5/USBFS.c ****     /* Enable component interrupts. */
 487:.\Generated_Source\PSoC5/USBFS.c **** #if (CY_PSOC4)
 488:.\Generated_Source\PSoC5/USBFS.c ****     CyIntEnable(USBFS_INTR_HI_VECT_NUM);
 489:.\Generated_Source\PSoC5/USBFS.c ****     CyIntEnable(USBFS_INTR_MED_VECT_NUM);
 490:.\Generated_Source\PSoC5/USBFS.c ****     CyIntEnable(USBFS_INTR_LO_VECT_NUM);
 491:.\Generated_Source\PSoC5/USBFS.c **** #else
 492:.\Generated_Source\PSoC5/USBFS.c ****     CyIntEnable(USBFS_BUS_RESET_VECT_NUM);
 257              		.loc 1 492 0
 258 0036 1F4B     		ldr	r3, .L14+36
 259 0038 4FF40002 		mov	r2, #8388608
 260 003c 1A60     		str	r2, [r3]
 493:.\Generated_Source\PSoC5/USBFS.c ****     CyIntEnable(USBFS_EP_0_VECT_NUM);
 261              		.loc 1 493 0
 262 003e 4FF08072 		mov	r2, #16777216
 263 0042 1A60     		str	r2, [r3]
 494:.\Generated_Source\PSoC5/USBFS.c **** 
 495:.\Generated_Source\PSoC5/USBFS.c ****     #if (USBFS_SOF_ISR_ACTIVE)
 496:.\Generated_Source\PSoC5/USBFS.c ****         CyIntEnable(USBFS_SOF_VECT_NUM);
 497:.\Generated_Source\PSoC5/USBFS.c ****     #endif /* (USBFS_SOF_ISR_ACTIVE) */
 498:.\Generated_Source\PSoC5/USBFS.c **** 
 499:.\Generated_Source\PSoC5/USBFS.c ****     #if (USBFS_EP1_ISR_ACTIVE)
 500:.\Generated_Source\PSoC5/USBFS.c ****         CyIntEnable(USBFS_EP_1_VECT_NUM);
 264              		.loc 1 500 0
 265 0044 0122     		movs	r2, #1
 266 0046 1A60     		str	r2, [r3]
 501:.\Generated_Source\PSoC5/USBFS.c ****     #endif /* (USBFS_EP1_ISR_ACTIVE) */
 502:.\Generated_Source\PSoC5/USBFS.c **** 
 503:.\Generated_Source\PSoC5/USBFS.c ****     #if (USBFS_EP2_ISR_ACTIVE)
 504:.\Generated_Source\PSoC5/USBFS.c ****         CyIntEnable(USBFS_EP_2_VECT_NUM);
 267              		.loc 1 504 0
 268 0048 0222     		movs	r2, #2
 269 004a 1A60     		str	r2, [r3]
 505:.\Generated_Source\PSoC5/USBFS.c ****     #endif /* (USBFS_EP5_ISR_ACTIVE) */
 506:.\Generated_Source\PSoC5/USBFS.c **** 
 507:.\Generated_Source\PSoC5/USBFS.c ****     #if (USBFS_EP3_ISR_ACTIVE)
 508:.\Generated_Source\PSoC5/USBFS.c ****         CyIntEnable(USBFS_EP_3_VECT_NUM);
 509:.\Generated_Source\PSoC5/USBFS.c ****     #endif /* (USBFS_EP5_ISR_ACTIVE) */
 510:.\Generated_Source\PSoC5/USBFS.c **** 
 511:.\Generated_Source\PSoC5/USBFS.c ****     #if (USBFS_EP4_ISR_ACTIVE)
 512:.\Generated_Source\PSoC5/USBFS.c ****         CyIntEnable(USBFS_EP_4_VECT_NUM);
 513:.\Generated_Source\PSoC5/USBFS.c ****     #endif /* (USBFS_EP5_ISR_ACTIVE) */
 514:.\Generated_Source\PSoC5/USBFS.c **** 
 515:.\Generated_Source\PSoC5/USBFS.c ****     #if (USBFS_EP5_ISR_ACTIVE)
 516:.\Generated_Source\PSoC5/USBFS.c ****         CyIntEnable(USBFS_EP_5_VECT_NUM);
 517:.\Generated_Source\PSoC5/USBFS.c ****     #endif /* (USBFS_EP5_ISR_ACTIVE) */
 518:.\Generated_Source\PSoC5/USBFS.c **** 
 519:.\Generated_Source\PSoC5/USBFS.c ****     #if (USBFS_EP6_ISR_ACTIVE)
 520:.\Generated_Source\PSoC5/USBFS.c ****         CyIntEnable(USBFS_EP_6_VECT_NUM);
 521:.\Generated_Source\PSoC5/USBFS.c ****     #endif /* USBFS_EP6_ISR_REMOVE */
 522:.\Generated_Source\PSoC5/USBFS.c **** 
 523:.\Generated_Source\PSoC5/USBFS.c ****     #if (USBFS_EP7_ISR_ACTIVE)
 524:.\Generated_Source\PSoC5/USBFS.c ****         CyIntEnable(USBFS_EP_7_VECT_NUM);
 525:.\Generated_Source\PSoC5/USBFS.c ****     #endif /* (USBFS_EP7_ISR_ACTIVE) */
 526:.\Generated_Source\PSoC5/USBFS.c **** 
 527:.\Generated_Source\PSoC5/USBFS.c ****     #if (USBFS_EP8_ISR_ACTIVE)
ARM GAS  C:\Users\Patrick\AppData\Local\Temp\cc4CvmVx.s 			page 15


 528:.\Generated_Source\PSoC5/USBFS.c ****         CyIntEnable(USBFS_EP_8_VECT_NUM);
 529:.\Generated_Source\PSoC5/USBFS.c ****     #endif /* (USBFS_EP8_ISR_ACTIVE) */
 530:.\Generated_Source\PSoC5/USBFS.c **** #endif /* (CY_PSOC4) */
 531:.\Generated_Source\PSoC5/USBFS.c **** 
 532:.\Generated_Source\PSoC5/USBFS.c **** #if (USBFS_EP_MANAGEMENT_DMA && USBFS_ARB_ISR_ACTIVE)
 533:.\Generated_Source\PSoC5/USBFS.c ****     /* Enable ARB EP interrupt sources. */
 534:.\Generated_Source\PSoC5/USBFS.c ****     USBFS_ARB_INT_EN_REG = USBFS_DEFAULT_ARB_INT_EN;
 535:.\Generated_Source\PSoC5/USBFS.c **** 
 536:.\Generated_Source\PSoC5/USBFS.c ****     #if (CY_PSOC3 || CY_PSOC5)
 537:.\Generated_Source\PSoC5/USBFS.c ****         CyIntEnable(USBFS_ARB_VECT_NUM);
 538:.\Generated_Source\PSoC5/USBFS.c ****     #endif /* (CY_PSOC3 || CY_PSOC5) */
 539:.\Generated_Source\PSoC5/USBFS.c **** #endif   /* (USBFS_EP_MANAGEMENT_DMA && USBFS_ARB_ISR_ACTIVE) */
 540:.\Generated_Source\PSoC5/USBFS.c **** 
 541:.\Generated_Source\PSoC5/USBFS.c **** /* Arbiter configuration for DMA transfers. */
 542:.\Generated_Source\PSoC5/USBFS.c **** #if (USBFS_EP_MANAGEMENT_DMA)
 543:.\Generated_Source\PSoC5/USBFS.c ****     /* Configure Arbiter for Manual or Auto DMA operation and clear configuration completion. */
 544:.\Generated_Source\PSoC5/USBFS.c ****     USBFS_ARB_CFG_REG = USBFS_DEFAULT_ARB_CFG;
 545:.\Generated_Source\PSoC5/USBFS.c **** 
 546:.\Generated_Source\PSoC5/USBFS.c ****     #if (CY_PSOC4)
 547:.\Generated_Source\PSoC5/USBFS.c ****         /* Enable DMA operation. */
 548:.\Generated_Source\PSoC5/USBFS.c ****         CyDmaEnable();
 549:.\Generated_Source\PSoC5/USBFS.c **** 
 550:.\Generated_Source\PSoC5/USBFS.c ****         #if (USBFS_EP_MANAGEMENT_DMA_AUTO)
 551:.\Generated_Source\PSoC5/USBFS.c ****             /* Change DMA priority to be highest. */
 552:.\Generated_Source\PSoC5/USBFS.c ****              CyIntSetPriority(CYDMA_INTR_NUMBER, USBFS_DMA_AUTO_INTR_PRIO);
 553:.\Generated_Source\PSoC5/USBFS.c ****         #endif /* (USBFS_EP_MANAGEMENT_DMA_AUTO) */
 554:.\Generated_Source\PSoC5/USBFS.c ****     #endif /* (CY_PSOC4) */
 555:.\Generated_Source\PSoC5/USBFS.c **** 
 556:.\Generated_Source\PSoC5/USBFS.c ****     #if (USBFS_EP_MANAGEMENT_DMA_AUTO)
 557:.\Generated_Source\PSoC5/USBFS.c ****         #if (CY_PSOC4)
 558:.\Generated_Source\PSoC5/USBFS.c ****             /* Enable DMA interrupt to handle DMA management. */
 559:.\Generated_Source\PSoC5/USBFS.c ****             CyIntEnable(CYDMA_INTR_NUMBER);
 560:.\Generated_Source\PSoC5/USBFS.c ****         #else
 561:.\Generated_Source\PSoC5/USBFS.c ****             #if (USBFS_EP_DMA_AUTO_OPT == 0u)
 562:.\Generated_Source\PSoC5/USBFS.c ****                 /* Initialize interrupts which handle verification of successful DMA transaction. *
 563:.\Generated_Source\PSoC5/USBFS.c ****                 USBFS_EP_DMA_Done_isr_StartEx(&USBFS_EP_DMA_DONE_ISR);
 564:.\Generated_Source\PSoC5/USBFS.c ****                 USBFS_EP17_DMA_Done_SR_InterruptEnable();
 565:.\Generated_Source\PSoC5/USBFS.c ****                 USBFS_EP8_DMA_Done_SR_InterruptEnable();
 566:.\Generated_Source\PSoC5/USBFS.c ****             #endif /* (USBFS_EP_DMA_AUTO_OPT == 0u) */
 567:.\Generated_Source\PSoC5/USBFS.c ****         #endif /* (CY_PSOC4) */
 568:.\Generated_Source\PSoC5/USBFS.c ****     #endif /* (USBFS_EP_MANAGEMENT_DMA_AUTO) */
 569:.\Generated_Source\PSoC5/USBFS.c **** #endif /* (USBFS_EP_MANAGEMENT_DMA) */
 570:.\Generated_Source\PSoC5/USBFS.c **** 
 571:.\Generated_Source\PSoC5/USBFS.c ****     /* Enable USB regulator depends on operation voltage. IMO Locking is enabled in Init(). */
 572:.\Generated_Source\PSoC5/USBFS.c ****     switch(mode)
 270              		.loc 1 572 0
 271 004c 11B1     		cbz	r1, .L9
 272 004e 0129     		cmp	r1, #1
 273 0050 06D0     		beq	.L10
 274 0052 0BE0     		b	.L12
 275              	.L9:
 573:.\Generated_Source\PSoC5/USBFS.c ****     {
 574:.\Generated_Source\PSoC5/USBFS.c ****     case USBFS_3V_OPERATION:
 575:.\Generated_Source\PSoC5/USBFS.c ****         /* Disable regulator for 3V operation. */
 576:.\Generated_Source\PSoC5/USBFS.c ****         USBFS_CR1_REG &= (uint8) ~USBFS_CR1_REG_ENABLE;
 276              		.loc 1 576 0
 277 0054 184A     		ldr	r2, .L14+40
ARM GAS  C:\Users\Patrick\AppData\Local\Temp\cc4CvmVx.s 			page 16


 278 0056 1378     		ldrb	r3, [r2]	@ zero_extendqisi2
 279 0058 03F0FE03 		and	r3, r3, #254
 280 005c 1370     		strb	r3, [r2]
 577:.\Generated_Source\PSoC5/USBFS.c ****         break;
 281              		.loc 1 577 0
 282 005e 0AE0     		b	.L11
 283              	.L10:
 578:.\Generated_Source\PSoC5/USBFS.c **** 
 579:.\Generated_Source\PSoC5/USBFS.c ****     case USBFS_5V_OPERATION:
 580:.\Generated_Source\PSoC5/USBFS.c ****         /* Enable regulator for 5V operation. */
 581:.\Generated_Source\PSoC5/USBFS.c ****         USBFS_CR1_REG |= (uint8)  USBFS_CR1_REG_ENABLE;
 284              		.loc 1 581 0
 285 0060 154A     		ldr	r2, .L14+40
 286 0062 1378     		ldrb	r3, [r2]	@ zero_extendqisi2
 287 0064 43F00103 		orr	r3, r3, #1
 288 0068 1370     		strb	r3, [r2]
 582:.\Generated_Source\PSoC5/USBFS.c ****         break;
 289              		.loc 1 582 0
 290 006a 04E0     		b	.L11
 291              	.L12:
 583:.\Generated_Source\PSoC5/USBFS.c **** 
 584:.\Generated_Source\PSoC5/USBFS.c ****     default: /* Check DWR settings of USB power supply. */
 585:.\Generated_Source\PSoC5/USBFS.c ****     #if (USBFS_VDDD_MV < USBFS_3500MV)
 586:.\Generated_Source\PSoC5/USBFS.c ****         /* Disable regulator for 3V operation. */
 587:.\Generated_Source\PSoC5/USBFS.c ****         USBFS_CR1_REG &= (uint8) ~USBFS_CR1_REG_ENABLE;
 588:.\Generated_Source\PSoC5/USBFS.c ****     #else
 589:.\Generated_Source\PSoC5/USBFS.c ****         /* Enable regulator for 5V operation. */
 590:.\Generated_Source\PSoC5/USBFS.c ****         USBFS_CR1_REG |= (uint8)  USBFS_CR1_REG_ENABLE;
 292              		.loc 1 590 0
 293 006c 124A     		ldr	r2, .L14+40
 294 006e 1378     		ldrb	r3, [r2]	@ zero_extendqisi2
 295 0070 43F00103 		orr	r3, r3, #1
 296 0074 1370     		strb	r3, [r2]
 297              	.L11:
 591:.\Generated_Source\PSoC5/USBFS.c ****     #endif /* (USBFS_VDDD_MV < USBFS_3500MV) */
 592:.\Generated_Source\PSoC5/USBFS.c ****         break;
 593:.\Generated_Source\PSoC5/USBFS.c ****     }
 594:.\Generated_Source\PSoC5/USBFS.c **** 
 595:.\Generated_Source\PSoC5/USBFS.c **** #if (CY_PSOC4)
 596:.\Generated_Source\PSoC5/USBFS.c ****     /* Clear bus activity. */
 597:.\Generated_Source\PSoC5/USBFS.c ****     USBFS_CR1_REG &= (uint32) ~USBFS_CR1_BUS_ACTIVITY;
 598:.\Generated_Source\PSoC5/USBFS.c **** 
 599:.\Generated_Source\PSoC5/USBFS.c ****     /* Clear EP0 count register. */
 600:.\Generated_Source\PSoC5/USBFS.c ****     USBFS_EP0_CNT_REG = USBFS_CLEAR_REG;
 601:.\Generated_Source\PSoC5/USBFS.c **** 
 602:.\Generated_Source\PSoC5/USBFS.c ****     /* Set EP0.CR: ACK Setup, NAK IN/OUT. */
 603:.\Generated_Source\PSoC5/USBFS.c ****     USBFS_EP0_CR_REG = USBFS_MODE_NAK_IN_OUT;
 604:.\Generated_Source\PSoC5/USBFS.c **** 
 605:.\Generated_Source\PSoC5/USBFS.c ****     #if (USBFS_LPM_ACTIVE)
 606:.\Generated_Source\PSoC5/USBFS.c ****         if (NULL != USBFS_GetBOSPtr())
 607:.\Generated_Source\PSoC5/USBFS.c ****         {
 608:.\Generated_Source\PSoC5/USBFS.c ****             /* Enable LPM and acknowledge LPM packets for active device.
 609:.\Generated_Source\PSoC5/USBFS.c ****             * Reset NYET_EN and SUB_RESP bits in the LPM_CTRL register.
 610:.\Generated_Source\PSoC5/USBFS.c ****             */
 611:.\Generated_Source\PSoC5/USBFS.c ****             USBFS_LPM_CTRL_REG = (USBFS_LPM_CTRL_LPM_EN | \
 612:.\Generated_Source\PSoC5/USBFS.c ****                                              USBFS_LPM_CTRL_LPM_ACK_RESP);
 613:.\Generated_Source\PSoC5/USBFS.c ****         }
ARM GAS  C:\Users\Patrick\AppData\Local\Temp\cc4CvmVx.s 			page 17


 614:.\Generated_Source\PSoC5/USBFS.c ****         else
 615:.\Generated_Source\PSoC5/USBFS.c ****         {
 616:.\Generated_Source\PSoC5/USBFS.c ****             /* Disable LPM for active device. */
 617:.\Generated_Source\PSoC5/USBFS.c ****             USBFS_LPM_CTRL_REG &= (uint32) ~USBFS_LPM_CTRL_LPM_EN;
 618:.\Generated_Source\PSoC5/USBFS.c ****         }
 619:.\Generated_Source\PSoC5/USBFS.c ****     #endif /* (USBFS_LPM_ACTIVE) */
 620:.\Generated_Source\PSoC5/USBFS.c **** 
 621:.\Generated_Source\PSoC5/USBFS.c ****     /* Enable device to responds to USB traffic with address 0. */
 622:.\Generated_Source\PSoC5/USBFS.c ****     USBFS_CR0_REG = USBFS_DEFUALT_CR0;
 623:.\Generated_Source\PSoC5/USBFS.c **** 
 624:.\Generated_Source\PSoC5/USBFS.c **** #else
 625:.\Generated_Source\PSoC5/USBFS.c ****     /* Set EP0.CR: ACK Setup, STALL IN/OUT. */
 626:.\Generated_Source\PSoC5/USBFS.c ****     USBFS_EP0_CR_REG = USBFS_MODE_STALL_IN_OUT;
 298              		.loc 1 626 0
 299 0076 0322     		movs	r2, #3
 300 0078 104B     		ldr	r3, .L14+44
 301 007a 1A70     		strb	r2, [r3]
 627:.\Generated_Source\PSoC5/USBFS.c **** 
 628:.\Generated_Source\PSoC5/USBFS.c ****     /* Enable device to respond to USB traffic with address 0. */
 629:.\Generated_Source\PSoC5/USBFS.c ****     USBFS_CR0_REG = USBFS_DEFUALT_CR0;
 302              		.loc 1 629 0
 303 007c 8022     		movs	r2, #128
 304 007e 203B     		subs	r3, r3, #32
 305 0080 1A70     		strb	r2, [r3]
 630:.\Generated_Source\PSoC5/USBFS.c ****     CyDelayCycles(USBFS_WAIT_CR0_REG_STABILITY);
 306              		.loc 1 630 0
 307 0082 0120     		movs	r0, #1
 308              	.LVL24:
 309 0084 FFF7FEFF 		bl	CyDelayCycles
 310              	.LVL25:
 631:.\Generated_Source\PSoC5/USBFS.c **** #endif /* (CY_PSOC4) */
 632:.\Generated_Source\PSoC5/USBFS.c **** 
 633:.\Generated_Source\PSoC5/USBFS.c ****     /* Enable D+ pull-up and keep USB control on IO. */
 634:.\Generated_Source\PSoC5/USBFS.c ****     USBFS_USBIO_CR1_REG = USBFS_USBIO_CR1_USBPUEN;
 311              		.loc 1 634 0
 312 0088 0422     		movs	r2, #4
 313 008a 0D4B     		ldr	r3, .L14+48
 314 008c 1A70     		strb	r2, [r3]
 315 008e 10BD     		pop	{r4, pc}
 316              	.L15:
 317              		.align	2
 318              	.L14:
 319 0090 00000000 		.word	USBFS_hidProtocol
 320 0094 00000000 		.word	USBFS_device
 321 0098 00000000 		.word	USBFS_transferState
 322 009c 00000000 		.word	USBFS_configurationChanged
 323 00a0 00000000 		.word	USBFS_configuration
 324 00a4 00000000 		.word	USBFS_interfaceNumber
 325 00a8 00000000 		.word	USBFS_deviceAddress
 326 00ac 00000000 		.word	USBFS_deviceStatus
 327 00b0 00000000 		.word	USBFS_lastPacketSize
 328 00b4 00E100E0 		.word	-536813312
 329 00b8 09600040 		.word	1073766409
 330 00bc 28600040 		.word	1073766440
 331 00c0 12600040 		.word	1073766418
 332              		.cfi_endproc
 333              	.LFE2:
ARM GAS  C:\Users\Patrick\AppData\Local\Temp\cc4CvmVx.s 			page 18


 334              		.size	USBFS_InitComponent, .-USBFS_InitComponent
 335              		.section	.text.USBFS_Start,"ax",%progbits
 336              		.align	2
 337              		.global	USBFS_Start
 338              		.thumb
 339              		.thumb_func
 340              		.type	USBFS_Start, %function
 341              	USBFS_Start:
 342              	.LFB0:
 186:.\Generated_Source\PSoC5/USBFS.c ****     if (0u == USBFS_initVar)
 343              		.loc 1 186 0
 344              		.cfi_startproc
 345              		@ args = 0, pretend = 0, frame = 0
 346              		@ frame_needed = 0, uses_anonymous_args = 0
 347              	.LVL26:
 348 0000 38B5     		push	{r3, r4, r5, lr}
 349              		.cfi_def_cfa_offset 16
 350              		.cfi_offset 3, -16
 351              		.cfi_offset 4, -12
 352              		.cfi_offset 5, -8
 353              		.cfi_offset 14, -4
 354 0002 0546     		mov	r5, r0
 355 0004 0C46     		mov	r4, r1
 187:.\Generated_Source\PSoC5/USBFS.c ****     {
 356              		.loc 1 187 0
 357 0006 064B     		ldr	r3, .L19
 358 0008 1B78     		ldrb	r3, [r3]	@ zero_extendqisi2
 359 000a 23B9     		cbnz	r3, .L17
 189:.\Generated_Source\PSoC5/USBFS.c ****         USBFS_initVar = 1u;
 360              		.loc 1 189 0
 361 000c FFF7FEFF 		bl	USBFS_Init
 362              	.LVL27:
 190:.\Generated_Source\PSoC5/USBFS.c ****     }
 363              		.loc 1 190 0
 364 0010 0122     		movs	r2, #1
 365 0012 034B     		ldr	r3, .L19
 366 0014 1A70     		strb	r2, [r3]
 367              	.L17:
 193:.\Generated_Source\PSoC5/USBFS.c **** }
 368              		.loc 1 193 0
 369 0016 2846     		mov	r0, r5
 370 0018 2146     		mov	r1, r4
 371 001a FFF7FEFF 		bl	USBFS_InitComponent
 372              	.LVL28:
 373 001e 38BD     		pop	{r3, r4, r5, pc}
 374              	.L20:
 375              		.align	2
 376              	.L19:
 377 0020 00000000 		.word	.LANCHOR0
 378              		.cfi_endproc
 379              	.LFE0:
 380              		.size	USBFS_Start, .-USBFS_Start
 381              		.section	.text.USBFS_ReInitComponent,"ax",%progbits
 382              		.align	2
 383              		.global	USBFS_ReInitComponent
 384              		.thumb
 385              		.thumb_func
ARM GAS  C:\Users\Patrick\AppData\Local\Temp\cc4CvmVx.s 			page 19


 386              		.type	USBFS_ReInitComponent, %function
 387              	USBFS_ReInitComponent:
 388              	.LFB3:
 635:.\Generated_Source\PSoC5/USBFS.c **** }
 636:.\Generated_Source\PSoC5/USBFS.c **** 
 637:.\Generated_Source\PSoC5/USBFS.c **** 
 638:.\Generated_Source\PSoC5/USBFS.c **** /*******************************************************************************
 639:.\Generated_Source\PSoC5/USBFS.c **** * Function Name: USBFS_ReInitComponent
 640:.\Generated_Source\PSoC5/USBFS.c **** ****************************************************************************//**
 641:.\Generated_Source\PSoC5/USBFS.c **** *
 642:.\Generated_Source\PSoC5/USBFS.c **** *  This function reinitialize the component configuration and is
 643:.\Generated_Source\PSoC5/USBFS.c **** *  intend to be called from the Reset interrupt.
 644:.\Generated_Source\PSoC5/USBFS.c **** *
 645:.\Generated_Source\PSoC5/USBFS.c **** * \globalvars
 646:.\Generated_Source\PSoC5/USBFS.c **** *   USBFS_device - Contains the device number of the desired Device
 647:.\Generated_Source\PSoC5/USBFS.c **** *        Descriptor. The device number can be found in the Device Descriptor tab
 648:.\Generated_Source\PSoC5/USBFS.c **** *       of the Configure dialog, under the settings of the desired Device Descriptor,
 649:.\Generated_Source\PSoC5/USBFS.c **** *       in the Device Number field.
 650:.\Generated_Source\PSoC5/USBFS.c **** *   USBFS_transferState - This variable is used by the communication
 651:.\Generated_Source\PSoC5/USBFS.c **** *       functions to handle the current transfer state. Initialized to
 652:.\Generated_Source\PSoC5/USBFS.c **** *       TRANS_STATE_IDLE in this API.
 653:.\Generated_Source\PSoC5/USBFS.c **** *   USBFS_configuration - Contains the current configuration number
 654:.\Generated_Source\PSoC5/USBFS.c **** *       set by the Host using a SET_CONFIGURATION request.
 655:.\Generated_Source\PSoC5/USBFS.c **** *       Initialized to zero in this API.
 656:.\Generated_Source\PSoC5/USBFS.c **** *   USBFS_deviceAddress - Contains the current device address. This
 657:.\Generated_Source\PSoC5/USBFS.c **** *       variable is initialized to zero in this API. The Host starts to communicate
 658:.\Generated_Source\PSoC5/USBFS.c **** *      to the device with address 0 and then sets it to a whatever value using
 659:.\Generated_Source\PSoC5/USBFS.c **** *      a SET_ADDRESS request.
 660:.\Generated_Source\PSoC5/USBFS.c **** *   USBFS_deviceStatus - Initialized to 0.
 661:.\Generated_Source\PSoC5/USBFS.c **** *       This is a two-bit variable which contains the power status in the first bit
 662:.\Generated_Source\PSoC5/USBFS.c **** *       (DEVICE_STATUS_BUS_POWERED or DEVICE_STATUS_SELF_POWERED) and the remote
 663:.\Generated_Source\PSoC5/USBFS.c **** *       wakeup status (DEVICE_STATUS_REMOTE_WAKEUP) in the second bit.
 664:.\Generated_Source\PSoC5/USBFS.c **** *   USBFS_lastPacketSize - Initialized to 0;
 665:.\Generated_Source\PSoC5/USBFS.c **** *
 666:.\Generated_Source\PSoC5/USBFS.c **** * \reentrant
 667:.\Generated_Source\PSoC5/USBFS.c **** *  No.
 668:.\Generated_Source\PSoC5/USBFS.c **** *
 669:.\Generated_Source\PSoC5/USBFS.c **** *******************************************************************************/
 670:.\Generated_Source\PSoC5/USBFS.c **** void USBFS_ReInitComponent(void) 
 671:.\Generated_Source\PSoC5/USBFS.c **** {
 389              		.loc 1 671 0
 390              		.cfi_startproc
 391              		@ args = 0, pretend = 0, frame = 0
 392              		@ frame_needed = 0, uses_anonymous_args = 0
 393              		@ link register save eliminated.
 394              	.LVL29:
 672:.\Generated_Source\PSoC5/USBFS.c ****     /* Initialize _hidProtocol variable to comply with HID 7.2.6 Set_Protocol
 673:.\Generated_Source\PSoC5/USBFS.c ****     *  Request: "When initialized, all devices default to report protocol."
 674:.\Generated_Source\PSoC5/USBFS.c ****     */
 675:.\Generated_Source\PSoC5/USBFS.c **** #if defined(USBFS_ENABLE_HID_CLASS)
 676:.\Generated_Source\PSoC5/USBFS.c ****     uint8 i;
 677:.\Generated_Source\PSoC5/USBFS.c **** 
 678:.\Generated_Source\PSoC5/USBFS.c ****     for (i = 0u; i < USBFS_MAX_INTERFACES_NUMBER; i++)
 395              		.loc 1 678 0
 396 0000 0023     		movs	r3, #0
 397 0002 04E0     		b	.L22
 398              	.LVL30:
ARM GAS  C:\Users\Patrick\AppData\Local\Temp\cc4CvmVx.s 			page 20


 399              	.L23:
 679:.\Generated_Source\PSoC5/USBFS.c ****     {
 680:.\Generated_Source\PSoC5/USBFS.c ****         USBFS_hidProtocol[i] = USBFS_PROTOCOL_REPORT;
 400              		.loc 1 680 0 discriminator 3
 401 0004 0121     		movs	r1, #1
 402 0006 0E4A     		ldr	r2, .L24
 403 0008 D154     		strb	r1, [r2, r3]
 678:.\Generated_Source\PSoC5/USBFS.c ****     {
 404              		.loc 1 678 0 discriminator 3
 405 000a 0B44     		add	r3, r3, r1
 406              	.LVL31:
 407 000c DBB2     		uxtb	r3, r3
 408              	.LVL32:
 409              	.L22:
 678:.\Generated_Source\PSoC5/USBFS.c ****     {
 410              		.loc 1 678 0 is_stmt 0 discriminator 1
 411 000e 002B     		cmp	r3, #0
 412 0010 F8D0     		beq	.L23
 681:.\Generated_Source\PSoC5/USBFS.c ****     }
 682:.\Generated_Source\PSoC5/USBFS.c **** #endif /* USBFS_ENABLE_HID_CLASS */
 683:.\Generated_Source\PSoC5/USBFS.c **** 
 684:.\Generated_Source\PSoC5/USBFS.c ****     /* Reset component internal variables. */
 685:.\Generated_Source\PSoC5/USBFS.c ****     USBFS_transferState   = USBFS_TRANS_STATE_IDLE;
 413              		.loc 1 685 0 is_stmt 1
 414 0012 0023     		movs	r3, #0
 415              	.LVL33:
 416 0014 0B4A     		ldr	r2, .L24+4
 417 0016 1370     		strb	r3, [r2]
 686:.\Generated_Source\PSoC5/USBFS.c ****     USBFS_configurationChanged = 0u;
 418              		.loc 1 686 0
 419 0018 0B4A     		ldr	r2, .L24+8
 420 001a 1370     		strb	r3, [r2]
 687:.\Generated_Source\PSoC5/USBFS.c ****     USBFS_configuration   = 0u;
 421              		.loc 1 687 0
 422 001c 0B4A     		ldr	r2, .L24+12
 423 001e 1370     		strb	r3, [r2]
 688:.\Generated_Source\PSoC5/USBFS.c ****     USBFS_interfaceNumber = 0u;
 424              		.loc 1 688 0
 425 0020 0B4A     		ldr	r2, .L24+16
 426 0022 1370     		strb	r3, [r2]
 689:.\Generated_Source\PSoC5/USBFS.c ****     USBFS_deviceAddress   = 0u;
 427              		.loc 1 689 0
 428 0024 0B4A     		ldr	r2, .L24+20
 429 0026 1370     		strb	r3, [r2]
 690:.\Generated_Source\PSoC5/USBFS.c ****     USBFS_deviceStatus    = 0u;
 430              		.loc 1 690 0
 431 0028 0B4A     		ldr	r2, .L24+24
 432 002a 1370     		strb	r3, [r2]
 691:.\Generated_Source\PSoC5/USBFS.c ****     USBFS_lastPacketSize  = 0u;
 433              		.loc 1 691 0
 434 002c 0B4A     		ldr	r2, .L24+28
 435 002e 1370     		strb	r3, [r2]
 692:.\Generated_Source\PSoC5/USBFS.c **** 
 693:.\Generated_Source\PSoC5/USBFS.c **** #if (CY_PSOC4)
 694:.\Generated_Source\PSoC5/USBFS.c ****     /* Set EP0.CR: ACK Setup, NAK IN/OUT. */
 695:.\Generated_Source\PSoC5/USBFS.c ****     USBFS_EP0_CR_REG = USBFS_MODE_NAK_IN_OUT;
 696:.\Generated_Source\PSoC5/USBFS.c **** #else
ARM GAS  C:\Users\Patrick\AppData\Local\Temp\cc4CvmVx.s 			page 21


 697:.\Generated_Source\PSoC5/USBFS.c ****     /* Set EP0.CR: ACK Setup, STALL IN/OUT. */
 698:.\Generated_Source\PSoC5/USBFS.c ****     USBFS_EP0_CR_REG = USBFS_MODE_STALL_IN_OUT;
 436              		.loc 1 698 0
 437 0030 0322     		movs	r2, #3
 438 0032 0B4B     		ldr	r3, .L24+32
 439 0034 1A70     		strb	r2, [r3]
 699:.\Generated_Source\PSoC5/USBFS.c **** #endif /* (CY_PSOC4) */
 700:.\Generated_Source\PSoC5/USBFS.c **** 
 701:.\Generated_Source\PSoC5/USBFS.c ****     /* Enable device to respond to USB traffic with address 0. */
 702:.\Generated_Source\PSoC5/USBFS.c ****     USBFS_CR0_REG = USBFS_DEFUALT_CR0;
 440              		.loc 1 702 0
 441 0036 8022     		movs	r2, #128
 442 0038 203B     		subs	r3, r3, #32
 443 003a 1A70     		strb	r2, [r3]
 444 003c 7047     		bx	lr
 445              	.L25:
 446 003e 00BF     		.align	2
 447              	.L24:
 448 0040 00000000 		.word	USBFS_hidProtocol
 449 0044 00000000 		.word	USBFS_transferState
 450 0048 00000000 		.word	USBFS_configurationChanged
 451 004c 00000000 		.word	USBFS_configuration
 452 0050 00000000 		.word	USBFS_interfaceNumber
 453 0054 00000000 		.word	USBFS_deviceAddress
 454 0058 00000000 		.word	USBFS_deviceStatus
 455 005c 00000000 		.word	USBFS_lastPacketSize
 456 0060 28600040 		.word	1073766440
 457              		.cfi_endproc
 458              	.LFE3:
 459              		.size	USBFS_ReInitComponent, .-USBFS_ReInitComponent
 460              		.section	.text.USBFS_Stop,"ax",%progbits
 461              		.align	2
 462              		.global	USBFS_Stop
 463              		.thumb
 464              		.thumb_func
 465              		.type	USBFS_Stop, %function
 466              	USBFS_Stop:
 467              	.LFB4:
 703:.\Generated_Source\PSoC5/USBFS.c **** }
 704:.\Generated_Source\PSoC5/USBFS.c **** 
 705:.\Generated_Source\PSoC5/USBFS.c **** 
 706:.\Generated_Source\PSoC5/USBFS.c **** /*******************************************************************************
 707:.\Generated_Source\PSoC5/USBFS.c **** * Function Name: USBFS_Stop
 708:.\Generated_Source\PSoC5/USBFS.c **** ****************************************************************************//**
 709:.\Generated_Source\PSoC5/USBFS.c **** *
 710:.\Generated_Source\PSoC5/USBFS.c **** *  This function shuts down the USB function including to release
 711:.\Generated_Source\PSoC5/USBFS.c **** *  the D+ pull-up and disabling the SIE.
 712:.\Generated_Source\PSoC5/USBFS.c **** *
 713:.\Generated_Source\PSoC5/USBFS.c **** * \globalvars
 714:.\Generated_Source\PSoC5/USBFS.c **** *   \ref USBFS_configuration
 715:.\Generated_Source\PSoC5/USBFS.c **** *
 716:.\Generated_Source\PSoC5/USBFS.c **** *   USBFS_deviceAddress - Contains the current device address. This
 717:.\Generated_Source\PSoC5/USBFS.c **** *       variable is initialized to zero in this API. The Host starts to communicate
 718:.\Generated_Source\PSoC5/USBFS.c **** *      to the device with address 0 and then sets it to a whatever value using
 719:.\Generated_Source\PSoC5/USBFS.c **** *      a SET_ADDRESS request.
 720:.\Generated_Source\PSoC5/USBFS.c **** *
 721:.\Generated_Source\PSoC5/USBFS.c **** *   \ref USBFS_deviceStatus
ARM GAS  C:\Users\Patrick\AppData\Local\Temp\cc4CvmVx.s 			page 22


 722:.\Generated_Source\PSoC5/USBFS.c **** *
 723:.\Generated_Source\PSoC5/USBFS.c **** *   \ref USBFS_configurationChanged
 724:.\Generated_Source\PSoC5/USBFS.c **** *
 725:.\Generated_Source\PSoC5/USBFS.c **** *   USBFS_intiVar -  This variable is set to zero
 726:.\Generated_Source\PSoC5/USBFS.c **** *
 727:.\Generated_Source\PSoC5/USBFS.c **** *******************************************************************************/
 728:.\Generated_Source\PSoC5/USBFS.c **** void USBFS_Stop(void) 
 729:.\Generated_Source\PSoC5/USBFS.c **** {
 468              		.loc 1 729 0
 469              		.cfi_startproc
 470              		@ args = 0, pretend = 0, frame = 0
 471              		@ frame_needed = 0, uses_anonymous_args = 0
 472 0000 08B5     		push	{r3, lr}
 473              		.cfi_def_cfa_offset 8
 474              		.cfi_offset 3, -8
 475              		.cfi_offset 14, -4
 730:.\Generated_Source\PSoC5/USBFS.c ****     uint8 enableInterrupts;
 731:.\Generated_Source\PSoC5/USBFS.c **** 
 732:.\Generated_Source\PSoC5/USBFS.c **** #if (USBFS_EP_MANAGEMENT_DMA)
 733:.\Generated_Source\PSoC5/USBFS.c ****     /* Stop all DMA channels. */
 734:.\Generated_Source\PSoC5/USBFS.c ****     USBFS_Stop_DMA(USBFS_MAX_EP);
 735:.\Generated_Source\PSoC5/USBFS.c **** #endif /* (USBFS_EP_MANAGEMENT_DMA) */
 736:.\Generated_Source\PSoC5/USBFS.c **** 
 737:.\Generated_Source\PSoC5/USBFS.c ****     enableInterrupts = CyEnterCriticalSection();
 476              		.loc 1 737 0
 477 0002 FFF7FEFF 		bl	CyEnterCriticalSection
 478              	.LVL34:
 738:.\Generated_Source\PSoC5/USBFS.c **** 
 739:.\Generated_Source\PSoC5/USBFS.c ****     /* Disable USB IP to respond to USB traffic. */
 740:.\Generated_Source\PSoC5/USBFS.c ****     USBFS_CR0_REG &= (uint8) ~USBFS_CR0_ENABLE;
 479              		.loc 1 740 0
 480 0006 184A     		ldr	r2, .L28
 481 0008 1378     		ldrb	r3, [r2]	@ zero_extendqisi2
 482 000a 03F07F03 		and	r3, r3, #127
 483 000e 1370     		strb	r3, [r2]
 741:.\Generated_Source\PSoC5/USBFS.c **** 
 742:.\Generated_Source\PSoC5/USBFS.c ****     /* Disable D+ pull-up. */
 743:.\Generated_Source\PSoC5/USBFS.c ****     USBFS_USBIO_CR1_REG &= (uint8) ~ USBFS_USBIO_CR1_USBPUEN;
 484              		.loc 1 743 0
 485 0010 0A32     		adds	r2, r2, #10
 486 0012 1378     		ldrb	r3, [r2]	@ zero_extendqisi2
 487 0014 03F0FB03 		and	r3, r3, #251
 488 0018 1370     		strb	r3, [r2]
 744:.\Generated_Source\PSoC5/USBFS.c **** 
 745:.\Generated_Source\PSoC5/USBFS.c **** #if (CY_PSOC4)
 746:.\Generated_Source\PSoC5/USBFS.c ****     /* Disable USBFS block. */
 747:.\Generated_Source\PSoC5/USBFS.c ****     USBFS_POWER_CTRL_REG &= (uint32) ~USBFS_POWER_CTRL_ENABLE;
 748:.\Generated_Source\PSoC5/USBFS.c **** #else
 749:.\Generated_Source\PSoC5/USBFS.c ****     /* Clear power active and standby mode templates. */
 750:.\Generated_Source\PSoC5/USBFS.c ****     USBFS_PM_ACT_CFG_REG  &= (uint8) ~USBFS_PM_ACT_EN_FSUSB;
 489              		.loc 1 750 0
 490 001a A2F5E352 		sub	r2, r2, #7264
 491 001e 0D3A     		subs	r2, r2, #13
 492 0020 1378     		ldrb	r3, [r2]	@ zero_extendqisi2
 493 0022 03F0FE03 		and	r3, r3, #254
 494 0026 1370     		strb	r3, [r2]
 751:.\Generated_Source\PSoC5/USBFS.c ****     USBFS_PM_STBY_CFG_REG &= (uint8) ~USBFS_PM_STBY_EN_FSUSB;
ARM GAS  C:\Users\Patrick\AppData\Local\Temp\cc4CvmVx.s 			page 23


 495              		.loc 1 751 0
 496 0028 1032     		adds	r2, r2, #16
 497 002a 1378     		ldrb	r3, [r2]	@ zero_extendqisi2
 498 002c 03F0FE03 		and	r3, r3, #254
 499 0030 1370     		strb	r3, [r2]
 752:.\Generated_Source\PSoC5/USBFS.c **** #endif /* (CY_PSOC4) */
 753:.\Generated_Source\PSoC5/USBFS.c **** 
 754:.\Generated_Source\PSoC5/USBFS.c ****     CyExitCriticalSection(enableInterrupts);
 500              		.loc 1 754 0
 501 0032 FFF7FEFF 		bl	CyExitCriticalSection
 502              	.LVL35:
 755:.\Generated_Source\PSoC5/USBFS.c **** 
 756:.\Generated_Source\PSoC5/USBFS.c ****     /* Disable component interrupts. */
 757:.\Generated_Source\PSoC5/USBFS.c **** #if (CY_PSOC4)
 758:.\Generated_Source\PSoC5/USBFS.c ****     CyIntDisable(USBFS_INTR_HI_VECT_NUM);
 759:.\Generated_Source\PSoC5/USBFS.c ****     CyIntDisable(USBFS_INTR_LO_VECT_NUM);
 760:.\Generated_Source\PSoC5/USBFS.c ****     CyIntDisable(USBFS_INTR_MED_VECT_NUM);
 761:.\Generated_Source\PSoC5/USBFS.c **** #else
 762:.\Generated_Source\PSoC5/USBFS.c **** 
 763:.\Generated_Source\PSoC5/USBFS.c ****     CyIntDisable(USBFS_BUS_RESET_VECT_NUM);
 503              		.loc 1 763 0
 504 0036 0D4B     		ldr	r3, .L28+4
 505 0038 4FF40002 		mov	r2, #8388608
 506 003c 1A60     		str	r2, [r3]
 764:.\Generated_Source\PSoC5/USBFS.c ****     CyIntDisable(USBFS_EP_0_VECT_NUM);
 507              		.loc 1 764 0
 508 003e 4FF08072 		mov	r2, #16777216
 509 0042 1A60     		str	r2, [r3]
 765:.\Generated_Source\PSoC5/USBFS.c **** 
 766:.\Generated_Source\PSoC5/USBFS.c ****     #if (USBFS_SOF_ISR_ACTIVE)
 767:.\Generated_Source\PSoC5/USBFS.c ****         CyIntDisable(USBFS_SOF_VECT_NUM);
 768:.\Generated_Source\PSoC5/USBFS.c ****     #endif /* (USBFS_SOF_ISR_ACTIVE) */
 769:.\Generated_Source\PSoC5/USBFS.c **** 
 770:.\Generated_Source\PSoC5/USBFS.c ****     #if (USBFS_EP1_ISR_ACTIVE)
 771:.\Generated_Source\PSoC5/USBFS.c ****         CyIntDisable(USBFS_EP_1_VECT_NUM);
 510              		.loc 1 771 0
 511 0044 0122     		movs	r2, #1
 512 0046 1A60     		str	r2, [r3]
 772:.\Generated_Source\PSoC5/USBFS.c ****     #endif /* (USBFS_EP1_ISR_ACTIVE) */
 773:.\Generated_Source\PSoC5/USBFS.c **** 
 774:.\Generated_Source\PSoC5/USBFS.c ****     #if (USBFS_EP2_ISR_ACTIVE)
 775:.\Generated_Source\PSoC5/USBFS.c ****         CyIntDisable(USBFS_EP_2_VECT_NUM);
 513              		.loc 1 775 0
 514 0048 0222     		movs	r2, #2
 515 004a 1A60     		str	r2, [r3]
 776:.\Generated_Source\PSoC5/USBFS.c ****     #endif /* (USBFS_EP2_ISR_ACTIVE) */
 777:.\Generated_Source\PSoC5/USBFS.c **** 
 778:.\Generated_Source\PSoC5/USBFS.c ****     #if (USBFS_EP3_ISR_ACTIVE)
 779:.\Generated_Source\PSoC5/USBFS.c ****         CyIntDisable(USBFS_EP_3_VECT_NUM);
 780:.\Generated_Source\PSoC5/USBFS.c ****     #endif /* (USBFS_EP3_ISR_ACTIVE) */
 781:.\Generated_Source\PSoC5/USBFS.c **** 
 782:.\Generated_Source\PSoC5/USBFS.c ****     #if (USBFS_EP4_ISR_ACTIVE)
 783:.\Generated_Source\PSoC5/USBFS.c ****         CyIntDisable(USBFS_EP_4_VECT_NUM);
 784:.\Generated_Source\PSoC5/USBFS.c ****     #endif /* (USBFS_EP4_ISR_ACTIVE) */
 785:.\Generated_Source\PSoC5/USBFS.c **** 
 786:.\Generated_Source\PSoC5/USBFS.c ****     #if (USBFS_EP5_ISR_ACTIVE)
 787:.\Generated_Source\PSoC5/USBFS.c ****         CyIntDisable(USBFS_EP_5_VECT_NUM);
ARM GAS  C:\Users\Patrick\AppData\Local\Temp\cc4CvmVx.s 			page 24


 788:.\Generated_Source\PSoC5/USBFS.c ****     #endif /* (USBFS_EP5_ISR_ACTIVE) */
 789:.\Generated_Source\PSoC5/USBFS.c **** 
 790:.\Generated_Source\PSoC5/USBFS.c ****     #if (USBFS_EP6_ISR_ACTIVE)
 791:.\Generated_Source\PSoC5/USBFS.c ****         CyIntDisable(USBFS_EP_6_VECT_NUM);
 792:.\Generated_Source\PSoC5/USBFS.c ****     #endif /* USBFS_EP6_ISR_REMOVE */
 793:.\Generated_Source\PSoC5/USBFS.c **** 
 794:.\Generated_Source\PSoC5/USBFS.c ****     #if (USBFS_EP7_ISR_ACTIVE)
 795:.\Generated_Source\PSoC5/USBFS.c ****         CyIntDisable(USBFS_EP_7_VECT_NUM);
 796:.\Generated_Source\PSoC5/USBFS.c ****     #endif /* (USBFS_EP7_ISR_ACTIVE) */
 797:.\Generated_Source\PSoC5/USBFS.c **** 
 798:.\Generated_Source\PSoC5/USBFS.c ****     #if (USBFS_EP8_ISR_ACTIVE)
 799:.\Generated_Source\PSoC5/USBFS.c ****         CyIntDisable(USBFS_EP_8_VECT_NUM);
 800:.\Generated_Source\PSoC5/USBFS.c ****     #endif /* (USBFS_EP8_ISR_ACTIVE) */
 801:.\Generated_Source\PSoC5/USBFS.c **** #endif /* (CY_PSOC4) */
 802:.\Generated_Source\PSoC5/USBFS.c **** 
 803:.\Generated_Source\PSoC5/USBFS.c ****     /* Reset component internal variables. */
 804:.\Generated_Source\PSoC5/USBFS.c ****     USBFS_configurationChanged = 0u;
 516              		.loc 1 804 0
 517 004c 0023     		movs	r3, #0
 518 004e 084A     		ldr	r2, .L28+8
 519 0050 1370     		strb	r3, [r2]
 805:.\Generated_Source\PSoC5/USBFS.c ****     USBFS_configuration   = 0u;
 520              		.loc 1 805 0
 521 0052 084A     		ldr	r2, .L28+12
 522 0054 1370     		strb	r3, [r2]
 806:.\Generated_Source\PSoC5/USBFS.c ****     USBFS_interfaceNumber = 0u;
 523              		.loc 1 806 0
 524 0056 084A     		ldr	r2, .L28+16
 525 0058 1370     		strb	r3, [r2]
 807:.\Generated_Source\PSoC5/USBFS.c ****     USBFS_deviceAddress   = 0u;
 526              		.loc 1 807 0
 527 005a 084A     		ldr	r2, .L28+20
 528 005c 1370     		strb	r3, [r2]
 808:.\Generated_Source\PSoC5/USBFS.c ****     USBFS_deviceStatus    = 0u;
 529              		.loc 1 808 0
 530 005e 084A     		ldr	r2, .L28+24
 531 0060 1370     		strb	r3, [r2]
 809:.\Generated_Source\PSoC5/USBFS.c **** 
 810:.\Generated_Source\PSoC5/USBFS.c ****     /* It is mandatory for correct device startup. */
 811:.\Generated_Source\PSoC5/USBFS.c ****     USBFS_initVar = 0u;
 532              		.loc 1 811 0
 533 0062 084A     		ldr	r2, .L28+28
 534 0064 1370     		strb	r3, [r2]
 535 0066 08BD     		pop	{r3, pc}
 536              	.L29:
 537              		.align	2
 538              	.L28:
 539 0068 08600040 		.word	1073766408
 540 006c 80E100E0 		.word	-536813184
 541 0070 00000000 		.word	USBFS_configurationChanged
 542 0074 00000000 		.word	USBFS_configuration
 543 0078 00000000 		.word	USBFS_interfaceNumber
 544 007c 00000000 		.word	USBFS_deviceAddress
 545 0080 00000000 		.word	USBFS_deviceStatus
 546 0084 00000000 		.word	.LANCHOR0
 547              		.cfi_endproc
 548              	.LFE4:
ARM GAS  C:\Users\Patrick\AppData\Local\Temp\cc4CvmVx.s 			page 25


 549              		.size	USBFS_Stop, .-USBFS_Stop
 550              		.section	.text.USBFS_CheckActivity,"ax",%progbits
 551              		.align	2
 552              		.global	USBFS_CheckActivity
 553              		.thumb
 554              		.thumb_func
 555              		.type	USBFS_CheckActivity, %function
 556              	USBFS_CheckActivity:
 557              	.LFB5:
 812:.\Generated_Source\PSoC5/USBFS.c **** }
 813:.\Generated_Source\PSoC5/USBFS.c **** 
 814:.\Generated_Source\PSoC5/USBFS.c **** 
 815:.\Generated_Source\PSoC5/USBFS.c **** /*******************************************************************************
 816:.\Generated_Source\PSoC5/USBFS.c **** * Function Name: USBFS_CheckActivity
 817:.\Generated_Source\PSoC5/USBFS.c **** ****************************************************************************//**
 818:.\Generated_Source\PSoC5/USBFS.c **** *
 819:.\Generated_Source\PSoC5/USBFS.c **** *  This function returns the activity status of the bus. It clears the hardware
 820:.\Generated_Source\PSoC5/USBFS.c **** *  status to provide updated status on the next call of this function. It
 821:.\Generated_Source\PSoC5/USBFS.c **** *  provides a way to determine whether any USB bus activity occurred. The
 822:.\Generated_Source\PSoC5/USBFS.c **** *  application should use this function to determine if the USB suspend
 823:.\Generated_Source\PSoC5/USBFS.c **** *  conditions are met.
 824:.\Generated_Source\PSoC5/USBFS.c **** *
 825:.\Generated_Source\PSoC5/USBFS.c **** *
 826:.\Generated_Source\PSoC5/USBFS.c **** * \return
 827:.\Generated_Source\PSoC5/USBFS.c **** *  cystatus: Status of the bus since the last call of the function.
 828:.\Generated_Source\PSoC5/USBFS.c **** *  Return Value |   Description
 829:.\Generated_Source\PSoC5/USBFS.c **** *  -------------|---------------------------------------------------------------
 830:.\Generated_Source\PSoC5/USBFS.c **** *  1            |Bus activity was detected since the last call to this function
 831:.\Generated_Source\PSoC5/USBFS.c **** *  0            |Bus activity was not detected since the last call to this function
 832:.\Generated_Source\PSoC5/USBFS.c **** *
 833:.\Generated_Source\PSoC5/USBFS.c **** *
 834:.\Generated_Source\PSoC5/USBFS.c **** *******************************************************************************/
 835:.\Generated_Source\PSoC5/USBFS.c **** uint8 USBFS_CheckActivity(void) 
 836:.\Generated_Source\PSoC5/USBFS.c **** {
 558              		.loc 1 836 0
 559              		.cfi_startproc
 560              		@ args = 0, pretend = 0, frame = 0
 561              		@ frame_needed = 0, uses_anonymous_args = 0
 562              		@ link register save eliminated.
 837:.\Generated_Source\PSoC5/USBFS.c ****     uint8 cr1Reg = USBFS_CR1_REG;
 563              		.loc 1 837 0
 564 0000 064A     		ldr	r2, .L32
 565 0002 1378     		ldrb	r3, [r2]	@ zero_extendqisi2
 566 0004 DBB2     		uxtb	r3, r3
 567              	.LVL36:
 838:.\Generated_Source\PSoC5/USBFS.c **** 
 839:.\Generated_Source\PSoC5/USBFS.c ****     /* Clear bus activity. */
 840:.\Generated_Source\PSoC5/USBFS.c ****     USBFS_CR1_REG = (cr1Reg & (uint8) ~USBFS_CR1_BUS_ACTIVITY);
 568              		.loc 1 840 0
 569 0006 03F0FB01 		and	r1, r3, #251
 570 000a 1170     		strb	r1, [r2]
 841:.\Generated_Source\PSoC5/USBFS.c **** 
 842:.\Generated_Source\PSoC5/USBFS.c ****     /* Get bus activity. */
 843:.\Generated_Source\PSoC5/USBFS.c ****     return ((0u != (cr1Reg & USBFS_CR1_BUS_ACTIVITY)) ? (1u) : (0u));
 571              		.loc 1 843 0
 572 000c 03F00403 		and	r3, r3, #4
 573              	.LVL37:
ARM GAS  C:\Users\Patrick\AppData\Local\Temp\cc4CvmVx.s 			page 26


 574 0010 03F0FF00 		and	r0, r3, #255
 575 0014 03B1     		cbz	r3, .L31
 576 0016 0120     		movs	r0, #1
 577              	.L31:
 844:.\Generated_Source\PSoC5/USBFS.c **** }
 578              		.loc 1 844 0 discriminator 4
 579 0018 7047     		bx	lr
 580              	.L33:
 581 001a 00BF     		.align	2
 582              	.L32:
 583 001c 09600040 		.word	1073766409
 584              		.cfi_endproc
 585              	.LFE5:
 586              		.size	USBFS_CheckActivity, .-USBFS_CheckActivity
 587              		.section	.text.USBFS_GetConfiguration,"ax",%progbits
 588              		.align	2
 589              		.global	USBFS_GetConfiguration
 590              		.thumb
 591              		.thumb_func
 592              		.type	USBFS_GetConfiguration, %function
 593              	USBFS_GetConfiguration:
 594              	.LFB6:
 845:.\Generated_Source\PSoC5/USBFS.c **** 
 846:.\Generated_Source\PSoC5/USBFS.c **** 
 847:.\Generated_Source\PSoC5/USBFS.c **** /*******************************************************************************
 848:.\Generated_Source\PSoC5/USBFS.c **** * Function Name: USBFS_GetConfiguration
 849:.\Generated_Source\PSoC5/USBFS.c **** ****************************************************************************//**
 850:.\Generated_Source\PSoC5/USBFS.c **** *
 851:.\Generated_Source\PSoC5/USBFS.c **** *  This function gets the current configuration of the USB device.
 852:.\Generated_Source\PSoC5/USBFS.c **** *
 853:.\Generated_Source\PSoC5/USBFS.c **** * \return
 854:.\Generated_Source\PSoC5/USBFS.c **** *  Returns the currently assigned configuration. Returns 0 if the device
 855:.\Generated_Source\PSoC5/USBFS.c **** *  is not configured
 856:.\Generated_Source\PSoC5/USBFS.c **** *
 857:.\Generated_Source\PSoC5/USBFS.c **** *******************************************************************************/
 858:.\Generated_Source\PSoC5/USBFS.c **** uint8 USBFS_GetConfiguration(void) 
 859:.\Generated_Source\PSoC5/USBFS.c **** {
 595              		.loc 1 859 0
 596              		.cfi_startproc
 597              		@ args = 0, pretend = 0, frame = 0
 598              		@ frame_needed = 0, uses_anonymous_args = 0
 599              		@ link register save eliminated.
 860:.\Generated_Source\PSoC5/USBFS.c ****     return (USBFS_configuration);
 600              		.loc 1 860 0
 601 0000 014B     		ldr	r3, .L35
 602 0002 1878     		ldrb	r0, [r3]	@ zero_extendqisi2
 861:.\Generated_Source\PSoC5/USBFS.c **** }
 603              		.loc 1 861 0
 604 0004 7047     		bx	lr
 605              	.L36:
 606 0006 00BF     		.align	2
 607              	.L35:
 608 0008 00000000 		.word	USBFS_configuration
 609              		.cfi_endproc
 610              	.LFE6:
 611              		.size	USBFS_GetConfiguration, .-USBFS_GetConfiguration
 612              		.section	.text.USBFS_IsConfigurationChanged,"ax",%progbits
ARM GAS  C:\Users\Patrick\AppData\Local\Temp\cc4CvmVx.s 			page 27


 613              		.align	2
 614              		.global	USBFS_IsConfigurationChanged
 615              		.thumb
 616              		.thumb_func
 617              		.type	USBFS_IsConfigurationChanged, %function
 618              	USBFS_IsConfigurationChanged:
 619              	.LFB7:
 862:.\Generated_Source\PSoC5/USBFS.c **** 
 863:.\Generated_Source\PSoC5/USBFS.c **** 
 864:.\Generated_Source\PSoC5/USBFS.c **** /*******************************************************************************
 865:.\Generated_Source\PSoC5/USBFS.c **** * Function Name: USBFS_IsConfigurationChanged
 866:.\Generated_Source\PSoC5/USBFS.c **** ****************************************************************************//**
 867:.\Generated_Source\PSoC5/USBFS.c **** *
 868:.\Generated_Source\PSoC5/USBFS.c **** *  This function returns the clear-on-read configuration state.  It is useful
 869:.\Generated_Source\PSoC5/USBFS.c **** *  when the host sends double SET_CONFIGURATION request with the same 
 870:.\Generated_Source\PSoC5/USBFS.c **** *  configuration number or changes alternate settings of the interface. 
 871:.\Generated_Source\PSoC5/USBFS.c **** *  After configuration has been changed the OUT endpoints must be enabled and IN 
 872:.\Generated_Source\PSoC5/USBFS.c **** *  endpoint must be loaded with data to start communication with the host.
 873:.\Generated_Source\PSoC5/USBFS.c **** *
 874:.\Generated_Source\PSoC5/USBFS.c **** * \return
 875:.\Generated_Source\PSoC5/USBFS.c **** *  None-zero value when new configuration has been changed, otherwise zero is
 876:.\Generated_Source\PSoC5/USBFS.c **** *  returned.
 877:.\Generated_Source\PSoC5/USBFS.c **** *
 878:.\Generated_Source\PSoC5/USBFS.c **** * \globalvars
 879:.\Generated_Source\PSoC5/USBFS.c **** *
 880:.\Generated_Source\PSoC5/USBFS.c **** *  \ref USBFS_configurationChanged - This variable is set to 1 after
 881:.\Generated_Source\PSoC5/USBFS.c **** *   a SET_CONFIGURATION request and cleared in this function.
 882:.\Generated_Source\PSoC5/USBFS.c **** *
 883:.\Generated_Source\PSoC5/USBFS.c **** *******************************************************************************/
 884:.\Generated_Source\PSoC5/USBFS.c **** uint8 USBFS_IsConfigurationChanged(void) 
 885:.\Generated_Source\PSoC5/USBFS.c **** {
 620              		.loc 1 885 0
 621              		.cfi_startproc
 622              		@ args = 0, pretend = 0, frame = 0
 623              		@ frame_needed = 0, uses_anonymous_args = 0
 624              		@ link register save eliminated.
 625              	.LVL38:
 886:.\Generated_Source\PSoC5/USBFS.c ****     uint8 res = 0u;
 887:.\Generated_Source\PSoC5/USBFS.c **** 
 888:.\Generated_Source\PSoC5/USBFS.c ****     if (USBFS_configurationChanged != 0u)
 626              		.loc 1 888 0
 627 0000 064B     		ldr	r3, .L40
 628 0002 1B78     		ldrb	r3, [r3]	@ zero_extendqisi2
 629 0004 13F0FF0F 		tst	r3, #255
 630 0008 05D0     		beq	.L39
 889:.\Generated_Source\PSoC5/USBFS.c ****     {
 890:.\Generated_Source\PSoC5/USBFS.c ****         res = USBFS_configurationChanged;
 631              		.loc 1 890 0
 632 000a 044B     		ldr	r3, .L40
 633 000c 1878     		ldrb	r0, [r3]	@ zero_extendqisi2
 634 000e C0B2     		uxtb	r0, r0
 635              	.LVL39:
 891:.\Generated_Source\PSoC5/USBFS.c ****         USBFS_configurationChanged = 0u;
 636              		.loc 1 891 0
 637 0010 0022     		movs	r2, #0
 638 0012 1A70     		strb	r2, [r3]
 639 0014 7047     		bx	lr
ARM GAS  C:\Users\Patrick\AppData\Local\Temp\cc4CvmVx.s 			page 28


 640              	.LVL40:
 641              	.L39:
 886:.\Generated_Source\PSoC5/USBFS.c ****     uint8 res = 0u;
 642              		.loc 1 886 0
 643 0016 0020     		movs	r0, #0
 644              	.LVL41:
 892:.\Generated_Source\PSoC5/USBFS.c ****     }
 893:.\Generated_Source\PSoC5/USBFS.c **** 
 894:.\Generated_Source\PSoC5/USBFS.c ****     return (res);
 895:.\Generated_Source\PSoC5/USBFS.c **** }
 645              		.loc 1 895 0
 646 0018 7047     		bx	lr
 647              	.L41:
 648 001a 00BF     		.align	2
 649              	.L40:
 650 001c 00000000 		.word	USBFS_configurationChanged
 651              		.cfi_endproc
 652              	.LFE7:
 653              		.size	USBFS_IsConfigurationChanged, .-USBFS_IsConfigurationChanged
 654              		.section	.text.USBFS_GetInterfaceSetting,"ax",%progbits
 655              		.align	2
 656              		.global	USBFS_GetInterfaceSetting
 657              		.thumb
 658              		.thumb_func
 659              		.type	USBFS_GetInterfaceSetting, %function
 660              	USBFS_GetInterfaceSetting:
 661              	.LFB8:
 896:.\Generated_Source\PSoC5/USBFS.c **** 
 897:.\Generated_Source\PSoC5/USBFS.c **** 
 898:.\Generated_Source\PSoC5/USBFS.c **** /*******************************************************************************
 899:.\Generated_Source\PSoC5/USBFS.c **** * Function Name: USBFS_GetInterfaceSetting
 900:.\Generated_Source\PSoC5/USBFS.c **** ****************************************************************************//**
 901:.\Generated_Source\PSoC5/USBFS.c **** *
 902:.\Generated_Source\PSoC5/USBFS.c **** *  This function gets the current alternate setting for the specified interface.
 903:.\Generated_Source\PSoC5/USBFS.c **** *  It is useful to identify which alternate settings are active in the specified 
 904:.\Generated_Source\PSoC5/USBFS.c **** *  interface.
 905:.\Generated_Source\PSoC5/USBFS.c **** *
 906:.\Generated_Source\PSoC5/USBFS.c **** *  \param
 907:.\Generated_Source\PSoC5/USBFS.c **** *  interfaceNumber interface number
 908:.\Generated_Source\PSoC5/USBFS.c **** *
 909:.\Generated_Source\PSoC5/USBFS.c **** * \return
 910:.\Generated_Source\PSoC5/USBFS.c **** *  Returns the current alternate setting for the specified interface.
 911:.\Generated_Source\PSoC5/USBFS.c **** *
 912:.\Generated_Source\PSoC5/USBFS.c **** *******************************************************************************/
 913:.\Generated_Source\PSoC5/USBFS.c **** uint8  USBFS_GetInterfaceSetting(uint8 interfaceNumber)
 914:.\Generated_Source\PSoC5/USBFS.c ****                                                     
 915:.\Generated_Source\PSoC5/USBFS.c **** {
 662              		.loc 1 915 0
 663              		.cfi_startproc
 664              		@ args = 0, pretend = 0, frame = 0
 665              		@ frame_needed = 0, uses_anonymous_args = 0
 666              		@ link register save eliminated.
 667              	.LVL42:
 916:.\Generated_Source\PSoC5/USBFS.c ****     return (USBFS_interfaceSetting[interfaceNumber]);
 668              		.loc 1 916 0
 669 0000 014B     		ldr	r3, .L43
 670 0002 185C     		ldrb	r0, [r3, r0]	@ zero_extendqisi2
ARM GAS  C:\Users\Patrick\AppData\Local\Temp\cc4CvmVx.s 			page 29


 671              	.LVL43:
 917:.\Generated_Source\PSoC5/USBFS.c **** }
 672              		.loc 1 917 0
 673 0004 7047     		bx	lr
 674              	.L44:
 675 0006 00BF     		.align	2
 676              	.L43:
 677 0008 00000000 		.word	USBFS_interfaceSetting
 678              		.cfi_endproc
 679              	.LFE8:
 680              		.size	USBFS_GetInterfaceSetting, .-USBFS_GetInterfaceSetting
 681              		.section	.text.USBFS_GetEPState,"ax",%progbits
 682              		.align	2
 683              		.global	USBFS_GetEPState
 684              		.thumb
 685              		.thumb_func
 686              		.type	USBFS_GetEPState, %function
 687              	USBFS_GetEPState:
 688              	.LFB9:
 918:.\Generated_Source\PSoC5/USBFS.c **** 
 919:.\Generated_Source\PSoC5/USBFS.c **** 
 920:.\Generated_Source\PSoC5/USBFS.c **** /*******************************************************************************
 921:.\Generated_Source\PSoC5/USBFS.c **** * Function Name: USBFS_GetEPState
 922:.\Generated_Source\PSoC5/USBFS.c **** ****************************************************************************//**
 923:.\Generated_Source\PSoC5/USBFS.c **** *
 924:.\Generated_Source\PSoC5/USBFS.c **** *  This function returns the state of the requested endpoint.
 925:.\Generated_Source\PSoC5/USBFS.c **** *
 926:.\Generated_Source\PSoC5/USBFS.c **** * \param epNumber Data endpoint number
 927:.\Generated_Source\PSoC5/USBFS.c **** *
 928:.\Generated_Source\PSoC5/USBFS.c **** * \return
 929:.\Generated_Source\PSoC5/USBFS.c **** *  Returns the current state of the specified USBFS endpoint. Symbolic names and
 930:.\Generated_Source\PSoC5/USBFS.c **** *  their associated values are given in the following table. Use these constants
 931:.\Generated_Source\PSoC5/USBFS.c **** *  whenever you write code to change the state of the endpoints, such as ISR
 932:.\Generated_Source\PSoC5/USBFS.c **** *  code, to handle data sent or received.
 933:.\Generated_Source\PSoC5/USBFS.c **** *
 934:.\Generated_Source\PSoC5/USBFS.c **** *  Return Value           | Description
 935:.\Generated_Source\PSoC5/USBFS.c **** *  -----------------------|-----------------------------------------------------
 936:.\Generated_Source\PSoC5/USBFS.c **** *  USBFS_NO_EVENT_PENDING |The endpoint is awaiting SIE action
 937:.\Generated_Source\PSoC5/USBFS.c **** *  USBFS_EVENT_PENDING    |The endpoint is awaiting CPU action
 938:.\Generated_Source\PSoC5/USBFS.c **** *  USBFS_NO_EVENT_ALLOWED |The endpoint is locked from access
 939:.\Generated_Source\PSoC5/USBFS.c **** *  USBFS_IN_BUFFER_FULL   |The IN endpoint is loaded and the mode is set to ACK IN
 940:.\Generated_Source\PSoC5/USBFS.c **** *  USBFS_IN_BUFFER_EMPTY  |An IN transaction occurred and more data can be loaded
 941:.\Generated_Source\PSoC5/USBFS.c **** *  USBFS_OUT_BUFFER_EMPTY |The OUT endpoint is set to ACK OUT and is waiting for data
 942:.\Generated_Source\PSoC5/USBFS.c **** *  USBFS_OUT_BUFFER_FULL  |An OUT transaction has occurred and data can be read
 943:.\Generated_Source\PSoC5/USBFS.c **** *
 944:.\Generated_Source\PSoC5/USBFS.c **** *******************************************************************************/
 945:.\Generated_Source\PSoC5/USBFS.c **** uint8 USBFS_GetEPState(uint8 epNumber) 
 946:.\Generated_Source\PSoC5/USBFS.c **** {
 689              		.loc 1 946 0
 690              		.cfi_startproc
 691              		@ args = 0, pretend = 0, frame = 0
 692              		@ frame_needed = 0, uses_anonymous_args = 0
 693              		@ link register save eliminated.
 694              	.LVL44:
 947:.\Generated_Source\PSoC5/USBFS.c ****     return (USBFS_EP[epNumber].apiEpState);
 695              		.loc 1 947 0
 696 0000 00EB4000 		add	r0, r0, r0, lsl #1
ARM GAS  C:\Users\Patrick\AppData\Local\Temp\cc4CvmVx.s 			page 30


 697              	.LVL45:
 698 0004 8000     		lsls	r0, r0, #2
 699 0006 024B     		ldr	r3, .L46
 700 0008 1844     		add	r0, r0, r3
 701 000a 4078     		ldrb	r0, [r0, #1]	@ zero_extendqisi2
 948:.\Generated_Source\PSoC5/USBFS.c **** }
 702              		.loc 1 948 0
 703 000c 7047     		bx	lr
 704              	.L47:
 705 000e 00BF     		.align	2
 706              	.L46:
 707 0010 00000000 		.word	USBFS_EP
 708              		.cfi_endproc
 709              	.LFE9:
 710              		.size	USBFS_GetEPState, .-USBFS_GetEPState
 711              		.section	.text.USBFS_GetEPCount,"ax",%progbits
 712              		.align	2
 713              		.global	USBFS_GetEPCount
 714              		.thumb
 715              		.thumb_func
 716              		.type	USBFS_GetEPCount, %function
 717              	USBFS_GetEPCount:
 718              	.LFB10:
 949:.\Generated_Source\PSoC5/USBFS.c **** 
 950:.\Generated_Source\PSoC5/USBFS.c **** 
 951:.\Generated_Source\PSoC5/USBFS.c **** /*******************************************************************************
 952:.\Generated_Source\PSoC5/USBFS.c **** * Function Name: USBFS_GetEPCount
 953:.\Generated_Source\PSoC5/USBFS.c **** ****************************************************************************//**
 954:.\Generated_Source\PSoC5/USBFS.c **** *
 955:.\Generated_Source\PSoC5/USBFS.c **** *  This function supports Data Endpoints only(EP1-EP8).
 956:.\Generated_Source\PSoC5/USBFS.c **** *  Returns the transfer count for the requested endpoint.  The value from
 957:.\Generated_Source\PSoC5/USBFS.c **** *  the count registers includes 2 counts for the two byte checksum of the
 958:.\Generated_Source\PSoC5/USBFS.c **** *  packet.  This function subtracts the two counts.
 959:.\Generated_Source\PSoC5/USBFS.c **** *
 960:.\Generated_Source\PSoC5/USBFS.c **** *  \param epNumber Data Endpoint Number.
 961:.\Generated_Source\PSoC5/USBFS.c **** *                   Valid values are between 1 and 8.
 962:.\Generated_Source\PSoC5/USBFS.c **** *
 963:.\Generated_Source\PSoC5/USBFS.c **** * \return
 964:.\Generated_Source\PSoC5/USBFS.c **** *  Returns the current byte count from the specified endpoint or 0 for an
 965:.\Generated_Source\PSoC5/USBFS.c **** *  invalid endpoint.
 966:.\Generated_Source\PSoC5/USBFS.c **** *
 967:.\Generated_Source\PSoC5/USBFS.c **** *******************************************************************************/
 968:.\Generated_Source\PSoC5/USBFS.c **** uint16 USBFS_GetEPCount(uint8 epNumber) 
 969:.\Generated_Source\PSoC5/USBFS.c **** {
 719              		.loc 1 969 0
 720              		.cfi_startproc
 721              		@ args = 0, pretend = 0, frame = 0
 722              		@ frame_needed = 0, uses_anonymous_args = 0
 723              		@ link register save eliminated.
 724              	.LVL46:
 970:.\Generated_Source\PSoC5/USBFS.c ****     uint16 cntr = 0u;
 971:.\Generated_Source\PSoC5/USBFS.c **** 
 972:.\Generated_Source\PSoC5/USBFS.c ****     if ((epNumber > USBFS_EP0) && (epNumber < USBFS_MAX_EP))
 725              		.loc 1 972 0
 726 0000 431E     		subs	r3, r0, #1
 727 0002 DBB2     		uxtb	r3, r3
 728 0004 072B     		cmp	r3, #7
ARM GAS  C:\Users\Patrick\AppData\Local\Temp\cc4CvmVx.s 			page 31


 729 0006 0BD8     		bhi	.L50
 973:.\Generated_Source\PSoC5/USBFS.c ****     {
 974:.\Generated_Source\PSoC5/USBFS.c ****         /* Get 11-bits EP counter where epCnt0 - 3 bits MSB and epCnt1 - 8 bits LSB. */
 975:.\Generated_Source\PSoC5/USBFS.c ****         cntr  = ((uint16) USBFS_SIE_EP_BASE.sieEp[epNumber].epCnt0) & USBFS_EPX_CNT0_MASK;
 730              		.loc 1 975 0
 731 0008 064B     		ldr	r3, .L51
 732 000a 0001     		lsls	r0, r0, #4
 733              	.LVL47:
 734 000c 1A18     		adds	r2, r3, r0
 735 000e 185C     		ldrb	r0, [r3, r0]	@ zero_extendqisi2
 736 0010 00F00F00 		and	r0, r0, #15
 737              	.LVL48:
 976:.\Generated_Source\PSoC5/USBFS.c ****         cntr  = ((uint16) (cntr << 8u)) | ((uint16) USBFS_SIE_EP_BASE.sieEp[epNumber].epCnt1);
 738              		.loc 1 976 0
 739 0014 5378     		ldrb	r3, [r2, #1]	@ zero_extendqisi2
 740 0016 43EA0020 		orr	r0, r3, r0, lsl #8
 741              	.LVL49:
 977:.\Generated_Source\PSoC5/USBFS.c ****         cntr -= USBFS_EPX_CNTX_CRC_COUNT;
 742              		.loc 1 977 0
 743 001a 0238     		subs	r0, r0, #2
 744              	.LVL50:
 745 001c 80B2     		uxth	r0, r0
 746              	.LVL51:
 747 001e 7047     		bx	lr
 748              	.LVL52:
 749              	.L50:
 970:.\Generated_Source\PSoC5/USBFS.c **** 
 750              		.loc 1 970 0
 751 0020 0020     		movs	r0, #0
 752              	.LVL53:
 978:.\Generated_Source\PSoC5/USBFS.c ****     }
 979:.\Generated_Source\PSoC5/USBFS.c **** 
 980:.\Generated_Source\PSoC5/USBFS.c ****     return (cntr);
 981:.\Generated_Source\PSoC5/USBFS.c **** }
 753              		.loc 1 981 0
 754 0022 7047     		bx	lr
 755              	.L52:
 756              		.align	2
 757              	.L51:
 758 0024 FC5F0040 		.word	1073766396
 759              		.cfi_endproc
 760              	.LFE10:
 761              		.size	USBFS_GetEPCount, .-USBFS_GetEPCount
 762              		.section	.text.USBFS_LoadInEP,"ax",%progbits
 763              		.align	2
 764              		.global	USBFS_LoadInEP
 765              		.thumb
 766              		.thumb_func
 767              		.type	USBFS_LoadInEP, %function
 768              	USBFS_LoadInEP:
 769              	.LFB11:
 982:.\Generated_Source\PSoC5/USBFS.c **** 
 983:.\Generated_Source\PSoC5/USBFS.c **** 
 984:.\Generated_Source\PSoC5/USBFS.c **** #if (USBFS_EP_MANAGEMENT_DMA)
 985:.\Generated_Source\PSoC5/USBFS.c **** #if (CY_PSOC4)
 986:.\Generated_Source\PSoC5/USBFS.c ****     /*******************************************************************************
 987:.\Generated_Source\PSoC5/USBFS.c ****     * Function Name: USBFS_InitEpDma
ARM GAS  C:\Users\Patrick\AppData\Local\Temp\cc4CvmVx.s 			page 32


 988:.\Generated_Source\PSoC5/USBFS.c ****     ****************************************************************************//**
 989:.\Generated_Source\PSoC5/USBFS.c ****     *
 990:.\Generated_Source\PSoC5/USBFS.c ****     *  This function configures priority for all DMA channels utilized by the
 991:.\Generated_Source\PSoC5/USBFS.c ****     *  component. Also sets callbacks for DMA auto mode.
 992:.\Generated_Source\PSoC5/USBFS.c ****     *
 993:.\Generated_Source\PSoC5/USBFS.c ****     *******************************************************************************/
 994:.\Generated_Source\PSoC5/USBFS.c ****     static void USBFS_InitEpDma(void)
 995:.\Generated_Source\PSoC5/USBFS.c ****     {
 996:.\Generated_Source\PSoC5/USBFS.c ****     #if (USBFS_DMA1_ACTIVE)
 997:.\Generated_Source\PSoC5/USBFS.c ****         CYDMA_CH_CTL_BASE.ctl[USBFS_ep1_dma_CHANNEL] = USBFS_ep1_dma_CHANNEL_CFG;
 998:.\Generated_Source\PSoC5/USBFS.c ****     #endif /* (USBFS_DMA1_ACTIVE) */
 999:.\Generated_Source\PSoC5/USBFS.c **** 
1000:.\Generated_Source\PSoC5/USBFS.c ****     #if (USBFS_DMA2_ACTIVE)
1001:.\Generated_Source\PSoC5/USBFS.c ****         CYDMA_CH_CTL_BASE.ctl[USBFS_ep2_dma_CHANNEL] = USBFS_ep2_dma_CHANNEL_CFG;
1002:.\Generated_Source\PSoC5/USBFS.c ****     #endif /* (USBFS_DMA2_ACTIVE) */
1003:.\Generated_Source\PSoC5/USBFS.c **** 
1004:.\Generated_Source\PSoC5/USBFS.c ****     #if (USBFS_DMA3_ACTIVE)
1005:.\Generated_Source\PSoC5/USBFS.c ****         CYDMA_CH_CTL_BASE.ctl[USBFS_ep3_dma_CHANNEL] = USBFS_ep3_dma_CHANNEL_CFG;
1006:.\Generated_Source\PSoC5/USBFS.c ****     #endif /* (USBFS_DMA3_ACTIVE) */
1007:.\Generated_Source\PSoC5/USBFS.c **** 
1008:.\Generated_Source\PSoC5/USBFS.c ****     #if (USBFS_DMA4_ACTIVE)
1009:.\Generated_Source\PSoC5/USBFS.c ****         CYDMA_CH_CTL_BASE.ctl[USBFS_ep4_dma_CHANNEL] = USBFS_ep4_dma_CHANNEL_CFG;
1010:.\Generated_Source\PSoC5/USBFS.c ****     #endif /* (USBFS_DMA4_ACTIVE) */
1011:.\Generated_Source\PSoC5/USBFS.c **** 
1012:.\Generated_Source\PSoC5/USBFS.c ****     #if (USBFS_DMA5_ACTIVE)
1013:.\Generated_Source\PSoC5/USBFS.c ****         CYDMA_CH_CTL_BASE.ctl[USBFS_ep5_dma_CHANNEL] = USBFS_ep5_dma_CHANNEL_CFG;
1014:.\Generated_Source\PSoC5/USBFS.c ****     #endif /* (USBFS_DMA5_ACTIVE) */
1015:.\Generated_Source\PSoC5/USBFS.c **** 
1016:.\Generated_Source\PSoC5/USBFS.c ****     #if (USBFS_DMA6_ACTIVE)
1017:.\Generated_Source\PSoC5/USBFS.c ****         CYDMA_CH_CTL_BASE.ctl[USBFS_ep6_dma_CHANNEL] = USBFS_ep6_dma_CHANNEL_CFG;
1018:.\Generated_Source\PSoC5/USBFS.c ****     #endif /* (USBFS_DMA6_ACTIVE) */
1019:.\Generated_Source\PSoC5/USBFS.c **** 
1020:.\Generated_Source\PSoC5/USBFS.c ****     #if (USBFS_DMA7_ACTIVE)
1021:.\Generated_Source\PSoC5/USBFS.c ****         CYDMA_CH_CTL_BASE.ctl[USBFS_ep7_dma_CHANNEL] = USBFS_ep7_dma_CHANNEL_CFG;
1022:.\Generated_Source\PSoC5/USBFS.c ****     #endif /* (USBFS_DMA7_ACTIVE) */
1023:.\Generated_Source\PSoC5/USBFS.c **** 
1024:.\Generated_Source\PSoC5/USBFS.c ****     #if (USBFS_DMA8_ACTIVE)
1025:.\Generated_Source\PSoC5/USBFS.c ****         CYDMA_CH_CTL_BASE.ctl[USBFS_ep8_dma_CHANNEL] = USBFS_ep8_dma_CHANNEL_CFG;
1026:.\Generated_Source\PSoC5/USBFS.c ****     #endif /* (USBFS_DMA8_ACTIVE) */
1027:.\Generated_Source\PSoC5/USBFS.c **** 
1028:.\Generated_Source\PSoC5/USBFS.c ****     #if (USBFS_EP_MANAGEMENT_DMA_AUTO)
1029:.\Generated_Source\PSoC5/USBFS.c ****         /* Initialize DMA channel callbacks. */
1030:.\Generated_Source\PSoC5/USBFS.c ****         #if (USBFS_DMA1_ACTIVE)
1031:.\Generated_Source\PSoC5/USBFS.c ****             (void) USBFS_ep1_dma_SetInterruptCallback(&USBFS_EP1_DMA_DONE_ISR);
1032:.\Generated_Source\PSoC5/USBFS.c ****         #endif /* (USBFS_DMA1_ACTIVE) */
1033:.\Generated_Source\PSoC5/USBFS.c **** 
1034:.\Generated_Source\PSoC5/USBFS.c ****         #if (USBFS_DMA2_ACTIVE)
1035:.\Generated_Source\PSoC5/USBFS.c ****             (void) USBFS_ep2_dma_SetInterruptCallback(&USBFS_EP2_DMA_DONE_ISR);
1036:.\Generated_Source\PSoC5/USBFS.c ****         #endif /* (USBFS_DMA2_ACTIVE) */
1037:.\Generated_Source\PSoC5/USBFS.c **** 
1038:.\Generated_Source\PSoC5/USBFS.c ****         #if (USBFS_DMA3_ACTIVE)
1039:.\Generated_Source\PSoC5/USBFS.c ****             (void) USBFS_ep3_dma_SetInterruptCallback(&USBFS_EP3_DMA_DONE_ISR);
1040:.\Generated_Source\PSoC5/USBFS.c ****         #endif /* (USBFS_DMA3_ACTIVE) */
1041:.\Generated_Source\PSoC5/USBFS.c **** 
1042:.\Generated_Source\PSoC5/USBFS.c ****         #if (USBFS_DMA4_ACTIVE)
1043:.\Generated_Source\PSoC5/USBFS.c ****             (void) USBFS_ep4_dma_SetInterruptCallback(&USBFS_EP4_DMA_DONE_ISR);
1044:.\Generated_Source\PSoC5/USBFS.c ****         #endif /* (USBFS_DMA4_ACTIVE) */
ARM GAS  C:\Users\Patrick\AppData\Local\Temp\cc4CvmVx.s 			page 33


1045:.\Generated_Source\PSoC5/USBFS.c **** 
1046:.\Generated_Source\PSoC5/USBFS.c ****         #if (USBFS_DMA5_ACTIVE)
1047:.\Generated_Source\PSoC5/USBFS.c ****             (void) USBFS_ep5_dma_SetInterruptCallback(&USBFS_EP5_DMA_DONE_ISR);
1048:.\Generated_Source\PSoC5/USBFS.c ****         #endif /* (USBFS_DMA5_ACTIVE) */
1049:.\Generated_Source\PSoC5/USBFS.c **** 
1050:.\Generated_Source\PSoC5/USBFS.c ****         #if (USBFS_DMA6_ACTIVE)
1051:.\Generated_Source\PSoC5/USBFS.c ****             (void) USBFS_ep6_dma_SetInterruptCallback(&USBFS_EP6_DMA_DONE_ISR);
1052:.\Generated_Source\PSoC5/USBFS.c ****         #endif /* (USBFS_DMA6_ACTIVE) */
1053:.\Generated_Source\PSoC5/USBFS.c **** 
1054:.\Generated_Source\PSoC5/USBFS.c ****         #if (USBFS_DMA7_ACTIVE)
1055:.\Generated_Source\PSoC5/USBFS.c ****             (void) USBFS_ep7_dma_SetInterruptCallback(&USBFS_EP7_DMA_DONE_ISR);
1056:.\Generated_Source\PSoC5/USBFS.c ****         #endif /* (USBFS_DMA7_ACTIVE) */
1057:.\Generated_Source\PSoC5/USBFS.c **** 
1058:.\Generated_Source\PSoC5/USBFS.c ****         #if (USBFS_DMA8_ACTIVE)
1059:.\Generated_Source\PSoC5/USBFS.c ****             (void) USBFS_ep8_dma_SetInterruptCallback(&USBFS_EP8_DMA_DONE_ISR);
1060:.\Generated_Source\PSoC5/USBFS.c ****         #endif /* (USBFS_DMA8_ACTIVE) */
1061:.\Generated_Source\PSoC5/USBFS.c ****     #endif /* (USBFS_EP_MANAGEMENT_DMA_AUTO) */
1062:.\Generated_Source\PSoC5/USBFS.c ****     }
1063:.\Generated_Source\PSoC5/USBFS.c **** #else
1064:.\Generated_Source\PSoC5/USBFS.c **** 
1065:.\Generated_Source\PSoC5/USBFS.c **** 
1066:.\Generated_Source\PSoC5/USBFS.c ****     /***************************************************************************
1067:.\Generated_Source\PSoC5/USBFS.c ****     * Function Name: USBFS_InitEP_DMA
1068:.\Generated_Source\PSoC5/USBFS.c ****     ************************************************************************//**
1069:.\Generated_Source\PSoC5/USBFS.c ****     *
1070:.\Generated_Source\PSoC5/USBFS.c ****     *  This function allocates and initializes a DMA channel to be used by the
1071:.\Generated_Source\PSoC5/USBFS.c ****     *  USBFS_LoadInEP() or USBFS_ReadOutEP() APIs for data
1072:.\Generated_Source\PSoC5/USBFS.c ****     *  transfer. It is available when the Endpoint Memory Management parameter
1073:.\Generated_Source\PSoC5/USBFS.c ****     *  is set to DMA.
1074:.\Generated_Source\PSoC5/USBFS.c ****     *
1075:.\Generated_Source\PSoC5/USBFS.c ****     *  This function is automatically called from the USBFS_LoadInEP() and USBFS_ReadOutEP() APIs.
1076:.\Generated_Source\PSoC5/USBFS.c ****     *
1077:.\Generated_Source\PSoC5/USBFS.c ****     *  \param epNumber Contains the data endpoint number.
1078:.\Generated_Source\PSoC5/USBFS.c ****     *            Valid values are between 1 and 8.
1079:.\Generated_Source\PSoC5/USBFS.c ****     *  \param *pData Pointer to a data array that is related to the EP transfers.
1080:.\Generated_Source\PSoC5/USBFS.c ****     *
1081:.\Generated_Source\PSoC5/USBFS.c ****     * \reentrant No.
1082:.\Generated_Source\PSoC5/USBFS.c ****     *
1083:.\Generated_Source\PSoC5/USBFS.c ****     ***************************************************************************/
1084:.\Generated_Source\PSoC5/USBFS.c ****     void USBFS_InitEP_DMA(uint8 epNumber, const uint8 *pData)
1085:.\Generated_Source\PSoC5/USBFS.c ****                                                                     
1086:.\Generated_Source\PSoC5/USBFS.c ****     {
1087:.\Generated_Source\PSoC5/USBFS.c ****         uint16 src;
1088:.\Generated_Source\PSoC5/USBFS.c ****         uint16 dst;
1089:.\Generated_Source\PSoC5/USBFS.c **** 
1090:.\Generated_Source\PSoC5/USBFS.c ****     #if (CY_PSOC3)
1091:.\Generated_Source\PSoC5/USBFS.c ****         src = HI16(CYDEV_SRAM_BASE);
1092:.\Generated_Source\PSoC5/USBFS.c ****         dst = HI16(CYDEV_PERIPH_BASE);
1093:.\Generated_Source\PSoC5/USBFS.c ****         pData = pData;
1094:.\Generated_Source\PSoC5/USBFS.c ****     #else
1095:.\Generated_Source\PSoC5/USBFS.c ****         if ((USBFS_EP[epNumber].addr & USBFS_DIR_IN) != 0u)
1096:.\Generated_Source\PSoC5/USBFS.c ****         {
1097:.\Generated_Source\PSoC5/USBFS.c ****             /* IN endpoint: source is memory buffer. */
1098:.\Generated_Source\PSoC5/USBFS.c ****             src = HI16(pData);
1099:.\Generated_Source\PSoC5/USBFS.c ****             dst = HI16(CYDEV_PERIPH_BASE);
1100:.\Generated_Source\PSoC5/USBFS.c ****         }
1101:.\Generated_Source\PSoC5/USBFS.c ****         else
ARM GAS  C:\Users\Patrick\AppData\Local\Temp\cc4CvmVx.s 			page 34


1102:.\Generated_Source\PSoC5/USBFS.c ****         {
1103:.\Generated_Source\PSoC5/USBFS.c ****             /* OUT endpoint: source is USB IP memory buffer. */
1104:.\Generated_Source\PSoC5/USBFS.c ****             src = HI16(CYDEV_PERIPH_BASE);
1105:.\Generated_Source\PSoC5/USBFS.c ****             dst = HI16(pData);
1106:.\Generated_Source\PSoC5/USBFS.c ****         }
1107:.\Generated_Source\PSoC5/USBFS.c ****     #endif  /* (CY_PSOC3) */
1108:.\Generated_Source\PSoC5/USBFS.c **** 
1109:.\Generated_Source\PSoC5/USBFS.c ****         switch(epNumber)
1110:.\Generated_Source\PSoC5/USBFS.c ****         {
1111:.\Generated_Source\PSoC5/USBFS.c ****     #if (USBFS_DMA1_ACTIVE)
1112:.\Generated_Source\PSoC5/USBFS.c ****         case USBFS_EP1:
1113:.\Generated_Source\PSoC5/USBFS.c ****             USBFS_DmaChan[epNumber] = USBFS_ep1_DmaInitialize(USBFS_DMA_BYTES_PER_BURST,
1114:.\Generated_Source\PSoC5/USBFS.c ****                                                                                     USBFS_DMA_REQUE
1115:.\Generated_Source\PSoC5/USBFS.c ****             break;
1116:.\Generated_Source\PSoC5/USBFS.c ****     #endif /* (USBFS_DMA1_ACTIVE) */
1117:.\Generated_Source\PSoC5/USBFS.c **** 
1118:.\Generated_Source\PSoC5/USBFS.c ****     #if (USBFS_DMA2_ACTIVE)
1119:.\Generated_Source\PSoC5/USBFS.c ****         case USBFS_EP2:
1120:.\Generated_Source\PSoC5/USBFS.c ****             USBFS_DmaChan[epNumber] = USBFS_ep2_DmaInitialize(USBFS_DMA_BYTES_PER_BURST,
1121:.\Generated_Source\PSoC5/USBFS.c ****                                                                                     USBFS_DMA_REQUE
1122:.\Generated_Source\PSoC5/USBFS.c ****             break;
1123:.\Generated_Source\PSoC5/USBFS.c ****     #endif /* (USBFS_DMA2_ACTIVE) */
1124:.\Generated_Source\PSoC5/USBFS.c **** 
1125:.\Generated_Source\PSoC5/USBFS.c ****     #if (USBFS_DMA3_ACTIVE)
1126:.\Generated_Source\PSoC5/USBFS.c ****             case USBFS_EP3:
1127:.\Generated_Source\PSoC5/USBFS.c ****                 USBFS_DmaChan[epNumber] = USBFS_ep3_DmaInitialize(USBFS_DMA_BYTES_PER_BURST,
1128:.\Generated_Source\PSoC5/USBFS.c ****                                                                                         USBFS_DMA_R
1129:.\Generated_Source\PSoC5/USBFS.c ****             break;
1130:.\Generated_Source\PSoC5/USBFS.c ****     #endif /* (USBFS_DMA3_ACTIVE) */
1131:.\Generated_Source\PSoC5/USBFS.c **** 
1132:.\Generated_Source\PSoC5/USBFS.c ****     #if (USBFS_DMA4_ACTIVE)
1133:.\Generated_Source\PSoC5/USBFS.c ****             case USBFS_EP4:
1134:.\Generated_Source\PSoC5/USBFS.c ****                 USBFS_DmaChan[epNumber] = USBFS_ep4_DmaInitialize(USBFS_DMA_BYTES_PER_BURST,
1135:.\Generated_Source\PSoC5/USBFS.c ****                                                                                         USBFS_DMA_R
1136:.\Generated_Source\PSoC5/USBFS.c ****             break;
1137:.\Generated_Source\PSoC5/USBFS.c ****     #endif /* (USBFS_DMA4_ACTIVE) */
1138:.\Generated_Source\PSoC5/USBFS.c **** 
1139:.\Generated_Source\PSoC5/USBFS.c ****     #if (USBFS_DMA5_ACTIVE)
1140:.\Generated_Source\PSoC5/USBFS.c ****             case USBFS_EP5:
1141:.\Generated_Source\PSoC5/USBFS.c ****                 USBFS_DmaChan[epNumber] = USBFS_ep5_DmaInitialize(USBFS_DMA_BYTES_PER_BURST,
1142:.\Generated_Source\PSoC5/USBFS.c ****                                                                                         USBFS_DMA_R
1143:.\Generated_Source\PSoC5/USBFS.c ****             break;
1144:.\Generated_Source\PSoC5/USBFS.c ****     #endif /* (USBFS_DMA5_ACTIVE) */
1145:.\Generated_Source\PSoC5/USBFS.c **** 
1146:.\Generated_Source\PSoC5/USBFS.c ****     #if (USBFS_DMA6_ACTIVE)
1147:.\Generated_Source\PSoC5/USBFS.c ****         case USBFS_EP6:
1148:.\Generated_Source\PSoC5/USBFS.c ****             USBFS_DmaChan[epNumber] = USBFS_ep6_DmaInitialize(USBFS_DMA_BYTES_PER_BURST,
1149:.\Generated_Source\PSoC5/USBFS.c ****                                                                                     USBFS_DMA_REQUE
1150:.\Generated_Source\PSoC5/USBFS.c ****             break;
1151:.\Generated_Source\PSoC5/USBFS.c ****     #endif /* (USBFS_DMA6_ACTIVE) */
1152:.\Generated_Source\PSoC5/USBFS.c **** 
1153:.\Generated_Source\PSoC5/USBFS.c ****     #if (USBFS_DMA7_ACTIVE)
1154:.\Generated_Source\PSoC5/USBFS.c ****         case USBFS_EP7:
1155:.\Generated_Source\PSoC5/USBFS.c ****                 USBFS_DmaChan[epNumber] = USBFS_ep7_DmaInitialize(USBFS_DMA_BYTES_PER_BURST,
1156:.\Generated_Source\PSoC5/USBFS.c ****                                                                                         USBFS_DMA_R
1157:.\Generated_Source\PSoC5/USBFS.c ****             break;
1158:.\Generated_Source\PSoC5/USBFS.c ****     #endif /* (USBFS_DMA7_ACTIVE) */
ARM GAS  C:\Users\Patrick\AppData\Local\Temp\cc4CvmVx.s 			page 35


1159:.\Generated_Source\PSoC5/USBFS.c **** 
1160:.\Generated_Source\PSoC5/USBFS.c ****     #if (USBFS_DMA8_ACTIVE)
1161:.\Generated_Source\PSoC5/USBFS.c ****         case USBFS_EP8:
1162:.\Generated_Source\PSoC5/USBFS.c ****                 USBFS_DmaChan[epNumber] = USBFS_ep8_DmaInitialize(USBFS_DMA_BYTES_PER_BURST,
1163:.\Generated_Source\PSoC5/USBFS.c ****                                                                                         USBFS_DMA_R
1164:.\Generated_Source\PSoC5/USBFS.c ****             break;
1165:.\Generated_Source\PSoC5/USBFS.c ****     #endif /* (USBFS_DMA8_ACTIVE) */
1166:.\Generated_Source\PSoC5/USBFS.c **** 
1167:.\Generated_Source\PSoC5/USBFS.c ****         default:
1168:.\Generated_Source\PSoC5/USBFS.c ****             /* Do nothing for endpoints other than 1-8. */
1169:.\Generated_Source\PSoC5/USBFS.c ****             break;
1170:.\Generated_Source\PSoC5/USBFS.c ****         }
1171:.\Generated_Source\PSoC5/USBFS.c **** 
1172:.\Generated_Source\PSoC5/USBFS.c ****         if ((epNumber > USBFS_EP0) && (epNumber < USBFS_MAX_EP))
1173:.\Generated_Source\PSoC5/USBFS.c ****         {
1174:.\Generated_Source\PSoC5/USBFS.c ****             USBFS_DmaTd[epNumber] = CyDmaTdAllocate();
1175:.\Generated_Source\PSoC5/USBFS.c **** 
1176:.\Generated_Source\PSoC5/USBFS.c ****         #if (USBFS_EP_MANAGEMENT_DMA_AUTO && (USBFS_EP_DMA_AUTO_OPT == 0u))
1177:.\Generated_Source\PSoC5/USBFS.c ****             USBFS_DmaNextTd[epNumber] = CyDmaTdAllocate();
1178:.\Generated_Source\PSoC5/USBFS.c ****         #endif /* (USBFS_EP_MANAGEMENT_DMA_AUTO && (USBFS_EP_DMA_AUTO_OPT == 0u)) */
1179:.\Generated_Source\PSoC5/USBFS.c ****         }
1180:.\Generated_Source\PSoC5/USBFS.c ****     }
1181:.\Generated_Source\PSoC5/USBFS.c **** #endif /* (CY_PSOC4) */
1182:.\Generated_Source\PSoC5/USBFS.c **** 
1183:.\Generated_Source\PSoC5/USBFS.c ****     /***************************************************************************
1184:.\Generated_Source\PSoC5/USBFS.c ****     * Function Name: USBFS_Stop_DMA
1185:.\Generated_Source\PSoC5/USBFS.c ****     ************************************************************************//**
1186:.\Generated_Source\PSoC5/USBFS.c ****     *  
1187:.\Generated_Source\PSoC5/USBFS.c ****     *  This function stops DMA channel associated with endpoint. It is available 
1188:.\Generated_Source\PSoC5/USBFS.c ****     *  when the Endpoint Buffer Management parameter is set to DMA. Call this 
1189:.\Generated_Source\PSoC5/USBFS.c ****     *  function when endpoint direction is changed from IN to OUT or vice versa 
1190:.\Generated_Source\PSoC5/USBFS.c ****     *  to trigger DMA re-configuration when USBFS_LoadInEP() or 
1191:.\Generated_Source\PSoC5/USBFS.c ****     *  USBFS_ReadOutEP() functions are called the first time. 
1192:.\Generated_Source\PSoC5/USBFS.c ****     *  
1193:.\Generated_Source\PSoC5/USBFS.c ****     *  \param epNumber: The data endpoint number for which associated DMA 
1194:.\Generated_Source\PSoC5/USBFS.c ****     *  channel is stopped. The range of valid values is between 1 and 8. To stop 
1195:.\Generated_Source\PSoC5/USBFS.c ****     *  all DMAs associated with endpoints call this function with 
1196:.\Generated_Source\PSoC5/USBFS.c ****     *  USBFS_MAX_EP argument.
1197:.\Generated_Source\PSoC5/USBFS.c ****     *
1198:.\Generated_Source\PSoC5/USBFS.c ****     * \reentrant
1199:.\Generated_Source\PSoC5/USBFS.c ****     *  No.
1200:.\Generated_Source\PSoC5/USBFS.c ****     *
1201:.\Generated_Source\PSoC5/USBFS.c ****     ***************************************************************************/
1202:.\Generated_Source\PSoC5/USBFS.c ****     void USBFS_Stop_DMA(uint8 epNumber) 
1203:.\Generated_Source\PSoC5/USBFS.c ****     {
1204:.\Generated_Source\PSoC5/USBFS.c ****         uint8 i;
1205:.\Generated_Source\PSoC5/USBFS.c **** 
1206:.\Generated_Source\PSoC5/USBFS.c ****         i = (epNumber < USBFS_MAX_EP) ? epNumber : USBFS_EP1;
1207:.\Generated_Source\PSoC5/USBFS.c **** 
1208:.\Generated_Source\PSoC5/USBFS.c ****         do
1209:.\Generated_Source\PSoC5/USBFS.c ****         {
1210:.\Generated_Source\PSoC5/USBFS.c ****         #if (CY_PSOC4)
1211:.\Generated_Source\PSoC5/USBFS.c ****             if (0u != USBFS_DmaChan[i])
1212:.\Generated_Source\PSoC5/USBFS.c ****             {
1213:.\Generated_Source\PSoC5/USBFS.c ****                 USBFS_CyDmaChDisable(USBFS_DmaChan[i]);
1214:.\Generated_Source\PSoC5/USBFS.c ****             }
1215:.\Generated_Source\PSoC5/USBFS.c ****         #else
ARM GAS  C:\Users\Patrick\AppData\Local\Temp\cc4CvmVx.s 			page 36


1216:.\Generated_Source\PSoC5/USBFS.c ****             if(USBFS_DmaTd[i] != DMA_INVALID_TD)
1217:.\Generated_Source\PSoC5/USBFS.c ****             {
1218:.\Generated_Source\PSoC5/USBFS.c ****                 (void) CyDmaChDisable(USBFS_DmaChan[i]);
1219:.\Generated_Source\PSoC5/USBFS.c ****                 CyDmaTdFree(USBFS_DmaTd[i]);
1220:.\Generated_Source\PSoC5/USBFS.c ****                 USBFS_DmaTd[i] = DMA_INVALID_TD;
1221:.\Generated_Source\PSoC5/USBFS.c ****             }
1222:.\Generated_Source\PSoC5/USBFS.c **** 
1223:.\Generated_Source\PSoC5/USBFS.c ****             #if (USBFS_EP_MANAGEMENT_DMA_AUTO && (USBFS_EP_DMA_AUTO_OPT == 0u))
1224:.\Generated_Source\PSoC5/USBFS.c ****                 if(USBFS_DmaNextTd[i] != DMA_INVALID_TD)
1225:.\Generated_Source\PSoC5/USBFS.c ****                 {
1226:.\Generated_Source\PSoC5/USBFS.c ****                     CyDmaTdFree(USBFS_DmaNextTd[i]);
1227:.\Generated_Source\PSoC5/USBFS.c ****                     USBFS_DmaNextTd[i] = DMA_INVALID_TD;
1228:.\Generated_Source\PSoC5/USBFS.c ****                 }
1229:.\Generated_Source\PSoC5/USBFS.c ****             #endif /* (USBFS_EP_MANAGEMENT_DMA_AUTO && (USBFS_EP_DMA_AUTO_OPT == 0u)) */
1230:.\Generated_Source\PSoC5/USBFS.c **** 
1231:.\Generated_Source\PSoC5/USBFS.c ****         #endif /* (CY_PSOC4) */
1232:.\Generated_Source\PSoC5/USBFS.c ****             i++;
1233:.\Generated_Source\PSoC5/USBFS.c ****         }
1234:.\Generated_Source\PSoC5/USBFS.c ****         while ((i < USBFS_MAX_EP) && (epNumber == USBFS_MAX_EP));
1235:.\Generated_Source\PSoC5/USBFS.c ****     }
1236:.\Generated_Source\PSoC5/USBFS.c **** #endif /* (USBFS_EP_MANAGEMENT_DMA) */
1237:.\Generated_Source\PSoC5/USBFS.c **** 
1238:.\Generated_Source\PSoC5/USBFS.c **** 
1239:.\Generated_Source\PSoC5/USBFS.c **** #if (CY_PSOC3 || CY_PSOC5)
1240:.\Generated_Source\PSoC5/USBFS.c **** #if (USBFS_EP_MANAGEMENT_DMA_AUTO && (USBFS_EP_DMA_AUTO_OPT == 0u))
1241:.\Generated_Source\PSoC5/USBFS.c ****     /***************************************************************************
1242:.\Generated_Source\PSoC5/USBFS.c ****     * Function Name: USBFS_LoadNextInEP
1243:.\Generated_Source\PSoC5/USBFS.c ****     ************************************************************************//**
1244:.\Generated_Source\PSoC5/USBFS.c ****     *
1245:.\Generated_Source\PSoC5/USBFS.c ****     * Summary:
1246:.\Generated_Source\PSoC5/USBFS.c ****     *  This internal function is used for IN endpoint DMA reconfiguration in
1247:.\Generated_Source\PSoC5/USBFS.c ****     *  Auto DMA mode.
1248:.\Generated_Source\PSoC5/USBFS.c ****     *
1249:.\Generated_Source\PSoC5/USBFS.c ****     * Parameters:
1250:.\Generated_Source\PSoC5/USBFS.c ****     *  epNumber: Contains the data endpoint number.
1251:.\Generated_Source\PSoC5/USBFS.c ****     *  mode:   0 - Configure DMA to send the the rest of data.
1252:.\Generated_Source\PSoC5/USBFS.c ****     *          1 - Configure DMA to repeat 2 last bytes of the first burst.
1253:.\Generated_Source\PSoC5/USBFS.c ****     *
1254:.\Generated_Source\PSoC5/USBFS.c ****     ***************************************************************************/
1255:.\Generated_Source\PSoC5/USBFS.c ****     void USBFS_LoadNextInEP(uint8 epNumber, uint8 mode) 
1256:.\Generated_Source\PSoC5/USBFS.c ****     {
1257:.\Generated_Source\PSoC5/USBFS.c ****         reg16 *convert;
1258:.\Generated_Source\PSoC5/USBFS.c **** 
1259:.\Generated_Source\PSoC5/USBFS.c ****         if (mode == 0u)
1260:.\Generated_Source\PSoC5/USBFS.c ****         {
1261:.\Generated_Source\PSoC5/USBFS.c ****             /* Configure DMA to send rest of data. */
1262:.\Generated_Source\PSoC5/USBFS.c ****             /* CyDmaTdSetConfiguration API is optimized to change transfer length only and configur
1263:.\Generated_Source\PSoC5/USBFS.c ****             convert = (reg16 *) &CY_DMA_TDMEM_STRUCT_PTR[USBFS_DmaTd[epNumber]].TD0[0u];
1264:.\Generated_Source\PSoC5/USBFS.c ****             /* Set transfer length. */
1265:.\Generated_Source\PSoC5/USBFS.c ****             CY_SET_REG16(convert, USBFS_inLength[epNumber] - USBFS_DMA_BYTES_PER_BURST);
1266:.\Generated_Source\PSoC5/USBFS.c ****             /* CyDmaTdSetAddress API is optimized to change source address only. */
1267:.\Generated_Source\PSoC5/USBFS.c ****             convert = (reg16 *) &CY_DMA_TDMEM_STRUCT_PTR[USBFS_DmaTd[epNumber]].TD1[0u];
1268:.\Generated_Source\PSoC5/USBFS.c ****             CY_SET_REG16(convert, LO16((uint32)USBFS_inDataPointer[epNumber] +
1269:.\Generated_Source\PSoC5/USBFS.c ****                                             USBFS_DMA_BYTES_PER_BURST));
1270:.\Generated_Source\PSoC5/USBFS.c ****             USBFS_inBufFull[epNumber] = 1u;
1271:.\Generated_Source\PSoC5/USBFS.c ****         }
1272:.\Generated_Source\PSoC5/USBFS.c ****         else
ARM GAS  C:\Users\Patrick\AppData\Local\Temp\cc4CvmVx.s 			page 37


1273:.\Generated_Source\PSoC5/USBFS.c ****         {
1274:.\Generated_Source\PSoC5/USBFS.c ****             /* Configure DMA to repeat 2 last bytes of the first burst. */
1275:.\Generated_Source\PSoC5/USBFS.c ****             /* CyDmaTdSetConfiguration API is optimized to change transfer length only and configur
1276:.\Generated_Source\PSoC5/USBFS.c ****             convert = (reg16 *) &CY_DMA_TDMEM_STRUCT_PTR[USBFS_DmaTd[epNumber]].TD0[0u];
1277:.\Generated_Source\PSoC5/USBFS.c ****             /* Set transfer length. */
1278:.\Generated_Source\PSoC5/USBFS.c ****             CY_SET_REG16(convert, USBFS_DMA_BYTES_REPEAT);
1279:.\Generated_Source\PSoC5/USBFS.c ****             /* CyDmaTdSetAddress API is optimized to change source address only. */
1280:.\Generated_Source\PSoC5/USBFS.c ****             convert = (reg16 *) &CY_DMA_TDMEM_STRUCT_PTR[USBFS_DmaTd[epNumber]].TD1[0u];
1281:.\Generated_Source\PSoC5/USBFS.c ****             CY_SET_REG16(convert,  LO16((uint32)USBFS_inDataPointer[epNumber] +
1282:.\Generated_Source\PSoC5/USBFS.c ****                                    (USBFS_DMA_BYTES_PER_BURST - USBFS_DMA_BYTES_REPEAT)));
1283:.\Generated_Source\PSoC5/USBFS.c ****         }
1284:.\Generated_Source\PSoC5/USBFS.c **** 
1285:.\Generated_Source\PSoC5/USBFS.c ****         /* CyDmaChSetInitialTd API is optimized to initialize TD. */
1286:.\Generated_Source\PSoC5/USBFS.c ****         CY_DMA_CH_STRUCT_PTR[USBFS_DmaChan[epNumber]].basic_status[1u] = USBFS_DmaTd[epNumber];
1287:.\Generated_Source\PSoC5/USBFS.c ****     }
1288:.\Generated_Source\PSoC5/USBFS.c **** #endif /* (USBFS_EP_MANAGEMENT_DMA_AUTO && (USBFS_EP_DMA_AUTO_OPT == 0u)) */
1289:.\Generated_Source\PSoC5/USBFS.c **** #endif /* (CY_PSOC3 || CY_PSOC5) */
1290:.\Generated_Source\PSoC5/USBFS.c **** 
1291:.\Generated_Source\PSoC5/USBFS.c **** 
1292:.\Generated_Source\PSoC5/USBFS.c **** /*******************************************************************************
1293:.\Generated_Source\PSoC5/USBFS.c **** * Function Name: USBFS_LoadInEP
1294:.\Generated_Source\PSoC5/USBFS.c **** ****************************************************************************//**
1295:.\Generated_Source\PSoC5/USBFS.c **** *
1296:.\Generated_Source\PSoC5/USBFS.c **** *  This function performs different functionality depending on the Component’s
1297:.\Generated_Source\PSoC5/USBFS.c **** *  configured Endpoint Buffer Management. This parameter is defined in
1298:.\Generated_Source\PSoC5/USBFS.c **** *  the Descriptor Root in Component Configure window.
1299:.\Generated_Source\PSoC5/USBFS.c **** *
1300:.\Generated_Source\PSoC5/USBFS.c **** *  *Manual (Static/Dynamic Allocation):*
1301:.\Generated_Source\PSoC5/USBFS.c **** *  This function loads and enables the specified USB data endpoint for an IN
1302:.\Generated_Source\PSoC5/USBFS.c **** *  data transfer.
1303:.\Generated_Source\PSoC5/USBFS.c **** *
1304:.\Generated_Source\PSoC5/USBFS.c **** *  *DMA with Manual Buffer Management:*
1305:.\Generated_Source\PSoC5/USBFS.c **** *  Configures DMA for a data transfer from system RAM to endpoint buffer.
1306:.\Generated_Source\PSoC5/USBFS.c **** *  Generates request for a transfer.
1307:.\Generated_Source\PSoC5/USBFS.c **** *
1308:.\Generated_Source\PSoC5/USBFS.c **** *  *DMA with Automatic Buffer Management:*
1309:.\Generated_Source\PSoC5/USBFS.c **** *  Configures DMA. This is required only once, so it is done only when parameter
1310:.\Generated_Source\PSoC5/USBFS.c **** *  pData is not NULL. When the pData pointer is NULL, the function skips this
1311:.\Generated_Source\PSoC5/USBFS.c **** *  task. Sets Data ready status: This generates the first DMA transfer and
1312:.\Generated_Source\PSoC5/USBFS.c **** *  prepares data in endpoint buffer.
1313:.\Generated_Source\PSoC5/USBFS.c **** *
1314:.\Generated_Source\PSoC5/USBFS.c **** *  \param epNumber Contains the data endpoint number.
1315:.\Generated_Source\PSoC5/USBFS.c **** *            Valid values are between 1 and 8.
1316:.\Generated_Source\PSoC5/USBFS.c **** *  \param *pData A pointer to a data array from which the data for the endpoint space
1317:.\Generated_Source\PSoC5/USBFS.c **** *          is loaded.
1318:.\Generated_Source\PSoC5/USBFS.c **** *  \param length The number of bytes to transfer from the array and then send as
1319:.\Generated_Source\PSoC5/USBFS.c **** *          a result of an IN request. Valid values are between 0 and 512
1320:.\Generated_Source\PSoC5/USBFS.c **** *          (1023 for DMA with Automatic Buffer Management mode). The value 512
1321:.\Generated_Source\PSoC5/USBFS.c **** *          is applicable if only one endpoint is used.
1322:.\Generated_Source\PSoC5/USBFS.c **** *
1323:.\Generated_Source\PSoC5/USBFS.c **** *
1324:.\Generated_Source\PSoC5/USBFS.c **** * \reentrant
1325:.\Generated_Source\PSoC5/USBFS.c **** *  No.
1326:.\Generated_Source\PSoC5/USBFS.c **** *
1327:.\Generated_Source\PSoC5/USBFS.c **** *******************************************************************************/
1328:.\Generated_Source\PSoC5/USBFS.c **** void USBFS_LoadInEP(uint8 epNumber, const uint8 pData[], uint16 length)
1329:.\Generated_Source\PSoC5/USBFS.c ****                                                                         
ARM GAS  C:\Users\Patrick\AppData\Local\Temp\cc4CvmVx.s 			page 38


1330:.\Generated_Source\PSoC5/USBFS.c **** {
 770              		.loc 1 1330 0
 771              		.cfi_startproc
 772              		@ args = 0, pretend = 0, frame = 0
 773              		@ frame_needed = 0, uses_anonymous_args = 0
 774              		@ link register save eliminated.
 775              	.LVL54:
1331:.\Generated_Source\PSoC5/USBFS.c ****     if ((epNumber > USBFS_EP0) && (epNumber < USBFS_MAX_EP))
 776              		.loc 1 1331 0
 777 0000 431E     		subs	r3, r0, #1
 778 0002 DBB2     		uxtb	r3, r3
 779 0004 072B     		cmp	r3, #7
 780 0006 3BD8     		bhi	.L62
1330:.\Generated_Source\PSoC5/USBFS.c ****     if ((epNumber > USBFS_EP0) && (epNumber < USBFS_MAX_EP))
 781              		.loc 1 1330 0
 782 0008 F0B4     		push	{r4, r5, r6, r7}
 783              		.cfi_def_cfa_offset 16
 784              		.cfi_offset 4, -16
 785              		.cfi_offset 5, -12
 786              		.cfi_offset 6, -8
 787              		.cfi_offset 7, -4
1332:.\Generated_Source\PSoC5/USBFS.c ****     {
1333:.\Generated_Source\PSoC5/USBFS.c ****     #if (!USBFS_EP_MANAGEMENT_DMA_AUTO)
1334:.\Generated_Source\PSoC5/USBFS.c ****         /* Limit length to available buffer USB IP buffer size.*/
1335:.\Generated_Source\PSoC5/USBFS.c ****         if (length > (USBFS_EPX_DATA_BUF_MAX - USBFS_EP[epNumber].buffOffset))
 788              		.loc 1 1335 0
 789 000a 0746     		mov	r7, r0
 790 000c 00EB4003 		add	r3, r0, r0, lsl #1
 791 0010 9B00     		lsls	r3, r3, #2
 792 0012 1C4C     		ldr	r4, .L63
 793 0014 2344     		add	r3, r3, r4
 794 0016 DB88     		ldrh	r3, [r3, #6]
 795 0018 9BB2     		uxth	r3, r3
 796 001a C3F50073 		rsb	r3, r3, #512
 797 001e 9A42     		cmp	r2, r3
 798 0020 07D9     		bls	.L55
1336:.\Generated_Source\PSoC5/USBFS.c ****         {
1337:.\Generated_Source\PSoC5/USBFS.c ****             length = USBFS_EPX_DATA_BUF_MAX - USBFS_EP[epNumber].buffOffset;
 799              		.loc 1 1337 0
 800 0022 00EB4003 		add	r3, r0, r0, lsl #1
 801 0026 9B00     		lsls	r3, r3, #2
 802 0028 2344     		add	r3, r3, r4
 803 002a DA88     		ldrh	r2, [r3, #6]
 804              	.LVL55:
 805 002c C2F50072 		rsb	r2, r2, #512
 806 0030 92B2     		uxth	r2, r2
 807              	.LVL56:
 808              	.L55:
1338:.\Generated_Source\PSoC5/USBFS.c ****         }
1339:.\Generated_Source\PSoC5/USBFS.c ****     #endif /* (!USBFS_EP_MANAGEMENT_DMA_AUTO) */
1340:.\Generated_Source\PSoC5/USBFS.c **** 
1341:.\Generated_Source\PSoC5/USBFS.c ****         /* Set count and data toggle. */
1342:.\Generated_Source\PSoC5/USBFS.c ****         USBFS_SIE_EP_BASE.sieEp[epNumber].epCnt0 = (uint8) HI8(length) | USBFS_EP[epNumber].epToggl
 809              		.loc 1 1342 0
 810 0032 00EB4003 		add	r3, r0, r0, lsl #1
 811 0036 9B00     		lsls	r3, r3, #2
 812 0038 124C     		ldr	r4, .L63
ARM GAS  C:\Users\Patrick\AppData\Local\Temp\cc4CvmVx.s 			page 39


 813 003a 2344     		add	r3, r3, r4
 814 003c DB78     		ldrb	r3, [r3, #3]	@ zero_extendqisi2
 815 003e 43EA1223 		orr	r3, r3, r2, lsr #8
 816 0042 114D     		ldr	r5, .L63+4
 817 0044 0401     		lsls	r4, r0, #4
 818 0046 2E19     		adds	r6, r5, r4
 819 0048 2B55     		strb	r3, [r5, r4]
1343:.\Generated_Source\PSoC5/USBFS.c ****         USBFS_SIE_EP_BASE.sieEp[epNumber].epCnt1 = (uint8) LO8(length);
 820              		.loc 1 1343 0
 821 004a D3B2     		uxtb	r3, r2
 822 004c 7370     		strb	r3, [r6, #1]
1344:.\Generated_Source\PSoC5/USBFS.c **** 
1345:.\Generated_Source\PSoC5/USBFS.c ****     #if (USBFS_EP_MANAGEMENT_MANUAL)
1346:.\Generated_Source\PSoC5/USBFS.c ****         if (NULL != pData)
 823              		.loc 1 1346 0
 824 004e 39B9     		cbnz	r1, .L59
 825              	.LBB2:
 826 0050 09E0     		b	.L57
 827              	.LVL57:
 828              	.L58:
1347:.\Generated_Source\PSoC5/USBFS.c ****         {
1348:.\Generated_Source\PSoC5/USBFS.c **** 			/* Copy data using arbiter data register. */
1349:.\Generated_Source\PSoC5/USBFS.c ****             uint16 i;
1350:.\Generated_Source\PSoC5/USBFS.c ****             for (i = 0u; i < length; ++i)
1351:.\Generated_Source\PSoC5/USBFS.c ****             {
1352:.\Generated_Source\PSoC5/USBFS.c ****                 USBFS_ARB_EP_BASE.arbEp[epNumber].rwDr = pData[i];
 829              		.loc 1 1352 0 discriminator 3
 830 0052 CE5C     		ldrb	r6, [r1, r3]	@ zero_extendqisi2
 831 0054 3D01     		lsls	r5, r7, #4
 832 0056 0D4C     		ldr	r4, .L63+8
 833 0058 6655     		strb	r6, [r4, r5]
1350:.\Generated_Source\PSoC5/USBFS.c ****             {
 834              		.loc 1 1350 0 discriminator 3
 835 005a 0133     		adds	r3, r3, #1
 836              	.LVL58:
 837 005c 9BB2     		uxth	r3, r3
 838              	.LVL59:
 839 005e 00E0     		b	.L56
 840              	.LVL60:
 841              	.L59:
 842              	.LBE2:
 843 0060 0023     		movs	r3, #0
 844              	.L56:
 845              	.LVL61:
 846              	.LBB3:
1350:.\Generated_Source\PSoC5/USBFS.c ****             {
 847              		.loc 1 1350 0 is_stmt 0 discriminator 1
 848 0062 9342     		cmp	r3, r2
 849 0064 F5D3     		bcc	.L58
 850              	.LVL62:
 851              	.L57:
 852              	.LBE3:
1353:.\Generated_Source\PSoC5/USBFS.c ****             }
1354:.\Generated_Source\PSoC5/USBFS.c ****         }
1355:.\Generated_Source\PSoC5/USBFS.c **** 
1356:.\Generated_Source\PSoC5/USBFS.c ****         /* IN endpoint buffer is full - read to be read. */
1357:.\Generated_Source\PSoC5/USBFS.c ****         USBFS_EP[epNumber].apiEpState = USBFS_NO_EVENT_PENDING;
ARM GAS  C:\Users\Patrick\AppData\Local\Temp\cc4CvmVx.s 			page 40


 853              		.loc 1 1357 0 is_stmt 1
 854 0066 4300     		lsls	r3, r0, #1
 855 0068 0344     		add	r3, r3, r0
 856 006a 9B00     		lsls	r3, r3, #2
 857 006c 054A     		ldr	r2, .L63
 858              	.LVL63:
 859 006e 1344     		add	r3, r3, r2
 860 0070 0022     		movs	r2, #0
 861 0072 5A70     		strb	r2, [r3, #1]
1358:.\Generated_Source\PSoC5/USBFS.c **** 
1359:.\Generated_Source\PSoC5/USBFS.c ****         /* Arm IN endpoint. */
1360:.\Generated_Source\PSoC5/USBFS.c ****         USBFS_SIE_EP_BASE.sieEp[epNumber].epCr0 = USBFS_EP[epNumber].epMode;
 862              		.loc 1 1360 0
 863 0074 5A79     		ldrb	r2, [r3, #5]	@ zero_extendqisi2
 864 0076 D2B2     		uxtb	r2, r2
 865 0078 0001     		lsls	r0, r0, #4
 866              	.LVL64:
 867 007a 054B     		ldr	r3, .L63+12
 868 007c 1A54     		strb	r2, [r3, r0]
1361:.\Generated_Source\PSoC5/USBFS.c **** 
1362:.\Generated_Source\PSoC5/USBFS.c ****     #else
1363:.\Generated_Source\PSoC5/USBFS.c **** 
1364:.\Generated_Source\PSoC5/USBFS.c ****         #if (CY_PSOC3 || CY_PSOC5LP)
1365:.\Generated_Source\PSoC5/USBFS.c ****             /* Initialize DMA if it was not initialized. */
1366:.\Generated_Source\PSoC5/USBFS.c ****             if (DMA_INVALID_TD == USBFS_DmaTd[epNumber])
1367:.\Generated_Source\PSoC5/USBFS.c ****             {
1368:.\Generated_Source\PSoC5/USBFS.c ****                 USBFS_InitEP_DMA(epNumber, pData);
1369:.\Generated_Source\PSoC5/USBFS.c ****             }
1370:.\Generated_Source\PSoC5/USBFS.c ****         #endif /* (CY_PSOC3 || CY_PSOC5LP) */
1371:.\Generated_Source\PSoC5/USBFS.c **** 
1372:.\Generated_Source\PSoC5/USBFS.c ****         #if (USBFS_EP_MANAGEMENT_DMA_MANUAL)
1373:.\Generated_Source\PSoC5/USBFS.c ****             /* IN endpoint buffer will be fully loaded by DMA shortly. */
1374:.\Generated_Source\PSoC5/USBFS.c ****             USBFS_EP[epNumber].apiEpState = USBFS_NO_EVENT_PENDING;
1375:.\Generated_Source\PSoC5/USBFS.c **** 
1376:.\Generated_Source\PSoC5/USBFS.c ****             if ((pData != NULL) && (length > 0u))
1377:.\Generated_Source\PSoC5/USBFS.c ****             {
1378:.\Generated_Source\PSoC5/USBFS.c ****             #if (CY_PSOC4)
1379:.\Generated_Source\PSoC5/USBFS.c ****                 uint32 channelNum = (uint32) USBFS_DmaChan[epNumber];
1380:.\Generated_Source\PSoC5/USBFS.c **** 
1381:.\Generated_Source\PSoC5/USBFS.c ****                 /* Disable DMA channel: start configuration. */
1382:.\Generated_Source\PSoC5/USBFS.c ****                 USBFS_CyDmaChDisable(channelNum);
1383:.\Generated_Source\PSoC5/USBFS.c **** 
1384:.\Generated_Source\PSoC5/USBFS.c ****                 /* Configure source and destination. */
1385:.\Generated_Source\PSoC5/USBFS.c ****                 USBFS_CyDmaSetSrcAddress(channelNum, USBFS_DMA_DESCR0, (void*) pData);
1386:.\Generated_Source\PSoC5/USBFS.c ****                 USBFS_CyDmaSetDstAddress(channelNum, USBFS_DMA_DESCR0, (void*) &USBFS_ARB_EP_BASE.a
1387:.\Generated_Source\PSoC5/USBFS.c **** 
1388:.\Generated_Source\PSoC5/USBFS.c ****                 /* Configure DMA descriptor. */
1389:.\Generated_Source\PSoC5/USBFS.c ****                 --length;
1390:.\Generated_Source\PSoC5/USBFS.c ****                 USBFS_CyDmaSetConfiguration(channelNum, USBFS_DMA_DESCR0, USBFS_DMA_COMMON_CFG | le
1391:.\Generated_Source\PSoC5/USBFS.c ****                                                         CYDMA_BYTE | CYDMA_ELEMENT_WORD | CYDMA_INC
1392:.\Generated_Source\PSoC5/USBFS.c **** 
1393:.\Generated_Source\PSoC5/USBFS.c ****                 /* Validate descriptor to execute on following DMA request. */
1394:.\Generated_Source\PSoC5/USBFS.c ****                 USBFS_CyDmaValidateDescriptor(channelNum, USBFS_DMA_DESCR0);
1395:.\Generated_Source\PSoC5/USBFS.c **** 
1396:.\Generated_Source\PSoC5/USBFS.c ****                 /* Enable DMA channel: configuration complete. */
1397:.\Generated_Source\PSoC5/USBFS.c ****                 USBFS_CyDmaChEnable(channelNum);
1398:.\Generated_Source\PSoC5/USBFS.c ****             #else
ARM GAS  C:\Users\Patrick\AppData\Local\Temp\cc4CvmVx.s 			page 41


1399:.\Generated_Source\PSoC5/USBFS.c ****                 /* Configure DMA to transfer data. */
1400:.\Generated_Source\PSoC5/USBFS.c ****                 (void) CyDmaChDisable(USBFS_DmaChan[epNumber]);
1401:.\Generated_Source\PSoC5/USBFS.c ****                 (void) CyDmaTdSetConfiguration(USBFS_DmaTd[epNumber], length, CY_DMA_DISABLE_TD, TD
1402:.\Generated_Source\PSoC5/USBFS.c ****                 (void) CyDmaTdSetAddress(USBFS_DmaTd[epNumber], LO16((uint32) pData), LO16((uint32)
1403:.\Generated_Source\PSoC5/USBFS.c **** 
1404:.\Generated_Source\PSoC5/USBFS.c ****                 /* Enable DMA channel. */
1405:.\Generated_Source\PSoC5/USBFS.c ****                 (void) CyDmaChSetInitialTd(USBFS_DmaChan[epNumber], USBFS_DmaTd[epNumber]);
1406:.\Generated_Source\PSoC5/USBFS.c ****                 (void) CyDmaChEnable(USBFS_DmaChan[epNumber], 1u);
1407:.\Generated_Source\PSoC5/USBFS.c ****             #endif /* (CY_PSOC4) */
1408:.\Generated_Source\PSoC5/USBFS.c **** 
1409:.\Generated_Source\PSoC5/USBFS.c ****                 /* Generate DMA request. */
1410:.\Generated_Source\PSoC5/USBFS.c ****                 USBFS_ARB_EP_BASE.arbEp[epNumber].epCfg |=  (uint8)  USBFS_ARB_EPX_CFG_DMA_REQ;
1411:.\Generated_Source\PSoC5/USBFS.c ****                 USBFS_ARB_EP_BASE.arbEp[epNumber].epCfg &=  (uint8) ~USBFS_ARB_EPX_CFG_DMA_REQ;
1412:.\Generated_Source\PSoC5/USBFS.c **** 
1413:.\Generated_Source\PSoC5/USBFS.c ****                 /* IN endpoint will be armed in ARB_ISR(source: IN_BUF_FULL) after first DMA transf
1414:.\Generated_Source\PSoC5/USBFS.c ****             }
1415:.\Generated_Source\PSoC5/USBFS.c ****             else
1416:.\Generated_Source\PSoC5/USBFS.c ****             {
1417:.\Generated_Source\PSoC5/USBFS.c ****                 /* When zero-length packet: arm IN endpoint directly. */
1418:.\Generated_Source\PSoC5/USBFS.c ****                 USBFS_SIE_EP_BASE.sieEp[epNumber].epCr0 = USBFS_EP[epNumber].epMode;
1419:.\Generated_Source\PSoC5/USBFS.c ****             }
1420:.\Generated_Source\PSoC5/USBFS.c ****         #endif /* (USBFS_EP_MANAGEMENT_DMA_MANUAL) */
1421:.\Generated_Source\PSoC5/USBFS.c **** 
1422:.\Generated_Source\PSoC5/USBFS.c ****         #if (USBFS_EP_MANAGEMENT_DMA_AUTO)
1423:.\Generated_Source\PSoC5/USBFS.c ****             if (pData != NULL)
1424:.\Generated_Source\PSoC5/USBFS.c ****             {
1425:.\Generated_Source\PSoC5/USBFS.c ****             #if (CY_PSOC4)
1426:.\Generated_Source\PSoC5/USBFS.c ****                 uint32 channelNum = (uint32) USBFS_DmaChan[epNumber];
1427:.\Generated_Source\PSoC5/USBFS.c **** 
1428:.\Generated_Source\PSoC5/USBFS.c ****                 /* Store address of buffer. */
1429:.\Generated_Source\PSoC5/USBFS.c ****                 USBFS_DmaEpBufferAddrBackup[epNumber] = (uint32) pData;
1430:.\Generated_Source\PSoC5/USBFS.c **** 
1431:.\Generated_Source\PSoC5/USBFS.c ****                 /* Disable DMA channel: start configuration. */
1432:.\Generated_Source\PSoC5/USBFS.c ****                 USBFS_CyDmaChDisable(channelNum);
1433:.\Generated_Source\PSoC5/USBFS.c **** 
1434:.\Generated_Source\PSoC5/USBFS.c ****                 /* Set destination address. */
1435:.\Generated_Source\PSoC5/USBFS.c ****                 USBFS_CyDmaSetDstAddress(channelNum, USBFS_DMA_DESCR0, (void*) &USBFS_ARB_EP_BASE.a
1436:.\Generated_Source\PSoC5/USBFS.c ****                 USBFS_CyDmaSetDstAddress(channelNum, USBFS_DMA_DESCR1, (void*) &USBFS_ARB_EP_BASE.a
1437:.\Generated_Source\PSoC5/USBFS.c **** 
1438:.\Generated_Source\PSoC5/USBFS.c ****                 /* Configure DMA descriptor. */
1439:.\Generated_Source\PSoC5/USBFS.c ****                 USBFS_CyDmaSetConfiguration(channelNum, USBFS_DMA_DESCR0, USBFS_DMA_COMMON_CFG  |
1440:.\Generated_Source\PSoC5/USBFS.c ****                                                         CYDMA_BYTE | CYDMA_ELEMENT_WORD | CYDMA_INC
1441:.\Generated_Source\PSoC5/USBFS.c **** 
1442:.\Generated_Source\PSoC5/USBFS.c ****                 /* Configure DMA descriptor. */
1443:.\Generated_Source\PSoC5/USBFS.c ****                 USBFS_CyDmaSetConfiguration(channelNum, USBFS_DMA_DESCR1, USBFS_DMA_COMMON_CFG  |
1444:.\Generated_Source\PSoC5/USBFS.c ****                                                         CYDMA_BYTE | CYDMA_ELEMENT_WORD | CYDMA_INC
1445:.\Generated_Source\PSoC5/USBFS.c **** 
1446:.\Generated_Source\PSoC5/USBFS.c ****                 /* Enable interrupt from DMA channel. */
1447:.\Generated_Source\PSoC5/USBFS.c ****                 USBFS_CyDmaSetInterruptMask(channelNum);
1448:.\Generated_Source\PSoC5/USBFS.c **** 
1449:.\Generated_Source\PSoC5/USBFS.c ****                 /* Validate descriptor 1. It will not be invalided during operation. */
1450:.\Generated_Source\PSoC5/USBFS.c ****                 USBFS_CyDmaValidateDescriptor(channelNum, USBFS_DMA_DESCR1);
1451:.\Generated_Source\PSoC5/USBFS.c **** 
1452:.\Generated_Source\PSoC5/USBFS.c ****                 /* Enable DMA channel: configuration complete. */
1453:.\Generated_Source\PSoC5/USBFS.c ****                 USBFS_CyDmaChEnable(channelNum);
1454:.\Generated_Source\PSoC5/USBFS.c **** 
1455:.\Generated_Source\PSoC5/USBFS.c ****             #else
ARM GAS  C:\Users\Patrick\AppData\Local\Temp\cc4CvmVx.s 			page 42


1456:.\Generated_Source\PSoC5/USBFS.c ****                 (void) CyDmaChDisable(USBFS_DmaChan[epNumber]);
1457:.\Generated_Source\PSoC5/USBFS.c **** 
1458:.\Generated_Source\PSoC5/USBFS.c ****                 #if (USBFS_EP_DMA_AUTO_OPT == 0u)
1459:.\Generated_Source\PSoC5/USBFS.c ****                     USBFS_inLength[epNumber] = length;
1460:.\Generated_Source\PSoC5/USBFS.c ****                     USBFS_inDataPointer[epNumber] = pData;
1461:.\Generated_Source\PSoC5/USBFS.c **** 
1462:.\Generated_Source\PSoC5/USBFS.c ****                     /* Configure DMA to send data only for first burst */
1463:.\Generated_Source\PSoC5/USBFS.c ****                     (void) CyDmaTdSetConfiguration(USBFS_DmaTd[epNumber],
1464:.\Generated_Source\PSoC5/USBFS.c ****                         (length > USBFS_DMA_BYTES_PER_BURST) ? USBFS_DMA_BYTES_PER_BURST : length,
1465:.\Generated_Source\PSoC5/USBFS.c ****                         USBFS_DmaNextTd[epNumber], TD_TERMIN_EN | TD_INC_SRC_ADR);
1466:.\Generated_Source\PSoC5/USBFS.c ****                     (void) CyDmaTdSetAddress(USBFS_DmaTd[epNumber], LO16((uint32) pData),
1467:.\Generated_Source\PSoC5/USBFS.c ****                                                                                LO16((uint32) &USBFS
1468:.\Generated_Source\PSoC5/USBFS.c **** 
1469:.\Generated_Source\PSoC5/USBFS.c ****                     /* The second TD will be executed only when the first one fails.
1470:.\Generated_Source\PSoC5/USBFS.c ****                     *  The intention of this TD is to generate NRQ interrupt
1471:.\Generated_Source\PSoC5/USBFS.c ****                     *  and repeat 2 last bytes of the first burst.
1472:.\Generated_Source\PSoC5/USBFS.c ****                     */
1473:.\Generated_Source\PSoC5/USBFS.c ****                     (void) CyDmaTdSetConfiguration(USBFS_DmaNextTd[epNumber], 1u,
1474:.\Generated_Source\PSoC5/USBFS.c ****                                                    USBFS_DmaNextTd[epNumber],
1475:.\Generated_Source\PSoC5/USBFS.c ****                                                    USBFS_epX_TD_TERMOUT_EN[epNumber]);
1476:.\Generated_Source\PSoC5/USBFS.c **** 
1477:.\Generated_Source\PSoC5/USBFS.c ****                     /* Configure DmaNextTd to clear Data Ready status. */
1478:.\Generated_Source\PSoC5/USBFS.c ****                     (void) CyDmaTdSetAddress(USBFS_DmaNextTd[epNumber], LO16((uint32) &clearInDataR
1479:.\Generated_Source\PSoC5/USBFS.c ****                                                                                    LO16((uint32) &U
1480:.\Generated_Source\PSoC5/USBFS.c ****                 #else
1481:.\Generated_Source\PSoC5/USBFS.c ****                     /* Configure DMA to send all data. */
1482:.\Generated_Source\PSoC5/USBFS.c ****                     (void) CyDmaTdSetConfiguration(USBFS_DmaTd[epNumber], length,
1483:.\Generated_Source\PSoC5/USBFS.c ****                                                    USBFS_DmaTd[epNumber], TD_TERMIN_EN | TD_INC_SRC
1484:.\Generated_Source\PSoC5/USBFS.c ****                     (void) CyDmaTdSetAddress(USBFS_DmaTd[epNumber], LO16((uint32) pData),
1485:.\Generated_Source\PSoC5/USBFS.c ****                                                                                LO16((uint32) &USBFS
1486:.\Generated_Source\PSoC5/USBFS.c ****                 #endif /* (USBFS_EP_DMA_AUTO_OPT == 0u) */
1487:.\Generated_Source\PSoC5/USBFS.c **** 
1488:.\Generated_Source\PSoC5/USBFS.c ****                 /* Clear any potential pending DMA requests before starting DMA channel to transfer
1489:.\Generated_Source\PSoC5/USBFS.c ****                 (void) CyDmaClearPendingDrq(USBFS_DmaChan[epNumber]);
1490:.\Generated_Source\PSoC5/USBFS.c ****                 /* Enable DMA. */
1491:.\Generated_Source\PSoC5/USBFS.c ****                 (void) CyDmaChSetInitialTd(USBFS_DmaChan[epNumber], USBFS_DmaTd[epNumber]);
1492:.\Generated_Source\PSoC5/USBFS.c ****                 (void) CyDmaChEnable(USBFS_DmaChan[epNumber], 1u);
1493:.\Generated_Source\PSoC5/USBFS.c ****             #endif /* (CY_PSOC4) */
1494:.\Generated_Source\PSoC5/USBFS.c ****             }
1495:.\Generated_Source\PSoC5/USBFS.c ****             else
1496:.\Generated_Source\PSoC5/USBFS.c ****             {
1497:.\Generated_Source\PSoC5/USBFS.c ****                 /* IN endpoint buffer (32 bytes) will shortly be preloaded by DMA. */
1498:.\Generated_Source\PSoC5/USBFS.c ****                 USBFS_EP[epNumber].apiEpState = USBFS_NO_EVENT_PENDING;
1499:.\Generated_Source\PSoC5/USBFS.c **** 
1500:.\Generated_Source\PSoC5/USBFS.c ****                 if (length > 0u)
1501:.\Generated_Source\PSoC5/USBFS.c ****                 {
1502:.\Generated_Source\PSoC5/USBFS.c ****                 #if (CY_PSOC4)
1503:.\Generated_Source\PSoC5/USBFS.c ****                     uint32 lengthDescr0, lengthDescr1;
1504:.\Generated_Source\PSoC5/USBFS.c ****                     uint32 channelNum = (uint32) USBFS_DmaChan[epNumber];
1505:.\Generated_Source\PSoC5/USBFS.c **** 
1506:.\Generated_Source\PSoC5/USBFS.c ****                     /* Get number of full bursts. */
1507:.\Generated_Source\PSoC5/USBFS.c ****                     USBFS_DmaEpBurstCnt[epNumber] = (uint8) (length / USBFS_DMA_BYTES_PER_BURST);
1508:.\Generated_Source\PSoC5/USBFS.c **** 
1509:.\Generated_Source\PSoC5/USBFS.c ****                     /* Get number of elements in the last burst. */
1510:.\Generated_Source\PSoC5/USBFS.c ****                     USBFS_DmaEpLastBurstEl[epNumber] = (uint8) (length % USBFS_DMA_BYTES_PER_BURST)
1511:.\Generated_Source\PSoC5/USBFS.c **** 
1512:.\Generated_Source\PSoC5/USBFS.c ****                     /* Get total number of bursts. */
ARM GAS  C:\Users\Patrick\AppData\Local\Temp\cc4CvmVx.s 			page 43


1513:.\Generated_Source\PSoC5/USBFS.c ****                     USBFS_DmaEpBurstCnt[epNumber] += (0u != USBFS_DmaEpLastBurstEl[epNumber]) ? 1u 
1514:.\Generated_Source\PSoC5/USBFS.c **** 
1515:.\Generated_Source\PSoC5/USBFS.c ****                     /* Adjust number of data elements transferred in last burst. */
1516:.\Generated_Source\PSoC5/USBFS.c ****                     USBFS_DmaEpLastBurstEl[epNumber] = (0u != USBFS_DmaEpLastBurstEl[epNumber]) ?
1517:.\Generated_Source\PSoC5/USBFS.c ****                                                                           (USBFS_DmaEpLastBurstEl[e
1518:.\Generated_Source\PSoC5/USBFS.c ****                                                                           (USBFS_DMA_BYTES_PER_BURS
1519:.\Generated_Source\PSoC5/USBFS.c **** 
1520:.\Generated_Source\PSoC5/USBFS.c ****                     /* Get number of data elements to transfer for descriptor 0 and 1. */
1521:.\Generated_Source\PSoC5/USBFS.c ****                     lengthDescr0 = (1u == USBFS_DmaEpBurstCnt[epNumber]) ? USBFS_DmaEpLastBurstEl[e
1522:.\Generated_Source\PSoC5/USBFS.c ****                     lengthDescr1 = (2u == USBFS_DmaEpBurstCnt[epNumber]) ? USBFS_DmaEpLastBurstEl[e
1523:.\Generated_Source\PSoC5/USBFS.c **** 
1524:.\Generated_Source\PSoC5/USBFS.c **** 
1525:.\Generated_Source\PSoC5/USBFS.c ****                     /* Mark which descriptor is last one to execute. */
1526:.\Generated_Source\PSoC5/USBFS.c ****                     USBFS_DmaEpLastBurstEl[epNumber] |= (0u != (USBFS_DmaEpBurstCnt[epNumber] & 0x1
1527:.\Generated_Source\PSoC5/USBFS.c ****                                                                             USBFS_DMA_DESCR0_MASK :
1528:.\Generated_Source\PSoC5/USBFS.c **** 
1529:.\Generated_Source\PSoC5/USBFS.c ****                     /* Adjust burst counter taking to account: 2 valid descriptors and interrupt tr
1530:.\Generated_Source\PSoC5/USBFS.c ****                     USBFS_DmaEpBurstCnt[epNumber] = USBFS_DMA_GET_BURST_CNT(USBFS_DmaEpBurstCnt[epN
1531:.\Generated_Source\PSoC5/USBFS.c **** 
1532:.\Generated_Source\PSoC5/USBFS.c ****                     /* Restore DMA settings for current transfer. */
1533:.\Generated_Source\PSoC5/USBFS.c ****                     USBFS_CyDmaChDisable(channelNum);
1534:.\Generated_Source\PSoC5/USBFS.c **** 
1535:.\Generated_Source\PSoC5/USBFS.c ****                     /* Restore destination address for input endpoint. */
1536:.\Generated_Source\PSoC5/USBFS.c ****                     USBFS_CyDmaSetSrcAddress(channelNum, USBFS_DMA_DESCR0, (void*) ((uint32) USBFS_
1537:.\Generated_Source\PSoC5/USBFS.c ****                     USBFS_CyDmaSetSrcAddress(channelNum, USBFS_DMA_DESCR1, (void*) ((uint32) USBFS_
1538:.\Generated_Source\PSoC5/USBFS.c ****                                                                                                    
1539:.\Generated_Source\PSoC5/USBFS.c **** 
1540:.\Generated_Source\PSoC5/USBFS.c ****                     /* Set number of elements to transfer. */
1541:.\Generated_Source\PSoC5/USBFS.c ****                     USBFS_CyDmaSetNumDataElements(channelNum, USBFS_DMA_DESCR0, lengthDescr0);
1542:.\Generated_Source\PSoC5/USBFS.c ****                     USBFS_CyDmaSetNumDataElements(channelNum, USBFS_DMA_DESCR1, lengthDescr1);
1543:.\Generated_Source\PSoC5/USBFS.c **** 
1544:.\Generated_Source\PSoC5/USBFS.c ****                     /* Validate descriptor 0 and command to start with it. */
1545:.\Generated_Source\PSoC5/USBFS.c ****                     USBFS_CyDmaValidateDescriptor(channelNum, USBFS_DMA_DESCR0);
1546:.\Generated_Source\PSoC5/USBFS.c ****                     USBFS_CyDmaSetDescriptor0Next(channelNum);
1547:.\Generated_Source\PSoC5/USBFS.c **** 
1548:.\Generated_Source\PSoC5/USBFS.c ****                     /* Enable DMA channel: configuration complete. */
1549:.\Generated_Source\PSoC5/USBFS.c ****                     USBFS_CyDmaChEnable(channelNum);
1550:.\Generated_Source\PSoC5/USBFS.c **** 
1551:.\Generated_Source\PSoC5/USBFS.c ****                 #elif (USBFS_EP_DMA_AUTO_OPT == 0u)
1552:.\Generated_Source\PSoC5/USBFS.c ****                     USBFS_inLength[epNumber]  = length;
1553:.\Generated_Source\PSoC5/USBFS.c ****                     USBFS_inBufFull[epNumber] = 0u;
1554:.\Generated_Source\PSoC5/USBFS.c **** 
1555:.\Generated_Source\PSoC5/USBFS.c ****                     (void) CyDmaChDisable(USBFS_DmaChan[epNumber]);
1556:.\Generated_Source\PSoC5/USBFS.c ****                     /* Configure DMA to send data only for first burst. */
1557:.\Generated_Source\PSoC5/USBFS.c ****                     (void) CyDmaTdSetConfiguration(
1558:.\Generated_Source\PSoC5/USBFS.c ****                         USBFS_DmaTd[epNumber], (length > USBFS_DMA_BYTES_PER_BURST) ?
1559:.\Generated_Source\PSoC5/USBFS.c ****                         USBFS_DMA_BYTES_PER_BURST : length,
1560:.\Generated_Source\PSoC5/USBFS.c ****                         USBFS_DmaNextTd[epNumber], TD_TERMIN_EN | TD_INC_SRC_ADR );
1561:.\Generated_Source\PSoC5/USBFS.c ****                     (void) CyDmaTdSetAddress(USBFS_DmaTd[epNumber], LO16((uint32)  USBFS_inDataPoin
1562:.\Generated_Source\PSoC5/USBFS.c ****                                                                                LO16((uint32) &USBFS
1563:.\Generated_Source\PSoC5/USBFS.c ****                     /* Clear Any potential pending DMA requests before starting DMA channel to tran
1564:.\Generated_Source\PSoC5/USBFS.c ****                     (void) CyDmaClearPendingDrq(USBFS_DmaChan[epNumber]);
1565:.\Generated_Source\PSoC5/USBFS.c ****                     /* Enable DMA. */
1566:.\Generated_Source\PSoC5/USBFS.c ****                     (void) CyDmaChSetInitialTd(USBFS_DmaChan[epNumber], USBFS_DmaTd[epNumber]);
1567:.\Generated_Source\PSoC5/USBFS.c ****                     (void) CyDmaChEnable(USBFS_DmaChan[epNumber], 1u);
1568:.\Generated_Source\PSoC5/USBFS.c ****                 #endif /* (CY_PSOC4) */
1569:.\Generated_Source\PSoC5/USBFS.c **** 
ARM GAS  C:\Users\Patrick\AppData\Local\Temp\cc4CvmVx.s 			page 44


1570:.\Generated_Source\PSoC5/USBFS.c ****                 #if !defined (USBFS_MANUAL_IN_EP_ARM)
1571:.\Generated_Source\PSoC5/USBFS.c ****                     /* Set IN data ready to generate DMA request to load data into endpoint buffer.
1572:.\Generated_Source\PSoC5/USBFS.c ****                     USBFS_ARB_EP_BASE.arbEp[epNumber].epCfg |= USBFS_ARB_EPX_CFG_IN_DATA_RDY;
1573:.\Generated_Source\PSoC5/USBFS.c ****                 #endif  /* (USBFS_MANUAL_IN_EP_ARM) */
1574:.\Generated_Source\PSoC5/USBFS.c **** 
1575:.\Generated_Source\PSoC5/USBFS.c ****                     /* IN endpoint will be armed in ARB_ISR(source: IN_BUF_FULL) after first DMA tr
1576:.\Generated_Source\PSoC5/USBFS.c ****                 }
1577:.\Generated_Source\PSoC5/USBFS.c ****                 else
1578:.\Generated_Source\PSoC5/USBFS.c ****                 {
1579:.\Generated_Source\PSoC5/USBFS.c ****                     /* When zero-length packet: arm IN endpoint directly. */
1580:.\Generated_Source\PSoC5/USBFS.c ****                     USBFS_SIE_EP_BASE.sieEp[epNumber].epCr0 = USBFS_EP[epNumber].epMode;
1581:.\Generated_Source\PSoC5/USBFS.c ****                 }
1582:.\Generated_Source\PSoC5/USBFS.c ****             }
1583:.\Generated_Source\PSoC5/USBFS.c ****         #endif /* (USBFS_EP_MANAGEMENT_DMA_AUTO) */
1584:.\Generated_Source\PSoC5/USBFS.c ****     #endif /* (USBFS_EP_MANAGEMENT_MANUAL) */
1585:.\Generated_Source\PSoC5/USBFS.c ****     }
1586:.\Generated_Source\PSoC5/USBFS.c **** }
 869              		.loc 1 1586 0
 870 007e F0BC     		pop	{r4, r5, r6, r7}
 871              		.cfi_restore 7
 872              		.cfi_restore 6
 873              		.cfi_restore 5
 874              		.cfi_restore 4
 875              		.cfi_def_cfa_offset 0
 876              	.L62:
 877 0080 7047     		bx	lr
 878              	.L64:
 879 0082 00BF     		.align	2
 880              	.L63:
 881 0084 00000000 		.word	USBFS_EP
 882 0088 FC5F0040 		.word	1073766396
 883 008c 78600040 		.word	1073766520
 884 0090 FE5F0040 		.word	1073766398
 885              		.cfi_endproc
 886              	.LFE11:
 887              		.size	USBFS_LoadInEP, .-USBFS_LoadInEP
 888              		.section	.text.USBFS_EnableOutEP,"ax",%progbits
 889              		.align	2
 890              		.global	USBFS_EnableOutEP
 891              		.thumb
 892              		.thumb_func
 893              		.type	USBFS_EnableOutEP, %function
 894              	USBFS_EnableOutEP:
 895              	.LFB13:
1587:.\Generated_Source\PSoC5/USBFS.c **** 
1588:.\Generated_Source\PSoC5/USBFS.c **** 
1589:.\Generated_Source\PSoC5/USBFS.c **** /*******************************************************************************
1590:.\Generated_Source\PSoC5/USBFS.c **** * Function Name: USBFS_ReadOutEP
1591:.\Generated_Source\PSoC5/USBFS.c **** ****************************************************************************//**
1592:.\Generated_Source\PSoC5/USBFS.c **** *
1593:.\Generated_Source\PSoC5/USBFS.c **** *   This function performs different functionality depending on the Component’s
1594:.\Generated_Source\PSoC5/USBFS.c **** *   configured Endpoint Buffer Management. This parameter is defined in the
1595:.\Generated_Source\PSoC5/USBFS.c **** *   Descriptor Root in Component Configure window.
1596:.\Generated_Source\PSoC5/USBFS.c **** *
1597:.\Generated_Source\PSoC5/USBFS.c **** *   *Manual (Static/Dynamic Allocation):*
1598:.\Generated_Source\PSoC5/USBFS.c **** *   This function moves the specified number of bytes from endpoint buffer to
1599:.\Generated_Source\PSoC5/USBFS.c **** *   system RAM. The number of bytes actually transferred from endpoint buffer to
ARM GAS  C:\Users\Patrick\AppData\Local\Temp\cc4CvmVx.s 			page 45


1600:.\Generated_Source\PSoC5/USBFS.c **** *   system RAM is the lesser of the actual number of bytes sent by the host or
1601:.\Generated_Source\PSoC5/USBFS.c **** *   the number of bytes requested by the length parameter.
1602:.\Generated_Source\PSoC5/USBFS.c **** *
1603:.\Generated_Source\PSoC5/USBFS.c **** *   *DMA with Manual Buffer Management:*
1604:.\Generated_Source\PSoC5/USBFS.c **** *   Configure DMA to transfer data from endpoint buffer to system RAM. Generate
1605:.\Generated_Source\PSoC5/USBFS.c **** *   a DMA request. The firmware must wait until the DMA completes the data
1606:.\Generated_Source\PSoC5/USBFS.c **** *   transfer after calling the USBFS_ReadOutEP() API. For example,
1607:.\Generated_Source\PSoC5/USBFS.c **** *   by checking EPstate:
1608:.\Generated_Source\PSoC5/USBFS.c **** *
1609:.\Generated_Source\PSoC5/USBFS.c **** *   \snippet /USBFS_sut_02.cydsn/main.c checking EPstatey
1610:.\Generated_Source\PSoC5/USBFS.c **** *
1611:.\Generated_Source\PSoC5/USBFS.c **** *   The USBFS_EnableOutEP() has to be called to allow host to write data into
1612:.\Generated_Source\PSoC5/USBFS.c **** *   the endpoint buffer after DMA has completed transfer data from OUT endpoint
1613:.\Generated_Source\PSoC5/USBFS.c **** *   buffer to SRAM.
1614:.\Generated_Source\PSoC5/USBFS.c **** *
1615:.\Generated_Source\PSoC5/USBFS.c **** *   *DMA with Automatic Buffer Management:*
1616:.\Generated_Source\PSoC5/USBFS.c **** *   Configure DMA. This is required only once and automatically generates DMA
1617:.\Generated_Source\PSoC5/USBFS.c **** *   requests as data arrives
1618:.\Generated_Source\PSoC5/USBFS.c **** *
1619:.\Generated_Source\PSoC5/USBFS.c **** *  \param epNumber: Contains the data endpoint number.
1620:.\Generated_Source\PSoC5/USBFS.c **** *            Valid values are between 1 and 8.
1621:.\Generated_Source\PSoC5/USBFS.c **** *  \param pData: A pointer to a data array from which the data for the endpoint
1622:.\Generated_Source\PSoC5/USBFS.c **** *         space is loaded.
1623:.\Generated_Source\PSoC5/USBFS.c **** *  \param length: The number of bytes to transfer from the USB Out endpoint and
1624:.\Generated_Source\PSoC5/USBFS.c **** *          loads it into data array. Valid values are between 0 and 1023. The
1625:.\Generated_Source\PSoC5/USBFS.c **** *          function moves fewer than the requested number of bytes if the host
1626:.\Generated_Source\PSoC5/USBFS.c **** *          sends fewer bytes than requested.
1627:.\Generated_Source\PSoC5/USBFS.c **** *
1628:.\Generated_Source\PSoC5/USBFS.c **** * \return
1629:.\Generated_Source\PSoC5/USBFS.c **** *  Number of bytes received, 0 for an invalid endpoint.
1630:.\Generated_Source\PSoC5/USBFS.c **** *
1631:.\Generated_Source\PSoC5/USBFS.c **** * \reentrant
1632:.\Generated_Source\PSoC5/USBFS.c **** *  No.
1633:.\Generated_Source\PSoC5/USBFS.c **** *
1634:.\Generated_Source\PSoC5/USBFS.c **** *******************************************************************************/
1635:.\Generated_Source\PSoC5/USBFS.c **** uint16 USBFS_ReadOutEP(uint8 epNumber, uint8 pData[], uint16 length)
1636:.\Generated_Source\PSoC5/USBFS.c ****                                                                         
1637:.\Generated_Source\PSoC5/USBFS.c **** {
1638:.\Generated_Source\PSoC5/USBFS.c ****     if ((pData != NULL) && (epNumber > USBFS_EP0) && (epNumber < USBFS_MAX_EP))
1639:.\Generated_Source\PSoC5/USBFS.c ****     {
1640:.\Generated_Source\PSoC5/USBFS.c ****     #if (!USBFS_EP_MANAGEMENT_DMA_AUTO)
1641:.\Generated_Source\PSoC5/USBFS.c ****         /* Adjust requested length to available data. */
1642:.\Generated_Source\PSoC5/USBFS.c ****         length = (length > USBFS_GetEPCount(epNumber)) ? USBFS_GetEPCount(epNumber) : length;
1643:.\Generated_Source\PSoC5/USBFS.c ****     #endif /* (!USBFS_EP_MANAGEMENT_DMA_AUTO) */
1644:.\Generated_Source\PSoC5/USBFS.c **** 
1645:.\Generated_Source\PSoC5/USBFS.c ****     #if (USBFS_EP_MANAGEMENT_MANUAL)
1646:.\Generated_Source\PSoC5/USBFS.c ****         {
1647:.\Generated_Source\PSoC5/USBFS.c ****             /* Copy data using arbiter data register. */
1648:.\Generated_Source\PSoC5/USBFS.c ****             uint16 i;
1649:.\Generated_Source\PSoC5/USBFS.c ****             for (i = 0u; i < length; ++i)
1650:.\Generated_Source\PSoC5/USBFS.c ****             {
1651:.\Generated_Source\PSoC5/USBFS.c ****                 pData[i] = (uint8) USBFS_ARB_EP_BASE.arbEp[epNumber].rwDr;
1652:.\Generated_Source\PSoC5/USBFS.c ****             }
1653:.\Generated_Source\PSoC5/USBFS.c ****         }
1654:.\Generated_Source\PSoC5/USBFS.c **** 
1655:.\Generated_Source\PSoC5/USBFS.c ****         /* Arm OUT endpoint after data has been copied from endpoint buffer. */
1656:.\Generated_Source\PSoC5/USBFS.c ****         USBFS_EnableOutEP(epNumber);
ARM GAS  C:\Users\Patrick\AppData\Local\Temp\cc4CvmVx.s 			page 46


1657:.\Generated_Source\PSoC5/USBFS.c ****     #else
1658:.\Generated_Source\PSoC5/USBFS.c **** 
1659:.\Generated_Source\PSoC5/USBFS.c ****         #if (CY_PSOC3 || CY_PSOC5LP)
1660:.\Generated_Source\PSoC5/USBFS.c ****             /* Initialize DMA if it was not initialized. */
1661:.\Generated_Source\PSoC5/USBFS.c ****             if (DMA_INVALID_TD == USBFS_DmaTd[epNumber])
1662:.\Generated_Source\PSoC5/USBFS.c ****             {
1663:.\Generated_Source\PSoC5/USBFS.c ****                 USBFS_InitEP_DMA(epNumber, pData);
1664:.\Generated_Source\PSoC5/USBFS.c ****             }
1665:.\Generated_Source\PSoC5/USBFS.c ****         #endif /* (CY_PSOC3 || CY_PSOC5LP) */
1666:.\Generated_Source\PSoC5/USBFS.c **** 
1667:.\Generated_Source\PSoC5/USBFS.c ****         #if (USBFS_EP_MANAGEMENT_DMA_MANUAL)
1668:.\Generated_Source\PSoC5/USBFS.c ****         #if (CY_PSOC4)
1669:.\Generated_Source\PSoC5/USBFS.c ****         {
1670:.\Generated_Source\PSoC5/USBFS.c ****             uint32 channelNum = (uint32) USBFS_DmaChan[epNumber];
1671:.\Generated_Source\PSoC5/USBFS.c **** 
1672:.\Generated_Source\PSoC5/USBFS.c ****             /* Disable DMA channel: start configuration. */
1673:.\Generated_Source\PSoC5/USBFS.c ****             USBFS_CyDmaChDisable(channelNum);
1674:.\Generated_Source\PSoC5/USBFS.c **** 
1675:.\Generated_Source\PSoC5/USBFS.c ****             /* Configure source and destination. */
1676:.\Generated_Source\PSoC5/USBFS.c ****             USBFS_CyDmaSetSrcAddress(channelNum, USBFS_DMA_DESCR0, (void*) &USBFS_ARB_EP_BASE.arbEp
1677:.\Generated_Source\PSoC5/USBFS.c ****             USBFS_CyDmaSetDstAddress(channelNum, USBFS_DMA_DESCR0, (void*) pData);
1678:.\Generated_Source\PSoC5/USBFS.c **** 
1679:.\Generated_Source\PSoC5/USBFS.c ****             /* Configure DMA descriptor. */
1680:.\Generated_Source\PSoC5/USBFS.c ****             USBFS_CyDmaSetConfiguration(channelNum, USBFS_DMA_DESCR0, USBFS_DMA_COMMON_CFG | (uint1
1681:.\Generated_Source\PSoC5/USBFS.c ****                                                     CYDMA_BYTE | CYDMA_WORD_ELEMENT | CYDMA_INC_DST
1682:.\Generated_Source\PSoC5/USBFS.c **** 
1683:.\Generated_Source\PSoC5/USBFS.c ****             /* Validate descriptor to execute on following DMA request. */
1684:.\Generated_Source\PSoC5/USBFS.c ****             USBFS_CyDmaValidateDescriptor(channelNum, USBFS_DMA_DESCR0);
1685:.\Generated_Source\PSoC5/USBFS.c **** 
1686:.\Generated_Source\PSoC5/USBFS.c ****             /* Enable DMA channel: configuration complete. */
1687:.\Generated_Source\PSoC5/USBFS.c ****             USBFS_CyDmaChEnable(channelNum);
1688:.\Generated_Source\PSoC5/USBFS.c ****         }
1689:.\Generated_Source\PSoC5/USBFS.c ****         #else
1690:.\Generated_Source\PSoC5/USBFS.c ****             /* Configure DMA to transfer data. */
1691:.\Generated_Source\PSoC5/USBFS.c ****             (void) CyDmaChDisable(USBFS_DmaChan[epNumber]);
1692:.\Generated_Source\PSoC5/USBFS.c ****             (void) CyDmaTdSetConfiguration(USBFS_DmaTd[epNumber], length, CY_DMA_DISABLE_TD, TD_TER
1693:.\Generated_Source\PSoC5/USBFS.c ****             (void) CyDmaTdSetAddress(USBFS_DmaTd[epNumber], LO16((uint32) &USBFS_ARB_EP_BASE.arbEp[
1694:.\Generated_Source\PSoC5/USBFS.c **** 
1695:.\Generated_Source\PSoC5/USBFS.c ****             /* Enable DMA channel. */
1696:.\Generated_Source\PSoC5/USBFS.c ****             (void) CyDmaChSetInitialTd(USBFS_DmaChan[epNumber], USBFS_DmaTd[epNumber]);
1697:.\Generated_Source\PSoC5/USBFS.c ****             (void) CyDmaChEnable(USBFS_DmaChan[epNumber], 1u);
1698:.\Generated_Source\PSoC5/USBFS.c ****         #endif /* (CY_PSOC4) */
1699:.\Generated_Source\PSoC5/USBFS.c **** 
1700:.\Generated_Source\PSoC5/USBFS.c ****             /* Generate DMA request. */
1701:.\Generated_Source\PSoC5/USBFS.c ****             USBFS_ARB_EP_BASE.arbEp[epNumber].epCfg |=  (uint8)  USBFS_ARB_EPX_CFG_DMA_REQ;
1702:.\Generated_Source\PSoC5/USBFS.c ****             USBFS_ARB_EP_BASE.arbEp[epNumber].epCfg &=  (uint8) ~USBFS_ARB_EPX_CFG_DMA_REQ;
1703:.\Generated_Source\PSoC5/USBFS.c **** 
1704:.\Generated_Source\PSoC5/USBFS.c ****             /* OUT endpoint has to be armed again by user when DMA transfers have been completed.
1705:.\Generated_Source\PSoC5/USBFS.c ****             * NO_EVENT_PENDING: notifies that data has been copied from endpoint buffer.
1706:.\Generated_Source\PSoC5/USBFS.c ****             */
1707:.\Generated_Source\PSoC5/USBFS.c **** 
1708:.\Generated_Source\PSoC5/USBFS.c ****         #endif /* (USBFS_EP_MANAGEMENT_DMA_MANUAL) */
1709:.\Generated_Source\PSoC5/USBFS.c **** 
1710:.\Generated_Source\PSoC5/USBFS.c ****         #if (USBFS_EP_MANAGEMENT_DMA_AUTO)
1711:.\Generated_Source\PSoC5/USBFS.c ****         #if (CY_PSOC4)
1712:.\Generated_Source\PSoC5/USBFS.c ****         {
1713:.\Generated_Source\PSoC5/USBFS.c ****             uint32 channelNum = (uint32) USBFS_DmaChan[epNumber];
ARM GAS  C:\Users\Patrick\AppData\Local\Temp\cc4CvmVx.s 			page 47


1714:.\Generated_Source\PSoC5/USBFS.c ****             uint32 lengthDescr0, lengthDescr1;
1715:.\Generated_Source\PSoC5/USBFS.c **** 
1716:.\Generated_Source\PSoC5/USBFS.c ****             /* Get number of full bursts. */
1717:.\Generated_Source\PSoC5/USBFS.c ****             USBFS_DmaEpBurstCnt[epNumber] = (uint8) (length / USBFS_DMA_BYTES_PER_BURST);
1718:.\Generated_Source\PSoC5/USBFS.c **** 
1719:.\Generated_Source\PSoC5/USBFS.c ****             /* Get number of elements in the last burst. */
1720:.\Generated_Source\PSoC5/USBFS.c ****             USBFS_DmaEpLastBurstEl[epNumber] = (uint8) (length % USBFS_DMA_BYTES_PER_BURST);
1721:.\Generated_Source\PSoC5/USBFS.c **** 
1722:.\Generated_Source\PSoC5/USBFS.c ****             /* Get total number of bursts. */
1723:.\Generated_Source\PSoC5/USBFS.c ****             USBFS_DmaEpBurstCnt[epNumber] += (0u != USBFS_DmaEpLastBurstEl[epNumber]) ? 1u : 0u;
1724:.\Generated_Source\PSoC5/USBFS.c **** 
1725:.\Generated_Source\PSoC5/USBFS.c ****             /* Adjust number of the data elements transfered in last burst. */
1726:.\Generated_Source\PSoC5/USBFS.c ****             USBFS_DmaEpLastBurstEl[epNumber] = (0u != USBFS_DmaEpLastBurstEl[epNumber]) ?
1727:.\Generated_Source\PSoC5/USBFS.c ****                                                                   (USBFS_DmaEpLastBurstEl[epNumber]
1728:.\Generated_Source\PSoC5/USBFS.c ****                                                                   (USBFS_DMA_BYTES_PER_BURST - 1u);
1729:.\Generated_Source\PSoC5/USBFS.c **** 
1730:.\Generated_Source\PSoC5/USBFS.c ****             /* Get number of data elements to transfer for descriptor 0 and 1. */
1731:.\Generated_Source\PSoC5/USBFS.c ****             lengthDescr0 = (1u == USBFS_DmaEpBurstCnt[epNumber]) ? USBFS_DmaEpLastBurstEl[epNumber]
1732:.\Generated_Source\PSoC5/USBFS.c ****             lengthDescr1 = (2u == USBFS_DmaEpBurstCnt[epNumber]) ? USBFS_DmaEpLastBurstEl[epNumber]
1733:.\Generated_Source\PSoC5/USBFS.c **** 
1734:.\Generated_Source\PSoC5/USBFS.c ****             /* Mark if revert number of data elements in descriptor after transfer completion. */
1735:.\Generated_Source\PSoC5/USBFS.c ****             USBFS_DmaEpLastBurstEl[epNumber] |= (USBFS_DmaEpBurstCnt[epNumber] > 2u) ? USBFS_DMA_DE
1736:.\Generated_Source\PSoC5/USBFS.c **** 
1737:.\Generated_Source\PSoC5/USBFS.c ****             /* Mark last descriptor to be executed. */
1738:.\Generated_Source\PSoC5/USBFS.c ****             USBFS_DmaEpLastBurstEl[epNumber] |= (0u != (USBFS_DmaEpBurstCnt[epNumber] & 0x1u)) ?
1739:.\Generated_Source\PSoC5/USBFS.c ****                                                                     USBFS_DMA_DESCR0_MASK : USBFS_D
1740:.\Generated_Source\PSoC5/USBFS.c **** 
1741:.\Generated_Source\PSoC5/USBFS.c ****             /* Adjust burst counter taking to account: 2 valid descriptors and interrupt trigger af
1742:.\Generated_Source\PSoC5/USBFS.c ****             USBFS_DmaEpBurstCnt[epNumber] = USBFS_DMA_GET_BURST_CNT(USBFS_DmaEpBurstCnt[epNumber]);
1743:.\Generated_Source\PSoC5/USBFS.c **** 
1744:.\Generated_Source\PSoC5/USBFS.c ****             /* Store address of buffer and burst counter for endpoint. */
1745:.\Generated_Source\PSoC5/USBFS.c ****             USBFS_DmaEpBufferAddrBackup[epNumber] = (uint32) pData;
1746:.\Generated_Source\PSoC5/USBFS.c ****             USBFS_DmaEpBurstCntBackup[epNumber]   = USBFS_DmaEpBurstCnt[epNumber];
1747:.\Generated_Source\PSoC5/USBFS.c **** 
1748:.\Generated_Source\PSoC5/USBFS.c ****             /* Disable DMA channel: start configuration. */
1749:.\Generated_Source\PSoC5/USBFS.c ****             USBFS_CyDmaChDisable(channelNum);
1750:.\Generated_Source\PSoC5/USBFS.c **** 
1751:.\Generated_Source\PSoC5/USBFS.c ****             /* Set destination address. */
1752:.\Generated_Source\PSoC5/USBFS.c ****             USBFS_CyDmaSetSrcAddress(channelNum, USBFS_DMA_DESCR0, (void*) &USBFS_ARB_EP_BASE.arbEp
1753:.\Generated_Source\PSoC5/USBFS.c ****             USBFS_CyDmaSetSrcAddress(channelNum, USBFS_DMA_DESCR1, (void*) &USBFS_ARB_EP_BASE.arbEp
1754:.\Generated_Source\PSoC5/USBFS.c **** 
1755:.\Generated_Source\PSoC5/USBFS.c ****             USBFS_CyDmaSetDstAddress(channelNum, USBFS_DMA_DESCR0, (void*) ((uint32) pData));
1756:.\Generated_Source\PSoC5/USBFS.c ****             USBFS_CyDmaSetDstAddress(channelNum, USBFS_DMA_DESCR1, (void*) ((uint32) pData + USBFS_
1757:.\Generated_Source\PSoC5/USBFS.c **** 
1758:.\Generated_Source\PSoC5/USBFS.c ****             /* Configure DMA descriptor. */
1759:.\Generated_Source\PSoC5/USBFS.c ****             USBFS_CyDmaSetConfiguration(channelNum, USBFS_DMA_DESCR0, USBFS_DMA_COMMON_CFG  | lengt
1760:.\Generated_Source\PSoC5/USBFS.c ****                                                     CYDMA_BYTE | CYDMA_WORD_ELEMENT | CYDMA_INC_DST
1761:.\Generated_Source\PSoC5/USBFS.c **** 
1762:.\Generated_Source\PSoC5/USBFS.c ****             /* Configure DMA descriptor. */
1763:.\Generated_Source\PSoC5/USBFS.c ****             USBFS_CyDmaSetConfiguration(channelNum, USBFS_DMA_DESCR1, USBFS_DMA_COMMON_CFG  | lengt
1764:.\Generated_Source\PSoC5/USBFS.c ****                                                     CYDMA_BYTE | CYDMA_WORD_ELEMENT | CYDMA_INC_DST
1765:.\Generated_Source\PSoC5/USBFS.c **** 
1766:.\Generated_Source\PSoC5/USBFS.c ****             /* Enable interrupt from DMA channel. */
1767:.\Generated_Source\PSoC5/USBFS.c ****             USBFS_CyDmaSetInterruptMask(channelNum);
1768:.\Generated_Source\PSoC5/USBFS.c **** 
1769:.\Generated_Source\PSoC5/USBFS.c ****             /* Validate DMA descriptor 0 and 1. */
1770:.\Generated_Source\PSoC5/USBFS.c ****             USBFS_CyDmaValidateDescriptor(channelNum, USBFS_DMA_DESCR0);
ARM GAS  C:\Users\Patrick\AppData\Local\Temp\cc4CvmVx.s 			page 48


1771:.\Generated_Source\PSoC5/USBFS.c ****             USBFS_CyDmaValidateDescriptor(channelNum, USBFS_DMA_DESCR1);
1772:.\Generated_Source\PSoC5/USBFS.c **** 
1773:.\Generated_Source\PSoC5/USBFS.c ****             /* Enable DMA channel: configuration complete. */
1774:.\Generated_Source\PSoC5/USBFS.c ****             USBFS_CyDmaChEnable(channelNum);
1775:.\Generated_Source\PSoC5/USBFS.c ****         }
1776:.\Generated_Source\PSoC5/USBFS.c ****         #else
1777:.\Generated_Source\PSoC5/USBFS.c ****             (void) CyDmaChDisable(USBFS_DmaChan[epNumber]);
1778:.\Generated_Source\PSoC5/USBFS.c ****             (void) CyDmaTdSetConfiguration(USBFS_DmaTd[epNumber], length,  USBFS_DmaTd[epNumber], T
1779:.\Generated_Source\PSoC5/USBFS.c ****             (void) CyDmaTdSetAddress(USBFS_DmaTd[epNumber], LO16((uint32) &USBFS_ARB_EP_BASE.arbEp[
1780:.\Generated_Source\PSoC5/USBFS.c **** 
1781:.\Generated_Source\PSoC5/USBFS.c ****             /* Clear Any potential pending DMA requests before starting DMA channel to transfer dat
1782:.\Generated_Source\PSoC5/USBFS.c ****             (void) CyDmaClearPendingDrq(USBFS_DmaChan[epNumber]);
1783:.\Generated_Source\PSoC5/USBFS.c **** 
1784:.\Generated_Source\PSoC5/USBFS.c ****             /* Enable DMA channel. */
1785:.\Generated_Source\PSoC5/USBFS.c ****             (void) CyDmaChSetInitialTd(USBFS_DmaChan[epNumber], USBFS_DmaTd[epNumber]);
1786:.\Generated_Source\PSoC5/USBFS.c ****             (void) CyDmaChEnable(USBFS_DmaChan[epNumber], 1u);
1787:.\Generated_Source\PSoC5/USBFS.c ****         #endif /* (CY_PSOC4) */
1788:.\Generated_Source\PSoC5/USBFS.c **** 
1789:.\Generated_Source\PSoC5/USBFS.c ****             /* OUT endpoint has to be armed again by user when DMA transfers have been completed.
1790:.\Generated_Source\PSoC5/USBFS.c ****             * NO_EVENT_PENDING: notifies that data has been copied from endpoint buffer.
1791:.\Generated_Source\PSoC5/USBFS.c ****             */
1792:.\Generated_Source\PSoC5/USBFS.c **** 
1793:.\Generated_Source\PSoC5/USBFS.c ****         #endif /* (USBFS_EP_MANAGEMENT_DMA_AUTO) */
1794:.\Generated_Source\PSoC5/USBFS.c ****     #endif /* (USBFS_EP_MANAGEMENT_MANUAL) */
1795:.\Generated_Source\PSoC5/USBFS.c ****     }
1796:.\Generated_Source\PSoC5/USBFS.c ****     else
1797:.\Generated_Source\PSoC5/USBFS.c ****     {
1798:.\Generated_Source\PSoC5/USBFS.c ****         length = 0u;
1799:.\Generated_Source\PSoC5/USBFS.c ****     }
1800:.\Generated_Source\PSoC5/USBFS.c **** 
1801:.\Generated_Source\PSoC5/USBFS.c ****     return (length);
1802:.\Generated_Source\PSoC5/USBFS.c **** }
1803:.\Generated_Source\PSoC5/USBFS.c **** 
1804:.\Generated_Source\PSoC5/USBFS.c **** 
1805:.\Generated_Source\PSoC5/USBFS.c **** #if (USBFS_16BITS_EP_ACCESS_ENABLE)
1806:.\Generated_Source\PSoC5/USBFS.c **** /*******************************************************************************
1807:.\Generated_Source\PSoC5/USBFS.c **** * Function Name: USBFS_LoadInEP16
1808:.\Generated_Source\PSoC5/USBFS.c **** ****************************************************************************//**
1809:.\Generated_Source\PSoC5/USBFS.c **** *
1810:.\Generated_Source\PSoC5/USBFS.c **** *  This function performs different functionality depending on the Component’s
1811:.\Generated_Source\PSoC5/USBFS.c **** *  configured Endpoint Buffer Management. This parameter is defined in
1812:.\Generated_Source\PSoC5/USBFS.c **** *  the Descriptor Root in Component Configure window.
1813:.\Generated_Source\PSoC5/USBFS.c **** *
1814:.\Generated_Source\PSoC5/USBFS.c **** *  *Manual (Static/Dynamic Allocation):*
1815:.\Generated_Source\PSoC5/USBFS.c **** *  This function loads and enables the specified USB data endpoint for an IN
1816:.\Generated_Source\PSoC5/USBFS.c **** *  data transfer.
1817:.\Generated_Source\PSoC5/USBFS.c **** *
1818:.\Generated_Source\PSoC5/USBFS.c **** *  *DMA with Manual Buffer Management:*
1819:.\Generated_Source\PSoC5/USBFS.c **** *  Configures DMA for a data transfer from system RAM to endpoint buffer.
1820:.\Generated_Source\PSoC5/USBFS.c **** *  Generates request for a transfer.
1821:.\Generated_Source\PSoC5/USBFS.c **** *
1822:.\Generated_Source\PSoC5/USBFS.c **** *  *DMA with Automatic Buffer Management:*
1823:.\Generated_Source\PSoC5/USBFS.c **** *  Configures DMA. This is required only once, so it is done only when parameter
1824:.\Generated_Source\PSoC5/USBFS.c **** *  pData is not NULL. When the pData pointer is NULL, the function skips this
1825:.\Generated_Source\PSoC5/USBFS.c **** *  task. Sets Data ready status: This generates the first DMA transfer and
1826:.\Generated_Source\PSoC5/USBFS.c **** *  prepares data in endpoint buffer.
1827:.\Generated_Source\PSoC5/USBFS.c **** *
ARM GAS  C:\Users\Patrick\AppData\Local\Temp\cc4CvmVx.s 			page 49


1828:.\Generated_Source\PSoC5/USBFS.c **** *  \param epNumber Contains the data endpoint number.
1829:.\Generated_Source\PSoC5/USBFS.c **** *        Valid values are between 1 and 8.
1830:.\Generated_Source\PSoC5/USBFS.c **** *  \param *pData A pointer to a data array from which the data for the endpoint
1831:.\Generated_Source\PSoC5/USBFS.c **** *        space is loaded. It shall be ensured that this pointer address is even
1832:.\Generated_Source\PSoC5/USBFS.c **** *        to ensure the 16-bit transfer is aligned to even address. Else, a hard
1833:.\Generated_Source\PSoC5/USBFS.c **** *        fault condition can occur.
1834:.\Generated_Source\PSoC5/USBFS.c **** *  \param length The number of bytes to transfer from the array and then send as
1835:.\Generated_Source\PSoC5/USBFS.c **** *        a result of an IN request. Valid values are between 0 and 512 (1023 for
1836:.\Generated_Source\PSoC5/USBFS.c **** *        DMA with Automatic Buffer Management mode). The value 512 is applicable
1837:.\Generated_Source\PSoC5/USBFS.c **** *        if only one endpoint is used.
1838:.\Generated_Source\PSoC5/USBFS.c **** *
1839:.\Generated_Source\PSoC5/USBFS.c **** * \reentrant
1840:.\Generated_Source\PSoC5/USBFS.c **** *  No.
1841:.\Generated_Source\PSoC5/USBFS.c **** *
1842:.\Generated_Source\PSoC5/USBFS.c **** *******************************************************************************/
1843:.\Generated_Source\PSoC5/USBFS.c **** void USBFS_LoadInEP16(uint8 epNumber, const uint8 pData[], uint16 length)
1844:.\Generated_Source\PSoC5/USBFS.c **** {
1845:.\Generated_Source\PSoC5/USBFS.c ****     /* Check array alignment on half-word boundary. */
1846:.\Generated_Source\PSoC5/USBFS.c ****     CYASSERT(0u == (((uint32) pData) & 0x01u));
1847:.\Generated_Source\PSoC5/USBFS.c **** 
1848:.\Generated_Source\PSoC5/USBFS.c ****     if ((epNumber > USBFS_EP0) && (epNumber < USBFS_MAX_EP))
1849:.\Generated_Source\PSoC5/USBFS.c ****     {
1850:.\Generated_Source\PSoC5/USBFS.c ****     #if (!USBFS_EP_MANAGEMENT_DMA_AUTO)
1851:.\Generated_Source\PSoC5/USBFS.c ****         /* Limit length to available buffer USB IP buffer size. */
1852:.\Generated_Source\PSoC5/USBFS.c ****         if (length > (USBFS_EPX_DATA_BUF_MAX - USBFS_EP[epNumber].buffOffset))
1853:.\Generated_Source\PSoC5/USBFS.c ****         {
1854:.\Generated_Source\PSoC5/USBFS.c ****             length = USBFS_EPX_DATA_BUF_MAX - USBFS_EP[epNumber].buffOffset;
1855:.\Generated_Source\PSoC5/USBFS.c ****         }
1856:.\Generated_Source\PSoC5/USBFS.c ****     #endif /* (!USBFS_EP_MANAGEMENT_DMA_AUTO) */
1857:.\Generated_Source\PSoC5/USBFS.c **** 
1858:.\Generated_Source\PSoC5/USBFS.c ****         /* Set count and data toggle. */
1859:.\Generated_Source\PSoC5/USBFS.c ****         USBFS_SIE_EP_BASE.sieEp[epNumber].epCnt0 = (uint32) HI8(length) | USBFS_EP[epNumber].epTogg
1860:.\Generated_Source\PSoC5/USBFS.c ****         USBFS_SIE_EP_BASE.sieEp[epNumber].epCnt1 = (uint32) LO8(length);
1861:.\Generated_Source\PSoC5/USBFS.c **** 
1862:.\Generated_Source\PSoC5/USBFS.c ****         /* Adjust requested length: 2 bytes are handled at one data register access. */
1863:.\Generated_Source\PSoC5/USBFS.c ****         length += (length & 0x01u);
1864:.\Generated_Source\PSoC5/USBFS.c **** 
1865:.\Generated_Source\PSoC5/USBFS.c ****     #if (USBFS_EP_MANAGEMENT_MANUAL)
1866:.\Generated_Source\PSoC5/USBFS.c ****         if (NULL != pData)
1867:.\Generated_Source\PSoC5/USBFS.c ****         {
1868:.\Generated_Source\PSoC5/USBFS.c ****             /* Convert uint8 array to uint16. */
1869:.\Generated_Source\PSoC5/USBFS.c ****             const uint16 *dataBuf = (uint16 *) pData;
1870:.\Generated_Source\PSoC5/USBFS.c **** 
1871:.\Generated_Source\PSoC5/USBFS.c ****             /* Copy data using 16-bits arbiter data register. */
1872:.\Generated_Source\PSoC5/USBFS.c ****             uint16 i;
1873:.\Generated_Source\PSoC5/USBFS.c ****             for (i = 0u; i < (length >> 1u); ++i)
1874:.\Generated_Source\PSoC5/USBFS.c ****             {
1875:.\Generated_Source\PSoC5/USBFS.c ****                 USBFS_ARB_EP16_BASE.arbEp[epNumber].rwDr16 = dataBuf[i];
1876:.\Generated_Source\PSoC5/USBFS.c ****             }
1877:.\Generated_Source\PSoC5/USBFS.c ****         }
1878:.\Generated_Source\PSoC5/USBFS.c **** 
1879:.\Generated_Source\PSoC5/USBFS.c ****         /* IN endpoint buffer is full - read to be read. */
1880:.\Generated_Source\PSoC5/USBFS.c ****         USBFS_EP[epNumber].apiEpState = USBFS_NO_EVENT_PENDING;
1881:.\Generated_Source\PSoC5/USBFS.c **** 
1882:.\Generated_Source\PSoC5/USBFS.c ****         /* Arm IN endpoint. */
1883:.\Generated_Source\PSoC5/USBFS.c ****         USBFS_SIE_EP_BASE.sieEp[epNumber].epCr0 = USBFS_EP[epNumber].epMode;
1884:.\Generated_Source\PSoC5/USBFS.c **** 
ARM GAS  C:\Users\Patrick\AppData\Local\Temp\cc4CvmVx.s 			page 50


1885:.\Generated_Source\PSoC5/USBFS.c ****     #else
1886:.\Generated_Source\PSoC5/USBFS.c **** 
1887:.\Generated_Source\PSoC5/USBFS.c ****         #if (USBFS_EP_MANAGEMENT_DMA_MANUAL)
1888:.\Generated_Source\PSoC5/USBFS.c ****             /* IN endpoint buffer will be fully loaded by DMA shortly. */
1889:.\Generated_Source\PSoC5/USBFS.c ****             USBFS_EP[epNumber].apiEpState = USBFS_NO_EVENT_PENDING;
1890:.\Generated_Source\PSoC5/USBFS.c **** 
1891:.\Generated_Source\PSoC5/USBFS.c ****             if ((pData != NULL) && (length > 0u))
1892:.\Generated_Source\PSoC5/USBFS.c ****             {
1893:.\Generated_Source\PSoC5/USBFS.c ****                 uint32 channelNum = (uint32) USBFS_DmaChan[epNumber];
1894:.\Generated_Source\PSoC5/USBFS.c **** 
1895:.\Generated_Source\PSoC5/USBFS.c ****                 /* Disable DMA channel: start configuration. */
1896:.\Generated_Source\PSoC5/USBFS.c ****                 USBFS_CyDmaChDisable(channelNum);
1897:.\Generated_Source\PSoC5/USBFS.c **** 
1898:.\Generated_Source\PSoC5/USBFS.c ****                 /* Configure source and destination. */
1899:.\Generated_Source\PSoC5/USBFS.c ****                 USBFS_CyDmaSetSrcAddress(channelNum, USBFS_DMA_DESCR0, (void*) pData);
1900:.\Generated_Source\PSoC5/USBFS.c ****                 USBFS_CyDmaSetDstAddress(channelNum, USBFS_DMA_DESCR0, (void*) &USBFS_ARB_EP16_BASE
1901:.\Generated_Source\PSoC5/USBFS.c **** 
1902:.\Generated_Source\PSoC5/USBFS.c ****                 /* Configure DMA descriptor. */
1903:.\Generated_Source\PSoC5/USBFS.c ****                 length = (length >> 1u) - 1u;
1904:.\Generated_Source\PSoC5/USBFS.c ****                 USBFS_CyDmaSetConfiguration(channelNum, USBFS_DMA_DESCR0, USBFS_DMA_COMMON_CFG | le
1905:.\Generated_Source\PSoC5/USBFS.c ****                                                         CYDMA_HALFWORD | CYDMA_ELEMENT_WORD | CYDMA
1906:.\Generated_Source\PSoC5/USBFS.c **** 
1907:.\Generated_Source\PSoC5/USBFS.c ****                 /* Validate descriptor to execute on following DMA request. */
1908:.\Generated_Source\PSoC5/USBFS.c ****                 USBFS_CyDmaValidateDescriptor(channelNum, USBFS_DMA_DESCR0);
1909:.\Generated_Source\PSoC5/USBFS.c **** 
1910:.\Generated_Source\PSoC5/USBFS.c ****                 /* Enable DMA channel: configuration complete. */
1911:.\Generated_Source\PSoC5/USBFS.c ****                 USBFS_CyDmaChEnable(channelNum);
1912:.\Generated_Source\PSoC5/USBFS.c **** 
1913:.\Generated_Source\PSoC5/USBFS.c ****                 /* Generate DMA request. */
1914:.\Generated_Source\PSoC5/USBFS.c ****                 USBFS_ARB_EP_BASE.arbEp[epNumber].epCfg |=  (uint32)  USBFS_ARB_EPX_CFG_DMA_REQ;
1915:.\Generated_Source\PSoC5/USBFS.c ****                 USBFS_ARB_EP_BASE.arbEp[epNumber].epCfg &=  (uint32) ~USBFS_ARB_EPX_CFG_DMA_REQ;
1916:.\Generated_Source\PSoC5/USBFS.c **** 
1917:.\Generated_Source\PSoC5/USBFS.c ****                 /* IN endpoint will be armed in ARB_ISR(source: IN_BUF_FULL) after first DMA transf
1918:.\Generated_Source\PSoC5/USBFS.c ****             }
1919:.\Generated_Source\PSoC5/USBFS.c ****             else
1920:.\Generated_Source\PSoC5/USBFS.c ****             {
1921:.\Generated_Source\PSoC5/USBFS.c ****                 /* When zero-length packet: arm IN endpoint directly. */
1922:.\Generated_Source\PSoC5/USBFS.c ****                 USBFS_SIE_EP_BASE.sieEp[epNumber].epCr0 = USBFS_EP[epNumber].epMode;
1923:.\Generated_Source\PSoC5/USBFS.c ****             }
1924:.\Generated_Source\PSoC5/USBFS.c ****         #endif /* (USBFS_EP_MANAGEMENT_DMA_MANUAL) */
1925:.\Generated_Source\PSoC5/USBFS.c **** 
1926:.\Generated_Source\PSoC5/USBFS.c ****         #if (USBFS_EP_MANAGEMENT_DMA_AUTO)
1927:.\Generated_Source\PSoC5/USBFS.c ****             if (pData != NULL)
1928:.\Generated_Source\PSoC5/USBFS.c ****             {
1929:.\Generated_Source\PSoC5/USBFS.c ****                 uint32 channelNum = (uint32) USBFS_DmaChan[epNumber];
1930:.\Generated_Source\PSoC5/USBFS.c **** 
1931:.\Generated_Source\PSoC5/USBFS.c ****                 /* Store address of buffer. */
1932:.\Generated_Source\PSoC5/USBFS.c ****                 USBFS_DmaEpBufferAddrBackup[epNumber] = (uint32) pData;
1933:.\Generated_Source\PSoC5/USBFS.c **** 
1934:.\Generated_Source\PSoC5/USBFS.c ****                 /* Disable DMA channel: start configuration. */
1935:.\Generated_Source\PSoC5/USBFS.c ****                 USBFS_CyDmaChDisable(channelNum);
1936:.\Generated_Source\PSoC5/USBFS.c **** 
1937:.\Generated_Source\PSoC5/USBFS.c ****                 /* Set destination address. */
1938:.\Generated_Source\PSoC5/USBFS.c ****                 USBFS_CyDmaSetDstAddress(channelNum, USBFS_DMA_DESCR0, (void*) &USBFS_ARB_EP16_BASE
1939:.\Generated_Source\PSoC5/USBFS.c ****                 USBFS_CyDmaSetDstAddress(channelNum, USBFS_DMA_DESCR1, (void*) &USBFS_ARB_EP16_BASE
1940:.\Generated_Source\PSoC5/USBFS.c **** 
1941:.\Generated_Source\PSoC5/USBFS.c ****                 /* Configure DMA descriptor. */
ARM GAS  C:\Users\Patrick\AppData\Local\Temp\cc4CvmVx.s 			page 51


1942:.\Generated_Source\PSoC5/USBFS.c ****                 USBFS_CyDmaSetConfiguration(channelNum, USBFS_DMA_DESCR0, USBFS_DMA_COMMON_CFG  |
1943:.\Generated_Source\PSoC5/USBFS.c ****                                                         CYDMA_HALFWORD | CYDMA_ELEMENT_WORD | CYDMA
1944:.\Generated_Source\PSoC5/USBFS.c **** 
1945:.\Generated_Source\PSoC5/USBFS.c ****                 /* Configure DMA descriptor. */
1946:.\Generated_Source\PSoC5/USBFS.c ****                 USBFS_CyDmaSetConfiguration(channelNum, USBFS_DMA_DESCR1, USBFS_DMA_COMMON_CFG  |
1947:.\Generated_Source\PSoC5/USBFS.c ****                                                         CYDMA_HALFWORD | CYDMA_ELEMENT_WORD | CYDMA
1948:.\Generated_Source\PSoC5/USBFS.c **** 
1949:.\Generated_Source\PSoC5/USBFS.c ****                 /* Enable interrupt from DMA channel. */
1950:.\Generated_Source\PSoC5/USBFS.c ****                 USBFS_CyDmaSetInterruptMask(channelNum);
1951:.\Generated_Source\PSoC5/USBFS.c **** 
1952:.\Generated_Source\PSoC5/USBFS.c ****                 /* Validate descriptor 1. It will not be invalided during operation. */
1953:.\Generated_Source\PSoC5/USBFS.c ****                 USBFS_CyDmaValidateDescriptor(channelNum, USBFS_DMA_DESCR1);
1954:.\Generated_Source\PSoC5/USBFS.c **** 
1955:.\Generated_Source\PSoC5/USBFS.c ****                 /* Enable DMA channel: configuration complete. */
1956:.\Generated_Source\PSoC5/USBFS.c ****                 USBFS_CyDmaChEnable(channelNum);
1957:.\Generated_Source\PSoC5/USBFS.c ****             }
1958:.\Generated_Source\PSoC5/USBFS.c ****             else
1959:.\Generated_Source\PSoC5/USBFS.c ****             {
1960:.\Generated_Source\PSoC5/USBFS.c ****                 /* IN endpoint buffer (32 bytes) will shortly be preloaded by DMA. */
1961:.\Generated_Source\PSoC5/USBFS.c ****                 USBFS_EP[epNumber].apiEpState = USBFS_NO_EVENT_PENDING;
1962:.\Generated_Source\PSoC5/USBFS.c **** 
1963:.\Generated_Source\PSoC5/USBFS.c ****                 if (length > 0u)
1964:.\Generated_Source\PSoC5/USBFS.c ****                 {
1965:.\Generated_Source\PSoC5/USBFS.c ****                     uint32 lengthDescr0, lengthDescr1;
1966:.\Generated_Source\PSoC5/USBFS.c ****                     uint32 channelNum = (uint32) USBFS_DmaChan[epNumber];
1967:.\Generated_Source\PSoC5/USBFS.c **** 
1968:.\Generated_Source\PSoC5/USBFS.c ****                     /* Get number of full bursts. */
1969:.\Generated_Source\PSoC5/USBFS.c ****                     USBFS_DmaEpBurstCnt[epNumber] = (uint8) (length / USBFS_DMA_BYTES_PER_BURST);
1970:.\Generated_Source\PSoC5/USBFS.c **** 
1971:.\Generated_Source\PSoC5/USBFS.c ****                     /* Get number of elements in the last burst. */
1972:.\Generated_Source\PSoC5/USBFS.c ****                     USBFS_DmaEpLastBurstEl[epNumber] = (uint8) (length % USBFS_DMA_BYTES_PER_BURST)
1973:.\Generated_Source\PSoC5/USBFS.c **** 
1974:.\Generated_Source\PSoC5/USBFS.c ****                     /* Get total number of bursts. */
1975:.\Generated_Source\PSoC5/USBFS.c ****                     USBFS_DmaEpBurstCnt[epNumber] += (0u != USBFS_DmaEpLastBurstEl[epNumber]) ? 1u 
1976:.\Generated_Source\PSoC5/USBFS.c **** 
1977:.\Generated_Source\PSoC5/USBFS.c ****                     /* Adjust number of data elements transferred in last burst. */
1978:.\Generated_Source\PSoC5/USBFS.c ****                     USBFS_DmaEpLastBurstEl[epNumber] = (0u != USBFS_DmaEpLastBurstEl[epNumber]) ?
1979:.\Generated_Source\PSoC5/USBFS.c ****                                                                           ((USBFS_DmaEpLastBurstEl[
1980:.\Generated_Source\PSoC5/USBFS.c ****                                                                            (USBFS_DMA_HALFWORDS_PER
1981:.\Generated_Source\PSoC5/USBFS.c **** 
1982:.\Generated_Source\PSoC5/USBFS.c ****                     /* Get number of data elements to transfer for descriptor 0 and 1. */
1983:.\Generated_Source\PSoC5/USBFS.c ****                     lengthDescr0 = (1u == USBFS_DmaEpBurstCnt[epNumber]) ? USBFS_DmaEpLastBurstEl[e
1984:.\Generated_Source\PSoC5/USBFS.c ****                     lengthDescr1 = (2u == USBFS_DmaEpBurstCnt[epNumber]) ? USBFS_DmaEpLastBurstEl[e
1985:.\Generated_Source\PSoC5/USBFS.c **** 
1986:.\Generated_Source\PSoC5/USBFS.c ****                     /* Mark which descriptor is last one to execute. */
1987:.\Generated_Source\PSoC5/USBFS.c ****                     USBFS_DmaEpLastBurstEl[epNumber] |= (0u != (USBFS_DmaEpBurstCnt[epNumber] & 0x1
1988:.\Generated_Source\PSoC5/USBFS.c ****                                                                             USBFS_DMA_DESCR0_MASK :
1989:.\Generated_Source\PSoC5/USBFS.c **** 
1990:.\Generated_Source\PSoC5/USBFS.c ****                     /* Adjust burst counter taking to account: 2 valid descriptors and interrupt tr
1991:.\Generated_Source\PSoC5/USBFS.c ****                     USBFS_DmaEpBurstCnt[epNumber] = USBFS_DMA_GET_BURST_CNT(USBFS_DmaEpBurstCnt[epN
1992:.\Generated_Source\PSoC5/USBFS.c **** 
1993:.\Generated_Source\PSoC5/USBFS.c ****                     /* Restore DMA settings for current transfer. */
1994:.\Generated_Source\PSoC5/USBFS.c ****                     USBFS_CyDmaChDisable(channelNum);
1995:.\Generated_Source\PSoC5/USBFS.c **** 
1996:.\Generated_Source\PSoC5/USBFS.c ****                     /* Restore destination address for input endpoint. */
1997:.\Generated_Source\PSoC5/USBFS.c ****                     USBFS_CyDmaSetSrcAddress(channelNum, USBFS_DMA_DESCR0, (void*) ((uint32) USBFS_
1998:.\Generated_Source\PSoC5/USBFS.c ****                     USBFS_CyDmaSetSrcAddress(channelNum, USBFS_DMA_DESCR1, (void*) ((uint32) USBFS_
ARM GAS  C:\Users\Patrick\AppData\Local\Temp\cc4CvmVx.s 			page 52


1999:.\Generated_Source\PSoC5/USBFS.c ****                                                                                                    
2000:.\Generated_Source\PSoC5/USBFS.c **** 
2001:.\Generated_Source\PSoC5/USBFS.c ****                     /* Set number of elements to transfer. */
2002:.\Generated_Source\PSoC5/USBFS.c ****                     USBFS_CyDmaSetNumDataElements(channelNum, USBFS_DMA_DESCR0, lengthDescr0);
2003:.\Generated_Source\PSoC5/USBFS.c ****                     USBFS_CyDmaSetNumDataElements(channelNum, USBFS_DMA_DESCR1, lengthDescr1);
2004:.\Generated_Source\PSoC5/USBFS.c **** 
2005:.\Generated_Source\PSoC5/USBFS.c ****                     /* Validate descriptor 0 and command to start with it. */
2006:.\Generated_Source\PSoC5/USBFS.c ****                     USBFS_CyDmaValidateDescriptor(channelNum, USBFS_DMA_DESCR0);
2007:.\Generated_Source\PSoC5/USBFS.c ****                     USBFS_CyDmaSetDescriptor0Next(channelNum);
2008:.\Generated_Source\PSoC5/USBFS.c **** 
2009:.\Generated_Source\PSoC5/USBFS.c ****                     /* Enable DMA channel: configuration complete. */
2010:.\Generated_Source\PSoC5/USBFS.c ****                     USBFS_CyDmaChEnable(channelNum);
2011:.\Generated_Source\PSoC5/USBFS.c **** 
2012:.\Generated_Source\PSoC5/USBFS.c ****                 #if !defined (USBFS_MANUAL_IN_EP_ARM)
2013:.\Generated_Source\PSoC5/USBFS.c ****                     /* Set IN data ready to generate DMA request to load data into endpoint buffer.
2014:.\Generated_Source\PSoC5/USBFS.c ****                     USBFS_ARB_EP_BASE.arbEp[epNumber].epCfg |= USBFS_ARB_EPX_CFG_IN_DATA_RDY;
2015:.\Generated_Source\PSoC5/USBFS.c ****                 #endif  /* (USBFS_MANUAL_IN_EP_ARM) */
2016:.\Generated_Source\PSoC5/USBFS.c **** 
2017:.\Generated_Source\PSoC5/USBFS.c ****                     /* IN endpoint will be armed in ARB_ISR(source: IN_BUF_FULL) after first DMA tr
2018:.\Generated_Source\PSoC5/USBFS.c ****                 }
2019:.\Generated_Source\PSoC5/USBFS.c ****                 else
2020:.\Generated_Source\PSoC5/USBFS.c ****                 {
2021:.\Generated_Source\PSoC5/USBFS.c ****                     /* When zero-length packet: arm IN endpoint directly. */
2022:.\Generated_Source\PSoC5/USBFS.c ****                     USBFS_SIE_EP_BASE.sieEp[epNumber].epCr0 = USBFS_EP[epNumber].epMode;
2023:.\Generated_Source\PSoC5/USBFS.c ****                 }
2024:.\Generated_Source\PSoC5/USBFS.c ****             }
2025:.\Generated_Source\PSoC5/USBFS.c ****         #endif /* (USBFS_EP_MANAGEMENT_DMA_AUTO) */
2026:.\Generated_Source\PSoC5/USBFS.c ****     #endif /* (USBFS_EP_MANAGEMENT_MANUAL) */
2027:.\Generated_Source\PSoC5/USBFS.c ****     }
2028:.\Generated_Source\PSoC5/USBFS.c **** }
2029:.\Generated_Source\PSoC5/USBFS.c **** 
2030:.\Generated_Source\PSoC5/USBFS.c **** 
2031:.\Generated_Source\PSoC5/USBFS.c **** /*******************************************************************************
2032:.\Generated_Source\PSoC5/USBFS.c **** * Function Name: USBFS_ReadOutEP16
2033:.\Generated_Source\PSoC5/USBFS.c **** ****************************************************************************//**
2034:.\Generated_Source\PSoC5/USBFS.c **** *
2035:.\Generated_Source\PSoC5/USBFS.c **** *   This function performs different functionality depending on the Component’s
2036:.\Generated_Source\PSoC5/USBFS.c **** *   configured Endpoint Buffer Management. This parameter is defined in the
2037:.\Generated_Source\PSoC5/USBFS.c **** *   Descriptor Root in Component Configure window.
2038:.\Generated_Source\PSoC5/USBFS.c **** *
2039:.\Generated_Source\PSoC5/USBFS.c **** *   *Manual (Static/Dynamic Allocation):*
2040:.\Generated_Source\PSoC5/USBFS.c **** *   This function moves the specified number of bytes from endpoint buffer to
2041:.\Generated_Source\PSoC5/USBFS.c **** *   system RAM. The number of bytes actually transferred from endpoint buffer to
2042:.\Generated_Source\PSoC5/USBFS.c **** *   system RAM is the lesser of the actual number of bytes sent by the host or
2043:.\Generated_Source\PSoC5/USBFS.c **** *   the number of bytes requested by the length parameter.
2044:.\Generated_Source\PSoC5/USBFS.c **** *
2045:.\Generated_Source\PSoC5/USBFS.c **** *   *DMA with Manual Buffer Management:*
2046:.\Generated_Source\PSoC5/USBFS.c **** *   Configure DMA to transfer data from endpoint buffer to system RAM. Generate
2047:.\Generated_Source\PSoC5/USBFS.c **** *   a DMA request. The firmware must wait until the DMA completes the data
2048:.\Generated_Source\PSoC5/USBFS.c **** *   transfer after calling the USBFS_ReadOutEP() API. For example,
2049:.\Generated_Source\PSoC5/USBFS.c **** *   by checking EPstate:
2050:.\Generated_Source\PSoC5/USBFS.c **** *
2051:.\Generated_Source\PSoC5/USBFS.c **** *   \snippet /USBFS_sut_02.cydsn/main.c checking EPstatey
2052:.\Generated_Source\PSoC5/USBFS.c **** *
2053:.\Generated_Source\PSoC5/USBFS.c **** *   The USBFS_EnableOutEP() has to be called to allow host to write data into
2054:.\Generated_Source\PSoC5/USBFS.c **** *   the endpoint buffer after DMA has completed transfer data from OUT endpoint
2055:.\Generated_Source\PSoC5/USBFS.c **** *   buffer to SRAM.
ARM GAS  C:\Users\Patrick\AppData\Local\Temp\cc4CvmVx.s 			page 53


2056:.\Generated_Source\PSoC5/USBFS.c **** *
2057:.\Generated_Source\PSoC5/USBFS.c **** *   *DMA with Automatic Buffer Management:*
2058:.\Generated_Source\PSoC5/USBFS.c **** *   Configure DMA. This is required only once and automatically generates DMA
2059:.\Generated_Source\PSoC5/USBFS.c **** *   requests as data arrives
2060:.\Generated_Source\PSoC5/USBFS.c **** *
2061:.\Generated_Source\PSoC5/USBFS.c **** *  \param epNumber: Contains the data endpoint number.
2062:.\Generated_Source\PSoC5/USBFS.c **** *         Valid values are between 1 and 8.
2063:.\Generated_Source\PSoC5/USBFS.c **** *  \param pData: A pointer to a data array into which the data for the endpoint
2064:.\Generated_Source\PSoC5/USBFS.c **** *         space is copied. It shall be ensured that this pointer address is
2065:.\Generated_Source\PSoC5/USBFS.c **** *         even to ensure the 16-bit transfer is aligned to even address. Else,
2066:.\Generated_Source\PSoC5/USBFS.c **** *         a hard fault condition can occur.
2067:.\Generated_Source\PSoC5/USBFS.c **** *  \param length: The number of bytes to transfer from the USB Out endpoint and
2068:.\Generated_Source\PSoC5/USBFS.c **** *         loads it into data array. Valid values are between 0 and 1023. The
2069:.\Generated_Source\PSoC5/USBFS.c **** *         function moves fewer than the requested number of bytes if the host
2070:.\Generated_Source\PSoC5/USBFS.c **** *         sends fewer bytes than requested.
2071:.\Generated_Source\PSoC5/USBFS.c **** *
2072:.\Generated_Source\PSoC5/USBFS.c **** * \return
2073:.\Generated_Source\PSoC5/USBFS.c **** *  Number of bytes received, 0 for an invalid endpoint.
2074:.\Generated_Source\PSoC5/USBFS.c **** *
2075:.\Generated_Source\PSoC5/USBFS.c **** * \reentrant
2076:.\Generated_Source\PSoC5/USBFS.c **** *  No.
2077:.\Generated_Source\PSoC5/USBFS.c **** *
2078:.\Generated_Source\PSoC5/USBFS.c **** *******************************************************************************/
2079:.\Generated_Source\PSoC5/USBFS.c **** uint16 USBFS_ReadOutEP16(uint8 epNumber, uint8 pData[], uint16 length)
2080:.\Generated_Source\PSoC5/USBFS.c **** {
2081:.\Generated_Source\PSoC5/USBFS.c ****     uint32 adjLength;
2082:.\Generated_Source\PSoC5/USBFS.c **** 
2083:.\Generated_Source\PSoC5/USBFS.c ****     /* Check array alignment on half-word boundary */
2084:.\Generated_Source\PSoC5/USBFS.c ****     CYASSERT(0u == (((uint32) pData) & 0x01u));
2085:.\Generated_Source\PSoC5/USBFS.c **** 
2086:.\Generated_Source\PSoC5/USBFS.c ****     if ((pData != NULL) && (epNumber > USBFS_EP0) && (epNumber < USBFS_MAX_EP))
2087:.\Generated_Source\PSoC5/USBFS.c ****     {
2088:.\Generated_Source\PSoC5/USBFS.c ****     #if (!USBFS_EP_MANAGEMENT_DMA_AUTO)
2089:.\Generated_Source\PSoC5/USBFS.c ****         /* Adjust requested length to available data. */
2090:.\Generated_Source\PSoC5/USBFS.c ****         length = (length > USBFS_GetEPCount(epNumber)) ? USBFS_GetEPCount(epNumber) : length;
2091:.\Generated_Source\PSoC5/USBFS.c ****     #endif /* (!USBFS_EP_MANAGEMENT_DMA_AUTO) */
2092:.\Generated_Source\PSoC5/USBFS.c **** 
2093:.\Generated_Source\PSoC5/USBFS.c ****     /* Adjust requested length: 2 bytes are handled at one data register access. */
2094:.\Generated_Source\PSoC5/USBFS.c ****     adjLength =  length + ((uint32)length & 1u);
2095:.\Generated_Source\PSoC5/USBFS.c **** 
2096:.\Generated_Source\PSoC5/USBFS.c ****     #if (USBFS_EP_MANAGEMENT_MANUAL)
2097:.\Generated_Source\PSoC5/USBFS.c ****         {
2098:.\Generated_Source\PSoC5/USBFS.c ****             /* Convert uint8 array to uint16. */
2099:.\Generated_Source\PSoC5/USBFS.c ****             uint16 *dataBuf = (uint16 *) pData;
2100:.\Generated_Source\PSoC5/USBFS.c **** 
2101:.\Generated_Source\PSoC5/USBFS.c ****             /* Copy data using 16-bits arbiter data register. */
2102:.\Generated_Source\PSoC5/USBFS.c ****             uint16 i;
2103:.\Generated_Source\PSoC5/USBFS.c ****             for (i = 0u; i < (adjLength >> 1u); ++i)
2104:.\Generated_Source\PSoC5/USBFS.c ****             {
2105:.\Generated_Source\PSoC5/USBFS.c ****                 dataBuf[i] = (uint16) USBFS_ARB_EP16_BASE.arbEp[epNumber].rwDr16;
2106:.\Generated_Source\PSoC5/USBFS.c ****             }
2107:.\Generated_Source\PSoC5/USBFS.c ****         }
2108:.\Generated_Source\PSoC5/USBFS.c **** 
2109:.\Generated_Source\PSoC5/USBFS.c ****         /* Arm OUT endpoint after data has been read from endpoint buffer. */
2110:.\Generated_Source\PSoC5/USBFS.c ****         USBFS_EnableOutEP(epNumber);
2111:.\Generated_Source\PSoC5/USBFS.c ****     #else
2112:.\Generated_Source\PSoC5/USBFS.c **** 
ARM GAS  C:\Users\Patrick\AppData\Local\Temp\cc4CvmVx.s 			page 54


2113:.\Generated_Source\PSoC5/USBFS.c ****         #if (USBFS_EP_MANAGEMENT_DMA_MANUAL)
2114:.\Generated_Source\PSoC5/USBFS.c ****         {
2115:.\Generated_Source\PSoC5/USBFS.c ****             uint32 channelNum = (uint32) USBFS_DmaChan[epNumber];
2116:.\Generated_Source\PSoC5/USBFS.c **** 
2117:.\Generated_Source\PSoC5/USBFS.c ****             /* Disable DMA channel: start configuration. */
2118:.\Generated_Source\PSoC5/USBFS.c ****             USBFS_CyDmaChDisable(channelNum);
2119:.\Generated_Source\PSoC5/USBFS.c **** 
2120:.\Generated_Source\PSoC5/USBFS.c ****             /* Configure source and destination. */
2121:.\Generated_Source\PSoC5/USBFS.c ****             USBFS_CyDmaSetSrcAddress(channelNum, USBFS_DMA_DESCR0, (void*) &USBFS_ARB_EP16_BASE.arb
2122:.\Generated_Source\PSoC5/USBFS.c ****             USBFS_CyDmaSetDstAddress(channelNum, USBFS_DMA_DESCR0, (void*) pData);
2123:.\Generated_Source\PSoC5/USBFS.c **** 
2124:.\Generated_Source\PSoC5/USBFS.c ****             /* Configure DMA descriptor. */
2125:.\Generated_Source\PSoC5/USBFS.c ****             USBFS_CyDmaSetConfiguration(channelNum, USBFS_DMA_DESCR0, USBFS_DMA_COMMON_CFG | (uint1
2126:.\Generated_Source\PSoC5/USBFS.c ****                                                     CYDMA_HALFWORD | CYDMA_WORD_ELEMENT | CYDMA_INC
2127:.\Generated_Source\PSoC5/USBFS.c **** 
2128:.\Generated_Source\PSoC5/USBFS.c ****             /* Validate descriptor to execute on following DMA request. */
2129:.\Generated_Source\PSoC5/USBFS.c ****             USBFS_CyDmaValidateDescriptor(channelNum, USBFS_DMA_DESCR0);
2130:.\Generated_Source\PSoC5/USBFS.c **** 
2131:.\Generated_Source\PSoC5/USBFS.c ****             /* Enable DMA channel: configuration complete. */
2132:.\Generated_Source\PSoC5/USBFS.c ****             USBFS_CyDmaChEnable(channelNum);
2133:.\Generated_Source\PSoC5/USBFS.c **** 
2134:.\Generated_Source\PSoC5/USBFS.c ****             /* Generate DMA request. */
2135:.\Generated_Source\PSoC5/USBFS.c ****             USBFS_ARB_EP_BASE.arbEp[epNumber].epCfg |=  (uint32)  USBFS_ARB_EPX_CFG_DMA_REQ;
2136:.\Generated_Source\PSoC5/USBFS.c ****             USBFS_ARB_EP_BASE.arbEp[epNumber].epCfg &=  (uint32) ~USBFS_ARB_EPX_CFG_DMA_REQ;
2137:.\Generated_Source\PSoC5/USBFS.c **** 
2138:.\Generated_Source\PSoC5/USBFS.c ****             /* OUT endpoint has to be armed again by user when DMA transfers have been completed.
2139:.\Generated_Source\PSoC5/USBFS.c ****             * NO_EVENT_PENDING: notifies that data has been copied from endpoint buffer.
2140:.\Generated_Source\PSoC5/USBFS.c ****             */
2141:.\Generated_Source\PSoC5/USBFS.c ****         }
2142:.\Generated_Source\PSoC5/USBFS.c ****         #endif /* (USBFS_EP_MANAGEMENT_DMA_MANUAL) */
2143:.\Generated_Source\PSoC5/USBFS.c **** 
2144:.\Generated_Source\PSoC5/USBFS.c ****         #if (USBFS_EP_MANAGEMENT_DMA_AUTO)
2145:.\Generated_Source\PSoC5/USBFS.c ****         {
2146:.\Generated_Source\PSoC5/USBFS.c ****             uint32 lengthDescr0, lengthDescr1;
2147:.\Generated_Source\PSoC5/USBFS.c ****             uint32 channelNum = (uint32) USBFS_DmaChan[epNumber];
2148:.\Generated_Source\PSoC5/USBFS.c **** 
2149:.\Generated_Source\PSoC5/USBFS.c ****             /* Get number of full bursts. */
2150:.\Generated_Source\PSoC5/USBFS.c ****             USBFS_DmaEpBurstCnt[epNumber] = (uint8) (adjLength / USBFS_DMA_BYTES_PER_BURST);
2151:.\Generated_Source\PSoC5/USBFS.c **** 
2152:.\Generated_Source\PSoC5/USBFS.c ****             /* Get number of elements in last burst. */
2153:.\Generated_Source\PSoC5/USBFS.c ****             USBFS_DmaEpLastBurstEl[epNumber] = (uint8) (adjLength % USBFS_DMA_BYTES_PER_BURST);
2154:.\Generated_Source\PSoC5/USBFS.c **** 
2155:.\Generated_Source\PSoC5/USBFS.c ****             /* Get total number of bursts. */
2156:.\Generated_Source\PSoC5/USBFS.c ****             USBFS_DmaEpBurstCnt[epNumber] += (0u != USBFS_DmaEpLastBurstEl[epNumber]) ? 1u : 0u;
2157:.\Generated_Source\PSoC5/USBFS.c **** 
2158:.\Generated_Source\PSoC5/USBFS.c ****             /* Adjust number of data elements transferred in last burst. */
2159:.\Generated_Source\PSoC5/USBFS.c ****             USBFS_DmaEpLastBurstEl[epNumber] = (0u != USBFS_DmaEpLastBurstEl[epNumber]) ?
2160:.\Generated_Source\PSoC5/USBFS.c ****                                                                   ((USBFS_DmaEpLastBurstEl[epNumber
2161:.\Generated_Source\PSoC5/USBFS.c ****                                                                    (USBFS_DMA_HALFWORDS_PER_BURST -
2162:.\Generated_Source\PSoC5/USBFS.c **** 
2163:.\Generated_Source\PSoC5/USBFS.c ****             /* Get number of data elements to transfer for descriptor 0 and 1. */
2164:.\Generated_Source\PSoC5/USBFS.c ****             lengthDescr0 = (1u == USBFS_DmaEpBurstCnt[epNumber]) ? USBFS_DmaEpLastBurstEl[epNumber]
2165:.\Generated_Source\PSoC5/USBFS.c ****             lengthDescr1 = (2u == USBFS_DmaEpBurstCnt[epNumber]) ? USBFS_DmaEpLastBurstEl[epNumber]
2166:.\Generated_Source\PSoC5/USBFS.c **** 
2167:.\Generated_Source\PSoC5/USBFS.c ****             /* Mark last descriptor to be executed. */
2168:.\Generated_Source\PSoC5/USBFS.c ****             USBFS_DmaEpLastBurstEl[epNumber] |= (0u != (USBFS_DmaEpBurstCnt[epNumber] & 0x1u)) ?
2169:.\Generated_Source\PSoC5/USBFS.c ****                                                                     USBFS_DMA_DESCR0_MASK : USBFS_D
ARM GAS  C:\Users\Patrick\AppData\Local\Temp\cc4CvmVx.s 			page 55


2170:.\Generated_Source\PSoC5/USBFS.c **** 
2171:.\Generated_Source\PSoC5/USBFS.c ****             /* Mark if revert number of data elements in descriptor after transfer completion. */
2172:.\Generated_Source\PSoC5/USBFS.c ****             USBFS_DmaEpLastBurstEl[epNumber] |= (USBFS_DmaEpBurstCnt[epNumber] > 2u) ? USBFS_DMA_DE
2173:.\Generated_Source\PSoC5/USBFS.c **** 
2174:.\Generated_Source\PSoC5/USBFS.c ****             /* Mark that 16-bits access to data register is performed. */
2175:.\Generated_Source\PSoC5/USBFS.c ****             USBFS_DmaEpLastBurstEl[epNumber] |= USBFS_DMA_DESCR_16BITS;
2176:.\Generated_Source\PSoC5/USBFS.c **** 
2177:.\Generated_Source\PSoC5/USBFS.c ****             /* Adjust burst counter taking to account: 2 valid descriptors and interrupt trigger af
2178:.\Generated_Source\PSoC5/USBFS.c ****             USBFS_DmaEpBurstCnt[epNumber] = USBFS_DMA_GET_BURST_CNT(USBFS_DmaEpBurstCnt[epNumber]);
2179:.\Generated_Source\PSoC5/USBFS.c **** 
2180:.\Generated_Source\PSoC5/USBFS.c ****             /* Store address of buffer and burst counter for endpoint. */
2181:.\Generated_Source\PSoC5/USBFS.c ****             USBFS_DmaEpBufferAddrBackup[epNumber] = (uint32) pData;
2182:.\Generated_Source\PSoC5/USBFS.c ****             USBFS_DmaEpBurstCntBackup[epNumber]   = USBFS_DmaEpBurstCnt[epNumber];
2183:.\Generated_Source\PSoC5/USBFS.c **** 
2184:.\Generated_Source\PSoC5/USBFS.c ****             /* Disable DMA channel: start configuration. */
2185:.\Generated_Source\PSoC5/USBFS.c ****             USBFS_CyDmaChDisable(channelNum);
2186:.\Generated_Source\PSoC5/USBFS.c **** 
2187:.\Generated_Source\PSoC5/USBFS.c ****             /* Set destination address. */
2188:.\Generated_Source\PSoC5/USBFS.c ****             USBFS_CyDmaSetSrcAddress(channelNum, USBFS_DMA_DESCR0, (void*) &USBFS_ARB_EP16_BASE.arb
2189:.\Generated_Source\PSoC5/USBFS.c ****             USBFS_CyDmaSetSrcAddress(channelNum, USBFS_DMA_DESCR1, (void*) &USBFS_ARB_EP16_BASE.arb
2190:.\Generated_Source\PSoC5/USBFS.c **** 
2191:.\Generated_Source\PSoC5/USBFS.c ****             USBFS_CyDmaSetDstAddress(channelNum, USBFS_DMA_DESCR0, (void*) ((uint32) pData));
2192:.\Generated_Source\PSoC5/USBFS.c ****             USBFS_CyDmaSetDstAddress(channelNum, USBFS_DMA_DESCR1, (void*) ((uint32) pData + USBFS_
2193:.\Generated_Source\PSoC5/USBFS.c **** 
2194:.\Generated_Source\PSoC5/USBFS.c ****             /* Configure DMA descriptor 0. */
2195:.\Generated_Source\PSoC5/USBFS.c ****             USBFS_CyDmaSetConfiguration(channelNum, USBFS_DMA_DESCR0, USBFS_DMA_COMMON_CFG  | lengt
2196:.\Generated_Source\PSoC5/USBFS.c ****                                                     CYDMA_HALFWORD | CYDMA_WORD_ELEMENT | CYDMA_INC
2197:.\Generated_Source\PSoC5/USBFS.c **** 
2198:.\Generated_Source\PSoC5/USBFS.c ****             /* Configure DMA descriptor 1. */
2199:.\Generated_Source\PSoC5/USBFS.c ****             USBFS_CyDmaSetConfiguration(channelNum, USBFS_DMA_DESCR1, USBFS_DMA_COMMON_CFG  | lengt
2200:.\Generated_Source\PSoC5/USBFS.c ****                                                     CYDMA_HALFWORD | CYDMA_WORD_ELEMENT | CYDMA_INC
2201:.\Generated_Source\PSoC5/USBFS.c **** 
2202:.\Generated_Source\PSoC5/USBFS.c ****             /* Enable interrupt from DMA channel. */
2203:.\Generated_Source\PSoC5/USBFS.c ****             USBFS_CyDmaSetInterruptMask(channelNum);
2204:.\Generated_Source\PSoC5/USBFS.c **** 
2205:.\Generated_Source\PSoC5/USBFS.c ****             /* Validate DMA descriptor 0 and 1. */
2206:.\Generated_Source\PSoC5/USBFS.c ****             USBFS_CyDmaValidateDescriptor(channelNum, USBFS_DMA_DESCR0);
2207:.\Generated_Source\PSoC5/USBFS.c ****             USBFS_CyDmaValidateDescriptor(channelNum, USBFS_DMA_DESCR1);
2208:.\Generated_Source\PSoC5/USBFS.c **** 
2209:.\Generated_Source\PSoC5/USBFS.c ****             /* Enable DMA channel: configuration complete. */
2210:.\Generated_Source\PSoC5/USBFS.c ****             USBFS_CyDmaChEnable(channelNum);
2211:.\Generated_Source\PSoC5/USBFS.c **** 
2212:.\Generated_Source\PSoC5/USBFS.c ****             /* OUT endpoint has to be armed again by user when DMA transfers have been completed.
2213:.\Generated_Source\PSoC5/USBFS.c ****             * NO_EVENT_PENDING: notifies that data has been copied from endpoint buffer.
2214:.\Generated_Source\PSoC5/USBFS.c ****             */
2215:.\Generated_Source\PSoC5/USBFS.c ****         }
2216:.\Generated_Source\PSoC5/USBFS.c ****         #endif /* (USBFS_EP_MANAGEMENT_DMA_AUTO) */
2217:.\Generated_Source\PSoC5/USBFS.c ****     #endif /* (USBFS_EP_MANAGEMENT_MANUAL) */
2218:.\Generated_Source\PSoC5/USBFS.c ****     }
2219:.\Generated_Source\PSoC5/USBFS.c ****     else
2220:.\Generated_Source\PSoC5/USBFS.c ****     {
2221:.\Generated_Source\PSoC5/USBFS.c ****         length = 0u;
2222:.\Generated_Source\PSoC5/USBFS.c ****     }
2223:.\Generated_Source\PSoC5/USBFS.c **** 
2224:.\Generated_Source\PSoC5/USBFS.c ****     return (length);
2225:.\Generated_Source\PSoC5/USBFS.c **** }
2226:.\Generated_Source\PSoC5/USBFS.c **** #endif /* (USBFS_16BITS_EP_ACCESS_ENABLE) */
ARM GAS  C:\Users\Patrick\AppData\Local\Temp\cc4CvmVx.s 			page 56


2227:.\Generated_Source\PSoC5/USBFS.c **** 
2228:.\Generated_Source\PSoC5/USBFS.c **** 
2229:.\Generated_Source\PSoC5/USBFS.c **** /*******************************************************************************
2230:.\Generated_Source\PSoC5/USBFS.c **** * Function Name: USBFS_EnableOutEP
2231:.\Generated_Source\PSoC5/USBFS.c **** ****************************************************************************//**
2232:.\Generated_Source\PSoC5/USBFS.c **** *
2233:.\Generated_Source\PSoC5/USBFS.c **** *  This function enables the specified endpoint for OUT transfers. Do not call
2234:.\Generated_Source\PSoC5/USBFS.c **** *  this function for IN endpoints.
2235:.\Generated_Source\PSoC5/USBFS.c **** *
2236:.\Generated_Source\PSoC5/USBFS.c **** *  \param epNumber: Contains the data endpoint number. Valid values are between
2237:.\Generated_Source\PSoC5/USBFS.c **** *  1 and 8.
2238:.\Generated_Source\PSoC5/USBFS.c **** *
2239:.\Generated_Source\PSoC5/USBFS.c **** * \globalvars
2240:.\Generated_Source\PSoC5/USBFS.c **** *
2241:.\Generated_Source\PSoC5/USBFS.c **** *  \ref USBFS_EP[epNumber].apiEpState - set to NO_EVENT_PENDING
2242:.\Generated_Source\PSoC5/USBFS.c **** *
2243:.\Generated_Source\PSoC5/USBFS.c **** * \reentrant
2244:.\Generated_Source\PSoC5/USBFS.c **** *  No.
2245:.\Generated_Source\PSoC5/USBFS.c **** *
2246:.\Generated_Source\PSoC5/USBFS.c **** *******************************************************************************/
2247:.\Generated_Source\PSoC5/USBFS.c **** void USBFS_EnableOutEP(uint8 epNumber) 
2248:.\Generated_Source\PSoC5/USBFS.c **** {
 896              		.loc 1 2248 0
 897              		.cfi_startproc
 898              		@ args = 0, pretend = 0, frame = 0
 899              		@ frame_needed = 0, uses_anonymous_args = 0
 900              		@ link register save eliminated.
 901              	.LVL65:
2249:.\Generated_Source\PSoC5/USBFS.c ****     if ((epNumber > USBFS_EP0) && (epNumber < USBFS_MAX_EP))
 902              		.loc 1 2249 0
 903 0000 431E     		subs	r3, r0, #1
 904 0002 DBB2     		uxtb	r3, r3
 905 0004 072B     		cmp	r3, #7
 906 0006 0BD8     		bhi	.L65
2250:.\Generated_Source\PSoC5/USBFS.c ****     {
2251:.\Generated_Source\PSoC5/USBFS.c ****         USBFS_EP[epNumber].apiEpState = USBFS_NO_EVENT_PENDING;
 907              		.loc 1 2251 0
 908 0008 4300     		lsls	r3, r0, #1
 909 000a 0344     		add	r3, r3, r0
 910 000c 9B00     		lsls	r3, r3, #2
 911 000e 054A     		ldr	r2, .L67
 912 0010 1344     		add	r3, r3, r2
 913 0012 0022     		movs	r2, #0
 914 0014 5A70     		strb	r2, [r3, #1]
2252:.\Generated_Source\PSoC5/USBFS.c **** 
2253:.\Generated_Source\PSoC5/USBFS.c ****         /* Enable OUT endpoint to be written by Host. */
2254:.\Generated_Source\PSoC5/USBFS.c ****         USBFS_SIE_EP_BASE.sieEp[epNumber].epCr0 = USBFS_EP[epNumber].epMode;
 915              		.loc 1 2254 0
 916 0016 5A79     		ldrb	r2, [r3, #5]	@ zero_extendqisi2
 917 0018 D2B2     		uxtb	r2, r2
 918 001a 0001     		lsls	r0, r0, #4
 919              	.LVL66:
 920 001c 024B     		ldr	r3, .L67+4
 921 001e 1A54     		strb	r2, [r3, r0]
 922              	.L65:
 923 0020 7047     		bx	lr
 924              	.L68:
ARM GAS  C:\Users\Patrick\AppData\Local\Temp\cc4CvmVx.s 			page 57


 925 0022 00BF     		.align	2
 926              	.L67:
 927 0024 00000000 		.word	USBFS_EP
 928 0028 FE5F0040 		.word	1073766398
 929              		.cfi_endproc
 930              	.LFE13:
 931              		.size	USBFS_EnableOutEP, .-USBFS_EnableOutEP
 932              		.section	.text.USBFS_ReadOutEP,"ax",%progbits
 933              		.align	2
 934              		.global	USBFS_ReadOutEP
 935              		.thumb
 936              		.thumb_func
 937              		.type	USBFS_ReadOutEP, %function
 938              	USBFS_ReadOutEP:
 939              	.LFB12:
1637:.\Generated_Source\PSoC5/USBFS.c ****     if ((pData != NULL) && (epNumber > USBFS_EP0) && (epNumber < USBFS_MAX_EP))
 940              		.loc 1 1637 0
 941              		.cfi_startproc
 942              		@ args = 0, pretend = 0, frame = 0
 943              		@ frame_needed = 0, uses_anonymous_args = 0
 944              	.LVL67:
 945 0000 70B5     		push	{r4, r5, r6, lr}
 946              		.cfi_def_cfa_offset 16
 947              		.cfi_offset 4, -16
 948              		.cfi_offset 5, -12
 949              		.cfi_offset 6, -8
 950              		.cfi_offset 14, -4
1638:.\Generated_Source\PSoC5/USBFS.c ****     {
 951              		.loc 1 1638 0
 952 0002 D9B1     		cbz	r1, .L74
 953 0004 0546     		mov	r5, r0
 954 0006 1446     		mov	r4, r2
 955 0008 0E46     		mov	r6, r1
1638:.\Generated_Source\PSoC5/USBFS.c ****     {
 956              		.loc 1 1638 0 is_stmt 0 discriminator 1
 957 000a C8B1     		cbz	r0, .L75
1638:.\Generated_Source\PSoC5/USBFS.c ****     {
 958              		.loc 1 1638 0 discriminator 2
 959 000c 0828     		cmp	r0, #8
 960 000e 19D8     		bhi	.L76
1642:.\Generated_Source\PSoC5/USBFS.c ****     #endif /* (!USBFS_EP_MANAGEMENT_DMA_AUTO) */
 961              		.loc 1 1642 0 is_stmt 1
 962 0010 FFF7FEFF 		bl	USBFS_GetEPCount
 963              	.LVL68:
 964 0014 A042     		cmp	r0, r4
 965 0016 03D2     		bcs	.L71
1642:.\Generated_Source\PSoC5/USBFS.c ****     #endif /* (!USBFS_EP_MANAGEMENT_DMA_AUTO) */
 966              		.loc 1 1642 0 is_stmt 0 discriminator 1
 967 0018 2846     		mov	r0, r5
 968 001a FFF7FEFF 		bl	USBFS_GetEPCount
 969              	.LVL69:
 970 001e 0446     		mov	r4, r0
 971              	.L71:
 972              	.LVL70:
 973              	.LBB4:
1649:.\Generated_Source\PSoC5/USBFS.c ****             {
 974              		.loc 1 1649 0 is_stmt 1 discriminator 4
ARM GAS  C:\Users\Patrick\AppData\Local\Temp\cc4CvmVx.s 			page 58


 975 0020 0023     		movs	r3, #0
 976 0022 05E0     		b	.L72
 977              	.LVL71:
 978              	.L73:
1651:.\Generated_Source\PSoC5/USBFS.c ****             }
 979              		.loc 1 1651 0 discriminator 3
 980 0024 2901     		lsls	r1, r5, #4
 981 0026 094A     		ldr	r2, .L78
 982 0028 525C     		ldrb	r2, [r2, r1]	@ zero_extendqisi2
 983 002a F254     		strb	r2, [r6, r3]
1649:.\Generated_Source\PSoC5/USBFS.c ****             {
 984              		.loc 1 1649 0 discriminator 3
 985 002c 0133     		adds	r3, r3, #1
 986              	.LVL72:
 987 002e 9BB2     		uxth	r3, r3
 988              	.LVL73:
 989              	.L72:
1649:.\Generated_Source\PSoC5/USBFS.c ****             {
 990              		.loc 1 1649 0 is_stmt 0 discriminator 1
 991 0030 A342     		cmp	r3, r4
 992 0032 F7D3     		bcc	.L73
 993              	.LBE4:
1656:.\Generated_Source\PSoC5/USBFS.c ****     #else
 994              		.loc 1 1656 0 is_stmt 1
 995 0034 2846     		mov	r0, r5
 996 0036 FFF7FEFF 		bl	USBFS_EnableOutEP
 997              	.LVL74:
 998 003a 04E0     		b	.L70
 999              	.LVL75:
 1000              	.L74:
1798:.\Generated_Source\PSoC5/USBFS.c ****     }
 1001              		.loc 1 1798 0
 1002 003c 0024     		movs	r4, #0
 1003 003e 02E0     		b	.L70
 1004              	.L75:
 1005 0040 0024     		movs	r4, #0
 1006 0042 00E0     		b	.L70
 1007              	.L76:
 1008 0044 0024     		movs	r4, #0
 1009              	.LVL76:
 1010              	.L70:
1802:.\Generated_Source\PSoC5/USBFS.c **** 
 1011              		.loc 1 1802 0
 1012 0046 2046     		mov	r0, r4
 1013 0048 70BD     		pop	{r4, r5, r6, pc}
 1014              	.LVL77:
 1015              	.L79:
 1016 004a 00BF     		.align	2
 1017              	.L78:
 1018 004c 78600040 		.word	1073766520
 1019              		.cfi_endproc
 1020              	.LFE12:
 1021              		.size	USBFS_ReadOutEP, .-USBFS_ReadOutEP
 1022              		.section	.text.USBFS_DisableOutEP,"ax",%progbits
 1023              		.align	2
 1024              		.global	USBFS_DisableOutEP
 1025              		.thumb
ARM GAS  C:\Users\Patrick\AppData\Local\Temp\cc4CvmVx.s 			page 59


 1026              		.thumb_func
 1027              		.type	USBFS_DisableOutEP, %function
 1028              	USBFS_DisableOutEP:
 1029              	.LFB14:
2255:.\Generated_Source\PSoC5/USBFS.c ****         
2256:.\Generated_Source\PSoC5/USBFS.c ****     }
2257:.\Generated_Source\PSoC5/USBFS.c **** }
2258:.\Generated_Source\PSoC5/USBFS.c **** 
2259:.\Generated_Source\PSoC5/USBFS.c **** 
2260:.\Generated_Source\PSoC5/USBFS.c **** /*******************************************************************************
2261:.\Generated_Source\PSoC5/USBFS.c **** * Function Name: USBFS_DisableOutEP
2262:.\Generated_Source\PSoC5/USBFS.c **** ****************************************************************************//**
2263:.\Generated_Source\PSoC5/USBFS.c **** *
2264:.\Generated_Source\PSoC5/USBFS.c **** *  This function disables the specified USBFS OUT endpoint. Do not call this
2265:.\Generated_Source\PSoC5/USBFS.c **** *  function for IN endpoints.
2266:.\Generated_Source\PSoC5/USBFS.c **** *
2267:.\Generated_Source\PSoC5/USBFS.c **** *  \param epNumber: Contains the data endpoint number.
2268:.\Generated_Source\PSoC5/USBFS.c **** *            Valid values are between 1 and 8.
2269:.\Generated_Source\PSoC5/USBFS.c **** *
2270:.\Generated_Source\PSoC5/USBFS.c **** *******************************************************************************/
2271:.\Generated_Source\PSoC5/USBFS.c **** void USBFS_DisableOutEP(uint8 epNumber) 
2272:.\Generated_Source\PSoC5/USBFS.c **** {
 1030              		.loc 1 2272 0
 1031              		.cfi_startproc
 1032              		@ args = 0, pretend = 0, frame = 0
 1033              		@ frame_needed = 0, uses_anonymous_args = 0
 1034              		@ link register save eliminated.
 1035              	.LVL78:
2273:.\Generated_Source\PSoC5/USBFS.c ****     if ((epNumber > USBFS_EP0) && (epNumber < USBFS_MAX_EP))
 1036              		.loc 1 2273 0
 1037 0000 431E     		subs	r3, r0, #1
 1038 0002 DBB2     		uxtb	r3, r3
 1039 0004 072B     		cmp	r3, #7
 1040 0006 03D8     		bhi	.L80
2274:.\Generated_Source\PSoC5/USBFS.c ****     {
2275:.\Generated_Source\PSoC5/USBFS.c ****         /* Set NAK response for OUT endpoint. */
2276:.\Generated_Source\PSoC5/USBFS.c ****         USBFS_SIE_EP_BASE.sieEp[epNumber].epCr0 = USBFS_MODE_NAK_OUT;
 1041              		.loc 1 2276 0
 1042 0008 0001     		lsls	r0, r0, #4
 1043              	.LVL79:
 1044 000a 024B     		ldr	r3, .L82
 1045 000c 0822     		movs	r2, #8
 1046 000e 1A54     		strb	r2, [r3, r0]
 1047              	.L80:
 1048 0010 7047     		bx	lr
 1049              	.L83:
 1050 0012 00BF     		.align	2
 1051              	.L82:
 1052 0014 FE5F0040 		.word	1073766398
 1053              		.cfi_endproc
 1054              	.LFE14:
 1055              		.size	USBFS_DisableOutEP, .-USBFS_DisableOutEP
 1056              		.section	.text.USBFS_Force,"ax",%progbits
 1057              		.align	2
 1058              		.global	USBFS_Force
 1059              		.thumb
 1060              		.thumb_func
ARM GAS  C:\Users\Patrick\AppData\Local\Temp\cc4CvmVx.s 			page 60


 1061              		.type	USBFS_Force, %function
 1062              	USBFS_Force:
 1063              	.LFB15:
2277:.\Generated_Source\PSoC5/USBFS.c ****     }
2278:.\Generated_Source\PSoC5/USBFS.c **** }
2279:.\Generated_Source\PSoC5/USBFS.c **** 
2280:.\Generated_Source\PSoC5/USBFS.c **** 
2281:.\Generated_Source\PSoC5/USBFS.c **** /*******************************************************************************
2282:.\Generated_Source\PSoC5/USBFS.c **** * Function Name: USBFS_Force
2283:.\Generated_Source\PSoC5/USBFS.c **** ****************************************************************************//**
2284:.\Generated_Source\PSoC5/USBFS.c **** *
2285:.\Generated_Source\PSoC5/USBFS.c **** *  This function forces a USB J, K, or SE0 state on the D+/D– lines. It provides
2286:.\Generated_Source\PSoC5/USBFS.c **** *  the necessary mechanism for a USB device application to perform a USB Remote
2287:.\Generated_Source\PSoC5/USBFS.c **** *  Wakeup. For more information, see the USB 2.0 Specification for details on
2288:.\Generated_Source\PSoC5/USBFS.c **** *  Suspend and Resume.
2289:.\Generated_Source\PSoC5/USBFS.c **** *
2290:.\Generated_Source\PSoC5/USBFS.c **** *  \param state A byte indicating which of the four bus states to enable.
2291:.\Generated_Source\PSoC5/USBFS.c **** *        Symbolic names  and their associated values are listed here:
2292:.\Generated_Source\PSoC5/USBFS.c **** *    State                      |Description
2293:.\Generated_Source\PSoC5/USBFS.c **** *    ---------------------------|----------------------------------------------
2294:.\Generated_Source\PSoC5/USBFS.c **** *    USBFS_FORCE_J   | Force a J State onto the D+/D– lines
2295:.\Generated_Source\PSoC5/USBFS.c **** *    USBFS_FORCE_K   | Force a K State onto the D+/D– lines
2296:.\Generated_Source\PSoC5/USBFS.c **** *    USBFS_FORCE_SE0 | Force a Single Ended 0 onto the D+/D– lines
2297:.\Generated_Source\PSoC5/USBFS.c **** *    USBFS_FORCE_NONE| Return bus to SIE control
2298:.\Generated_Source\PSoC5/USBFS.c **** *
2299:.\Generated_Source\PSoC5/USBFS.c **** *
2300:.\Generated_Source\PSoC5/USBFS.c **** *******************************************************************************/
2301:.\Generated_Source\PSoC5/USBFS.c **** void USBFS_Force(uint8 bState) 
2302:.\Generated_Source\PSoC5/USBFS.c **** {
 1064              		.loc 1 2302 0
 1065              		.cfi_startproc
 1066              		@ args = 0, pretend = 0, frame = 0
 1067              		@ frame_needed = 0, uses_anonymous_args = 0
 1068              		@ link register save eliminated.
 1069              	.LVL80:
2303:.\Generated_Source\PSoC5/USBFS.c ****     /* This registers is used only for manual control of SIE (no masking is
2304:.\Generated_Source\PSoC5/USBFS.c ****     * needed before write into it).
2305:.\Generated_Source\PSoC5/USBFS.c ****     */
2306:.\Generated_Source\PSoC5/USBFS.c ****     USBFS_USBIO_CR0_REG = bState;
 1070              		.loc 1 2306 0
 1071 0000 014B     		ldr	r3, .L85
 1072 0002 1870     		strb	r0, [r3]
 1073 0004 7047     		bx	lr
 1074              	.L86:
 1075 0006 00BF     		.align	2
 1076              	.L85:
 1077 0008 10600040 		.word	1073766416
 1078              		.cfi_endproc
 1079              	.LFE15:
 1080              		.size	USBFS_Force, .-USBFS_Force
 1081              		.section	.text.USBFS_GetEPAckState,"ax",%progbits
 1082              		.align	2
 1083              		.global	USBFS_GetEPAckState
 1084              		.thumb
 1085              		.thumb_func
 1086              		.type	USBFS_GetEPAckState, %function
 1087              	USBFS_GetEPAckState:
ARM GAS  C:\Users\Patrick\AppData\Local\Temp\cc4CvmVx.s 			page 61


 1088              	.LFB16:
2307:.\Generated_Source\PSoC5/USBFS.c **** }
2308:.\Generated_Source\PSoC5/USBFS.c **** 
2309:.\Generated_Source\PSoC5/USBFS.c **** 
2310:.\Generated_Source\PSoC5/USBFS.c **** /*******************************************************************************
2311:.\Generated_Source\PSoC5/USBFS.c **** * Function Name: USBFS_GetEPAckState
2312:.\Generated_Source\PSoC5/USBFS.c **** ****************************************************************************//**
2313:.\Generated_Source\PSoC5/USBFS.c **** *
2314:.\Generated_Source\PSoC5/USBFS.c **** *  This function determines whether an ACK transaction occurred on this endpoint
2315:.\Generated_Source\PSoC5/USBFS.c **** *  by reading the ACK bit in the control register of the endpoint. It does not
2316:.\Generated_Source\PSoC5/USBFS.c **** *  clear the ACK bit.
2317:.\Generated_Source\PSoC5/USBFS.c **** *
2318:.\Generated_Source\PSoC5/USBFS.c **** *  \param epNumber Contains the data endpoint number.
2319:.\Generated_Source\PSoC5/USBFS.c **** *            Valid values are between 1 and 8.
2320:.\Generated_Source\PSoC5/USBFS.c **** *
2321:.\Generated_Source\PSoC5/USBFS.c **** *  \return
2322:.\Generated_Source\PSoC5/USBFS.c **** *  If an ACKed transaction occurred, this function returns a non-zero value.
2323:.\Generated_Source\PSoC5/USBFS.c **** *  Otherwise, it returns zero.
2324:.\Generated_Source\PSoC5/USBFS.c **** *
2325:.\Generated_Source\PSoC5/USBFS.c **** *******************************************************************************/
2326:.\Generated_Source\PSoC5/USBFS.c **** uint8 USBFS_GetEPAckState(uint8 epNumber) 
2327:.\Generated_Source\PSoC5/USBFS.c **** {
 1089              		.loc 1 2327 0
 1090              		.cfi_startproc
 1091              		@ args = 0, pretend = 0, frame = 0
 1092              		@ frame_needed = 0, uses_anonymous_args = 0
 1093              		@ link register save eliminated.
 1094              	.LVL81:
2328:.\Generated_Source\PSoC5/USBFS.c ****     uint8 cr = 0u;
2329:.\Generated_Source\PSoC5/USBFS.c **** 
2330:.\Generated_Source\PSoC5/USBFS.c ****     if ((epNumber > USBFS_EP0) && (epNumber < USBFS_MAX_EP))
 1095              		.loc 1 2330 0
 1096 0000 431E     		subs	r3, r0, #1
 1097 0002 DBB2     		uxtb	r3, r3
 1098 0004 072B     		cmp	r3, #7
 1099 0006 06D8     		bhi	.L89
2331:.\Generated_Source\PSoC5/USBFS.c ****     {
2332:.\Generated_Source\PSoC5/USBFS.c ****         cr = USBFS_SIE_EP_BASE.sieEp[epNumber].epCr0 & USBFS_MODE_ACKD;
 1100              		.loc 1 2332 0
 1101 0008 0001     		lsls	r0, r0, #4
 1102              	.LVL82:
 1103 000a 044B     		ldr	r3, .L90
 1104 000c 185C     		ldrb	r0, [r3, r0]	@ zero_extendqisi2
 1105 000e 00F01000 		and	r0, r0, #16
 1106 0012 C0B2     		uxtb	r0, r0
 1107              	.LVL83:
 1108 0014 7047     		bx	lr
 1109              	.LVL84:
 1110              	.L89:
2328:.\Generated_Source\PSoC5/USBFS.c ****     uint8 cr = 0u;
 1111              		.loc 1 2328 0
 1112 0016 0020     		movs	r0, #0
 1113              	.LVL85:
2333:.\Generated_Source\PSoC5/USBFS.c ****     }
2334:.\Generated_Source\PSoC5/USBFS.c **** 
2335:.\Generated_Source\PSoC5/USBFS.c ****     return ((uint8) cr);
2336:.\Generated_Source\PSoC5/USBFS.c **** }
ARM GAS  C:\Users\Patrick\AppData\Local\Temp\cc4CvmVx.s 			page 62


 1114              		.loc 1 2336 0
 1115 0018 7047     		bx	lr
 1116              	.L91:
 1117 001a 00BF     		.align	2
 1118              	.L90:
 1119 001c FE5F0040 		.word	1073766398
 1120              		.cfi_endproc
 1121              	.LFE16:
 1122              		.size	USBFS_GetEPAckState, .-USBFS_GetEPAckState
 1123              		.section	.text.USBFS_SetPowerStatus,"ax",%progbits
 1124              		.align	2
 1125              		.global	USBFS_SetPowerStatus
 1126              		.thumb
 1127              		.thumb_func
 1128              		.type	USBFS_SetPowerStatus, %function
 1129              	USBFS_SetPowerStatus:
 1130              	.LFB17:
2337:.\Generated_Source\PSoC5/USBFS.c **** 
2338:.\Generated_Source\PSoC5/USBFS.c **** 
2339:.\Generated_Source\PSoC5/USBFS.c **** /*******************************************************************************
2340:.\Generated_Source\PSoC5/USBFS.c **** * Function Name: USBFS_SetPowerStatus
2341:.\Generated_Source\PSoC5/USBFS.c **** ****************************************************************************//**
2342:.\Generated_Source\PSoC5/USBFS.c **** *
2343:.\Generated_Source\PSoC5/USBFS.c **** *  This function sets the current power status. The device replies to USB
2344:.\Generated_Source\PSoC5/USBFS.c **** *  GET_STATUS requests based on this value. This allows the device to properly
2345:.\Generated_Source\PSoC5/USBFS.c **** *  report its status for USB Chapter 9 compliance. Devices can change their
2346:.\Generated_Source\PSoC5/USBFS.c **** *  power source from self powered to bus powered at any time and report their
2347:.\Generated_Source\PSoC5/USBFS.c **** *  current power source as part of the device status. You should call this
2348:.\Generated_Source\PSoC5/USBFS.c **** *  function any time your device changes from self powered to bus powered or
2349:.\Generated_Source\PSoC5/USBFS.c **** *  vice versa, and set the status appropriately.
2350:.\Generated_Source\PSoC5/USBFS.c **** *
2351:.\Generated_Source\PSoC5/USBFS.c **** *  \param powerStatus: Contains the desired power status, one for self powered
2352:.\Generated_Source\PSoC5/USBFS.c **** *        or zero for bus powered. Symbolic names and their associated values are
2353:.\Generated_Source\PSoC5/USBFS.c **** *        given here:
2354:.\Generated_Source\PSoC5/USBFS.c **** *  Power Status                                |Description
2355:.\Generated_Source\PSoC5/USBFS.c **** *  --------------------------------------------|---------------------------
2356:.\Generated_Source\PSoC5/USBFS.c **** *  USBFS_DEVICE_STATUS_BUS_POWERED  | Set the device to bus powered
2357:.\Generated_Source\PSoC5/USBFS.c **** *  USBFS_DEVICE_STATUS_SELF_POWERED | Set the device to self powered
2358:.\Generated_Source\PSoC5/USBFS.c **** *
2359:.\Generated_Source\PSoC5/USBFS.c **** * \globalvars
2360:.\Generated_Source\PSoC5/USBFS.c **** *
2361:.\Generated_Source\PSoC5/USBFS.c **** *  \ref USBFS_deviceStatus - set power status
2362:.\Generated_Source\PSoC5/USBFS.c **** *
2363:.\Generated_Source\PSoC5/USBFS.c **** * \reentrant
2364:.\Generated_Source\PSoC5/USBFS.c **** *  No.
2365:.\Generated_Source\PSoC5/USBFS.c **** *
2366:.\Generated_Source\PSoC5/USBFS.c **** *******************************************************************************/
2367:.\Generated_Source\PSoC5/USBFS.c **** void USBFS_SetPowerStatus(uint8 powerStatus) 
2368:.\Generated_Source\PSoC5/USBFS.c **** {
 1131              		.loc 1 2368 0
 1132              		.cfi_startproc
 1133              		@ args = 0, pretend = 0, frame = 0
 1134              		@ frame_needed = 0, uses_anonymous_args = 0
 1135              		@ link register save eliminated.
 1136              	.LVL86:
2369:.\Generated_Source\PSoC5/USBFS.c ****     if (powerStatus != USBFS_DEVICE_STATUS_BUS_POWERED)
 1137              		.loc 1 2369 0
ARM GAS  C:\Users\Patrick\AppData\Local\Temp\cc4CvmVx.s 			page 63


 1138 0000 28B1     		cbz	r0, .L93
2370:.\Generated_Source\PSoC5/USBFS.c ****     {
2371:.\Generated_Source\PSoC5/USBFS.c ****         USBFS_deviceStatus |= (uint8)  USBFS_DEVICE_STATUS_SELF_POWERED;
 1139              		.loc 1 2371 0
 1140 0002 064A     		ldr	r2, .L95
 1141 0004 1378     		ldrb	r3, [r2]	@ zero_extendqisi2
 1142 0006 43F00103 		orr	r3, r3, #1
 1143 000a 1370     		strb	r3, [r2]
 1144 000c 7047     		bx	lr
 1145              	.L93:
2372:.\Generated_Source\PSoC5/USBFS.c ****     }
2373:.\Generated_Source\PSoC5/USBFS.c ****     else
2374:.\Generated_Source\PSoC5/USBFS.c ****     {
2375:.\Generated_Source\PSoC5/USBFS.c ****         USBFS_deviceStatus &= (uint8) ~USBFS_DEVICE_STATUS_SELF_POWERED;
 1146              		.loc 1 2375 0
 1147 000e 034A     		ldr	r2, .L95
 1148 0010 1378     		ldrb	r3, [r2]	@ zero_extendqisi2
 1149 0012 03F0FE03 		and	r3, r3, #254
 1150 0016 1370     		strb	r3, [r2]
 1151 0018 7047     		bx	lr
 1152              	.L96:
 1153 001a 00BF     		.align	2
 1154              	.L95:
 1155 001c 00000000 		.word	USBFS_deviceStatus
 1156              		.cfi_endproc
 1157              	.LFE17:
 1158              		.size	USBFS_SetPowerStatus, .-USBFS_SetPowerStatus
 1159              		.section	.text.USBFS_RWUEnabled,"ax",%progbits
 1160              		.align	2
 1161              		.global	USBFS_RWUEnabled
 1162              		.thumb
 1163              		.thumb_func
 1164              		.type	USBFS_RWUEnabled, %function
 1165              	USBFS_RWUEnabled:
 1166              	.LFB18:
2376:.\Generated_Source\PSoC5/USBFS.c ****     }
2377:.\Generated_Source\PSoC5/USBFS.c **** }
2378:.\Generated_Source\PSoC5/USBFS.c **** 
2379:.\Generated_Source\PSoC5/USBFS.c **** 
2380:.\Generated_Source\PSoC5/USBFS.c **** #if (USBFS_VBUS_MONITORING_ENABLE)
2381:.\Generated_Source\PSoC5/USBFS.c ****     /***************************************************************************
2382:.\Generated_Source\PSoC5/USBFS.c ****     * Function Name: USBFS_VBusPresent
2383:.\Generated_Source\PSoC5/USBFS.c ****     ************************************************************************//**
2384:.\Generated_Source\PSoC5/USBFS.c ****     *
2385:.\Generated_Source\PSoC5/USBFS.c ****     *  Determines VBUS presence for self-powered devices. This function is
2386:.\Generated_Source\PSoC5/USBFS.c ****     *  available when the VBUS Monitoring option is enabled in the Advanced tab.
2387:.\Generated_Source\PSoC5/USBFS.c ****     *
2388:.\Generated_Source\PSoC5/USBFS.c ****     * \return
2389:.\Generated_Source\PSoC5/USBFS.c ****     *  The return value can be the following:
2390:.\Generated_Source\PSoC5/USBFS.c ****     *  Return Value | Description
2391:.\Generated_Source\PSoC5/USBFS.c ****     *  -------------|-----------------
2392:.\Generated_Source\PSoC5/USBFS.c ****     *  1            | VBUS is present
2393:.\Generated_Source\PSoC5/USBFS.c ****     *  0            | VBUS is absent
2394:.\Generated_Source\PSoC5/USBFS.c ****     *
2395:.\Generated_Source\PSoC5/USBFS.c ****     *
2396:.\Generated_Source\PSoC5/USBFS.c ****     ***************************************************************************/
2397:.\Generated_Source\PSoC5/USBFS.c ****     uint8 USBFS_VBusPresent(void) 
ARM GAS  C:\Users\Patrick\AppData\Local\Temp\cc4CvmVx.s 			page 64


2398:.\Generated_Source\PSoC5/USBFS.c ****     {
2399:.\Generated_Source\PSoC5/USBFS.c ****         return ((0u != (USBFS_VBUS_STATUS_REG & USBFS_VBUS_VALID)) ? (uint8) 1u : (uint8) 0u);
2400:.\Generated_Source\PSoC5/USBFS.c ****     }
2401:.\Generated_Source\PSoC5/USBFS.c **** #endif /* (USBFS_VBUS_MONITORING_ENABLE) */
2402:.\Generated_Source\PSoC5/USBFS.c **** 
2403:.\Generated_Source\PSoC5/USBFS.c **** 
2404:.\Generated_Source\PSoC5/USBFS.c **** /*******************************************************************************
2405:.\Generated_Source\PSoC5/USBFS.c **** * Function Name: USBFS_RWUEnabled
2406:.\Generated_Source\PSoC5/USBFS.c **** ****************************************************************************//**
2407:.\Generated_Source\PSoC5/USBFS.c **** *
2408:.\Generated_Source\PSoC5/USBFS.c **** *  This function returns the current remote wakeup status.
2409:.\Generated_Source\PSoC5/USBFS.c **** *  If the device supports remote wakeup, the application should use this
2410:.\Generated_Source\PSoC5/USBFS.c **** *  function to determine if remote wakeup was enabled by the host. When the
2411:.\Generated_Source\PSoC5/USBFS.c **** *  device is suspended and it determines the conditions to initiate a remote
2412:.\Generated_Source\PSoC5/USBFS.c **** *  wakeup are met, the application should use the USBFS_Force() function to
2413:.\Generated_Source\PSoC5/USBFS.c **** *  force the appropriate J and K states onto the USB bus, signaling a remote
2414:.\Generated_Source\PSoC5/USBFS.c **** *  wakeup.
2415:.\Generated_Source\PSoC5/USBFS.c **** *
2416:.\Generated_Source\PSoC5/USBFS.c **** *
2417:.\Generated_Source\PSoC5/USBFS.c **** * \return
2418:.\Generated_Source\PSoC5/USBFS.c **** *  Returns non-zero value if remote wakeup is enabled and zero otherwise.
2419:.\Generated_Source\PSoC5/USBFS.c **** *
2420:.\Generated_Source\PSoC5/USBFS.c **** * \globalvars
2421:.\Generated_Source\PSoC5/USBFS.c **** *  USBFS_deviceStatus - checked to determine remote status
2422:.\Generated_Source\PSoC5/USBFS.c **** *
2423:.\Generated_Source\PSoC5/USBFS.c **** *******************************************************************************/
2424:.\Generated_Source\PSoC5/USBFS.c **** uint8 USBFS_RWUEnabled(void) 
2425:.\Generated_Source\PSoC5/USBFS.c **** {
 1167              		.loc 1 2425 0
 1168              		.cfi_startproc
 1169              		@ args = 0, pretend = 0, frame = 0
 1170              		@ frame_needed = 0, uses_anonymous_args = 0
 1171              		@ link register save eliminated.
 1172              	.LVL87:
2426:.\Generated_Source\PSoC5/USBFS.c ****     uint8 result = USBFS_FALSE;
2427:.\Generated_Source\PSoC5/USBFS.c **** 
2428:.\Generated_Source\PSoC5/USBFS.c ****     if (0u != (USBFS_deviceStatus & USBFS_DEVICE_STATUS_REMOTE_WAKEUP))
 1173              		.loc 1 2428 0
 1174 0000 044B     		ldr	r3, .L100
 1175 0002 1B78     		ldrb	r3, [r3]	@ zero_extendqisi2
 1176 0004 13F0020F 		tst	r3, #2
 1177 0008 01D1     		bne	.L99
2426:.\Generated_Source\PSoC5/USBFS.c ****     uint8 result = USBFS_FALSE;
 1178              		.loc 1 2426 0
 1179 000a 0020     		movs	r0, #0
 1180 000c 7047     		bx	lr
 1181              	.L99:
2429:.\Generated_Source\PSoC5/USBFS.c ****     {
2430:.\Generated_Source\PSoC5/USBFS.c ****         result = USBFS_TRUE;
 1182              		.loc 1 2430 0
 1183 000e 0120     		movs	r0, #1
 1184              	.LVL88:
2431:.\Generated_Source\PSoC5/USBFS.c ****     }
2432:.\Generated_Source\PSoC5/USBFS.c **** 
2433:.\Generated_Source\PSoC5/USBFS.c ****     return (result);
2434:.\Generated_Source\PSoC5/USBFS.c **** }
 1185              		.loc 1 2434 0
ARM GAS  C:\Users\Patrick\AppData\Local\Temp\cc4CvmVx.s 			page 65


 1186 0010 7047     		bx	lr
 1187              	.L101:
 1188 0012 00BF     		.align	2
 1189              	.L100:
 1190 0014 00000000 		.word	USBFS_deviceStatus
 1191              		.cfi_endproc
 1192              	.LFE18:
 1193              		.size	USBFS_RWUEnabled, .-USBFS_RWUEnabled
 1194              		.section	.text.USBFS_GetDeviceAddress,"ax",%progbits
 1195              		.align	2
 1196              		.global	USBFS_GetDeviceAddress
 1197              		.thumb
 1198              		.thumb_func
 1199              		.type	USBFS_GetDeviceAddress, %function
 1200              	USBFS_GetDeviceAddress:
 1201              	.LFB19:
2435:.\Generated_Source\PSoC5/USBFS.c **** 
2436:.\Generated_Source\PSoC5/USBFS.c **** 
2437:.\Generated_Source\PSoC5/USBFS.c **** /*******************************************************************************
2438:.\Generated_Source\PSoC5/USBFS.c **** * Function Name: USBFS_GetDeviceAddress
2439:.\Generated_Source\PSoC5/USBFS.c **** ****************************************************************************//**
2440:.\Generated_Source\PSoC5/USBFS.c **** *
2441:.\Generated_Source\PSoC5/USBFS.c **** *  This function returns the currently assigned address for the USB device.
2442:.\Generated_Source\PSoC5/USBFS.c **** *
2443:.\Generated_Source\PSoC5/USBFS.c **** * \return
2444:.\Generated_Source\PSoC5/USBFS.c **** *  Returns the currently assigned address.
2445:.\Generated_Source\PSoC5/USBFS.c **** *  Returns 0 if the device has not yet been assigned an address.
2446:.\Generated_Source\PSoC5/USBFS.c **** *
2447:.\Generated_Source\PSoC5/USBFS.c **** *******************************************************************************/
2448:.\Generated_Source\PSoC5/USBFS.c **** uint8 USBFS_GetDeviceAddress(void) 
2449:.\Generated_Source\PSoC5/USBFS.c **** {
 1202              		.loc 1 2449 0
 1203              		.cfi_startproc
 1204              		@ args = 0, pretend = 0, frame = 0
 1205              		@ frame_needed = 0, uses_anonymous_args = 0
 1206              		@ link register save eliminated.
2450:.\Generated_Source\PSoC5/USBFS.c ****     return (uint8)(USBFS_CR0_REG & USBFS_CR0_DEVICE_ADDRESS_MASK);
 1207              		.loc 1 2450 0
 1208 0000 024B     		ldr	r3, .L103
 1209 0002 1878     		ldrb	r0, [r3]	@ zero_extendqisi2
2451:.\Generated_Source\PSoC5/USBFS.c **** }
 1210              		.loc 1 2451 0
 1211 0004 00F07F00 		and	r0, r0, #127
 1212 0008 7047     		bx	lr
 1213              	.L104:
 1214 000a 00BF     		.align	2
 1215              	.L103:
 1216 000c 08600040 		.word	1073766408
 1217              		.cfi_endproc
 1218              	.LFE19:
 1219              		.size	USBFS_GetDeviceAddress, .-USBFS_GetDeviceAddress
 1220              		.section	.text.USBFS_EnableSofInt,"ax",%progbits
 1221              		.align	2
 1222              		.global	USBFS_EnableSofInt
 1223              		.thumb
 1224              		.thumb_func
 1225              		.type	USBFS_EnableSofInt, %function
ARM GAS  C:\Users\Patrick\AppData\Local\Temp\cc4CvmVx.s 			page 66


 1226              	USBFS_EnableSofInt:
 1227              	.LFB20:
2452:.\Generated_Source\PSoC5/USBFS.c **** 
2453:.\Generated_Source\PSoC5/USBFS.c **** 
2454:.\Generated_Source\PSoC5/USBFS.c **** /*******************************************************************************
2455:.\Generated_Source\PSoC5/USBFS.c **** * Function Name: USBFS_EnableSofInt
2456:.\Generated_Source\PSoC5/USBFS.c **** ****************************************************************************//**
2457:.\Generated_Source\PSoC5/USBFS.c **** *
2458:.\Generated_Source\PSoC5/USBFS.c **** *  This function enables interrupt generation when a Start-of-Frame (SOF)
2459:.\Generated_Source\PSoC5/USBFS.c **** *  packet is received from the host.
2460:.\Generated_Source\PSoC5/USBFS.c **** *
2461:.\Generated_Source\PSoC5/USBFS.c **** *******************************************************************************/
2462:.\Generated_Source\PSoC5/USBFS.c **** void USBFS_EnableSofInt(void) 
2463:.\Generated_Source\PSoC5/USBFS.c **** {
 1228              		.loc 1 2463 0
 1229              		.cfi_startproc
 1230              		@ args = 0, pretend = 0, frame = 0
 1231              		@ frame_needed = 0, uses_anonymous_args = 0
 1232              		@ link register save eliminated.
 1233 0000 7047     		bx	lr
 1234              		.cfi_endproc
 1235              	.LFE20:
 1236              		.size	USBFS_EnableSofInt, .-USBFS_EnableSofInt
 1237 0002 00BF     		.section	.text.USBFS_DisableSofInt,"ax",%progbits
 1238              		.align	2
 1239              		.global	USBFS_DisableSofInt
 1240              		.thumb
 1241              		.thumb_func
 1242              		.type	USBFS_DisableSofInt, %function
 1243              	USBFS_DisableSofInt:
 1244              	.LFB21:
2464:.\Generated_Source\PSoC5/USBFS.c **** #if (CY_PSOC4)
2465:.\Generated_Source\PSoC5/USBFS.c ****     /* Enable SOF interrupt interrupt source. */
2466:.\Generated_Source\PSoC5/USBFS.c ****     USBFS_INTR_SIE_MASK_REG |= (uint32) USBFS_INTR_SIE_SOF_INTR;
2467:.\Generated_Source\PSoC5/USBFS.c **** #else
2468:.\Generated_Source\PSoC5/USBFS.c ****     /* Enable SOF interrupt if it is present. */
2469:.\Generated_Source\PSoC5/USBFS.c ****     #if (USBFS_SOF_ISR_ACTIVE)
2470:.\Generated_Source\PSoC5/USBFS.c ****         CyIntEnable(USBFS_SOF_VECT_NUM);
2471:.\Generated_Source\PSoC5/USBFS.c ****     #endif /* (USBFS_SOF_ISR_ACTIVE) */
2472:.\Generated_Source\PSoC5/USBFS.c **** #endif /* (CY_PSOC4) */
2473:.\Generated_Source\PSoC5/USBFS.c **** }
2474:.\Generated_Source\PSoC5/USBFS.c **** 
2475:.\Generated_Source\PSoC5/USBFS.c **** 
2476:.\Generated_Source\PSoC5/USBFS.c **** /*******************************************************************************
2477:.\Generated_Source\PSoC5/USBFS.c **** * Function Name: USBFS_DisableSofInt
2478:.\Generated_Source\PSoC5/USBFS.c **** ****************************************************************************//**
2479:.\Generated_Source\PSoC5/USBFS.c **** *
2480:.\Generated_Source\PSoC5/USBFS.c **** *  This function disables interrupt generation when a Start-of-Frame (SOF)
2481:.\Generated_Source\PSoC5/USBFS.c **** *  packet is received from the host.
2482:.\Generated_Source\PSoC5/USBFS.c **** *
2483:.\Generated_Source\PSoC5/USBFS.c **** *******************************************************************************/
2484:.\Generated_Source\PSoC5/USBFS.c **** void USBFS_DisableSofInt(void) 
2485:.\Generated_Source\PSoC5/USBFS.c **** {
 1245              		.loc 1 2485 0
 1246              		.cfi_startproc
 1247              		@ args = 0, pretend = 0, frame = 0
 1248              		@ frame_needed = 0, uses_anonymous_args = 0
ARM GAS  C:\Users\Patrick\AppData\Local\Temp\cc4CvmVx.s 			page 67


 1249              		@ link register save eliminated.
 1250 0000 7047     		bx	lr
 1251              		.cfi_endproc
 1252              	.LFE21:
 1253              		.size	USBFS_DisableSofInt, .-USBFS_DisableSofInt
 1254              		.global	USBFS_initVar
 1255 0002 00BF     		.bss
 1256              		.set	.LANCHOR0,. + 0
 1257              		.type	USBFS_initVar, %object
 1258              		.size	USBFS_initVar, 1
 1259              	USBFS_initVar:
 1260 0000 00       		.space	1
 1261              		.text
 1262              	.Letext0:
 1263              		.file 2 ".\\Generated_Source\\PSoC5\\cytypes.h"
 1264              		.file 3 ".\\Generated_Source\\PSoC5\\USBFS.h"
 1265              		.file 4 ".\\Generated_Source\\PSoC5\\USBFS_pvt.h"
 1266              		.file 5 ".\\Generated_Source\\PSoC5\\CyLib.h"
 1267              		.section	.debug_info,"",%progbits
 1268              	.Ldebug_info0:
 1269 0000 86090000 		.4byte	0x986
 1270 0004 0400     		.2byte	0x4
 1271 0006 00000000 		.4byte	.Ldebug_abbrev0
 1272 000a 04       		.byte	0x4
 1273 000b 01       		.uleb128 0x1
 1274 000c 32050000 		.4byte	.LASF96
 1275 0010 01       		.byte	0x1
 1276 0011 D3000000 		.4byte	.LASF97
 1277 0015 97030000 		.4byte	.LASF98
 1278 0019 18000000 		.4byte	.Ldebug_ranges0+0x18
 1279 001d 00000000 		.4byte	0
 1280 0021 00000000 		.4byte	.Ldebug_line0
 1281 0025 02       		.uleb128 0x2
 1282 0026 01       		.byte	0x1
 1283 0027 06       		.byte	0x6
 1284 0028 C7000000 		.4byte	.LASF0
 1285 002c 02       		.uleb128 0x2
 1286 002d 01       		.byte	0x1
 1287 002e 08       		.byte	0x8
 1288 002f FF030000 		.4byte	.LASF1
 1289 0033 02       		.uleb128 0x2
 1290 0034 02       		.byte	0x2
 1291 0035 05       		.byte	0x5
 1292 0036 0D040000 		.4byte	.LASF2
 1293 003a 02       		.uleb128 0x2
 1294 003b 02       		.byte	0x2
 1295 003c 07       		.byte	0x7
 1296 003d 68020000 		.4byte	.LASF3
 1297 0041 02       		.uleb128 0x2
 1298 0042 04       		.byte	0x4
 1299 0043 05       		.byte	0x5
 1300 0044 70010000 		.4byte	.LASF4
 1301 0048 02       		.uleb128 0x2
 1302 0049 04       		.byte	0x4
 1303 004a 07       		.byte	0x7
 1304 004b 28020000 		.4byte	.LASF5
 1305 004f 02       		.uleb128 0x2
ARM GAS  C:\Users\Patrick\AppData\Local\Temp\cc4CvmVx.s 			page 68


 1306 0050 08       		.byte	0x8
 1307 0051 05       		.byte	0x5
 1308 0052 B9000000 		.4byte	.LASF6
 1309 0056 02       		.uleb128 0x2
 1310 0057 08       		.byte	0x8
 1311 0058 07       		.byte	0x7
 1312 0059 49000000 		.4byte	.LASF7
 1313 005d 03       		.uleb128 0x3
 1314 005e 04       		.byte	0x4
 1315 005f 05       		.byte	0x5
 1316 0060 696E7400 		.ascii	"int\000"
 1317 0064 02       		.uleb128 0x2
 1318 0065 04       		.byte	0x4
 1319 0066 07       		.byte	0x7
 1320 0067 1B020000 		.4byte	.LASF8
 1321 006b 04       		.uleb128 0x4
 1322 006c 90010000 		.4byte	.LASF9
 1323 0070 02       		.byte	0x2
 1324 0071 9201     		.2byte	0x192
 1325 0073 2C000000 		.4byte	0x2c
 1326 0077 04       		.uleb128 0x4
 1327 0078 00000000 		.4byte	.LASF10
 1328 007c 02       		.byte	0x2
 1329 007d 9301     		.2byte	0x193
 1330 007f 3A000000 		.4byte	0x3a
 1331 0083 04       		.uleb128 0x4
 1332 0084 C6010000 		.4byte	.LASF11
 1333 0088 02       		.byte	0x2
 1334 0089 9401     		.2byte	0x194
 1335 008b 48000000 		.4byte	0x48
 1336 008f 02       		.uleb128 0x2
 1337 0090 04       		.byte	0x4
 1338 0091 04       		.byte	0x4
 1339 0092 4B030000 		.4byte	.LASF12
 1340 0096 02       		.uleb128 0x2
 1341 0097 08       		.byte	0x8
 1342 0098 04       		.byte	0x4
 1343 0099 AE010000 		.4byte	.LASF13
 1344 009d 02       		.uleb128 0x2
 1345 009e 01       		.byte	0x1
 1346 009f 08       		.byte	0x8
 1347 00a0 8A040000 		.4byte	.LASF14
 1348 00a4 04       		.uleb128 0x4
 1349 00a5 92030000 		.4byte	.LASF15
 1350 00a9 02       		.byte	0x2
 1351 00aa 3C02     		.2byte	0x23c
 1352 00ac B0000000 		.4byte	0xb0
 1353 00b0 05       		.uleb128 0x5
 1354 00b1 6B000000 		.4byte	0x6b
 1355 00b5 04       		.uleb128 0x4
 1356 00b6 D0020000 		.4byte	.LASF16
 1357 00ba 02       		.byte	0x2
 1358 00bb 3E02     		.2byte	0x23e
 1359 00bd C1000000 		.4byte	0xc1
 1360 00c1 05       		.uleb128 0x5
 1361 00c2 83000000 		.4byte	0x83
 1362 00c6 04       		.uleb128 0x4
ARM GAS  C:\Users\Patrick\AppData\Local\Temp\cc4CvmVx.s 			page 69


 1363 00c7 94040000 		.4byte	.LASF17
 1364 00cb 02       		.byte	0x2
 1365 00cc 4E02     		.2byte	0x24e
 1366 00ce D2000000 		.4byte	0xd2
 1367 00d2 06       		.uleb128 0x6
 1368 00d3 04       		.byte	0x4
 1369 00d4 D8000000 		.4byte	0xd8
 1370 00d8 07       		.uleb128 0x7
 1371 00d9 02       		.uleb128 0x2
 1372 00da 04       		.byte	0x4
 1373 00db 07       		.byte	0x7
 1374 00dc 08030000 		.4byte	.LASF18
 1375 00e0 08       		.uleb128 0x8
 1376 00e1 0C       		.byte	0xc
 1377 00e2 03       		.byte	0x3
 1378 00e3 93       		.byte	0x93
 1379 00e4 55010000 		.4byte	0x155
 1380 00e8 09       		.uleb128 0x9
 1381 00e9 17030000 		.4byte	.LASF19
 1382 00ed 03       		.byte	0x3
 1383 00ee 95       		.byte	0x95
 1384 00ef 6B000000 		.4byte	0x6b
 1385 00f3 00       		.byte	0
 1386 00f4 09       		.uleb128 0x9
 1387 00f5 51030000 		.4byte	.LASF20
 1388 00f9 03       		.byte	0x3
 1389 00fa 96       		.byte	0x96
 1390 00fb 6B000000 		.4byte	0x6b
 1391 00ff 01       		.byte	0x1
 1392 0100 09       		.uleb128 0x9
 1393 0101 E9020000 		.4byte	.LASF21
 1394 0105 03       		.byte	0x3
 1395 0106 97       		.byte	0x97
 1396 0107 6B000000 		.4byte	0x6b
 1397 010b 02       		.byte	0x2
 1398 010c 09       		.uleb128 0x9
 1399 010d 96010000 		.4byte	.LASF22
 1400 0111 03       		.byte	0x3
 1401 0112 98       		.byte	0x98
 1402 0113 6B000000 		.4byte	0x6b
 1403 0117 03       		.byte	0x3
 1404 0118 09       		.uleb128 0x9
 1405 0119 74000000 		.4byte	.LASF23
 1406 011d 03       		.byte	0x3
 1407 011e 99       		.byte	0x99
 1408 011f 6B000000 		.4byte	0x6b
 1409 0123 04       		.byte	0x4
 1410 0124 09       		.uleb128 0x9
 1411 0125 FB010000 		.4byte	.LASF24
 1412 0129 03       		.byte	0x3
 1413 012a 9A       		.byte	0x9a
 1414 012b 6B000000 		.4byte	0x6b
 1415 012f 05       		.byte	0x5
 1416 0130 09       		.uleb128 0x9
 1417 0131 B8040000 		.4byte	.LASF25
 1418 0135 03       		.byte	0x3
 1419 0136 9B       		.byte	0x9b
ARM GAS  C:\Users\Patrick\AppData\Local\Temp\cc4CvmVx.s 			page 70


 1420 0137 77000000 		.4byte	0x77
 1421 013b 06       		.byte	0x6
 1422 013c 09       		.uleb128 0x9
 1423 013d A1040000 		.4byte	.LASF26
 1424 0141 03       		.byte	0x3
 1425 0142 9C       		.byte	0x9c
 1426 0143 77000000 		.4byte	0x77
 1427 0147 08       		.byte	0x8
 1428 0148 09       		.uleb128 0x9
 1429 0149 A4020000 		.4byte	.LASF27
 1430 014d 03       		.byte	0x3
 1431 014e 9D       		.byte	0x9d
 1432 014f 6B000000 		.4byte	0x6b
 1433 0153 0A       		.byte	0xa
 1434 0154 00       		.byte	0
 1435 0155 0A       		.uleb128 0xa
 1436 0156 5A040000 		.4byte	.LASF28
 1437 015a 03       		.byte	0x3
 1438 015b 9E       		.byte	0x9e
 1439 015c E0000000 		.4byte	0xe0
 1440 0160 08       		.uleb128 0x8
 1441 0161 10       		.byte	0x10
 1442 0162 03       		.byte	0x3
 1443 0163 DA       		.byte	0xda
 1444 0164 99010000 		.4byte	0x199
 1445 0168 09       		.uleb128 0x9
 1446 0169 26030000 		.4byte	.LASF29
 1447 016d 03       		.byte	0x3
 1448 016e DC       		.byte	0xdc
 1449 016f 6B000000 		.4byte	0x6b
 1450 0173 00       		.byte	0
 1451 0174 09       		.uleb128 0x9
 1452 0175 2D030000 		.4byte	.LASF30
 1453 0179 03       		.byte	0x3
 1454 017a DD       		.byte	0xdd
 1455 017b 6B000000 		.4byte	0x6b
 1456 017f 01       		.byte	0x1
 1457 0180 09       		.uleb128 0x9
 1458 0181 45030000 		.4byte	.LASF31
 1459 0185 03       		.byte	0x3
 1460 0186 DE       		.byte	0xde
 1461 0187 6B000000 		.4byte	0x6b
 1462 018b 02       		.byte	0x2
 1463 018c 0B       		.uleb128 0xb
 1464 018d 67617000 		.ascii	"gap\000"
 1465 0191 03       		.byte	0x3
 1466 0192 DF       		.byte	0xdf
 1467 0193 99010000 		.4byte	0x199
 1468 0197 03       		.byte	0x3
 1469 0198 00       		.byte	0
 1470 0199 0C       		.uleb128 0xc
 1471 019a 6B000000 		.4byte	0x6b
 1472 019e A9010000 		.4byte	0x1a9
 1473 01a2 0D       		.uleb128 0xd
 1474 01a3 D9000000 		.4byte	0xd9
 1475 01a7 0C       		.byte	0xc
 1476 01a8 00       		.byte	0
ARM GAS  C:\Users\Patrick\AppData\Local\Temp\cc4CvmVx.s 			page 71


 1477 01a9 0A       		.uleb128 0xa
 1478 01aa 8A020000 		.4byte	.LASF32
 1479 01ae 03       		.byte	0x3
 1480 01af E0       		.byte	0xe0
 1481 01b0 60010000 		.4byte	0x160
 1482 01b4 08       		.uleb128 0x8
 1483 01b5 10       		.byte	0x10
 1484 01b6 03       		.byte	0x3
 1485 01b7 EC       		.byte	0xec
 1486 01b8 35020000 		.4byte	0x235
 1487 01bc 09       		.uleb128 0x9
 1488 01bd 79000000 		.4byte	.LASF33
 1489 01c1 03       		.byte	0x3
 1490 01c2 EE       		.byte	0xee
 1491 01c3 6B000000 		.4byte	0x6b
 1492 01c7 00       		.byte	0
 1493 01c8 09       		.uleb128 0x9
 1494 01c9 EF050000 		.4byte	.LASF34
 1495 01cd 03       		.byte	0x3
 1496 01ce EF       		.byte	0xef
 1497 01cf 6B000000 		.4byte	0x6b
 1498 01d3 01       		.byte	0x1
 1499 01d4 09       		.uleb128 0x9
 1500 01d5 C1010000 		.4byte	.LASF35
 1501 01d9 03       		.byte	0x3
 1502 01da F0       		.byte	0xf0
 1503 01db 6B000000 		.4byte	0x6b
 1504 01df 02       		.byte	0x2
 1505 01e0 09       		.uleb128 0x9
 1506 01e1 02020000 		.4byte	.LASF36
 1507 01e5 03       		.byte	0x3
 1508 01e6 F1       		.byte	0xf1
 1509 01e7 6B000000 		.4byte	0x6b
 1510 01eb 03       		.byte	0x3
 1511 01ec 09       		.uleb128 0x9
 1512 01ed 9F010000 		.4byte	.LASF37
 1513 01f1 03       		.byte	0x3
 1514 01f2 F2       		.byte	0xf2
 1515 01f3 6B000000 		.4byte	0x6b
 1516 01f7 04       		.byte	0x4
 1517 01f8 09       		.uleb128 0x9
 1518 01f9 E7050000 		.4byte	.LASF38
 1519 01fd 03       		.byte	0x3
 1520 01fe F3       		.byte	0xf3
 1521 01ff 6B000000 		.4byte	0x6b
 1522 0203 05       		.byte	0x5
 1523 0204 09       		.uleb128 0x9
 1524 0205 3E040000 		.4byte	.LASF39
 1525 0209 03       		.byte	0x3
 1526 020a F4       		.byte	0xf4
 1527 020b 6B000000 		.4byte	0x6b
 1528 020f 06       		.byte	0x6
 1529 0210 09       		.uleb128 0x9
 1530 0211 1E030000 		.4byte	.LASF40
 1531 0215 03       		.byte	0x3
 1532 0216 F5       		.byte	0xf5
 1533 0217 6B000000 		.4byte	0x6b
ARM GAS  C:\Users\Patrick\AppData\Local\Temp\cc4CvmVx.s 			page 72


 1534 021b 07       		.byte	0x7
 1535 021c 09       		.uleb128 0x9
 1536 021d C0050000 		.4byte	.LASF41
 1537 0221 03       		.byte	0x3
 1538 0222 F6       		.byte	0xf6
 1539 0223 6B000000 		.4byte	0x6b
 1540 0227 08       		.byte	0x8
 1541 0228 0B       		.uleb128 0xb
 1542 0229 67617000 		.ascii	"gap\000"
 1543 022d 03       		.byte	0x3
 1544 022e F7       		.byte	0xf7
 1545 022f 35020000 		.4byte	0x235
 1546 0233 09       		.byte	0x9
 1547 0234 00       		.byte	0
 1548 0235 0C       		.uleb128 0xc
 1549 0236 6B000000 		.4byte	0x6b
 1550 023a 45020000 		.4byte	0x245
 1551 023e 0D       		.uleb128 0xd
 1552 023f D9000000 		.4byte	0xd9
 1553 0243 06       		.byte	0x6
 1554 0244 00       		.byte	0
 1555 0245 0A       		.uleb128 0xa
 1556 0246 4C010000 		.4byte	.LASF42
 1557 024a 03       		.byte	0x3
 1558 024b F8       		.byte	0xf8
 1559 024c B4010000 		.4byte	0x1b4
 1560 0250 0E       		.uleb128 0xe
 1561 0251 90       		.byte	0x90
 1562 0252 03       		.byte	0x3
 1563 0253 1401     		.2byte	0x114
 1564 0255 67020000 		.4byte	0x267
 1565 0259 0F       		.uleb128 0xf
 1566 025a 11030000 		.4byte	.LASF43
 1567 025e 03       		.byte	0x3
 1568 025f 1601     		.2byte	0x116
 1569 0261 67020000 		.4byte	0x267
 1570 0265 00       		.byte	0
 1571 0266 00       		.byte	0
 1572 0267 0C       		.uleb128 0xc
 1573 0268 A9010000 		.4byte	0x1a9
 1574 026c 77020000 		.4byte	0x277
 1575 0270 0D       		.uleb128 0xd
 1576 0271 D9000000 		.4byte	0xd9
 1577 0275 08       		.byte	0x8
 1578 0276 00       		.byte	0
 1579 0277 04       		.uleb128 0x4
 1580 0278 7F000000 		.4byte	.LASF44
 1581 027c 03       		.byte	0x3
 1582 027d 1701     		.2byte	0x117
 1583 027f 50020000 		.4byte	0x250
 1584 0283 0E       		.uleb128 0xe
 1585 0284 90       		.byte	0x90
 1586 0285 03       		.byte	0x3
 1587 0286 1A01     		.2byte	0x11a
 1588 0288 9A020000 		.4byte	0x29a
 1589 028c 0F       		.uleb128 0xf
 1590 028d 9E020000 		.4byte	.LASF45
ARM GAS  C:\Users\Patrick\AppData\Local\Temp\cc4CvmVx.s 			page 73


 1591 0291 03       		.byte	0x3
 1592 0292 1C01     		.2byte	0x11c
 1593 0294 9A020000 		.4byte	0x29a
 1594 0298 00       		.byte	0
 1595 0299 00       		.byte	0
 1596 029a 0C       		.uleb128 0xc
 1597 029b 45020000 		.4byte	0x245
 1598 029f AA020000 		.4byte	0x2aa
 1599 02a3 0D       		.uleb128 0xd
 1600 02a4 D9000000 		.4byte	0xd9
 1601 02a8 08       		.byte	0x8
 1602 02a9 00       		.byte	0
 1603 02aa 04       		.uleb128 0x4
 1604 02ab 94000000 		.4byte	.LASF46
 1605 02af 03       		.byte	0x3
 1606 02b0 1D01     		.2byte	0x11d
 1607 02b2 83020000 		.4byte	0x283
 1608 02b6 10       		.uleb128 0x10
 1609 02b7 65030000 		.4byte	.LASF47
 1610 02bb 01       		.byte	0x1
 1611 02bc D2       		.byte	0xd2
 1612 02bd 00000000 		.4byte	.LFB1
 1613 02c1 18010000 		.4byte	.LFE1-.LFB1
 1614 02c5 01       		.uleb128 0x1
 1615 02c6 9C       		.byte	0x9c
 1616 02c7 1E040000 		.4byte	0x41e
 1617 02cb 11       		.uleb128 0x11
 1618 02cc 0D050000 		.4byte	.LASF51
 1619 02d0 01       		.byte	0x1
 1620 02d1 F9       		.byte	0xf9
 1621 02d2 6B000000 		.4byte	0x6b
 1622 02d6 00000000 		.4byte	.LLST0
 1623 02da 12       		.uleb128 0x12
 1624 02db 06000000 		.4byte	.LVL0
 1625 02df 1F090000 		.4byte	0x91f
 1626 02e3 13       		.uleb128 0x13
 1627 02e4 3C000000 		.4byte	.LVL2
 1628 02e8 2A090000 		.4byte	0x92a
 1629 02ec F6020000 		.4byte	0x2f6
 1630 02f0 14       		.uleb128 0x14
 1631 02f1 01       		.uleb128 0x1
 1632 02f2 50       		.byte	0x50
 1633 02f3 01       		.uleb128 0x1
 1634 02f4 30       		.byte	0x30
 1635 02f5 00       		.byte	0
 1636 02f6 13       		.uleb128 0x13
 1637 02f7 5C000000 		.4byte	.LVL3
 1638 02fb 2A090000 		.4byte	0x92a
 1639 02ff 0A030000 		.4byte	0x30a
 1640 0303 14       		.uleb128 0x14
 1641 0304 01       		.uleb128 0x1
 1642 0305 50       		.byte	0x50
 1643 0306 02       		.uleb128 0x2
 1644 0307 75       		.byte	0x75
 1645 0308 00       		.sleb128 0
 1646 0309 00       		.byte	0
 1647 030a 13       		.uleb128 0x13
ARM GAS  C:\Users\Patrick\AppData\Local\Temp\cc4CvmVx.s 			page 74


 1648 030b 62000000 		.4byte	.LVL4
 1649 030f 2A090000 		.4byte	0x92a
 1650 0313 1E030000 		.4byte	0x31e
 1651 0317 14       		.uleb128 0x14
 1652 0318 01       		.uleb128 0x1
 1653 0319 50       		.byte	0x50
 1654 031a 02       		.uleb128 0x2
 1655 031b 08       		.byte	0x8
 1656 031c 28       		.byte	0x28
 1657 031d 00       		.byte	0
 1658 031e 13       		.uleb128 0x13
 1659 031f 80000000 		.4byte	.LVL5
 1660 0323 2A090000 		.4byte	0x92a
 1661 0327 32030000 		.4byte	0x332
 1662 032b 14       		.uleb128 0x14
 1663 032c 01       		.uleb128 0x1
 1664 032d 50       		.byte	0x50
 1665 032e 02       		.uleb128 0x2
 1666 032f 77       		.byte	0x77
 1667 0330 00       		.sleb128 0
 1668 0331 00       		.byte	0
 1669 0332 13       		.uleb128 0x13
 1670 0333 98000000 		.4byte	.LVL6
 1671 0337 3B090000 		.4byte	0x93b
 1672 033b 46030000 		.4byte	0x346
 1673 033f 14       		.uleb128 0x14
 1674 0340 01       		.uleb128 0x1
 1675 0341 50       		.byte	0x50
 1676 0342 02       		.uleb128 0x2
 1677 0343 76       		.byte	0x76
 1678 0344 00       		.sleb128 0
 1679 0345 00       		.byte	0
 1680 0346 13       		.uleb128 0x13
 1681 0347 A0000000 		.4byte	.LVL7
 1682 034b 4C090000 		.4byte	0x94c
 1683 034f 5E030000 		.4byte	0x35e
 1684 0353 14       		.uleb128 0x14
 1685 0354 01       		.uleb128 0x1
 1686 0355 51       		.byte	0x51
 1687 0356 01       		.uleb128 0x1
 1688 0357 37       		.byte	0x37
 1689 0358 14       		.uleb128 0x14
 1690 0359 01       		.uleb128 0x1
 1691 035a 50       		.byte	0x50
 1692 035b 01       		.uleb128 0x1
 1693 035c 47       		.byte	0x47
 1694 035d 00       		.byte	0
 1695 035e 13       		.uleb128 0x13
 1696 035f A8000000 		.4byte	.LVL8
 1697 0363 62090000 		.4byte	0x962
 1698 0367 71030000 		.4byte	0x371
 1699 036b 14       		.uleb128 0x14
 1700 036c 01       		.uleb128 0x1
 1701 036d 50       		.byte	0x50
 1702 036e 01       		.uleb128 0x1
 1703 036f 47       		.byte	0x47
 1704 0370 00       		.byte	0
ARM GAS  C:\Users\Patrick\AppData\Local\Temp\cc4CvmVx.s 			page 75


 1705 0371 13       		.uleb128 0x13
 1706 0372 B0000000 		.4byte	.LVL9
 1707 0376 4C090000 		.4byte	0x94c
 1708 037a 89030000 		.4byte	0x389
 1709 037e 14       		.uleb128 0x14
 1710 037f 01       		.uleb128 0x1
 1711 0380 51       		.byte	0x51
 1712 0381 01       		.uleb128 0x1
 1713 0382 37       		.byte	0x37
 1714 0383 14       		.uleb128 0x14
 1715 0384 01       		.uleb128 0x1
 1716 0385 50       		.byte	0x50
 1717 0386 01       		.uleb128 0x1
 1718 0387 48       		.byte	0x48
 1719 0388 00       		.byte	0
 1720 0389 13       		.uleb128 0x13
 1721 038a B8000000 		.4byte	.LVL10
 1722 038e 62090000 		.4byte	0x962
 1723 0392 9C030000 		.4byte	0x39c
 1724 0396 14       		.uleb128 0x14
 1725 0397 01       		.uleb128 0x1
 1726 0398 50       		.byte	0x50
 1727 0399 01       		.uleb128 0x1
 1728 039a 48       		.byte	0x48
 1729 039b 00       		.byte	0
 1730 039c 13       		.uleb128 0x13
 1731 039d C0000000 		.4byte	.LVL11
 1732 03a1 4C090000 		.4byte	0x94c
 1733 03a5 B5030000 		.4byte	0x3b5
 1734 03a9 14       		.uleb128 0x14
 1735 03aa 01       		.uleb128 0x1
 1736 03ab 51       		.byte	0x51
 1737 03ac 01       		.uleb128 0x1
 1738 03ad 37       		.byte	0x37
 1739 03ae 14       		.uleb128 0x14
 1740 03af 01       		.uleb128 0x1
 1741 03b0 50       		.byte	0x50
 1742 03b1 02       		.uleb128 0x2
 1743 03b2 74       		.byte	0x74
 1744 03b3 00       		.sleb128 0
 1745 03b4 00       		.byte	0
 1746 03b5 13       		.uleb128 0x13
 1747 03b6 C8000000 		.4byte	.LVL12
 1748 03ba 62090000 		.4byte	0x962
 1749 03be C9030000 		.4byte	0x3c9
 1750 03c2 14       		.uleb128 0x14
 1751 03c3 01       		.uleb128 0x1
 1752 03c4 50       		.byte	0x50
 1753 03c5 02       		.uleb128 0x2
 1754 03c6 74       		.byte	0x74
 1755 03c7 00       		.sleb128 0
 1756 03c8 00       		.byte	0
 1757 03c9 13       		.uleb128 0x13
 1758 03ca D0000000 		.4byte	.LVL13
 1759 03ce 4C090000 		.4byte	0x94c
 1760 03d2 E2030000 		.4byte	0x3e2
 1761 03d6 14       		.uleb128 0x14
ARM GAS  C:\Users\Patrick\AppData\Local\Temp\cc4CvmVx.s 			page 76


 1762 03d7 01       		.uleb128 0x1
 1763 03d8 51       		.byte	0x51
 1764 03d9 01       		.uleb128 0x1
 1765 03da 37       		.byte	0x37
 1766 03db 14       		.uleb128 0x14
 1767 03dc 01       		.uleb128 0x1
 1768 03dd 50       		.byte	0x50
 1769 03de 02       		.uleb128 0x2
 1770 03df 75       		.byte	0x75
 1771 03e0 00       		.sleb128 0
 1772 03e1 00       		.byte	0
 1773 03e2 13       		.uleb128 0x13
 1774 03e3 D8000000 		.4byte	.LVL14
 1775 03e7 62090000 		.4byte	0x962
 1776 03eb F6030000 		.4byte	0x3f6
 1777 03ef 14       		.uleb128 0x14
 1778 03f0 01       		.uleb128 0x1
 1779 03f1 50       		.byte	0x50
 1780 03f2 02       		.uleb128 0x2
 1781 03f3 75       		.byte	0x75
 1782 03f4 00       		.sleb128 0
 1783 03f5 00       		.byte	0
 1784 03f6 13       		.uleb128 0x13
 1785 03f7 E0000000 		.4byte	.LVL15
 1786 03fb 4C090000 		.4byte	0x94c
 1787 03ff 0E040000 		.4byte	0x40e
 1788 0403 14       		.uleb128 0x14
 1789 0404 01       		.uleb128 0x1
 1790 0405 51       		.byte	0x51
 1791 0406 01       		.uleb128 0x1
 1792 0407 37       		.byte	0x37
 1793 0408 14       		.uleb128 0x14
 1794 0409 01       		.uleb128 0x1
 1795 040a 50       		.byte	0x50
 1796 040b 01       		.uleb128 0x1
 1797 040c 3C       		.byte	0x3c
 1798 040d 00       		.byte	0
 1799 040e 15       		.uleb128 0x15
 1800 040f E8000000 		.4byte	.LVL16
 1801 0413 62090000 		.4byte	0x962
 1802 0417 14       		.uleb128 0x14
 1803 0418 01       		.uleb128 0x1
 1804 0419 50       		.byte	0x50
 1805 041a 01       		.uleb128 0x1
 1806 041b 3C       		.byte	0x3c
 1807 041c 00       		.byte	0
 1808 041d 00       		.byte	0
 1809 041e 16       		.uleb128 0x16
 1810 041f CD010000 		.4byte	.LASF48
 1811 0423 01       		.byte	0x1
 1812 0424 CB01     		.2byte	0x1cb
 1813 0426 00000000 		.4byte	.LFB2
 1814 042a C4000000 		.4byte	.LFE2-.LFB2
 1815 042e 01       		.uleb128 0x1
 1816 042f 9C       		.byte	0x9c
 1817 0430 72040000 		.4byte	0x472
 1818 0434 17       		.uleb128 0x17
ARM GAS  C:\Users\Patrick\AppData\Local\Temp\cc4CvmVx.s 			page 77


 1819 0435 B2000000 		.4byte	.LASF49
 1820 0439 01       		.byte	0x1
 1821 043a CB01     		.2byte	0x1cb
 1822 043c 6B000000 		.4byte	0x6b
 1823 0440 13000000 		.4byte	.LLST1
 1824 0444 17       		.uleb128 0x17
 1825 0445 8F040000 		.4byte	.LASF50
 1826 0449 01       		.byte	0x1
 1827 044a CB01     		.2byte	0x1cb
 1828 044c 6B000000 		.4byte	0x6b
 1829 0450 34000000 		.4byte	.LLST2
 1830 0454 18       		.uleb128 0x18
 1831 0455 6900     		.ascii	"i\000"
 1832 0457 01       		.byte	0x1
 1833 0458 D201     		.2byte	0x1d2
 1834 045a 6B000000 		.4byte	0x6b
 1835 045e 55000000 		.4byte	.LLST3
 1836 0462 15       		.uleb128 0x15
 1837 0463 88000000 		.4byte	.LVL25
 1838 0467 7C090000 		.4byte	0x97c
 1839 046b 14       		.uleb128 0x14
 1840 046c 01       		.uleb128 0x1
 1841 046d 50       		.byte	0x50
 1842 046e 01       		.uleb128 0x1
 1843 046f 31       		.byte	0x31
 1844 0470 00       		.byte	0
 1845 0471 00       		.byte	0
 1846 0472 10       		.uleb128 0x10
 1847 0473 AC040000 		.4byte	.LASF52
 1848 0477 01       		.byte	0x1
 1849 0478 B9       		.byte	0xb9
 1850 0479 00000000 		.4byte	.LFB0
 1851 047d 24000000 		.4byte	.LFE0-.LFB0
 1852 0481 01       		.uleb128 0x1
 1853 0482 9C       		.byte	0x9c
 1854 0483 C5040000 		.4byte	0x4c5
 1855 0487 19       		.uleb128 0x19
 1856 0488 B2000000 		.4byte	.LASF49
 1857 048c 01       		.byte	0x1
 1858 048d B9       		.byte	0xb9
 1859 048e 6B000000 		.4byte	0x6b
 1860 0492 7F000000 		.4byte	.LLST4
 1861 0496 19       		.uleb128 0x19
 1862 0497 8F040000 		.4byte	.LASF50
 1863 049b 01       		.byte	0x1
 1864 049c B9       		.byte	0xb9
 1865 049d 6B000000 		.4byte	0x6b
 1866 04a1 A0000000 		.4byte	.LLST5
 1867 04a5 12       		.uleb128 0x12
 1868 04a6 10000000 		.4byte	.LVL27
 1869 04aa B6020000 		.4byte	0x2b6
 1870 04ae 15       		.uleb128 0x15
 1871 04af 1E000000 		.4byte	.LVL28
 1872 04b3 1E040000 		.4byte	0x41e
 1873 04b7 14       		.uleb128 0x14
 1874 04b8 01       		.uleb128 0x1
 1875 04b9 51       		.byte	0x51
ARM GAS  C:\Users\Patrick\AppData\Local\Temp\cc4CvmVx.s 			page 78


 1876 04ba 02       		.uleb128 0x2
 1877 04bb 74       		.byte	0x74
 1878 04bc 00       		.sleb128 0
 1879 04bd 14       		.uleb128 0x14
 1880 04be 01       		.uleb128 0x1
 1881 04bf 50       		.byte	0x50
 1882 04c0 02       		.uleb128 0x2
 1883 04c1 75       		.byte	0x75
 1884 04c2 00       		.sleb128 0
 1885 04c3 00       		.byte	0
 1886 04c4 00       		.byte	0
 1887 04c5 16       		.uleb128 0x16
 1888 04c6 F7040000 		.4byte	.LASF53
 1889 04ca 01       		.byte	0x1
 1890 04cb 9E02     		.2byte	0x29e
 1891 04cd 00000000 		.4byte	.LFB3
 1892 04d1 64000000 		.4byte	.LFE3-.LFB3
 1893 04d5 01       		.uleb128 0x1
 1894 04d6 9C       		.byte	0x9c
 1895 04d7 EA040000 		.4byte	0x4ea
 1896 04db 18       		.uleb128 0x18
 1897 04dc 6900     		.ascii	"i\000"
 1898 04de 01       		.byte	0x1
 1899 04df A402     		.2byte	0x2a4
 1900 04e1 6B000000 		.4byte	0x6b
 1901 04e5 C1000000 		.4byte	.LLST6
 1902 04e9 00       		.byte	0
 1903 04ea 16       		.uleb128 0x16
 1904 04eb 65010000 		.4byte	.LASF54
 1905 04ef 01       		.byte	0x1
 1906 04f0 D802     		.2byte	0x2d8
 1907 04f2 00000000 		.4byte	.LFB4
 1908 04f6 88000000 		.4byte	.LFE4-.LFB4
 1909 04fa 01       		.uleb128 0x1
 1910 04fb 9C       		.byte	0x9c
 1911 04fc 23050000 		.4byte	0x523
 1912 0500 1A       		.uleb128 0x1a
 1913 0501 0D050000 		.4byte	.LASF51
 1914 0505 01       		.byte	0x1
 1915 0506 DA02     		.2byte	0x2da
 1916 0508 6B000000 		.4byte	0x6b
 1917 050c EB000000 		.4byte	.LLST7
 1918 0510 12       		.uleb128 0x12
 1919 0511 06000000 		.4byte	.LVL34
 1920 0515 1F090000 		.4byte	0x91f
 1921 0519 12       		.uleb128 0x12
 1922 051a 36000000 		.4byte	.LVL35
 1923 051e 3B090000 		.4byte	0x93b
 1924 0522 00       		.byte	0
 1925 0523 1B       		.uleb128 0x1b
 1926 0524 1E050000 		.4byte	.LASF56
 1927 0528 01       		.byte	0x1
 1928 0529 4303     		.2byte	0x343
 1929 052b 6B000000 		.4byte	0x6b
 1930 052f 00000000 		.4byte	.LFB5
 1931 0533 20000000 		.4byte	.LFE5-.LFB5
 1932 0537 01       		.uleb128 0x1
ARM GAS  C:\Users\Patrick\AppData\Local\Temp\cc4CvmVx.s 			page 79


 1933 0538 9C       		.byte	0x9c
 1934 0539 4E050000 		.4byte	0x54e
 1935 053d 1A       		.uleb128 0x1a
 1936 053e AE020000 		.4byte	.LASF55
 1937 0542 01       		.byte	0x1
 1938 0543 4503     		.2byte	0x345
 1939 0545 6B000000 		.4byte	0x6b
 1940 0549 FE000000 		.4byte	.LLST8
 1941 054d 00       		.byte	0
 1942 054e 1C       		.uleb128 0x1c
 1943 054f 79010000 		.4byte	.LASF77
 1944 0553 01       		.byte	0x1
 1945 0554 5A03     		.2byte	0x35a
 1946 0556 6B000000 		.4byte	0x6b
 1947 055a 00000000 		.4byte	.LFB6
 1948 055e 0C000000 		.4byte	.LFE6-.LFB6
 1949 0562 01       		.uleb128 0x1
 1950 0563 9C       		.byte	0x9c
 1951 0564 1B       		.uleb128 0x1b
 1952 0565 F4000000 		.4byte	.LASF57
 1953 0569 01       		.byte	0x1
 1954 056a 7403     		.2byte	0x374
 1955 056c 6B000000 		.4byte	0x6b
 1956 0570 00000000 		.4byte	.LFB7
 1957 0574 20000000 		.4byte	.LFE7-.LFB7
 1958 0578 01       		.uleb128 0x1
 1959 0579 9C       		.byte	0x9c
 1960 057a 8F050000 		.4byte	0x58f
 1961 057e 18       		.uleb128 0x18
 1962 057f 72657300 		.ascii	"res\000"
 1963 0583 01       		.byte	0x1
 1964 0584 7603     		.2byte	0x376
 1965 0586 6B000000 		.4byte	0x6b
 1966 058a 11010000 		.4byte	.LLST9
 1967 058e 00       		.byte	0
 1968 058f 1B       		.uleb128 0x1b
 1969 0590 F7050000 		.4byte	.LASF58
 1970 0594 01       		.byte	0x1
 1971 0595 9103     		.2byte	0x391
 1972 0597 6B000000 		.4byte	0x6b
 1973 059b 00000000 		.4byte	.LFB8
 1974 059f 0C000000 		.4byte	.LFE8-.LFB8
 1975 05a3 01       		.uleb128 0x1
 1976 05a4 9C       		.byte	0x9c
 1977 05a5 BA050000 		.4byte	0x5ba
 1978 05a9 17       		.uleb128 0x17
 1979 05aa C3040000 		.4byte	.LASF59
 1980 05ae 01       		.byte	0x1
 1981 05af 9103     		.2byte	0x391
 1982 05b1 6B000000 		.4byte	0x6b
 1983 05b5 47010000 		.4byte	.LLST10
 1984 05b9 00       		.byte	0
 1985 05ba 1B       		.uleb128 0x1b
 1986 05bb E6040000 		.4byte	.LASF60
 1987 05bf 01       		.byte	0x1
 1988 05c0 B103     		.2byte	0x3b1
 1989 05c2 6B000000 		.4byte	0x6b
ARM GAS  C:\Users\Patrick\AppData\Local\Temp\cc4CvmVx.s 			page 80


 1990 05c6 00000000 		.4byte	.LFB9
 1991 05ca 14000000 		.4byte	.LFE9-.LFB9
 1992 05ce 01       		.uleb128 0x1
 1993 05cf 9C       		.byte	0x9c
 1994 05d0 E5050000 		.4byte	0x5e5
 1995 05d4 17       		.uleb128 0x17
 1996 05d5 A9000000 		.4byte	.LASF61
 1997 05d9 01       		.byte	0x1
 1998 05da B103     		.2byte	0x3b1
 1999 05dc 6B000000 		.4byte	0x6b
 2000 05e0 68010000 		.4byte	.LLST11
 2001 05e4 00       		.byte	0
 2002 05e5 1B       		.uleb128 0x1b
 2003 05e6 11060000 		.4byte	.LASF62
 2004 05ea 01       		.byte	0x1
 2005 05eb C803     		.2byte	0x3c8
 2006 05ed 77000000 		.4byte	0x77
 2007 05f1 00000000 		.4byte	.LFB10
 2008 05f5 28000000 		.4byte	.LFE10-.LFB10
 2009 05f9 01       		.uleb128 0x1
 2010 05fa 9C       		.byte	0x9c
 2011 05fb 20060000 		.4byte	0x620
 2012 05ff 17       		.uleb128 0x17
 2013 0600 A9000000 		.4byte	.LASF61
 2014 0604 01       		.byte	0x1
 2015 0605 C803     		.2byte	0x3c8
 2016 0607 6B000000 		.4byte	0x6b
 2017 060b 89010000 		.4byte	.LLST12
 2018 060f 1A       		.uleb128 0x1a
 2019 0610 60010000 		.4byte	.LASF63
 2020 0614 01       		.byte	0x1
 2021 0615 CA03     		.2byte	0x3ca
 2022 0617 77000000 		.4byte	0x77
 2023 061b C3010000 		.4byte	.LLST13
 2024 061f 00       		.byte	0
 2025 0620 16       		.uleb128 0x16
 2026 0621 D8050000 		.4byte	.LASF64
 2027 0625 01       		.byte	0x1
 2028 0626 3005     		.2byte	0x530
 2029 0628 00000000 		.4byte	.LFB11
 2030 062c 94000000 		.4byte	.LFE11-.LFB11
 2031 0630 01       		.uleb128 0x1
 2032 0631 9C       		.byte	0x9c
 2033 0632 79060000 		.4byte	0x679
 2034 0636 17       		.uleb128 0x17
 2035 0637 A9000000 		.4byte	.LASF61
 2036 063b 01       		.byte	0x1
 2037 063c 3005     		.2byte	0x530
 2038 063e 6B000000 		.4byte	0x6b
 2039 0642 11020000 		.4byte	.LLST14
 2040 0646 1D       		.uleb128 0x1d
 2041 0647 E1010000 		.4byte	.LASF65
 2042 064b 01       		.byte	0x1
 2043 064c 3005     		.2byte	0x530
 2044 064e 79060000 		.4byte	0x679
 2045 0652 01       		.uleb128 0x1
 2046 0653 51       		.byte	0x51
ARM GAS  C:\Users\Patrick\AppData\Local\Temp\cc4CvmVx.s 			page 81


 2047 0654 17       		.uleb128 0x17
 2048 0655 83040000 		.4byte	.LASF66
 2049 0659 01       		.byte	0x1
 2050 065a 3005     		.2byte	0x530
 2051 065c 77000000 		.4byte	0x77
 2052 0660 32020000 		.4byte	.LLST15
 2053 0664 1E       		.uleb128 0x1e
 2054 0665 00000000 		.4byte	.Ldebug_ranges0+0
 2055 0669 18       		.uleb128 0x18
 2056 066a 6900     		.ascii	"i\000"
 2057 066c 01       		.byte	0x1
 2058 066d 4505     		.2byte	0x545
 2059 066f 77000000 		.4byte	0x77
 2060 0673 5E020000 		.4byte	.LLST16
 2061 0677 00       		.byte	0
 2062 0678 00       		.byte	0
 2063 0679 06       		.uleb128 0x6
 2064 067a 04       		.byte	0x4
 2065 067b 7F060000 		.4byte	0x67f
 2066 067f 1F       		.uleb128 0x1f
 2067 0680 6B000000 		.4byte	0x6b
 2068 0684 16       		.uleb128 0x16
 2069 0685 2C040000 		.4byte	.LASF67
 2070 0689 01       		.byte	0x1
 2071 068a C708     		.2byte	0x8c7
 2072 068c 00000000 		.4byte	.LFB13
 2073 0690 2C000000 		.4byte	.LFE13-.LFB13
 2074 0694 01       		.uleb128 0x1
 2075 0695 9C       		.byte	0x9c
 2076 0696 AB060000 		.4byte	0x6ab
 2077 069a 17       		.uleb128 0x17
 2078 069b A9000000 		.4byte	.LASF61
 2079 069f 01       		.byte	0x1
 2080 06a0 C708     		.2byte	0x8c7
 2081 06a2 6B000000 		.4byte	0x6b
 2082 06a6 87020000 		.4byte	.LLST17
 2083 06aa 00       		.byte	0
 2084 06ab 1B       		.uleb128 0x1b
 2085 06ac 0B020000 		.4byte	.LASF68
 2086 06b0 01       		.byte	0x1
 2087 06b1 6306     		.2byte	0x663
 2088 06b3 77000000 		.4byte	0x77
 2089 06b7 00000000 		.4byte	.LFB12
 2090 06bb 50000000 		.4byte	.LFE12-.LFB12
 2091 06bf 01       		.uleb128 0x1
 2092 06c0 9C       		.byte	0x9c
 2093 06c1 4A070000 		.4byte	0x74a
 2094 06c5 17       		.uleb128 0x17
 2095 06c6 A9000000 		.4byte	.LASF61
 2096 06ca 01       		.byte	0x1
 2097 06cb 6306     		.2byte	0x663
 2098 06cd 6B000000 		.4byte	0x6b
 2099 06d1 A8020000 		.4byte	.LLST18
 2100 06d5 17       		.uleb128 0x17
 2101 06d6 E1010000 		.4byte	.LASF65
 2102 06da 01       		.byte	0x1
 2103 06db 6306     		.2byte	0x663
ARM GAS  C:\Users\Patrick\AppData\Local\Temp\cc4CvmVx.s 			page 82


 2104 06dd 4A070000 		.4byte	0x74a
 2105 06e1 E2020000 		.4byte	.LLST19
 2106 06e5 17       		.uleb128 0x17
 2107 06e6 83040000 		.4byte	.LASF66
 2108 06ea 01       		.byte	0x1
 2109 06eb 6306     		.2byte	0x663
 2110 06ed 77000000 		.4byte	0x77
 2111 06f1 19030000 		.4byte	.LLST20
 2112 06f5 20       		.uleb128 0x20
 2113 06f6 20000000 		.4byte	.LBB4
 2114 06fa 14000000 		.4byte	.LBE4-.LBB4
 2115 06fe 11070000 		.4byte	0x711
 2116 0702 18       		.uleb128 0x18
 2117 0703 6900     		.ascii	"i\000"
 2118 0705 01       		.byte	0x1
 2119 0706 7006     		.2byte	0x670
 2120 0708 77000000 		.4byte	0x77
 2121 070c 5B030000 		.4byte	.LLST21
 2122 0710 00       		.byte	0
 2123 0711 13       		.uleb128 0x13
 2124 0712 14000000 		.4byte	.LVL68
 2125 0716 E5050000 		.4byte	0x5e5
 2126 071a 25070000 		.4byte	0x725
 2127 071e 14       		.uleb128 0x14
 2128 071f 01       		.uleb128 0x1
 2129 0720 50       		.byte	0x50
 2130 0721 02       		.uleb128 0x2
 2131 0722 75       		.byte	0x75
 2132 0723 00       		.sleb128 0
 2133 0724 00       		.byte	0
 2134 0725 13       		.uleb128 0x13
 2135 0726 1E000000 		.4byte	.LVL69
 2136 072a E5050000 		.4byte	0x5e5
 2137 072e 39070000 		.4byte	0x739
 2138 0732 14       		.uleb128 0x14
 2139 0733 01       		.uleb128 0x1
 2140 0734 50       		.byte	0x50
 2141 0735 02       		.uleb128 0x2
 2142 0736 75       		.byte	0x75
 2143 0737 00       		.sleb128 0
 2144 0738 00       		.byte	0
 2145 0739 15       		.uleb128 0x15
 2146 073a 3A000000 		.4byte	.LVL74
 2147 073e 84060000 		.4byte	0x684
 2148 0742 14       		.uleb128 0x14
 2149 0743 01       		.uleb128 0x1
 2150 0744 50       		.byte	0x50
 2151 0745 02       		.uleb128 0x2
 2152 0746 75       		.byte	0x75
 2153 0747 00       		.sleb128 0
 2154 0748 00       		.byte	0
 2155 0749 00       		.byte	0
 2156 074a 06       		.uleb128 0x6
 2157 074b 04       		.byte	0x4
 2158 074c 6B000000 		.4byte	0x6b
 2159 0750 16       		.uleb128 0x16
 2160 0751 C5050000 		.4byte	.LASF69
ARM GAS  C:\Users\Patrick\AppData\Local\Temp\cc4CvmVx.s 			page 83


 2161 0755 01       		.byte	0x1
 2162 0756 DF08     		.2byte	0x8df
 2163 0758 00000000 		.4byte	.LFB14
 2164 075c 18000000 		.4byte	.LFE14-.LFB14
 2165 0760 01       		.uleb128 0x1
 2166 0761 9C       		.byte	0x9c
 2167 0762 77070000 		.4byte	0x777
 2168 0766 17       		.uleb128 0x17
 2169 0767 A9000000 		.4byte	.LASF61
 2170 076b 01       		.byte	0x1
 2171 076c DF08     		.2byte	0x8df
 2172 076e 6B000000 		.4byte	0x6b
 2173 0772 85030000 		.4byte	.LLST22
 2174 0776 00       		.byte	0
 2175 0777 16       		.uleb128 0x16
 2176 0778 3D000000 		.4byte	.LASF70
 2177 077c 01       		.byte	0x1
 2178 077d FD08     		.2byte	0x8fd
 2179 077f 00000000 		.4byte	.LFB15
 2180 0783 0C000000 		.4byte	.LFE15-.LFB15
 2181 0787 01       		.uleb128 0x1
 2182 0788 9C       		.byte	0x9c
 2183 0789 9C070000 		.4byte	0x79c
 2184 078d 1D       		.uleb128 0x1d
 2185 078e 7C040000 		.4byte	.LASF71
 2186 0792 01       		.byte	0x1
 2187 0793 FD08     		.2byte	0x8fd
 2188 0795 6B000000 		.4byte	0x6b
 2189 0799 01       		.uleb128 0x1
 2190 079a 50       		.byte	0x50
 2191 079b 00       		.byte	0
 2192 079c 1B       		.uleb128 0x1b
 2193 079d 60000000 		.4byte	.LASF72
 2194 07a1 01       		.byte	0x1
 2195 07a2 1609     		.2byte	0x916
 2196 07a4 6B000000 		.4byte	0x6b
 2197 07a8 00000000 		.4byte	.LFB16
 2198 07ac 20000000 		.4byte	.LFE16-.LFB16
 2199 07b0 01       		.uleb128 0x1
 2200 07b1 9C       		.byte	0x9c
 2201 07b2 D6070000 		.4byte	0x7d6
 2202 07b6 17       		.uleb128 0x17
 2203 07b7 A9000000 		.4byte	.LASF61
 2204 07bb 01       		.byte	0x1
 2205 07bc 1609     		.2byte	0x916
 2206 07be 6B000000 		.4byte	0x6b
 2207 07c2 A6030000 		.4byte	.LLST23
 2208 07c6 18       		.uleb128 0x18
 2209 07c7 637200   		.ascii	"cr\000"
 2210 07ca 01       		.byte	0x1
 2211 07cb 1809     		.2byte	0x918
 2212 07cd 6B000000 		.4byte	0x6b
 2213 07d1 E0030000 		.4byte	.LLST24
 2214 07d5 00       		.byte	0
 2215 07d6 16       		.uleb128 0x16
 2216 07d7 F3020000 		.4byte	.LASF73
 2217 07db 01       		.byte	0x1
ARM GAS  C:\Users\Patrick\AppData\Local\Temp\cc4CvmVx.s 			page 84


 2218 07dc 3F09     		.2byte	0x93f
 2219 07de 00000000 		.4byte	.LFB17
 2220 07e2 20000000 		.4byte	.LFE17-.LFB17
 2221 07e6 01       		.uleb128 0x1
 2222 07e7 9C       		.byte	0x9c
 2223 07e8 FB070000 		.4byte	0x7fb
 2224 07ec 1D       		.uleb128 0x1d
 2225 07ed B5010000 		.4byte	.LASF74
 2226 07f1 01       		.byte	0x1
 2227 07f2 3F09     		.2byte	0x93f
 2228 07f4 6B000000 		.4byte	0x6b
 2229 07f8 01       		.uleb128 0x1
 2230 07f9 50       		.byte	0x50
 2231 07fa 00       		.byte	0
 2232 07fb 1B       		.uleb128 0x1b
 2233 07fc 3B010000 		.4byte	.LASF75
 2234 0800 01       		.byte	0x1
 2235 0801 7809     		.2byte	0x978
 2236 0803 6B000000 		.4byte	0x6b
 2237 0807 00000000 		.4byte	.LFB18
 2238 080b 18000000 		.4byte	.LFE18-.LFB18
 2239 080f 01       		.uleb128 0x1
 2240 0810 9C       		.byte	0x9c
 2241 0811 26080000 		.4byte	0x826
 2242 0815 1A       		.uleb128 0x1a
 2243 0816 22060000 		.4byte	.LASF76
 2244 081a 01       		.byte	0x1
 2245 081b 7A09     		.2byte	0x97a
 2246 081d 6B000000 		.4byte	0x6b
 2247 0821 16040000 		.4byte	.LLST25
 2248 0825 00       		.byte	0
 2249 0826 1C       		.uleb128 0x1c
 2250 0827 51020000 		.4byte	.LASF78
 2251 082b 01       		.byte	0x1
 2252 082c 9009     		.2byte	0x990
 2253 082e 6B000000 		.4byte	0x6b
 2254 0832 00000000 		.4byte	.LFB19
 2255 0836 10000000 		.4byte	.LFE19-.LFB19
 2256 083a 01       		.uleb128 0x1
 2257 083b 9C       		.byte	0x9c
 2258 083c 21       		.uleb128 0x21
 2259 083d D6020000 		.4byte	.LASF79
 2260 0841 01       		.byte	0x1
 2261 0842 9E09     		.2byte	0x99e
 2262 0844 00000000 		.4byte	.LFB20
 2263 0848 02000000 		.4byte	.LFE20-.LFB20
 2264 084c 01       		.uleb128 0x1
 2265 084d 9C       		.byte	0x9c
 2266 084e 21       		.uleb128 0x21
 2267 084f 7E030000 		.4byte	.LASF80
 2268 0853 01       		.byte	0x1
 2269 0854 B409     		.2byte	0x9b4
 2270 0856 00000000 		.4byte	.LFB21
 2271 085a 02000000 		.4byte	.LFE21-.LFB21
 2272 085e 01       		.uleb128 0x1
 2273 085f 9C       		.byte	0x9c
 2274 0860 22       		.uleb128 0x22
ARM GAS  C:\Users\Patrick\AppData\Local\Temp\cc4CvmVx.s 			page 85


 2275 0861 1D000000 		.4byte	.LASF81
 2276 0865 01       		.byte	0x1
 2277 0866 27       		.byte	0x27
 2278 0867 6B000000 		.4byte	0x6b
 2279 086b 05       		.uleb128 0x5
 2280 086c 03       		.byte	0x3
 2281 086d 00000000 		.4byte	USBFS_initVar
 2282 0871 23       		.uleb128 0x23
 2283 0872 6F040000 		.4byte	.LASF82
 2284 0876 03       		.byte	0x3
 2285 0877 D802     		.2byte	0x2d8
 2286 0879 B0000000 		.4byte	0xb0
 2287 087d 23       		.uleb128 0x23
 2288 087e EB030000 		.4byte	.LASF83
 2289 0882 03       		.byte	0x3
 2290 0883 D902     		.2byte	0x2d9
 2291 0885 B0000000 		.4byte	0xb0
 2292 0889 23       		.uleb128 0x23
 2293 088a E7010000 		.4byte	.LASF84
 2294 088e 03       		.byte	0x3
 2295 088f DA02     		.2byte	0x2da
 2296 0891 B0000000 		.4byte	0xb0
 2297 0895 23       		.uleb128 0x23
 2298 0896 B5020000 		.4byte	.LASF85
 2299 089a 03       		.byte	0x3
 2300 089b DB02     		.2byte	0x2db
 2301 089d B0000000 		.4byte	0xb0
 2302 08a1 23       		.uleb128 0x23
 2303 08a2 D3040000 		.4byte	.LASF86
 2304 08a6 03       		.byte	0x3
 2305 08a7 DC02     		.2byte	0x2dc
 2306 08a9 B0000000 		.4byte	0xb0
 2307 08ad 0C       		.uleb128 0xc
 2308 08ae 6B000000 		.4byte	0x6b
 2309 08b2 BD080000 		.4byte	0x8bd
 2310 08b6 0D       		.uleb128 0xd
 2311 08b7 D9000000 		.4byte	0xd9
 2312 08bb 00       		.byte	0
 2313 08bc 00       		.byte	0
 2314 08bd 23       		.uleb128 0x23
 2315 08be 2B000000 		.4byte	.LASF87
 2316 08c2 03       		.byte	0x3
 2317 08c3 E502     		.2byte	0x2e5
 2318 08c5 C9080000 		.4byte	0x8c9
 2319 08c9 05       		.uleb128 0x5
 2320 08ca AD080000 		.4byte	0x8ad
 2321 08ce 24       		.uleb128 0x24
 2322 08cf 25010000 		.4byte	.LASF88
 2323 08d3 04       		.byte	0x4
 2324 08d4 7D       		.byte	0x7d
 2325 08d5 B0000000 		.4byte	0xb0
 2326 08d9 24       		.uleb128 0x24
 2327 08da 43040000 		.4byte	.LASF89
 2328 08de 04       		.byte	0x4
 2329 08df 7E       		.byte	0x7e
 2330 08e0 E4080000 		.4byte	0x8e4
 2331 08e4 05       		.uleb128 0x5
ARM GAS  C:\Users\Patrick\AppData\Local\Temp\cc4CvmVx.s 			page 86


 2332 08e5 AD080000 		.4byte	0x8ad
 2333 08e9 24       		.uleb128 0x24
 2334 08ea 11010000 		.4byte	.LASF90
 2335 08ee 04       		.byte	0x4
 2336 08ef 80       		.byte	0x80
 2337 08f0 B0000000 		.4byte	0xb0
 2338 08f4 0C       		.uleb128 0xc
 2339 08f5 55010000 		.4byte	0x155
 2340 08f9 04090000 		.4byte	0x904
 2341 08fd 0D       		.uleb128 0xd
 2342 08fe D9000000 		.4byte	0xd9
 2343 0902 08       		.byte	0x8
 2344 0903 00       		.byte	0
 2345 0904 24       		.uleb128 0x24
 2346 0905 5C030000 		.4byte	.LASF91
 2347 0909 04       		.byte	0x4
 2348 090a 84       		.byte	0x84
 2349 090b 0F090000 		.4byte	0x90f
 2350 090f 05       		.uleb128 0x5
 2351 0910 F4080000 		.4byte	0x8f4
 2352 0914 24       		.uleb128 0x24
 2353 0915 17040000 		.4byte	.LASF92
 2354 0919 04       		.byte	0x4
 2355 091a A6       		.byte	0xa6
 2356 091b B0000000 		.4byte	0xb0
 2357 091f 25       		.uleb128 0x25
 2358 0920 3A020000 		.4byte	.LASF99
 2359 0924 05       		.byte	0x5
 2360 0925 7D       		.byte	0x7d
 2361 0926 6B000000 		.4byte	0x6b
 2362 092a 26       		.uleb128 0x26
 2363 092b A4010000 		.4byte	.LASF93
 2364 092f 05       		.byte	0x5
 2365 0930 77       		.byte	0x77
 2366 0931 3B090000 		.4byte	0x93b
 2367 0935 27       		.uleb128 0x27
 2368 0936 77000000 		.4byte	0x77
 2369 093a 00       		.byte	0
 2370 093b 26       		.uleb128 0x26
 2371 093c 07000000 		.4byte	.LASF94
 2372 0940 05       		.byte	0x5
 2373 0941 7E       		.byte	0x7e
 2374 0942 4C090000 		.4byte	0x94c
 2375 0946 27       		.uleb128 0x27
 2376 0947 6B000000 		.4byte	0x6b
 2377 094b 00       		.byte	0
 2378 094c 26       		.uleb128 0x26
 2379 094d 34030000 		.4byte	.LASF95
 2380 0951 05       		.byte	0x5
 2381 0952 8B       		.byte	0x8b
 2382 0953 62090000 		.4byte	0x962
 2383 0957 27       		.uleb128 0x27
 2384 0958 6B000000 		.4byte	0x6b
 2385 095c 27       		.uleb128 0x27
 2386 095d 6B000000 		.4byte	0x6b
 2387 0961 00       		.byte	0
 2388 0962 28       		.uleb128 0x28
ARM GAS  C:\Users\Patrick\AppData\Local\Temp\cc4CvmVx.s 			page 87


 2389 0963 7B020000 		.4byte	.LASF100
 2390 0967 05       		.byte	0x5
 2391 0968 88       		.byte	0x88
 2392 0969 C6000000 		.4byte	0xc6
 2393 096d 7C090000 		.4byte	0x97c
 2394 0971 27       		.uleb128 0x27
 2395 0972 6B000000 		.4byte	0x6b
 2396 0976 27       		.uleb128 0x27
 2397 0977 C6000000 		.4byte	0xc6
 2398 097b 00       		.byte	0
 2399 097c 29       		.uleb128 0x29
 2400 097d 70030000 		.4byte	.LASF101
 2401 0981 05       		.byte	0x5
 2402 0982 79       		.byte	0x79
 2403 0983 27       		.uleb128 0x27
 2404 0984 83000000 		.4byte	0x83
 2405 0988 00       		.byte	0
 2406 0989 00       		.byte	0
 2407              		.section	.debug_abbrev,"",%progbits
 2408              	.Ldebug_abbrev0:
 2409 0000 01       		.uleb128 0x1
 2410 0001 11       		.uleb128 0x11
 2411 0002 01       		.byte	0x1
 2412 0003 25       		.uleb128 0x25
 2413 0004 0E       		.uleb128 0xe
 2414 0005 13       		.uleb128 0x13
 2415 0006 0B       		.uleb128 0xb
 2416 0007 03       		.uleb128 0x3
 2417 0008 0E       		.uleb128 0xe
 2418 0009 1B       		.uleb128 0x1b
 2419 000a 0E       		.uleb128 0xe
 2420 000b 55       		.uleb128 0x55
 2421 000c 17       		.uleb128 0x17
 2422 000d 11       		.uleb128 0x11
 2423 000e 01       		.uleb128 0x1
 2424 000f 10       		.uleb128 0x10
 2425 0010 17       		.uleb128 0x17
 2426 0011 00       		.byte	0
 2427 0012 00       		.byte	0
 2428 0013 02       		.uleb128 0x2
 2429 0014 24       		.uleb128 0x24
 2430 0015 00       		.byte	0
 2431 0016 0B       		.uleb128 0xb
 2432 0017 0B       		.uleb128 0xb
 2433 0018 3E       		.uleb128 0x3e
 2434 0019 0B       		.uleb128 0xb
 2435 001a 03       		.uleb128 0x3
 2436 001b 0E       		.uleb128 0xe
 2437 001c 00       		.byte	0
 2438 001d 00       		.byte	0
 2439 001e 03       		.uleb128 0x3
 2440 001f 24       		.uleb128 0x24
 2441 0020 00       		.byte	0
 2442 0021 0B       		.uleb128 0xb
 2443 0022 0B       		.uleb128 0xb
 2444 0023 3E       		.uleb128 0x3e
 2445 0024 0B       		.uleb128 0xb
ARM GAS  C:\Users\Patrick\AppData\Local\Temp\cc4CvmVx.s 			page 88


 2446 0025 03       		.uleb128 0x3
 2447 0026 08       		.uleb128 0x8
 2448 0027 00       		.byte	0
 2449 0028 00       		.byte	0
 2450 0029 04       		.uleb128 0x4
 2451 002a 16       		.uleb128 0x16
 2452 002b 00       		.byte	0
 2453 002c 03       		.uleb128 0x3
 2454 002d 0E       		.uleb128 0xe
 2455 002e 3A       		.uleb128 0x3a
 2456 002f 0B       		.uleb128 0xb
 2457 0030 3B       		.uleb128 0x3b
 2458 0031 05       		.uleb128 0x5
 2459 0032 49       		.uleb128 0x49
 2460 0033 13       		.uleb128 0x13
 2461 0034 00       		.byte	0
 2462 0035 00       		.byte	0
 2463 0036 05       		.uleb128 0x5
 2464 0037 35       		.uleb128 0x35
 2465 0038 00       		.byte	0
 2466 0039 49       		.uleb128 0x49
 2467 003a 13       		.uleb128 0x13
 2468 003b 00       		.byte	0
 2469 003c 00       		.byte	0
 2470 003d 06       		.uleb128 0x6
 2471 003e 0F       		.uleb128 0xf
 2472 003f 00       		.byte	0
 2473 0040 0B       		.uleb128 0xb
 2474 0041 0B       		.uleb128 0xb
 2475 0042 49       		.uleb128 0x49
 2476 0043 13       		.uleb128 0x13
 2477 0044 00       		.byte	0
 2478 0045 00       		.byte	0
 2479 0046 07       		.uleb128 0x7
 2480 0047 15       		.uleb128 0x15
 2481 0048 00       		.byte	0
 2482 0049 27       		.uleb128 0x27
 2483 004a 19       		.uleb128 0x19
 2484 004b 00       		.byte	0
 2485 004c 00       		.byte	0
 2486 004d 08       		.uleb128 0x8
 2487 004e 13       		.uleb128 0x13
 2488 004f 01       		.byte	0x1
 2489 0050 0B       		.uleb128 0xb
 2490 0051 0B       		.uleb128 0xb
 2491 0052 3A       		.uleb128 0x3a
 2492 0053 0B       		.uleb128 0xb
 2493 0054 3B       		.uleb128 0x3b
 2494 0055 0B       		.uleb128 0xb
 2495 0056 01       		.uleb128 0x1
 2496 0057 13       		.uleb128 0x13
 2497 0058 00       		.byte	0
 2498 0059 00       		.byte	0
 2499 005a 09       		.uleb128 0x9
 2500 005b 0D       		.uleb128 0xd
 2501 005c 00       		.byte	0
 2502 005d 03       		.uleb128 0x3
ARM GAS  C:\Users\Patrick\AppData\Local\Temp\cc4CvmVx.s 			page 89


 2503 005e 0E       		.uleb128 0xe
 2504 005f 3A       		.uleb128 0x3a
 2505 0060 0B       		.uleb128 0xb
 2506 0061 3B       		.uleb128 0x3b
 2507 0062 0B       		.uleb128 0xb
 2508 0063 49       		.uleb128 0x49
 2509 0064 13       		.uleb128 0x13
 2510 0065 38       		.uleb128 0x38
 2511 0066 0B       		.uleb128 0xb
 2512 0067 00       		.byte	0
 2513 0068 00       		.byte	0
 2514 0069 0A       		.uleb128 0xa
 2515 006a 16       		.uleb128 0x16
 2516 006b 00       		.byte	0
 2517 006c 03       		.uleb128 0x3
 2518 006d 0E       		.uleb128 0xe
 2519 006e 3A       		.uleb128 0x3a
 2520 006f 0B       		.uleb128 0xb
 2521 0070 3B       		.uleb128 0x3b
 2522 0071 0B       		.uleb128 0xb
 2523 0072 49       		.uleb128 0x49
 2524 0073 13       		.uleb128 0x13
 2525 0074 00       		.byte	0
 2526 0075 00       		.byte	0
 2527 0076 0B       		.uleb128 0xb
 2528 0077 0D       		.uleb128 0xd
 2529 0078 00       		.byte	0
 2530 0079 03       		.uleb128 0x3
 2531 007a 08       		.uleb128 0x8
 2532 007b 3A       		.uleb128 0x3a
 2533 007c 0B       		.uleb128 0xb
 2534 007d 3B       		.uleb128 0x3b
 2535 007e 0B       		.uleb128 0xb
 2536 007f 49       		.uleb128 0x49
 2537 0080 13       		.uleb128 0x13
 2538 0081 38       		.uleb128 0x38
 2539 0082 0B       		.uleb128 0xb
 2540 0083 00       		.byte	0
 2541 0084 00       		.byte	0
 2542 0085 0C       		.uleb128 0xc
 2543 0086 01       		.uleb128 0x1
 2544 0087 01       		.byte	0x1
 2545 0088 49       		.uleb128 0x49
 2546 0089 13       		.uleb128 0x13
 2547 008a 01       		.uleb128 0x1
 2548 008b 13       		.uleb128 0x13
 2549 008c 00       		.byte	0
 2550 008d 00       		.byte	0
 2551 008e 0D       		.uleb128 0xd
 2552 008f 21       		.uleb128 0x21
 2553 0090 00       		.byte	0
 2554 0091 49       		.uleb128 0x49
 2555 0092 13       		.uleb128 0x13
 2556 0093 2F       		.uleb128 0x2f
 2557 0094 0B       		.uleb128 0xb
 2558 0095 00       		.byte	0
 2559 0096 00       		.byte	0
ARM GAS  C:\Users\Patrick\AppData\Local\Temp\cc4CvmVx.s 			page 90


 2560 0097 0E       		.uleb128 0xe
 2561 0098 13       		.uleb128 0x13
 2562 0099 01       		.byte	0x1
 2563 009a 0B       		.uleb128 0xb
 2564 009b 0B       		.uleb128 0xb
 2565 009c 3A       		.uleb128 0x3a
 2566 009d 0B       		.uleb128 0xb
 2567 009e 3B       		.uleb128 0x3b
 2568 009f 05       		.uleb128 0x5
 2569 00a0 01       		.uleb128 0x1
 2570 00a1 13       		.uleb128 0x13
 2571 00a2 00       		.byte	0
 2572 00a3 00       		.byte	0
 2573 00a4 0F       		.uleb128 0xf
 2574 00a5 0D       		.uleb128 0xd
 2575 00a6 00       		.byte	0
 2576 00a7 03       		.uleb128 0x3
 2577 00a8 0E       		.uleb128 0xe
 2578 00a9 3A       		.uleb128 0x3a
 2579 00aa 0B       		.uleb128 0xb
 2580 00ab 3B       		.uleb128 0x3b
 2581 00ac 05       		.uleb128 0x5
 2582 00ad 49       		.uleb128 0x49
 2583 00ae 13       		.uleb128 0x13
 2584 00af 38       		.uleb128 0x38
 2585 00b0 0B       		.uleb128 0xb
 2586 00b1 00       		.byte	0
 2587 00b2 00       		.byte	0
 2588 00b3 10       		.uleb128 0x10
 2589 00b4 2E       		.uleb128 0x2e
 2590 00b5 01       		.byte	0x1
 2591 00b6 3F       		.uleb128 0x3f
 2592 00b7 19       		.uleb128 0x19
 2593 00b8 03       		.uleb128 0x3
 2594 00b9 0E       		.uleb128 0xe
 2595 00ba 3A       		.uleb128 0x3a
 2596 00bb 0B       		.uleb128 0xb
 2597 00bc 3B       		.uleb128 0x3b
 2598 00bd 0B       		.uleb128 0xb
 2599 00be 27       		.uleb128 0x27
 2600 00bf 19       		.uleb128 0x19
 2601 00c0 11       		.uleb128 0x11
 2602 00c1 01       		.uleb128 0x1
 2603 00c2 12       		.uleb128 0x12
 2604 00c3 06       		.uleb128 0x6
 2605 00c4 40       		.uleb128 0x40
 2606 00c5 18       		.uleb128 0x18
 2607 00c6 9742     		.uleb128 0x2117
 2608 00c8 19       		.uleb128 0x19
 2609 00c9 01       		.uleb128 0x1
 2610 00ca 13       		.uleb128 0x13
 2611 00cb 00       		.byte	0
 2612 00cc 00       		.byte	0
 2613 00cd 11       		.uleb128 0x11
 2614 00ce 34       		.uleb128 0x34
 2615 00cf 00       		.byte	0
 2616 00d0 03       		.uleb128 0x3
ARM GAS  C:\Users\Patrick\AppData\Local\Temp\cc4CvmVx.s 			page 91


 2617 00d1 0E       		.uleb128 0xe
 2618 00d2 3A       		.uleb128 0x3a
 2619 00d3 0B       		.uleb128 0xb
 2620 00d4 3B       		.uleb128 0x3b
 2621 00d5 0B       		.uleb128 0xb
 2622 00d6 49       		.uleb128 0x49
 2623 00d7 13       		.uleb128 0x13
 2624 00d8 02       		.uleb128 0x2
 2625 00d9 17       		.uleb128 0x17
 2626 00da 00       		.byte	0
 2627 00db 00       		.byte	0
 2628 00dc 12       		.uleb128 0x12
 2629 00dd 898201   		.uleb128 0x4109
 2630 00e0 00       		.byte	0
 2631 00e1 11       		.uleb128 0x11
 2632 00e2 01       		.uleb128 0x1
 2633 00e3 31       		.uleb128 0x31
 2634 00e4 13       		.uleb128 0x13
 2635 00e5 00       		.byte	0
 2636 00e6 00       		.byte	0
 2637 00e7 13       		.uleb128 0x13
 2638 00e8 898201   		.uleb128 0x4109
 2639 00eb 01       		.byte	0x1
 2640 00ec 11       		.uleb128 0x11
 2641 00ed 01       		.uleb128 0x1
 2642 00ee 31       		.uleb128 0x31
 2643 00ef 13       		.uleb128 0x13
 2644 00f0 01       		.uleb128 0x1
 2645 00f1 13       		.uleb128 0x13
 2646 00f2 00       		.byte	0
 2647 00f3 00       		.byte	0
 2648 00f4 14       		.uleb128 0x14
 2649 00f5 8A8201   		.uleb128 0x410a
 2650 00f8 00       		.byte	0
 2651 00f9 02       		.uleb128 0x2
 2652 00fa 18       		.uleb128 0x18
 2653 00fb 9142     		.uleb128 0x2111
 2654 00fd 18       		.uleb128 0x18
 2655 00fe 00       		.byte	0
 2656 00ff 00       		.byte	0
 2657 0100 15       		.uleb128 0x15
 2658 0101 898201   		.uleb128 0x4109
 2659 0104 01       		.byte	0x1
 2660 0105 11       		.uleb128 0x11
 2661 0106 01       		.uleb128 0x1
 2662 0107 31       		.uleb128 0x31
 2663 0108 13       		.uleb128 0x13
 2664 0109 00       		.byte	0
 2665 010a 00       		.byte	0
 2666 010b 16       		.uleb128 0x16
 2667 010c 2E       		.uleb128 0x2e
 2668 010d 01       		.byte	0x1
 2669 010e 3F       		.uleb128 0x3f
 2670 010f 19       		.uleb128 0x19
 2671 0110 03       		.uleb128 0x3
 2672 0111 0E       		.uleb128 0xe
 2673 0112 3A       		.uleb128 0x3a
ARM GAS  C:\Users\Patrick\AppData\Local\Temp\cc4CvmVx.s 			page 92


 2674 0113 0B       		.uleb128 0xb
 2675 0114 3B       		.uleb128 0x3b
 2676 0115 05       		.uleb128 0x5
 2677 0116 27       		.uleb128 0x27
 2678 0117 19       		.uleb128 0x19
 2679 0118 11       		.uleb128 0x11
 2680 0119 01       		.uleb128 0x1
 2681 011a 12       		.uleb128 0x12
 2682 011b 06       		.uleb128 0x6
 2683 011c 40       		.uleb128 0x40
 2684 011d 18       		.uleb128 0x18
 2685 011e 9742     		.uleb128 0x2117
 2686 0120 19       		.uleb128 0x19
 2687 0121 01       		.uleb128 0x1
 2688 0122 13       		.uleb128 0x13
 2689 0123 00       		.byte	0
 2690 0124 00       		.byte	0
 2691 0125 17       		.uleb128 0x17
 2692 0126 05       		.uleb128 0x5
 2693 0127 00       		.byte	0
 2694 0128 03       		.uleb128 0x3
 2695 0129 0E       		.uleb128 0xe
 2696 012a 3A       		.uleb128 0x3a
 2697 012b 0B       		.uleb128 0xb
 2698 012c 3B       		.uleb128 0x3b
 2699 012d 05       		.uleb128 0x5
 2700 012e 49       		.uleb128 0x49
 2701 012f 13       		.uleb128 0x13
 2702 0130 02       		.uleb128 0x2
 2703 0131 17       		.uleb128 0x17
 2704 0132 00       		.byte	0
 2705 0133 00       		.byte	0
 2706 0134 18       		.uleb128 0x18
 2707 0135 34       		.uleb128 0x34
 2708 0136 00       		.byte	0
 2709 0137 03       		.uleb128 0x3
 2710 0138 08       		.uleb128 0x8
 2711 0139 3A       		.uleb128 0x3a
 2712 013a 0B       		.uleb128 0xb
 2713 013b 3B       		.uleb128 0x3b
 2714 013c 05       		.uleb128 0x5
 2715 013d 49       		.uleb128 0x49
 2716 013e 13       		.uleb128 0x13
 2717 013f 02       		.uleb128 0x2
 2718 0140 17       		.uleb128 0x17
 2719 0141 00       		.byte	0
 2720 0142 00       		.byte	0
 2721 0143 19       		.uleb128 0x19
 2722 0144 05       		.uleb128 0x5
 2723 0145 00       		.byte	0
 2724 0146 03       		.uleb128 0x3
 2725 0147 0E       		.uleb128 0xe
 2726 0148 3A       		.uleb128 0x3a
 2727 0149 0B       		.uleb128 0xb
 2728 014a 3B       		.uleb128 0x3b
 2729 014b 0B       		.uleb128 0xb
 2730 014c 49       		.uleb128 0x49
ARM GAS  C:\Users\Patrick\AppData\Local\Temp\cc4CvmVx.s 			page 93


 2731 014d 13       		.uleb128 0x13
 2732 014e 02       		.uleb128 0x2
 2733 014f 17       		.uleb128 0x17
 2734 0150 00       		.byte	0
 2735 0151 00       		.byte	0
 2736 0152 1A       		.uleb128 0x1a
 2737 0153 34       		.uleb128 0x34
 2738 0154 00       		.byte	0
 2739 0155 03       		.uleb128 0x3
 2740 0156 0E       		.uleb128 0xe
 2741 0157 3A       		.uleb128 0x3a
 2742 0158 0B       		.uleb128 0xb
 2743 0159 3B       		.uleb128 0x3b
 2744 015a 05       		.uleb128 0x5
 2745 015b 49       		.uleb128 0x49
 2746 015c 13       		.uleb128 0x13
 2747 015d 02       		.uleb128 0x2
 2748 015e 17       		.uleb128 0x17
 2749 015f 00       		.byte	0
 2750 0160 00       		.byte	0
 2751 0161 1B       		.uleb128 0x1b
 2752 0162 2E       		.uleb128 0x2e
 2753 0163 01       		.byte	0x1
 2754 0164 3F       		.uleb128 0x3f
 2755 0165 19       		.uleb128 0x19
 2756 0166 03       		.uleb128 0x3
 2757 0167 0E       		.uleb128 0xe
 2758 0168 3A       		.uleb128 0x3a
 2759 0169 0B       		.uleb128 0xb
 2760 016a 3B       		.uleb128 0x3b
 2761 016b 05       		.uleb128 0x5
 2762 016c 27       		.uleb128 0x27
 2763 016d 19       		.uleb128 0x19
 2764 016e 49       		.uleb128 0x49
 2765 016f 13       		.uleb128 0x13
 2766 0170 11       		.uleb128 0x11
 2767 0171 01       		.uleb128 0x1
 2768 0172 12       		.uleb128 0x12
 2769 0173 06       		.uleb128 0x6
 2770 0174 40       		.uleb128 0x40
 2771 0175 18       		.uleb128 0x18
 2772 0176 9742     		.uleb128 0x2117
 2773 0178 19       		.uleb128 0x19
 2774 0179 01       		.uleb128 0x1
 2775 017a 13       		.uleb128 0x13
 2776 017b 00       		.byte	0
 2777 017c 00       		.byte	0
 2778 017d 1C       		.uleb128 0x1c
 2779 017e 2E       		.uleb128 0x2e
 2780 017f 00       		.byte	0
 2781 0180 3F       		.uleb128 0x3f
 2782 0181 19       		.uleb128 0x19
 2783 0182 03       		.uleb128 0x3
 2784 0183 0E       		.uleb128 0xe
 2785 0184 3A       		.uleb128 0x3a
 2786 0185 0B       		.uleb128 0xb
 2787 0186 3B       		.uleb128 0x3b
ARM GAS  C:\Users\Patrick\AppData\Local\Temp\cc4CvmVx.s 			page 94


 2788 0187 05       		.uleb128 0x5
 2789 0188 27       		.uleb128 0x27
 2790 0189 19       		.uleb128 0x19
 2791 018a 49       		.uleb128 0x49
 2792 018b 13       		.uleb128 0x13
 2793 018c 11       		.uleb128 0x11
 2794 018d 01       		.uleb128 0x1
 2795 018e 12       		.uleb128 0x12
 2796 018f 06       		.uleb128 0x6
 2797 0190 40       		.uleb128 0x40
 2798 0191 18       		.uleb128 0x18
 2799 0192 9742     		.uleb128 0x2117
 2800 0194 19       		.uleb128 0x19
 2801 0195 00       		.byte	0
 2802 0196 00       		.byte	0
 2803 0197 1D       		.uleb128 0x1d
 2804 0198 05       		.uleb128 0x5
 2805 0199 00       		.byte	0
 2806 019a 03       		.uleb128 0x3
 2807 019b 0E       		.uleb128 0xe
 2808 019c 3A       		.uleb128 0x3a
 2809 019d 0B       		.uleb128 0xb
 2810 019e 3B       		.uleb128 0x3b
 2811 019f 05       		.uleb128 0x5
 2812 01a0 49       		.uleb128 0x49
 2813 01a1 13       		.uleb128 0x13
 2814 01a2 02       		.uleb128 0x2
 2815 01a3 18       		.uleb128 0x18
 2816 01a4 00       		.byte	0
 2817 01a5 00       		.byte	0
 2818 01a6 1E       		.uleb128 0x1e
 2819 01a7 0B       		.uleb128 0xb
 2820 01a8 01       		.byte	0x1
 2821 01a9 55       		.uleb128 0x55
 2822 01aa 17       		.uleb128 0x17
 2823 01ab 00       		.byte	0
 2824 01ac 00       		.byte	0
 2825 01ad 1F       		.uleb128 0x1f
 2826 01ae 26       		.uleb128 0x26
 2827 01af 00       		.byte	0
 2828 01b0 49       		.uleb128 0x49
 2829 01b1 13       		.uleb128 0x13
 2830 01b2 00       		.byte	0
 2831 01b3 00       		.byte	0
 2832 01b4 20       		.uleb128 0x20
 2833 01b5 0B       		.uleb128 0xb
 2834 01b6 01       		.byte	0x1
 2835 01b7 11       		.uleb128 0x11
 2836 01b8 01       		.uleb128 0x1
 2837 01b9 12       		.uleb128 0x12
 2838 01ba 06       		.uleb128 0x6
 2839 01bb 01       		.uleb128 0x1
 2840 01bc 13       		.uleb128 0x13
 2841 01bd 00       		.byte	0
 2842 01be 00       		.byte	0
 2843 01bf 21       		.uleb128 0x21
 2844 01c0 2E       		.uleb128 0x2e
ARM GAS  C:\Users\Patrick\AppData\Local\Temp\cc4CvmVx.s 			page 95


 2845 01c1 00       		.byte	0
 2846 01c2 3F       		.uleb128 0x3f
 2847 01c3 19       		.uleb128 0x19
 2848 01c4 03       		.uleb128 0x3
 2849 01c5 0E       		.uleb128 0xe
 2850 01c6 3A       		.uleb128 0x3a
 2851 01c7 0B       		.uleb128 0xb
 2852 01c8 3B       		.uleb128 0x3b
 2853 01c9 05       		.uleb128 0x5
 2854 01ca 27       		.uleb128 0x27
 2855 01cb 19       		.uleb128 0x19
 2856 01cc 11       		.uleb128 0x11
 2857 01cd 01       		.uleb128 0x1
 2858 01ce 12       		.uleb128 0x12
 2859 01cf 06       		.uleb128 0x6
 2860 01d0 40       		.uleb128 0x40
 2861 01d1 18       		.uleb128 0x18
 2862 01d2 9742     		.uleb128 0x2117
 2863 01d4 19       		.uleb128 0x19
 2864 01d5 00       		.byte	0
 2865 01d6 00       		.byte	0
 2866 01d7 22       		.uleb128 0x22
 2867 01d8 34       		.uleb128 0x34
 2868 01d9 00       		.byte	0
 2869 01da 03       		.uleb128 0x3
 2870 01db 0E       		.uleb128 0xe
 2871 01dc 3A       		.uleb128 0x3a
 2872 01dd 0B       		.uleb128 0xb
 2873 01de 3B       		.uleb128 0x3b
 2874 01df 0B       		.uleb128 0xb
 2875 01e0 49       		.uleb128 0x49
 2876 01e1 13       		.uleb128 0x13
 2877 01e2 3F       		.uleb128 0x3f
 2878 01e3 19       		.uleb128 0x19
 2879 01e4 02       		.uleb128 0x2
 2880 01e5 18       		.uleb128 0x18
 2881 01e6 00       		.byte	0
 2882 01e7 00       		.byte	0
 2883 01e8 23       		.uleb128 0x23
 2884 01e9 34       		.uleb128 0x34
 2885 01ea 00       		.byte	0
 2886 01eb 03       		.uleb128 0x3
 2887 01ec 0E       		.uleb128 0xe
 2888 01ed 3A       		.uleb128 0x3a
 2889 01ee 0B       		.uleb128 0xb
 2890 01ef 3B       		.uleb128 0x3b
 2891 01f0 05       		.uleb128 0x5
 2892 01f1 49       		.uleb128 0x49
 2893 01f2 13       		.uleb128 0x13
 2894 01f3 3F       		.uleb128 0x3f
 2895 01f4 19       		.uleb128 0x19
 2896 01f5 3C       		.uleb128 0x3c
 2897 01f6 19       		.uleb128 0x19
 2898 01f7 00       		.byte	0
 2899 01f8 00       		.byte	0
 2900 01f9 24       		.uleb128 0x24
 2901 01fa 34       		.uleb128 0x34
ARM GAS  C:\Users\Patrick\AppData\Local\Temp\cc4CvmVx.s 			page 96


 2902 01fb 00       		.byte	0
 2903 01fc 03       		.uleb128 0x3
 2904 01fd 0E       		.uleb128 0xe
 2905 01fe 3A       		.uleb128 0x3a
 2906 01ff 0B       		.uleb128 0xb
 2907 0200 3B       		.uleb128 0x3b
 2908 0201 0B       		.uleb128 0xb
 2909 0202 49       		.uleb128 0x49
 2910 0203 13       		.uleb128 0x13
 2911 0204 3F       		.uleb128 0x3f
 2912 0205 19       		.uleb128 0x19
 2913 0206 3C       		.uleb128 0x3c
 2914 0207 19       		.uleb128 0x19
 2915 0208 00       		.byte	0
 2916 0209 00       		.byte	0
 2917 020a 25       		.uleb128 0x25
 2918 020b 2E       		.uleb128 0x2e
 2919 020c 00       		.byte	0
 2920 020d 3F       		.uleb128 0x3f
 2921 020e 19       		.uleb128 0x19
 2922 020f 03       		.uleb128 0x3
 2923 0210 0E       		.uleb128 0xe
 2924 0211 3A       		.uleb128 0x3a
 2925 0212 0B       		.uleb128 0xb
 2926 0213 3B       		.uleb128 0x3b
 2927 0214 0B       		.uleb128 0xb
 2928 0215 27       		.uleb128 0x27
 2929 0216 19       		.uleb128 0x19
 2930 0217 49       		.uleb128 0x49
 2931 0218 13       		.uleb128 0x13
 2932 0219 3C       		.uleb128 0x3c
 2933 021a 19       		.uleb128 0x19
 2934 021b 00       		.byte	0
 2935 021c 00       		.byte	0
 2936 021d 26       		.uleb128 0x26
 2937 021e 2E       		.uleb128 0x2e
 2938 021f 01       		.byte	0x1
 2939 0220 3F       		.uleb128 0x3f
 2940 0221 19       		.uleb128 0x19
 2941 0222 03       		.uleb128 0x3
 2942 0223 0E       		.uleb128 0xe
 2943 0224 3A       		.uleb128 0x3a
 2944 0225 0B       		.uleb128 0xb
 2945 0226 3B       		.uleb128 0x3b
 2946 0227 0B       		.uleb128 0xb
 2947 0228 27       		.uleb128 0x27
 2948 0229 19       		.uleb128 0x19
 2949 022a 3C       		.uleb128 0x3c
 2950 022b 19       		.uleb128 0x19
 2951 022c 01       		.uleb128 0x1
 2952 022d 13       		.uleb128 0x13
 2953 022e 00       		.byte	0
 2954 022f 00       		.byte	0
 2955 0230 27       		.uleb128 0x27
 2956 0231 05       		.uleb128 0x5
 2957 0232 00       		.byte	0
 2958 0233 49       		.uleb128 0x49
ARM GAS  C:\Users\Patrick\AppData\Local\Temp\cc4CvmVx.s 			page 97


 2959 0234 13       		.uleb128 0x13
 2960 0235 00       		.byte	0
 2961 0236 00       		.byte	0
 2962 0237 28       		.uleb128 0x28
 2963 0238 2E       		.uleb128 0x2e
 2964 0239 01       		.byte	0x1
 2965 023a 3F       		.uleb128 0x3f
 2966 023b 19       		.uleb128 0x19
 2967 023c 03       		.uleb128 0x3
 2968 023d 0E       		.uleb128 0xe
 2969 023e 3A       		.uleb128 0x3a
 2970 023f 0B       		.uleb128 0xb
 2971 0240 3B       		.uleb128 0x3b
 2972 0241 0B       		.uleb128 0xb
 2973 0242 27       		.uleb128 0x27
 2974 0243 19       		.uleb128 0x19
 2975 0244 49       		.uleb128 0x49
 2976 0245 13       		.uleb128 0x13
 2977 0246 3C       		.uleb128 0x3c
 2978 0247 19       		.uleb128 0x19
 2979 0248 01       		.uleb128 0x1
 2980 0249 13       		.uleb128 0x13
 2981 024a 00       		.byte	0
 2982 024b 00       		.byte	0
 2983 024c 29       		.uleb128 0x29
 2984 024d 2E       		.uleb128 0x2e
 2985 024e 01       		.byte	0x1
 2986 024f 3F       		.uleb128 0x3f
 2987 0250 19       		.uleb128 0x19
 2988 0251 03       		.uleb128 0x3
 2989 0252 0E       		.uleb128 0xe
 2990 0253 3A       		.uleb128 0x3a
 2991 0254 0B       		.uleb128 0xb
 2992 0255 3B       		.uleb128 0x3b
 2993 0256 0B       		.uleb128 0xb
 2994 0257 27       		.uleb128 0x27
 2995 0258 19       		.uleb128 0x19
 2996 0259 3C       		.uleb128 0x3c
 2997 025a 19       		.uleb128 0x19
 2998 025b 00       		.byte	0
 2999 025c 00       		.byte	0
 3000 025d 00       		.byte	0
 3001              		.section	.debug_loc,"",%progbits
 3002              	.Ldebug_loc0:
 3003              	.LLST0:
 3004 0000 08000000 		.4byte	.LVL1
 3005 0004 EA000000 		.4byte	.LVL17
 3006 0008 0100     		.2byte	0x1
 3007 000a 56       		.byte	0x56
 3008 000b 00000000 		.4byte	0
 3009 000f 00000000 		.4byte	0
 3010              	.LLST1:
 3011 0013 00000000 		.4byte	.LVL18
 3012 0017 84000000 		.4byte	.LVL24
 3013 001b 0100     		.2byte	0x1
 3014 001d 50       		.byte	0x50
 3015 001e 84000000 		.4byte	.LVL24
ARM GAS  C:\Users\Patrick\AppData\Local\Temp\cc4CvmVx.s 			page 98


 3016 0022 C4000000 		.4byte	.LFE2
 3017 0026 0400     		.2byte	0x4
 3018 0028 F3       		.byte	0xf3
 3019 0029 01       		.uleb128 0x1
 3020 002a 50       		.byte	0x50
 3021 002b 9F       		.byte	0x9f
 3022 002c 00000000 		.4byte	0
 3023 0030 00000000 		.4byte	0
 3024              	.LLST2:
 3025 0034 00000000 		.4byte	.LVL18
 3026 0038 87000000 		.4byte	.LVL25-1
 3027 003c 0100     		.2byte	0x1
 3028 003e 51       		.byte	0x51
 3029 003f 87000000 		.4byte	.LVL25-1
 3030 0043 C4000000 		.4byte	.LFE2
 3031 0047 0400     		.2byte	0x4
 3032 0049 F3       		.byte	0xf3
 3033 004a 01       		.uleb128 0x1
 3034 004b 51       		.byte	0x51
 3035 004c 9F       		.byte	0x9f
 3036 004d 00000000 		.4byte	0
 3037 0051 00000000 		.4byte	0
 3038              	.LLST3:
 3039 0055 02000000 		.4byte	.LVL19
 3040 0059 06000000 		.4byte	.LVL20
 3041 005d 0200     		.2byte	0x2
 3042 005f 30       		.byte	0x30
 3043 0060 9F       		.byte	0x9f
 3044 0061 06000000 		.4byte	.LVL20
 3045 0065 0E000000 		.4byte	.LVL21
 3046 0069 0100     		.2byte	0x1
 3047 006b 53       		.byte	0x53
 3048 006c 10000000 		.4byte	.LVL22
 3049 0070 16000000 		.4byte	.LVL23
 3050 0074 0100     		.2byte	0x1
 3051 0076 53       		.byte	0x53
 3052 0077 00000000 		.4byte	0
 3053 007b 00000000 		.4byte	0
 3054              	.LLST4:
 3055 007f 00000000 		.4byte	.LVL26
 3056 0083 0F000000 		.4byte	.LVL27-1
 3057 0087 0100     		.2byte	0x1
 3058 0089 50       		.byte	0x50
 3059 008a 0F000000 		.4byte	.LVL27-1
 3060 008e 24000000 		.4byte	.LFE0
 3061 0092 0400     		.2byte	0x4
 3062 0094 F3       		.byte	0xf3
 3063 0095 01       		.uleb128 0x1
 3064 0096 50       		.byte	0x50
 3065 0097 9F       		.byte	0x9f
 3066 0098 00000000 		.4byte	0
 3067 009c 00000000 		.4byte	0
 3068              	.LLST5:
 3069 00a0 00000000 		.4byte	.LVL26
 3070 00a4 0F000000 		.4byte	.LVL27-1
 3071 00a8 0100     		.2byte	0x1
 3072 00aa 51       		.byte	0x51
ARM GAS  C:\Users\Patrick\AppData\Local\Temp\cc4CvmVx.s 			page 99


 3073 00ab 0F000000 		.4byte	.LVL27-1
 3074 00af 24000000 		.4byte	.LFE0
 3075 00b3 0400     		.2byte	0x4
 3076 00b5 F3       		.byte	0xf3
 3077 00b6 01       		.uleb128 0x1
 3078 00b7 51       		.byte	0x51
 3079 00b8 9F       		.byte	0x9f
 3080 00b9 00000000 		.4byte	0
 3081 00bd 00000000 		.4byte	0
 3082              	.LLST6:
 3083 00c1 00000000 		.4byte	.LVL29
 3084 00c5 04000000 		.4byte	.LVL30
 3085 00c9 0200     		.2byte	0x2
 3086 00cb 30       		.byte	0x30
 3087 00cc 9F       		.byte	0x9f
 3088 00cd 04000000 		.4byte	.LVL30
 3089 00d1 0C000000 		.4byte	.LVL31
 3090 00d5 0100     		.2byte	0x1
 3091 00d7 53       		.byte	0x53
 3092 00d8 0E000000 		.4byte	.LVL32
 3093 00dc 14000000 		.4byte	.LVL33
 3094 00e0 0100     		.2byte	0x1
 3095 00e2 53       		.byte	0x53
 3096 00e3 00000000 		.4byte	0
 3097 00e7 00000000 		.4byte	0
 3098              	.LLST7:
 3099 00eb 06000000 		.4byte	.LVL34
 3100 00ef 35000000 		.4byte	.LVL35-1
 3101 00f3 0100     		.2byte	0x1
 3102 00f5 50       		.byte	0x50
 3103 00f6 00000000 		.4byte	0
 3104 00fa 00000000 		.4byte	0
 3105              	.LLST8:
 3106 00fe 06000000 		.4byte	.LVL36
 3107 0102 10000000 		.4byte	.LVL37
 3108 0106 0100     		.2byte	0x1
 3109 0108 53       		.byte	0x53
 3110 0109 00000000 		.4byte	0
 3111 010d 00000000 		.4byte	0
 3112              	.LLST9:
 3113 0111 00000000 		.4byte	.LVL38
 3114 0115 10000000 		.4byte	.LVL39
 3115 0119 0200     		.2byte	0x2
 3116 011b 30       		.byte	0x30
 3117 011c 9F       		.byte	0x9f
 3118 011d 10000000 		.4byte	.LVL39
 3119 0121 16000000 		.4byte	.LVL40
 3120 0125 0100     		.2byte	0x1
 3121 0127 50       		.byte	0x50
 3122 0128 16000000 		.4byte	.LVL40
 3123 012c 18000000 		.4byte	.LVL41
 3124 0130 0200     		.2byte	0x2
 3125 0132 30       		.byte	0x30
 3126 0133 9F       		.byte	0x9f
 3127 0134 18000000 		.4byte	.LVL41
 3128 0138 20000000 		.4byte	.LFE7
 3129 013c 0100     		.2byte	0x1
ARM GAS  C:\Users\Patrick\AppData\Local\Temp\cc4CvmVx.s 			page 100


 3130 013e 50       		.byte	0x50
 3131 013f 00000000 		.4byte	0
 3132 0143 00000000 		.4byte	0
 3133              	.LLST10:
 3134 0147 00000000 		.4byte	.LVL42
 3135 014b 04000000 		.4byte	.LVL43
 3136 014f 0100     		.2byte	0x1
 3137 0151 50       		.byte	0x50
 3138 0152 04000000 		.4byte	.LVL43
 3139 0156 0C000000 		.4byte	.LFE8
 3140 015a 0400     		.2byte	0x4
 3141 015c F3       		.byte	0xf3
 3142 015d 01       		.uleb128 0x1
 3143 015e 50       		.byte	0x50
 3144 015f 9F       		.byte	0x9f
 3145 0160 00000000 		.4byte	0
 3146 0164 00000000 		.4byte	0
 3147              	.LLST11:
 3148 0168 00000000 		.4byte	.LVL44
 3149 016c 04000000 		.4byte	.LVL45
 3150 0170 0100     		.2byte	0x1
 3151 0172 50       		.byte	0x50
 3152 0173 04000000 		.4byte	.LVL45
 3153 0177 14000000 		.4byte	.LFE9
 3154 017b 0400     		.2byte	0x4
 3155 017d F3       		.byte	0xf3
 3156 017e 01       		.uleb128 0x1
 3157 017f 50       		.byte	0x50
 3158 0180 9F       		.byte	0x9f
 3159 0181 00000000 		.4byte	0
 3160 0185 00000000 		.4byte	0
 3161              	.LLST12:
 3162 0189 00000000 		.4byte	.LVL46
 3163 018d 0C000000 		.4byte	.LVL47
 3164 0191 0100     		.2byte	0x1
 3165 0193 50       		.byte	0x50
 3166 0194 0C000000 		.4byte	.LVL47
 3167 0198 20000000 		.4byte	.LVL52
 3168 019c 0400     		.2byte	0x4
 3169 019e F3       		.byte	0xf3
 3170 019f 01       		.uleb128 0x1
 3171 01a0 50       		.byte	0x50
 3172 01a1 9F       		.byte	0x9f
 3173 01a2 20000000 		.4byte	.LVL52
 3174 01a6 22000000 		.4byte	.LVL53
 3175 01aa 0100     		.2byte	0x1
 3176 01ac 50       		.byte	0x50
 3177 01ad 22000000 		.4byte	.LVL53
 3178 01b1 28000000 		.4byte	.LFE10
 3179 01b5 0400     		.2byte	0x4
 3180 01b7 F3       		.byte	0xf3
 3181 01b8 01       		.uleb128 0x1
 3182 01b9 50       		.byte	0x50
 3183 01ba 9F       		.byte	0x9f
 3184 01bb 00000000 		.4byte	0
 3185 01bf 00000000 		.4byte	0
 3186              	.LLST13:
ARM GAS  C:\Users\Patrick\AppData\Local\Temp\cc4CvmVx.s 			page 101


 3187 01c3 00000000 		.4byte	.LVL46
 3188 01c7 14000000 		.4byte	.LVL48
 3189 01cb 0200     		.2byte	0x2
 3190 01cd 30       		.byte	0x30
 3191 01ce 9F       		.byte	0x9f
 3192 01cf 14000000 		.4byte	.LVL48
 3193 01d3 1C000000 		.4byte	.LVL50
 3194 01d7 0100     		.2byte	0x1
 3195 01d9 50       		.byte	0x50
 3196 01da 1C000000 		.4byte	.LVL50
 3197 01de 1E000000 		.4byte	.LVL51
 3198 01e2 0300     		.2byte	0x3
 3199 01e4 70       		.byte	0x70
 3200 01e5 02       		.sleb128 2
 3201 01e6 9F       		.byte	0x9f
 3202 01e7 1E000000 		.4byte	.LVL51
 3203 01eb 20000000 		.4byte	.LVL52
 3204 01ef 0100     		.2byte	0x1
 3205 01f1 50       		.byte	0x50
 3206 01f2 20000000 		.4byte	.LVL52
 3207 01f6 22000000 		.4byte	.LVL53
 3208 01fa 0200     		.2byte	0x2
 3209 01fc 30       		.byte	0x30
 3210 01fd 9F       		.byte	0x9f
 3211 01fe 22000000 		.4byte	.LVL53
 3212 0202 28000000 		.4byte	.LFE10
 3213 0206 0100     		.2byte	0x1
 3214 0208 50       		.byte	0x50
 3215 0209 00000000 		.4byte	0
 3216 020d 00000000 		.4byte	0
 3217              	.LLST14:
 3218 0211 00000000 		.4byte	.LVL54
 3219 0215 7A000000 		.4byte	.LVL64
 3220 0219 0100     		.2byte	0x1
 3221 021b 50       		.byte	0x50
 3222 021c 7A000000 		.4byte	.LVL64
 3223 0220 94000000 		.4byte	.LFE11
 3224 0224 0400     		.2byte	0x4
 3225 0226 F3       		.byte	0xf3
 3226 0227 01       		.uleb128 0x1
 3227 0228 50       		.byte	0x50
 3228 0229 9F       		.byte	0x9f
 3229 022a 00000000 		.4byte	0
 3230 022e 00000000 		.4byte	0
 3231              	.LLST15:
 3232 0232 00000000 		.4byte	.LVL54
 3233 0236 2C000000 		.4byte	.LVL55
 3234 023a 0100     		.2byte	0x1
 3235 023c 52       		.byte	0x52
 3236 023d 2C000000 		.4byte	.LVL55
 3237 0241 32000000 		.4byte	.LVL56
 3238 0245 0400     		.2byte	0x4
 3239 0247 F3       		.byte	0xf3
 3240 0248 01       		.uleb128 0x1
 3241 0249 52       		.byte	0x52
 3242 024a 9F       		.byte	0x9f
 3243 024b 32000000 		.4byte	.LVL56
ARM GAS  C:\Users\Patrick\AppData\Local\Temp\cc4CvmVx.s 			page 102


 3244 024f 6E000000 		.4byte	.LVL63
 3245 0253 0100     		.2byte	0x1
 3246 0255 52       		.byte	0x52
 3247 0256 00000000 		.4byte	0
 3248 025a 00000000 		.4byte	0
 3249              	.LLST16:
 3250 025e 52000000 		.4byte	.LVL57
 3251 0262 5C000000 		.4byte	.LVL58
 3252 0266 0100     		.2byte	0x1
 3253 0268 53       		.byte	0x53
 3254 0269 5E000000 		.4byte	.LVL59
 3255 026d 60000000 		.4byte	.LVL60
 3256 0271 0100     		.2byte	0x1
 3257 0273 53       		.byte	0x53
 3258 0274 62000000 		.4byte	.LVL61
 3259 0278 66000000 		.4byte	.LVL62
 3260 027c 0100     		.2byte	0x1
 3261 027e 53       		.byte	0x53
 3262 027f 00000000 		.4byte	0
 3263 0283 00000000 		.4byte	0
 3264              	.LLST17:
 3265 0287 00000000 		.4byte	.LVL65
 3266 028b 1C000000 		.4byte	.LVL66
 3267 028f 0100     		.2byte	0x1
 3268 0291 50       		.byte	0x50
 3269 0292 1C000000 		.4byte	.LVL66
 3270 0296 2C000000 		.4byte	.LFE13
 3271 029a 0400     		.2byte	0x4
 3272 029c F3       		.byte	0xf3
 3273 029d 01       		.uleb128 0x1
 3274 029e 50       		.byte	0x50
 3275 029f 9F       		.byte	0x9f
 3276 02a0 00000000 		.4byte	0
 3277 02a4 00000000 		.4byte	0
 3278              	.LLST18:
 3279 02a8 00000000 		.4byte	.LVL67
 3280 02ac 13000000 		.4byte	.LVL68-1
 3281 02b0 0100     		.2byte	0x1
 3282 02b2 50       		.byte	0x50
 3283 02b3 13000000 		.4byte	.LVL68-1
 3284 02b7 3C000000 		.4byte	.LVL75
 3285 02bb 0400     		.2byte	0x4
 3286 02bd F3       		.byte	0xf3
 3287 02be 01       		.uleb128 0x1
 3288 02bf 50       		.byte	0x50
 3289 02c0 9F       		.byte	0x9f
 3290 02c1 3C000000 		.4byte	.LVL75
 3291 02c5 46000000 		.4byte	.LVL76
 3292 02c9 0100     		.2byte	0x1
 3293 02cb 50       		.byte	0x50
 3294 02cc 46000000 		.4byte	.LVL76
 3295 02d0 50000000 		.4byte	.LFE12
 3296 02d4 0400     		.2byte	0x4
 3297 02d6 F3       		.byte	0xf3
 3298 02d7 01       		.uleb128 0x1
 3299 02d8 50       		.byte	0x50
 3300 02d9 9F       		.byte	0x9f
ARM GAS  C:\Users\Patrick\AppData\Local\Temp\cc4CvmVx.s 			page 103


 3301 02da 00000000 		.4byte	0
 3302 02de 00000000 		.4byte	0
 3303              	.LLST19:
 3304 02e2 00000000 		.4byte	.LVL67
 3305 02e6 13000000 		.4byte	.LVL68-1
 3306 02ea 0100     		.2byte	0x1
 3307 02ec 51       		.byte	0x51
 3308 02ed 13000000 		.4byte	.LVL68-1
 3309 02f1 3C000000 		.4byte	.LVL75
 3310 02f5 0100     		.2byte	0x1
 3311 02f7 56       		.byte	0x56
 3312 02f8 3C000000 		.4byte	.LVL75
 3313 02fc 46000000 		.4byte	.LVL76
 3314 0300 0100     		.2byte	0x1
 3315 0302 51       		.byte	0x51
 3316 0303 46000000 		.4byte	.LVL76
 3317 0307 50000000 		.4byte	.LFE12
 3318 030b 0400     		.2byte	0x4
 3319 030d F3       		.byte	0xf3
 3320 030e 01       		.uleb128 0x1
 3321 030f 51       		.byte	0x51
 3322 0310 9F       		.byte	0x9f
 3323 0311 00000000 		.4byte	0
 3324 0315 00000000 		.4byte	0
 3325              	.LLST20:
 3326 0319 00000000 		.4byte	.LVL67
 3327 031d 13000000 		.4byte	.LVL68-1
 3328 0321 0100     		.2byte	0x1
 3329 0323 52       		.byte	0x52
 3330 0324 13000000 		.4byte	.LVL68-1
 3331 0328 20000000 		.4byte	.LVL70
 3332 032c 0400     		.2byte	0x4
 3333 032e F3       		.byte	0xf3
 3334 032f 01       		.uleb128 0x1
 3335 0330 52       		.byte	0x52
 3336 0331 9F       		.byte	0x9f
 3337 0332 20000000 		.4byte	.LVL70
 3338 0336 3C000000 		.4byte	.LVL75
 3339 033a 0100     		.2byte	0x1
 3340 033c 54       		.byte	0x54
 3341 033d 3C000000 		.4byte	.LVL75
 3342 0341 46000000 		.4byte	.LVL76
 3343 0345 0100     		.2byte	0x1
 3344 0347 52       		.byte	0x52
 3345 0348 46000000 		.4byte	.LVL76
 3346 034c 4A000000 		.4byte	.LVL77
 3347 0350 0100     		.2byte	0x1
 3348 0352 54       		.byte	0x54
 3349 0353 00000000 		.4byte	0
 3350 0357 00000000 		.4byte	0
 3351              	.LLST21:
 3352 035b 20000000 		.4byte	.LVL70
 3353 035f 24000000 		.4byte	.LVL71
 3354 0363 0200     		.2byte	0x2
 3355 0365 30       		.byte	0x30
 3356 0366 9F       		.byte	0x9f
 3357 0367 24000000 		.4byte	.LVL71
ARM GAS  C:\Users\Patrick\AppData\Local\Temp\cc4CvmVx.s 			page 104


 3358 036b 2E000000 		.4byte	.LVL72
 3359 036f 0100     		.2byte	0x1
 3360 0371 53       		.byte	0x53
 3361 0372 30000000 		.4byte	.LVL73
 3362 0376 39000000 		.4byte	.LVL74-1
 3363 037a 0100     		.2byte	0x1
 3364 037c 53       		.byte	0x53
 3365 037d 00000000 		.4byte	0
 3366 0381 00000000 		.4byte	0
 3367              	.LLST22:
 3368 0385 00000000 		.4byte	.LVL78
 3369 0389 0A000000 		.4byte	.LVL79
 3370 038d 0100     		.2byte	0x1
 3371 038f 50       		.byte	0x50
 3372 0390 0A000000 		.4byte	.LVL79
 3373 0394 18000000 		.4byte	.LFE14
 3374 0398 0400     		.2byte	0x4
 3375 039a F3       		.byte	0xf3
 3376 039b 01       		.uleb128 0x1
 3377 039c 50       		.byte	0x50
 3378 039d 9F       		.byte	0x9f
 3379 039e 00000000 		.4byte	0
 3380 03a2 00000000 		.4byte	0
 3381              	.LLST23:
 3382 03a6 00000000 		.4byte	.LVL81
 3383 03aa 0A000000 		.4byte	.LVL82
 3384 03ae 0100     		.2byte	0x1
 3385 03b0 50       		.byte	0x50
 3386 03b1 0A000000 		.4byte	.LVL82
 3387 03b5 16000000 		.4byte	.LVL84
 3388 03b9 0400     		.2byte	0x4
 3389 03bb F3       		.byte	0xf3
 3390 03bc 01       		.uleb128 0x1
 3391 03bd 50       		.byte	0x50
 3392 03be 9F       		.byte	0x9f
 3393 03bf 16000000 		.4byte	.LVL84
 3394 03c3 18000000 		.4byte	.LVL85
 3395 03c7 0100     		.2byte	0x1
 3396 03c9 50       		.byte	0x50
 3397 03ca 18000000 		.4byte	.LVL85
 3398 03ce 20000000 		.4byte	.LFE16
 3399 03d2 0400     		.2byte	0x4
 3400 03d4 F3       		.byte	0xf3
 3401 03d5 01       		.uleb128 0x1
 3402 03d6 50       		.byte	0x50
 3403 03d7 9F       		.byte	0x9f
 3404 03d8 00000000 		.4byte	0
 3405 03dc 00000000 		.4byte	0
 3406              	.LLST24:
 3407 03e0 00000000 		.4byte	.LVL81
 3408 03e4 14000000 		.4byte	.LVL83
 3409 03e8 0200     		.2byte	0x2
 3410 03ea 30       		.byte	0x30
 3411 03eb 9F       		.byte	0x9f
 3412 03ec 14000000 		.4byte	.LVL83
 3413 03f0 16000000 		.4byte	.LVL84
 3414 03f4 0100     		.2byte	0x1
ARM GAS  C:\Users\Patrick\AppData\Local\Temp\cc4CvmVx.s 			page 105


 3415 03f6 50       		.byte	0x50
 3416 03f7 16000000 		.4byte	.LVL84
 3417 03fb 18000000 		.4byte	.LVL85
 3418 03ff 0200     		.2byte	0x2
 3419 0401 30       		.byte	0x30
 3420 0402 9F       		.byte	0x9f
 3421 0403 18000000 		.4byte	.LVL85
 3422 0407 20000000 		.4byte	.LFE16
 3423 040b 0100     		.2byte	0x1
 3424 040d 50       		.byte	0x50
 3425 040e 00000000 		.4byte	0
 3426 0412 00000000 		.4byte	0
 3427              	.LLST25:
 3428 0416 00000000 		.4byte	.LVL87
 3429 041a 10000000 		.4byte	.LVL88
 3430 041e 0200     		.2byte	0x2
 3431 0420 30       		.byte	0x30
 3432 0421 9F       		.byte	0x9f
 3433 0422 10000000 		.4byte	.LVL88
 3434 0426 18000000 		.4byte	.LFE18
 3435 042a 0100     		.2byte	0x1
 3436 042c 50       		.byte	0x50
 3437 042d 00000000 		.4byte	0
 3438 0431 00000000 		.4byte	0
 3439              		.section	.debug_aranges,"",%progbits
 3440 0000 C4000000 		.4byte	0xc4
 3441 0004 0200     		.2byte	0x2
 3442 0006 00000000 		.4byte	.Ldebug_info0
 3443 000a 04       		.byte	0x4
 3444 000b 00       		.byte	0
 3445 000c 0000     		.2byte	0
 3446 000e 0000     		.2byte	0
 3447 0010 00000000 		.4byte	.LFB1
 3448 0014 18010000 		.4byte	.LFE1-.LFB1
 3449 0018 00000000 		.4byte	.LFB2
 3450 001c C4000000 		.4byte	.LFE2-.LFB2
 3451 0020 00000000 		.4byte	.LFB0
 3452 0024 24000000 		.4byte	.LFE0-.LFB0
 3453 0028 00000000 		.4byte	.LFB3
 3454 002c 64000000 		.4byte	.LFE3-.LFB3
 3455 0030 00000000 		.4byte	.LFB4
 3456 0034 88000000 		.4byte	.LFE4-.LFB4
 3457 0038 00000000 		.4byte	.LFB5
 3458 003c 20000000 		.4byte	.LFE5-.LFB5
 3459 0040 00000000 		.4byte	.LFB6
 3460 0044 0C000000 		.4byte	.LFE6-.LFB6
 3461 0048 00000000 		.4byte	.LFB7
 3462 004c 20000000 		.4byte	.LFE7-.LFB7
 3463 0050 00000000 		.4byte	.LFB8
 3464 0054 0C000000 		.4byte	.LFE8-.LFB8
 3465 0058 00000000 		.4byte	.LFB9
 3466 005c 14000000 		.4byte	.LFE9-.LFB9
 3467 0060 00000000 		.4byte	.LFB10
 3468 0064 28000000 		.4byte	.LFE10-.LFB10
 3469 0068 00000000 		.4byte	.LFB11
 3470 006c 94000000 		.4byte	.LFE11-.LFB11
 3471 0070 00000000 		.4byte	.LFB13
ARM GAS  C:\Users\Patrick\AppData\Local\Temp\cc4CvmVx.s 			page 106


 3472 0074 2C000000 		.4byte	.LFE13-.LFB13
 3473 0078 00000000 		.4byte	.LFB12
 3474 007c 50000000 		.4byte	.LFE12-.LFB12
 3475 0080 00000000 		.4byte	.LFB14
 3476 0084 18000000 		.4byte	.LFE14-.LFB14
 3477 0088 00000000 		.4byte	.LFB15
 3478 008c 0C000000 		.4byte	.LFE15-.LFB15
 3479 0090 00000000 		.4byte	.LFB16
 3480 0094 20000000 		.4byte	.LFE16-.LFB16
 3481 0098 00000000 		.4byte	.LFB17
 3482 009c 20000000 		.4byte	.LFE17-.LFB17
 3483 00a0 00000000 		.4byte	.LFB18
 3484 00a4 18000000 		.4byte	.LFE18-.LFB18
 3485 00a8 00000000 		.4byte	.LFB19
 3486 00ac 10000000 		.4byte	.LFE19-.LFB19
 3487 00b0 00000000 		.4byte	.LFB20
 3488 00b4 02000000 		.4byte	.LFE20-.LFB20
 3489 00b8 00000000 		.4byte	.LFB21
 3490 00bc 02000000 		.4byte	.LFE21-.LFB21
 3491 00c0 00000000 		.4byte	0
 3492 00c4 00000000 		.4byte	0
 3493              		.section	.debug_ranges,"",%progbits
 3494              	.Ldebug_ranges0:
 3495 0000 50000000 		.4byte	.LBB2
 3496 0004 60000000 		.4byte	.LBE2
 3497 0008 62000000 		.4byte	.LBB3
 3498 000c 66000000 		.4byte	.LBE3
 3499 0010 00000000 		.4byte	0
 3500 0014 00000000 		.4byte	0
 3501 0018 00000000 		.4byte	.LFB1
 3502 001c 18010000 		.4byte	.LFE1
 3503 0020 00000000 		.4byte	.LFB2
 3504 0024 C4000000 		.4byte	.LFE2
 3505 0028 00000000 		.4byte	.LFB0
 3506 002c 24000000 		.4byte	.LFE0
 3507 0030 00000000 		.4byte	.LFB3
 3508 0034 64000000 		.4byte	.LFE3
 3509 0038 00000000 		.4byte	.LFB4
 3510 003c 88000000 		.4byte	.LFE4
 3511 0040 00000000 		.4byte	.LFB5
 3512 0044 20000000 		.4byte	.LFE5
 3513 0048 00000000 		.4byte	.LFB6
 3514 004c 0C000000 		.4byte	.LFE6
 3515 0050 00000000 		.4byte	.LFB7
 3516 0054 20000000 		.4byte	.LFE7
 3517 0058 00000000 		.4byte	.LFB8
 3518 005c 0C000000 		.4byte	.LFE8
 3519 0060 00000000 		.4byte	.LFB9
 3520 0064 14000000 		.4byte	.LFE9
 3521 0068 00000000 		.4byte	.LFB10
 3522 006c 28000000 		.4byte	.LFE10
 3523 0070 00000000 		.4byte	.LFB11
 3524 0074 94000000 		.4byte	.LFE11
 3525 0078 00000000 		.4byte	.LFB13
 3526 007c 2C000000 		.4byte	.LFE13
 3527 0080 00000000 		.4byte	.LFB12
 3528 0084 50000000 		.4byte	.LFE12
ARM GAS  C:\Users\Patrick\AppData\Local\Temp\cc4CvmVx.s 			page 107


 3529 0088 00000000 		.4byte	.LFB14
 3530 008c 18000000 		.4byte	.LFE14
 3531 0090 00000000 		.4byte	.LFB15
 3532 0094 0C000000 		.4byte	.LFE15
 3533 0098 00000000 		.4byte	.LFB16
 3534 009c 20000000 		.4byte	.LFE16
 3535 00a0 00000000 		.4byte	.LFB17
 3536 00a4 20000000 		.4byte	.LFE17
 3537 00a8 00000000 		.4byte	.LFB18
 3538 00ac 18000000 		.4byte	.LFE18
 3539 00b0 00000000 		.4byte	.LFB19
 3540 00b4 10000000 		.4byte	.LFE19
 3541 00b8 00000000 		.4byte	.LFB20
 3542 00bc 02000000 		.4byte	.LFE20
 3543 00c0 00000000 		.4byte	.LFB21
 3544 00c4 02000000 		.4byte	.LFE21
 3545 00c8 00000000 		.4byte	0
 3546 00cc 00000000 		.4byte	0
 3547              		.section	.debug_line,"",%progbits
 3548              	.Ldebug_line0:
 3549 0000 D8020000 		.section	.debug_str,"MS",%progbits,1
 3549      02006900 
 3549      00000201 
 3549      FB0E0D00 
 3549      01010101 
 3550              	.LASF10:
 3551 0000 75696E74 		.ascii	"uint16\000"
 3551      313600
 3552              	.LASF94:
 3553 0007 43794578 		.ascii	"CyExitCriticalSection\000"
 3553      69744372 
 3553      69746963 
 3553      616C5365 
 3553      6374696F 
 3554              	.LASF81:
 3555 001d 55534246 		.ascii	"USBFS_initVar\000"
 3555      535F696E 
 3555      69745661 
 3555      7200
 3556              	.LASF87:
 3557 002b 55534246 		.ascii	"USBFS_hidProtocol\000"
 3557      535F6869 
 3557      6450726F 
 3557      746F636F 
 3557      6C00
 3558              	.LASF70:
 3559 003d 55534246 		.ascii	"USBFS_Force\000"
 3559      535F466F 
 3559      72636500 
 3560              	.LASF7:
 3561 0049 6C6F6E67 		.ascii	"long long unsigned int\000"
 3561      206C6F6E 
 3561      6720756E 
 3561      7369676E 
 3561      65642069 
 3562              	.LASF72:
 3563 0060 55534246 		.ascii	"USBFS_GetEPAckState\000"
ARM GAS  C:\Users\Patrick\AppData\Local\Temp\cc4CvmVx.s 			page 108


 3563      535F4765 
 3563      74455041 
 3563      636B5374 
 3563      61746500 
 3564              	.LASF23:
 3565 0074 61646472 		.ascii	"addr\000"
 3565      00
 3566              	.LASF33:
 3567 0079 65704366 		.ascii	"epCfg\000"
 3567      6700
 3568              	.LASF44:
 3569 007f 55534246 		.ascii	"USBFS_sie_eps_struct\000"
 3569      535F7369 
 3569      655F6570 
 3569      735F7374 
 3569      72756374 
 3570              	.LASF46:
 3571 0094 55534246 		.ascii	"USBFS_arb_eps_struct\000"
 3571      535F6172 
 3571      625F6570 
 3571      735F7374 
 3571      72756374 
 3572              	.LASF61:
 3573 00a9 65704E75 		.ascii	"epNumber\000"
 3573      6D626572 
 3573      00
 3574              	.LASF49:
 3575 00b2 64657669 		.ascii	"device\000"
 3575      636500
 3576              	.LASF6:
 3577 00b9 6C6F6E67 		.ascii	"long long int\000"
 3577      206C6F6E 
 3577      6720696E 
 3577      7400
 3578              	.LASF0:
 3579 00c7 7369676E 		.ascii	"signed char\000"
 3579      65642063 
 3579      68617200 
 3580              	.LASF97:
 3581 00d3 2E5C4765 		.ascii	".\\Generated_Source\\PSoC5\\USBFS.c\000"
 3581      6E657261 
 3581      7465645F 
 3581      536F7572 
 3581      63655C50 
 3582              	.LASF57:
 3583 00f4 55534246 		.ascii	"USBFS_IsConfigurationChanged\000"
 3583      535F4973 
 3583      436F6E66 
 3583      69677572 
 3583      6174696F 
 3584              	.LASF90:
 3585 0111 55534246 		.ascii	"USBFS_deviceAddress\000"
 3585      535F6465 
 3585      76696365 
 3585      41646472 
 3585      65737300 
 3586              	.LASF88:
ARM GAS  C:\Users\Patrick\AppData\Local\Temp\cc4CvmVx.s 			page 109


 3587 0125 55534246 		.ascii	"USBFS_interfaceNumber\000"
 3587      535F696E 
 3587      74657266 
 3587      6163654E 
 3587      756D6265 
 3588              	.LASF75:
 3589 013b 55534246 		.ascii	"USBFS_RWUEnabled\000"
 3589      535F5257 
 3589      55456E61 
 3589      626C6564 
 3589      00
 3590              	.LASF42:
 3591 014c 55534246 		.ascii	"USBFS_arb_ep_struct\000"
 3591      535F6172 
 3591      625F6570 
 3591      5F737472 
 3591      75637400 
 3592              	.LASF63:
 3593 0160 636E7472 		.ascii	"cntr\000"
 3593      00
 3594              	.LASF54:
 3595 0165 55534246 		.ascii	"USBFS_Stop\000"
 3595      535F5374 
 3595      6F7000
 3596              	.LASF4:
 3597 0170 6C6F6E67 		.ascii	"long int\000"
 3597      20696E74 
 3597      00
 3598              	.LASF77:
 3599 0179 55534246 		.ascii	"USBFS_GetConfiguration\000"
 3599      535F4765 
 3599      74436F6E 
 3599      66696775 
 3599      72617469 
 3600              	.LASF9:
 3601 0190 75696E74 		.ascii	"uint8\000"
 3601      3800
 3602              	.LASF22:
 3603 0196 6570546F 		.ascii	"epToggle\000"
 3603      67676C65 
 3603      00
 3604              	.LASF37:
 3605 019f 72775761 		.ascii	"rwWa\000"
 3605      00
 3606              	.LASF93:
 3607 01a4 43794465 		.ascii	"CyDelayUs\000"
 3607      6C617955 
 3607      7300
 3608              	.LASF13:
 3609 01ae 646F7562 		.ascii	"double\000"
 3609      6C6500
 3610              	.LASF74:
 3611 01b5 706F7765 		.ascii	"powerStatus\000"
 3611      72537461 
 3611      74757300 
 3612              	.LASF35:
 3613 01c1 65705372 		.ascii	"epSr\000"
ARM GAS  C:\Users\Patrick\AppData\Local\Temp\cc4CvmVx.s 			page 110


 3613      00
 3614              	.LASF11:
 3615 01c6 75696E74 		.ascii	"uint32\000"
 3615      333200
 3616              	.LASF48:
 3617 01cd 55534246 		.ascii	"USBFS_InitComponent\000"
 3617      535F496E 
 3617      6974436F 
 3617      6D706F6E 
 3617      656E7400 
 3618              	.LASF65:
 3619 01e1 70446174 		.ascii	"pData\000"
 3619      6100
 3620              	.LASF84:
 3621 01e7 55534246 		.ascii	"USBFS_configuration\000"
 3621      535F636F 
 3621      6E666967 
 3621      75726174 
 3621      696F6E00 
 3622              	.LASF24:
 3623 01fb 65704D6F 		.ascii	"epMode\000"
 3623      646500
 3624              	.LASF36:
 3625 0202 72657365 		.ascii	"reserved\000"
 3625      72766564 
 3625      00
 3626              	.LASF68:
 3627 020b 55534246 		.ascii	"USBFS_ReadOutEP\000"
 3627      535F5265 
 3627      61644F75 
 3627      74455000 
 3628              	.LASF8:
 3629 021b 756E7369 		.ascii	"unsigned int\000"
 3629      676E6564 
 3629      20696E74 
 3629      00
 3630              	.LASF5:
 3631 0228 6C6F6E67 		.ascii	"long unsigned int\000"
 3631      20756E73 
 3631      69676E65 
 3631      6420696E 
 3631      7400
 3632              	.LASF99:
 3633 023a 4379456E 		.ascii	"CyEnterCriticalSection\000"
 3633      74657243 
 3633      72697469 
 3633      63616C53 
 3633      65637469 
 3634              	.LASF78:
 3635 0251 55534246 		.ascii	"USBFS_GetDeviceAddress\000"
 3635      535F4765 
 3635      74446576 
 3635      69636541 
 3635      64647265 
 3636              	.LASF3:
 3637 0268 73686F72 		.ascii	"short unsigned int\000"
 3637      7420756E 
ARM GAS  C:\Users\Patrick\AppData\Local\Temp\cc4CvmVx.s 			page 111


 3637      7369676E 
 3637      65642069 
 3637      6E7400
 3638              	.LASF100:
 3639 027b 4379496E 		.ascii	"CyIntSetVector\000"
 3639      74536574 
 3639      56656374 
 3639      6F7200
 3640              	.LASF32:
 3641 028a 55534246 		.ascii	"USBFS_sie_ep_struct\000"
 3641      535F7369 
 3641      655F6570 
 3641      5F737472 
 3641      75637400 
 3642              	.LASF45:
 3643 029e 61726245 		.ascii	"arbEp\000"
 3643      7000
 3644              	.LASF27:
 3645 02a4 696E7465 		.ascii	"interface\000"
 3645      72666163 
 3645      6500
 3646              	.LASF55:
 3647 02ae 63723152 		.ascii	"cr1Reg\000"
 3647      656700
 3648              	.LASF85:
 3649 02b5 55534246 		.ascii	"USBFS_configurationChanged\000"
 3649      535F636F 
 3649      6E666967 
 3649      75726174 
 3649      696F6E43 
 3650              	.LASF16:
 3651 02d0 72656733 		.ascii	"reg32\000"
 3651      3200
 3652              	.LASF79:
 3653 02d6 55534246 		.ascii	"USBFS_EnableSofInt\000"
 3653      535F456E 
 3653      61626C65 
 3653      536F6649 
 3653      6E7400
 3654              	.LASF21:
 3655 02e9 68774570 		.ascii	"hwEpState\000"
 3655      53746174 
 3655      6500
 3656              	.LASF73:
 3657 02f3 55534246 		.ascii	"USBFS_SetPowerStatus\000"
 3657      535F5365 
 3657      74506F77 
 3657      65725374 
 3657      61747573 
 3658              	.LASF18:
 3659 0308 73697A65 		.ascii	"sizetype\000"
 3659      74797065 
 3659      00
 3660              	.LASF43:
 3661 0311 73696545 		.ascii	"sieEp\000"
 3661      7000
 3662              	.LASF19:
ARM GAS  C:\Users\Patrick\AppData\Local\Temp\cc4CvmVx.s 			page 112


 3663 0317 61747472 		.ascii	"attrib\000"
 3663      696200
 3664              	.LASF40:
 3665 031e 72775261 		.ascii	"rwRaMsb\000"
 3665      4D736200 
 3666              	.LASF29:
 3667 0326 6570436E 		.ascii	"epCnt0\000"
 3667      743000
 3668              	.LASF30:
 3669 032d 6570436E 		.ascii	"epCnt1\000"
 3669      743100
 3670              	.LASF95:
 3671 0334 4379496E 		.ascii	"CyIntSetPriority\000"
 3671      74536574 
 3671      5072696F 
 3671      72697479 
 3671      00
 3672              	.LASF31:
 3673 0345 65704372 		.ascii	"epCr0\000"
 3673      3000
 3674              	.LASF12:
 3675 034b 666C6F61 		.ascii	"float\000"
 3675      7400
 3676              	.LASF20:
 3677 0351 61706945 		.ascii	"apiEpState\000"
 3677      70537461 
 3677      746500
 3678              	.LASF91:
 3679 035c 55534246 		.ascii	"USBFS_EP\000"
 3679      535F4550 
 3679      00
 3680              	.LASF47:
 3681 0365 55534246 		.ascii	"USBFS_Init\000"
 3681      535F496E 
 3681      697400
 3682              	.LASF101:
 3683 0370 43794465 		.ascii	"CyDelayCycles\000"
 3683      6C617943 
 3683      79636C65 
 3683      7300
 3684              	.LASF80:
 3685 037e 55534246 		.ascii	"USBFS_DisableSofInt\000"
 3685      535F4469 
 3685      7361626C 
 3685      65536F66 
 3685      496E7400 
 3686              	.LASF15:
 3687 0392 72656738 		.ascii	"reg8\000"
 3687      00
 3688              	.LASF98:
 3689 0397 433A5C55 		.ascii	"C:\\Users\\Patrick\\Documents\\GitHub\\PSoC 5LP FIl"
 3689      73657273 
 3689      5C506174 
 3689      7269636B 
 3689      5C446F63 
 3690 03c5 65735C43 		.ascii	"es\\C-CAN_PSoC_DevKit\\Bootloader.cydsn\000"
 3690      2D43414E 
ARM GAS  C:\Users\Patrick\AppData\Local\Temp\cc4CvmVx.s 			page 113


 3690      5F50536F 
 3690      435F4465 
 3690      764B6974 
 3691              	.LASF83:
 3692 03eb 55534246 		.ascii	"USBFS_transferState\000"
 3692      535F7472 
 3692      616E7366 
 3692      65725374 
 3692      61746500 
 3693              	.LASF1:
 3694 03ff 756E7369 		.ascii	"unsigned char\000"
 3694      676E6564 
 3694      20636861 
 3694      7200
 3695              	.LASF2:
 3696 040d 73686F72 		.ascii	"short int\000"
 3696      7420696E 
 3696      7400
 3697              	.LASF92:
 3698 0417 55534246 		.ascii	"USBFS_lastPacketSize\000"
 3698      535F6C61 
 3698      73745061 
 3698      636B6574 
 3698      53697A65 
 3699              	.LASF67:
 3700 042c 55534246 		.ascii	"USBFS_EnableOutEP\000"
 3700      535F456E 
 3700      61626C65 
 3700      4F757445 
 3700      5000
 3701              	.LASF39:
 3702 043e 72775261 		.ascii	"rwRa\000"
 3702      00
 3703              	.LASF89:
 3704 0443 55534246 		.ascii	"USBFS_interfaceSetting\000"
 3704      535F696E 
 3704      74657266 
 3704      61636553 
 3704      65747469 
 3705              	.LASF28:
 3706 045a 545F5553 		.ascii	"T_USBFS_EP_CTL_BLOCK\000"
 3706      4246535F 
 3706      45505F43 
 3706      544C5F42 
 3706      4C4F434B 
 3707              	.LASF82:
 3708 046f 55534246 		.ascii	"USBFS_device\000"
 3708      535F6465 
 3708      76696365 
 3708      00
 3709              	.LASF71:
 3710 047c 62537461 		.ascii	"bState\000"
 3710      746500
 3711              	.LASF66:
 3712 0483 6C656E67 		.ascii	"length\000"
 3712      746800
 3713              	.LASF14:
ARM GAS  C:\Users\Patrick\AppData\Local\Temp\cc4CvmVx.s 			page 114


 3714 048a 63686172 		.ascii	"char\000"
 3714      00
 3715              	.LASF50:
 3716 048f 6D6F6465 		.ascii	"mode\000"
 3716      00
 3717              	.LASF17:
 3718 0494 63796973 		.ascii	"cyisraddress\000"
 3718      72616464 
 3718      72657373 
 3718      00
 3719              	.LASF26:
 3720 04a1 62756666 		.ascii	"bufferSize\000"
 3720      65725369 
 3720      7A6500
 3721              	.LASF52:
 3722 04ac 55534246 		.ascii	"USBFS_Start\000"
 3722      535F5374 
 3722      61727400 
 3723              	.LASF25:
 3724 04b8 62756666 		.ascii	"buffOffset\000"
 3724      4F666673 
 3724      657400
 3725              	.LASF59:
 3726 04c3 696E7465 		.ascii	"interfaceNumber\000"
 3726      72666163 
 3726      654E756D 
 3726      62657200 
 3727              	.LASF86:
 3728 04d3 55534246 		.ascii	"USBFS_deviceStatus\000"
 3728      535F6465 
 3728      76696365 
 3728      53746174 
 3728      757300
 3729              	.LASF60:
 3730 04e6 55534246 		.ascii	"USBFS_GetEPState\000"
 3730      535F4765 
 3730      74455053 
 3730      74617465 
 3730      00
 3731              	.LASF53:
 3732 04f7 55534246 		.ascii	"USBFS_ReInitComponent\000"
 3732      535F5265 
 3732      496E6974 
 3732      436F6D70 
 3732      6F6E656E 
 3733              	.LASF51:
 3734 050d 656E6162 		.ascii	"enableInterrupts\000"
 3734      6C65496E 
 3734      74657272 
 3734      75707473 
 3734      00
 3735              	.LASF56:
 3736 051e 55534246 		.ascii	"USBFS_CheckActivity\000"
 3736      535F4368 
 3736      65636B41 
 3736      63746976 
 3736      69747900 
ARM GAS  C:\Users\Patrick\AppData\Local\Temp\cc4CvmVx.s 			page 115


 3737              	.LASF96:
 3738 0532 474E5520 		.ascii	"GNU C 4.9.3 20150303 (release) [ARM/embedded-4_9-br"
 3738      4320342E 
 3738      392E3320 
 3738      32303135 
 3738      30333033 
 3739 0565 616E6368 		.ascii	"anch revision 221220] -mcpu=cortex-m3 -mthumb -g -O"
 3739      20726576 
 3739      6973696F 
 3739      6E203232 
 3739      31323230 
 3740 0598 67202D66 		.ascii	"g -ffunction-sections -ffat-lto-objects\000"
 3740      66756E63 
 3740      74696F6E 
 3740      2D736563 
 3740      74696F6E 
 3741              	.LASF41:
 3742 05c0 72774472 		.ascii	"rwDr\000"
 3742      00
 3743              	.LASF69:
 3744 05c5 55534246 		.ascii	"USBFS_DisableOutEP\000"
 3744      535F4469 
 3744      7361626C 
 3744      654F7574 
 3744      455000
 3745              	.LASF64:
 3746 05d8 55534246 		.ascii	"USBFS_LoadInEP\000"
 3746      535F4C6F 
 3746      6164496E 
 3746      455000
 3747              	.LASF38:
 3748 05e7 72775761 		.ascii	"rwWaMsb\000"
 3748      4D736200 
 3749              	.LASF34:
 3750 05ef 6570496E 		.ascii	"epIntEn\000"
 3750      74456E00 
 3751              	.LASF58:
 3752 05f7 55534246 		.ascii	"USBFS_GetInterfaceSetting\000"
 3752      535F4765 
 3752      74496E74 
 3752      65726661 
 3752      63655365 
 3753              	.LASF62:
 3754 0611 55534246 		.ascii	"USBFS_GetEPCount\000"
 3754      535F4765 
 3754      74455043 
 3754      6F756E74 
 3754      00
 3755              	.LASF76:
 3756 0622 72657375 		.ascii	"result\000"
 3756      6C7400
 3757              		.ident	"GCC: (GNU Tools for ARM Embedded Processors) 4.9.3 20150303 (release) [ARM/embedded-4_9-br
