ARM GAS  C:\Users\Patrick\AppData\Local\Temp\ccz80ATz.s 			page 1


   1              		.syntax unified
   2              		.cpu cortex-m3
   3              		.fpu softvfp
   4              		.eabi_attribute 20, 1
   5              		.eabi_attribute 21, 1
   6              		.eabi_attribute 23, 3
   7              		.eabi_attribute 24, 1
   8              		.eabi_attribute 25, 1
   9              		.eabi_attribute 26, 1
  10              		.eabi_attribute 30, 1
  11              		.eabi_attribute 34, 1
  12              		.eabi_attribute 18, 4
  13              		.thumb
  14              		.file	"cyfitter_cfg.c"
  15              		.text
  16              	.Ltext0:
  17              		.cfi_sections	.debug_frame
  18              		.section	.text.CyClockStartupError,"ax",%progbits
  19              		.align	2
  20              		.thumb
  21              		.thumb_func
  22              		.type	CyClockStartupError, %function
  23              	CyClockStartupError:
  24              	.LFB3:
  25              		.file 1 ".\\Generated_Source\\PSoC5\\cyfitter_cfg.c"
   1:.\Generated_Source\PSoC5/cyfitter_cfg.c **** /*******************************************************************************
   2:.\Generated_Source\PSoC5/cyfitter_cfg.c **** * File Name: cyfitter_cfg.c
   3:.\Generated_Source\PSoC5/cyfitter_cfg.c **** * 
   4:.\Generated_Source\PSoC5/cyfitter_cfg.c **** * PSoC Creator  3.3 CP3
   5:.\Generated_Source\PSoC5/cyfitter_cfg.c **** *
   6:.\Generated_Source\PSoC5/cyfitter_cfg.c **** * Description:
   7:.\Generated_Source\PSoC5/cyfitter_cfg.c **** * This file contains device initialization code.
   8:.\Generated_Source\PSoC5/cyfitter_cfg.c **** * Except for the user defined sections in CyClockStartupError(), this file should not be modified.
   9:.\Generated_Source\PSoC5/cyfitter_cfg.c **** * This file is automatically generated by PSoC Creator.
  10:.\Generated_Source\PSoC5/cyfitter_cfg.c **** *
  11:.\Generated_Source\PSoC5/cyfitter_cfg.c **** ********************************************************************************
  12:.\Generated_Source\PSoC5/cyfitter_cfg.c **** * Copyright (c) 2007-2016 Cypress Semiconductor.  All rights reserved.
  13:.\Generated_Source\PSoC5/cyfitter_cfg.c **** * You may use this file only in accordance with the license, terms, conditions, 
  14:.\Generated_Source\PSoC5/cyfitter_cfg.c **** * disclaimers, and limitations in the end user license agreement accompanying 
  15:.\Generated_Source\PSoC5/cyfitter_cfg.c **** * the software package with which this file was provided.
  16:.\Generated_Source\PSoC5/cyfitter_cfg.c **** ********************************************************************************/
  17:.\Generated_Source\PSoC5/cyfitter_cfg.c **** 
  18:.\Generated_Source\PSoC5/cyfitter_cfg.c **** #include <string.h>
  19:.\Generated_Source\PSoC5/cyfitter_cfg.c **** #include "cytypes.h"
  20:.\Generated_Source\PSoC5/cyfitter_cfg.c **** #include "cydevice_trm.h"
  21:.\Generated_Source\PSoC5/cyfitter_cfg.c **** #include "cyfitter.h"
  22:.\Generated_Source\PSoC5/cyfitter_cfg.c **** #include "CyLib.h"
  23:.\Generated_Source\PSoC5/cyfitter_cfg.c **** #include "cyfitter_cfg.h"
  24:.\Generated_Source\PSoC5/cyfitter_cfg.c **** 
  25:.\Generated_Source\PSoC5/cyfitter_cfg.c **** #define CY_NEED_CYCLOCKSTARTUPERROR 1
  26:.\Generated_Source\PSoC5/cyfitter_cfg.c **** 
  27:.\Generated_Source\PSoC5/cyfitter_cfg.c **** 
  28:.\Generated_Source\PSoC5/cyfitter_cfg.c **** #if defined(__GNUC__) || defined(__ARMCC_VERSION)
  29:.\Generated_Source\PSoC5/cyfitter_cfg.c ****     #define CYPACKED 
  30:.\Generated_Source\PSoC5/cyfitter_cfg.c ****     #define CYPACKED_ATTR __attribute__ ((packed))
  31:.\Generated_Source\PSoC5/cyfitter_cfg.c ****     #define CYALIGNED __attribute__ ((aligned))
  32:.\Generated_Source\PSoC5/cyfitter_cfg.c ****     #define CY_CFG_UNUSED __attribute__ ((unused))
ARM GAS  C:\Users\Patrick\AppData\Local\Temp\ccz80ATz.s 			page 2


  33:.\Generated_Source\PSoC5/cyfitter_cfg.c ****     #ifndef CY_CFG_SECTION
  34:.\Generated_Source\PSoC5/cyfitter_cfg.c ****         #define CY_CFG_SECTION __attribute__ ((section(".psocinit")))
  35:.\Generated_Source\PSoC5/cyfitter_cfg.c ****     #endif
  36:.\Generated_Source\PSoC5/cyfitter_cfg.c ****     
  37:.\Generated_Source\PSoC5/cyfitter_cfg.c ****     #if defined(__ARMCC_VERSION)
  38:.\Generated_Source\PSoC5/cyfitter_cfg.c ****         #define CY_CFG_MEMORY_BARRIER() __memory_changed()
  39:.\Generated_Source\PSoC5/cyfitter_cfg.c ****     #else
  40:.\Generated_Source\PSoC5/cyfitter_cfg.c ****         #define CY_CFG_MEMORY_BARRIER() __sync_synchronize()
  41:.\Generated_Source\PSoC5/cyfitter_cfg.c ****     #endif
  42:.\Generated_Source\PSoC5/cyfitter_cfg.c ****     
  43:.\Generated_Source\PSoC5/cyfitter_cfg.c **** #elif defined(__ICCARM__)
  44:.\Generated_Source\PSoC5/cyfitter_cfg.c ****     #include <intrinsics.h>
  45:.\Generated_Source\PSoC5/cyfitter_cfg.c **** 
  46:.\Generated_Source\PSoC5/cyfitter_cfg.c ****     #define CYPACKED __packed
  47:.\Generated_Source\PSoC5/cyfitter_cfg.c ****     #define CYPACKED_ATTR 
  48:.\Generated_Source\PSoC5/cyfitter_cfg.c ****     #define CYALIGNED _Pragma("data_alignment=4")
  49:.\Generated_Source\PSoC5/cyfitter_cfg.c ****     #define CY_CFG_UNUSED _Pragma("diag_suppress=Pe177")
  50:.\Generated_Source\PSoC5/cyfitter_cfg.c ****     #define CY_CFG_SECTION _Pragma("location=\".psocinit\"")
  51:.\Generated_Source\PSoC5/cyfitter_cfg.c ****     
  52:.\Generated_Source\PSoC5/cyfitter_cfg.c ****     #define CY_CFG_MEMORY_BARRIER() __DMB()
  53:.\Generated_Source\PSoC5/cyfitter_cfg.c ****     
  54:.\Generated_Source\PSoC5/cyfitter_cfg.c **** #else
  55:.\Generated_Source\PSoC5/cyfitter_cfg.c ****     #error Unsupported toolchain
  56:.\Generated_Source\PSoC5/cyfitter_cfg.c **** #endif
  57:.\Generated_Source\PSoC5/cyfitter_cfg.c **** 
  58:.\Generated_Source\PSoC5/cyfitter_cfg.c **** 
  59:.\Generated_Source\PSoC5/cyfitter_cfg.c **** CY_CFG_UNUSED
  60:.\Generated_Source\PSoC5/cyfitter_cfg.c **** static void CYMEMZERO(void *s, size_t n);
  61:.\Generated_Source\PSoC5/cyfitter_cfg.c **** CY_CFG_UNUSED
  62:.\Generated_Source\PSoC5/cyfitter_cfg.c **** static void CYMEMZERO(void *s, size_t n)
  63:.\Generated_Source\PSoC5/cyfitter_cfg.c **** {
  64:.\Generated_Source\PSoC5/cyfitter_cfg.c **** 	(void)memset(s, 0, n);
  65:.\Generated_Source\PSoC5/cyfitter_cfg.c **** }
  66:.\Generated_Source\PSoC5/cyfitter_cfg.c **** CY_CFG_UNUSED
  67:.\Generated_Source\PSoC5/cyfitter_cfg.c **** static void CYCONFIGCPY(void *dest, const void *src, size_t n);
  68:.\Generated_Source\PSoC5/cyfitter_cfg.c **** CY_CFG_UNUSED
  69:.\Generated_Source\PSoC5/cyfitter_cfg.c **** static void CYCONFIGCPY(void *dest, const void *src, size_t n)
  70:.\Generated_Source\PSoC5/cyfitter_cfg.c **** {
  71:.\Generated_Source\PSoC5/cyfitter_cfg.c **** 	(void)memcpy(dest, src, n);
  72:.\Generated_Source\PSoC5/cyfitter_cfg.c **** }
  73:.\Generated_Source\PSoC5/cyfitter_cfg.c **** CY_CFG_UNUSED
  74:.\Generated_Source\PSoC5/cyfitter_cfg.c **** static void CYCONFIGCPYCODE(void *dest, const void *src, size_t n);
  75:.\Generated_Source\PSoC5/cyfitter_cfg.c **** CY_CFG_UNUSED
  76:.\Generated_Source\PSoC5/cyfitter_cfg.c **** static void CYCONFIGCPYCODE(void *dest, const void *src, size_t n)
  77:.\Generated_Source\PSoC5/cyfitter_cfg.c **** {
  78:.\Generated_Source\PSoC5/cyfitter_cfg.c **** 	(void)memcpy(dest, src, n);
  79:.\Generated_Source\PSoC5/cyfitter_cfg.c **** }
  80:.\Generated_Source\PSoC5/cyfitter_cfg.c **** 
  81:.\Generated_Source\PSoC5/cyfitter_cfg.c **** 
  82:.\Generated_Source\PSoC5/cyfitter_cfg.c **** 
  83:.\Generated_Source\PSoC5/cyfitter_cfg.c **** /* Clock startup error codes                                                   */
  84:.\Generated_Source\PSoC5/cyfitter_cfg.c **** #define CYCLOCKSTART_NO_ERROR    0u
  85:.\Generated_Source\PSoC5/cyfitter_cfg.c **** #define CYCLOCKSTART_XTAL_ERROR  1u
  86:.\Generated_Source\PSoC5/cyfitter_cfg.c **** #define CYCLOCKSTART_32KHZ_ERROR 2u
  87:.\Generated_Source\PSoC5/cyfitter_cfg.c **** #define CYCLOCKSTART_PLL_ERROR   3u
  88:.\Generated_Source\PSoC5/cyfitter_cfg.c **** 
  89:.\Generated_Source\PSoC5/cyfitter_cfg.c **** #ifdef CY_NEED_CYCLOCKSTARTUPERROR
ARM GAS  C:\Users\Patrick\AppData\Local\Temp\ccz80ATz.s 			page 3


  90:.\Generated_Source\PSoC5/cyfitter_cfg.c **** /*******************************************************************************
  91:.\Generated_Source\PSoC5/cyfitter_cfg.c **** * Function Name: CyClockStartupError
  92:.\Generated_Source\PSoC5/cyfitter_cfg.c **** ********************************************************************************
  93:.\Generated_Source\PSoC5/cyfitter_cfg.c **** * Summary:
  94:.\Generated_Source\PSoC5/cyfitter_cfg.c **** *  If an error is encountered during clock configuration (crystal startup error,
  95:.\Generated_Source\PSoC5/cyfitter_cfg.c **** *  PLL lock error, etc.), the system will end up here.  Unless reimplemented by
  96:.\Generated_Source\PSoC5/cyfitter_cfg.c **** *  the customer, this function will stop in an infinite loop.
  97:.\Generated_Source\PSoC5/cyfitter_cfg.c **** *
  98:.\Generated_Source\PSoC5/cyfitter_cfg.c **** * Parameters:
  99:.\Generated_Source\PSoC5/cyfitter_cfg.c **** *   void
 100:.\Generated_Source\PSoC5/cyfitter_cfg.c **** *
 101:.\Generated_Source\PSoC5/cyfitter_cfg.c **** * Return:
 102:.\Generated_Source\PSoC5/cyfitter_cfg.c **** *   void
 103:.\Generated_Source\PSoC5/cyfitter_cfg.c **** *
 104:.\Generated_Source\PSoC5/cyfitter_cfg.c **** *******************************************************************************/
 105:.\Generated_Source\PSoC5/cyfitter_cfg.c **** CY_CFG_UNUSED
 106:.\Generated_Source\PSoC5/cyfitter_cfg.c **** static void CyClockStartupError(uint8 errorCode);
 107:.\Generated_Source\PSoC5/cyfitter_cfg.c **** CY_CFG_UNUSED
 108:.\Generated_Source\PSoC5/cyfitter_cfg.c **** static void CyClockStartupError(uint8 errorCode)
 109:.\Generated_Source\PSoC5/cyfitter_cfg.c **** {
  26              		.loc 1 109 0
  27              		.cfi_startproc
  28              		@ Volatile: function does not return.
  29              		@ args = 0, pretend = 0, frame = 0
  30              		@ frame_needed = 0, uses_anonymous_args = 0
  31              		@ link register save eliminated.
  32              	.LVL0:
  33              	.L2:
 110:.\Generated_Source\PSoC5/cyfitter_cfg.c ****     /* To remove the compiler warning if errorCode not used.                */
 111:.\Generated_Source\PSoC5/cyfitter_cfg.c ****     errorCode = errorCode;
 112:.\Generated_Source\PSoC5/cyfitter_cfg.c **** 
 113:.\Generated_Source\PSoC5/cyfitter_cfg.c ****     /* `#START CyClockStartupError` */
 114:.\Generated_Source\PSoC5/cyfitter_cfg.c **** 
 115:.\Generated_Source\PSoC5/cyfitter_cfg.c ****     /* If we have a clock startup error (bad MHz crystal, PLL lock, etc.),  */
 116:.\Generated_Source\PSoC5/cyfitter_cfg.c ****     /* we will end up here to allow the customer to implement something to  */
 117:.\Generated_Source\PSoC5/cyfitter_cfg.c ****     /* deal with the clock condition.                                       */
 118:.\Generated_Source\PSoC5/cyfitter_cfg.c **** 
 119:.\Generated_Source\PSoC5/cyfitter_cfg.c ****     /* `#END` */
 120:.\Generated_Source\PSoC5/cyfitter_cfg.c **** 
 121:.\Generated_Source\PSoC5/cyfitter_cfg.c ****     /* If nothing else, stop here since the clocks have not started         */
 122:.\Generated_Source\PSoC5/cyfitter_cfg.c ****     /* correctly.                                                           */
 123:.\Generated_Source\PSoC5/cyfitter_cfg.c ****     while(1) {}
  34              		.loc 1 123 0 discriminator 1
  35 0000 FEE7     		b	.L2
  36              		.cfi_endproc
  37              	.LFE3:
  38              		.size	CyClockStartupError, .-CyClockStartupError
  39 0002 00BF     		.section	.text.cfg_write_bytes32,"ax",%progbits
  40              		.align	2
  41              		.thumb
  42              		.thumb_func
  43              		.type	cfg_write_bytes32, %function
  44              	cfg_write_bytes32:
  45              	.LFB4:
 124:.\Generated_Source\PSoC5/cyfitter_cfg.c **** }
 125:.\Generated_Source\PSoC5/cyfitter_cfg.c **** #endif
 126:.\Generated_Source\PSoC5/cyfitter_cfg.c **** 
ARM GAS  C:\Users\Patrick\AppData\Local\Temp\ccz80ATz.s 			page 4


 127:.\Generated_Source\PSoC5/cyfitter_cfg.c **** #define CY_CFG_BASE_ADDR_COUNT 29u
 128:.\Generated_Source\PSoC5/cyfitter_cfg.c **** CYPACKED typedef struct
 129:.\Generated_Source\PSoC5/cyfitter_cfg.c **** {
 130:.\Generated_Source\PSoC5/cyfitter_cfg.c **** 	uint8 offset;
 131:.\Generated_Source\PSoC5/cyfitter_cfg.c **** 	uint8 value;
 132:.\Generated_Source\PSoC5/cyfitter_cfg.c **** } CYPACKED_ATTR cy_cfg_addrvalue_t;
 133:.\Generated_Source\PSoC5/cyfitter_cfg.c **** 
 134:.\Generated_Source\PSoC5/cyfitter_cfg.c **** 
 135:.\Generated_Source\PSoC5/cyfitter_cfg.c **** 
 136:.\Generated_Source\PSoC5/cyfitter_cfg.c **** /*******************************************************************************
 137:.\Generated_Source\PSoC5/cyfitter_cfg.c **** * Function Name: cfg_write_bytes32
 138:.\Generated_Source\PSoC5/cyfitter_cfg.c **** ********************************************************************************
 139:.\Generated_Source\PSoC5/cyfitter_cfg.c **** * Summary:
 140:.\Generated_Source\PSoC5/cyfitter_cfg.c **** *  This function is used for setting up the chip configuration areas that
 141:.\Generated_Source\PSoC5/cyfitter_cfg.c **** *  contain relatively sparse data.
 142:.\Generated_Source\PSoC5/cyfitter_cfg.c **** *
 143:.\Generated_Source\PSoC5/cyfitter_cfg.c **** * Parameters:
 144:.\Generated_Source\PSoC5/cyfitter_cfg.c **** *   void
 145:.\Generated_Source\PSoC5/cyfitter_cfg.c **** *
 146:.\Generated_Source\PSoC5/cyfitter_cfg.c **** * Return:
 147:.\Generated_Source\PSoC5/cyfitter_cfg.c **** *   void
 148:.\Generated_Source\PSoC5/cyfitter_cfg.c **** *
 149:.\Generated_Source\PSoC5/cyfitter_cfg.c **** *******************************************************************************/
 150:.\Generated_Source\PSoC5/cyfitter_cfg.c **** static void cfg_write_bytes32(const uint32 addr_table[], const cy_cfg_addrvalue_t data_table[]);
 151:.\Generated_Source\PSoC5/cyfitter_cfg.c **** static void cfg_write_bytes32(const uint32 addr_table[], const cy_cfg_addrvalue_t data_table[])
 152:.\Generated_Source\PSoC5/cyfitter_cfg.c **** {
  46              		.loc 1 152 0
  47              		.cfi_startproc
  48              		@ args = 0, pretend = 0, frame = 0
  49              		@ frame_needed = 0, uses_anonymous_args = 0
  50              		@ link register save eliminated.
  51              	.LVL1:
  52 0000 F0B4     		push	{r4, r5, r6, r7}
  53              		.cfi_def_cfa_offset 16
  54              		.cfi_offset 4, -16
  55              		.cfi_offset 5, -12
  56              		.cfi_offset 6, -8
  57              		.cfi_offset 7, -4
  58              	.LVL2:
 153:.\Generated_Source\PSoC5/cyfitter_cfg.c **** 	/* For 32-bit little-endian architectures */
 154:.\Generated_Source\PSoC5/cyfitter_cfg.c **** 	uint32 i, j = 0u;
  59              		.loc 1 154 0
  60 0002 0022     		movs	r2, #0
 155:.\Generated_Source\PSoC5/cyfitter_cfg.c **** 	for (i = 0u; i < CY_CFG_BASE_ADDR_COUNT; i++)
  61              		.loc 1 155 0
  62 0004 1746     		mov	r7, r2
  63 0006 11E0     		b	.L4
  64              	.LVL3:
  65              	.L7:
  66              	.LBB2:
 156:.\Generated_Source\PSoC5/cyfitter_cfg.c **** 	{
 157:.\Generated_Source\PSoC5/cyfitter_cfg.c **** 		uint32 baseAddr = addr_table[i];
  67              		.loc 1 157 0
  68 0008 50F82760 		ldr	r6, [r0, r7, lsl #2]
  69              	.LVL4:
 158:.\Generated_Source\PSoC5/cyfitter_cfg.c **** 		uint8 count = (uint8)baseAddr;
  70              		.loc 1 158 0
ARM GAS  C:\Users\Patrick\AppData\Local\Temp\ccz80ATz.s 			page 5


  71 000c F3B2     		uxtb	r3, r6
  72              	.LVL5:
 159:.\Generated_Source\PSoC5/cyfitter_cfg.c **** 		baseAddr &= 0xFFFFFF00u;
  73              		.loc 1 159 0
  74 000e 26F0FF06 		bic	r6, r6, #255
  75              	.LVL6:
 160:.\Generated_Source\PSoC5/cyfitter_cfg.c **** 		while (count != 0u)
  76              		.loc 1 160 0
  77 0012 08E0     		b	.L5
  78              	.L6:
 161:.\Generated_Source\PSoC5/cyfitter_cfg.c **** 		{
 162:.\Generated_Source\PSoC5/cyfitter_cfg.c **** 			CY_SET_XTND_REG8((void CYFAR *)(baseAddr + data_table[j].offset), data_table[j].value);
  79              		.loc 1 162 0
  80 0014 01EB4205 		add	r5, r1, r2, lsl #1
  81 0018 11F81240 		ldrb	r4, [r1, r2, lsl #1]	@ zero_extendqisi2
  82 001c 6D78     		ldrb	r5, [r5, #1]	@ zero_extendqisi2
  83 001e A555     		strb	r5, [r4, r6]
 163:.\Generated_Source\PSoC5/cyfitter_cfg.c **** 			j++;
  84              		.loc 1 163 0
  85 0020 0132     		adds	r2, r2, #1
  86              	.LVL7:
 164:.\Generated_Source\PSoC5/cyfitter_cfg.c **** 			count--;
  87              		.loc 1 164 0
  88 0022 013B     		subs	r3, r3, #1
  89              	.LVL8:
  90 0024 DBB2     		uxtb	r3, r3
  91              	.LVL9:
  92              	.L5:
 160:.\Generated_Source\PSoC5/cyfitter_cfg.c **** 		{
  93              		.loc 1 160 0
  94 0026 002B     		cmp	r3, #0
  95 0028 F4D1     		bne	.L6
  96              	.LBE2:
 155:.\Generated_Source\PSoC5/cyfitter_cfg.c **** 	{
  97              		.loc 1 155 0 discriminator 2
  98 002a 0137     		adds	r7, r7, #1
  99              	.LVL10:
 100              	.L4:
 155:.\Generated_Source\PSoC5/cyfitter_cfg.c **** 	{
 101              		.loc 1 155 0 is_stmt 0 discriminator 1
 102 002c 1C2F     		cmp	r7, #28
 103 002e EBD9     		bls	.L7
 165:.\Generated_Source\PSoC5/cyfitter_cfg.c **** 		}
 166:.\Generated_Source\PSoC5/cyfitter_cfg.c **** 	}
 167:.\Generated_Source\PSoC5/cyfitter_cfg.c **** }
 104              		.loc 1 167 0 is_stmt 1
 105 0030 F0BC     		pop	{r4, r5, r6, r7}
 106              		.cfi_restore 7
 107              		.cfi_restore 6
 108              		.cfi_restore 5
 109              		.cfi_restore 4
 110              		.cfi_def_cfa_offset 0
 111              	.LVL11:
 112 0032 7047     		bx	lr
 113              		.cfi_endproc
 114              	.LFE4:
 115              		.size	cfg_write_bytes32, .-cfg_write_bytes32
ARM GAS  C:\Users\Patrick\AppData\Local\Temp\ccz80ATz.s 			page 6


 116              		.section	.text.AnalogSetDefault,"ax",%progbits
 117              		.align	2
 118              		.thumb
 119              		.thumb_func
 120              		.type	AnalogSetDefault, %function
 121              	AnalogSetDefault:
 122              	.LFB6:
 168:.\Generated_Source\PSoC5/cyfitter_cfg.c **** 
 169:.\Generated_Source\PSoC5/cyfitter_cfg.c **** /*******************************************************************************
 170:.\Generated_Source\PSoC5/cyfitter_cfg.c **** * Function Name: ClockSetup
 171:.\Generated_Source\PSoC5/cyfitter_cfg.c **** ********************************************************************************
 172:.\Generated_Source\PSoC5/cyfitter_cfg.c **** *
 173:.\Generated_Source\PSoC5/cyfitter_cfg.c **** * Summary:
 174:.\Generated_Source\PSoC5/cyfitter_cfg.c **** *  Performs the initialization of all of the clocks in the device based on the
 175:.\Generated_Source\PSoC5/cyfitter_cfg.c **** *  settings in the Clock tab of the DWR.  This includes enabling the requested
 176:.\Generated_Source\PSoC5/cyfitter_cfg.c **** *  clocks and setting the necessary dividers to produce the desired frequency. 
 177:.\Generated_Source\PSoC5/cyfitter_cfg.c **** *
 178:.\Generated_Source\PSoC5/cyfitter_cfg.c **** * Parameters:
 179:.\Generated_Source\PSoC5/cyfitter_cfg.c **** *  void
 180:.\Generated_Source\PSoC5/cyfitter_cfg.c **** *
 181:.\Generated_Source\PSoC5/cyfitter_cfg.c **** * Return:
 182:.\Generated_Source\PSoC5/cyfitter_cfg.c **** *  void
 183:.\Generated_Source\PSoC5/cyfitter_cfg.c **** *
 184:.\Generated_Source\PSoC5/cyfitter_cfg.c **** *******************************************************************************/
 185:.\Generated_Source\PSoC5/cyfitter_cfg.c **** static void ClockSetup(void);
 186:.\Generated_Source\PSoC5/cyfitter_cfg.c **** static void ClockSetup(void)
 187:.\Generated_Source\PSoC5/cyfitter_cfg.c **** {
 188:.\Generated_Source\PSoC5/cyfitter_cfg.c **** 	uint32 timeout;
 189:.\Generated_Source\PSoC5/cyfitter_cfg.c **** 	uint8 pllLock;
 190:.\Generated_Source\PSoC5/cyfitter_cfg.c **** 
 191:.\Generated_Source\PSoC5/cyfitter_cfg.c **** 
 192:.\Generated_Source\PSoC5/cyfitter_cfg.c **** 	/* Configure Digital Clocks based on settings from Clock DWR */
 193:.\Generated_Source\PSoC5/cyfitter_cfg.c **** 	CY_SET_XTND_REG16((void CYFAR *)(CYREG_CLKDIST_DCFG0_CFG0), 0x0003u);
 194:.\Generated_Source\PSoC5/cyfitter_cfg.c **** 	CY_SET_XTND_REG8((void CYFAR *)(CYREG_CLKDIST_DCFG0_CFG0 + 0x2u), 0x1Bu);
 195:.\Generated_Source\PSoC5/cyfitter_cfg.c **** 	CY_SET_XTND_REG16((void CYFAR *)(CYREG_CLKDIST_DCFG1_CFG0), 0x0019u);
 196:.\Generated_Source\PSoC5/cyfitter_cfg.c **** 	CY_SET_XTND_REG8((void CYFAR *)(CYREG_CLKDIST_DCFG1_CFG0 + 0x2u), 0x18u);
 197:.\Generated_Source\PSoC5/cyfitter_cfg.c **** 
 198:.\Generated_Source\PSoC5/cyfitter_cfg.c **** 	/* Configure ILO based on settings from Clock DWR */
 199:.\Generated_Source\PSoC5/cyfitter_cfg.c **** 	CY_SET_XTND_REG8((void CYFAR *)(CYREG_SLOWCLK_ILO_CR0), 0x02u);
 200:.\Generated_Source\PSoC5/cyfitter_cfg.c **** 	CY_SET_XTND_REG8((void CYFAR *)(CYREG_CLKDIST_CR), 0x08u);
 201:.\Generated_Source\PSoC5/cyfitter_cfg.c **** 
 202:.\Generated_Source\PSoC5/cyfitter_cfg.c **** 	/* Configure IMO based on settings from Clock DWR */
 203:.\Generated_Source\PSoC5/cyfitter_cfg.c **** 	CY_SET_XTND_REG8((void CYFAR *)(CYREG_FASTCLK_IMO_CR), 0x03u);
 204:.\Generated_Source\PSoC5/cyfitter_cfg.c **** 	CY_SET_XTND_REG8((void CYFAR *)(CYREG_IMO_TR1), (CY_GET_XTND_REG8((void CYFAR *)CYREG_FLSHID_CUST_
 205:.\Generated_Source\PSoC5/cyfitter_cfg.c **** 
 206:.\Generated_Source\PSoC5/cyfitter_cfg.c **** 	/* Configure PLL based on settings from Clock DWR */
 207:.\Generated_Source\PSoC5/cyfitter_cfg.c **** 	CY_SET_XTND_REG16((void CYFAR *)(CYREG_FASTCLK_PLL_P), 0x0008u);
 208:.\Generated_Source\PSoC5/cyfitter_cfg.c **** 	CY_SET_XTND_REG16((void CYFAR *)(CYREG_FASTCLK_PLL_CFG0), 0x1251u);
 209:.\Generated_Source\PSoC5/cyfitter_cfg.c **** 	/* Wait up to 250us for the PLL to lock */
 210:.\Generated_Source\PSoC5/cyfitter_cfg.c **** 	pllLock = 0u;
 211:.\Generated_Source\PSoC5/cyfitter_cfg.c **** 	for (timeout = 250u / 10u; (timeout > 0u) && (pllLock != 0x03u); timeout--)
 212:.\Generated_Source\PSoC5/cyfitter_cfg.c **** 	{ 
 213:.\Generated_Source\PSoC5/cyfitter_cfg.c **** 		pllLock = 0x03u & ((uint8)((uint8)pllLock << 1) | ((CY_GET_XTND_REG8((void CYFAR *)CYREG_FASTCLK_
 214:.\Generated_Source\PSoC5/cyfitter_cfg.c **** 		CyDelayCycles(10u * 48u); /* Delay 10us based on 48MHz clock */
 215:.\Generated_Source\PSoC5/cyfitter_cfg.c **** 	}
 216:.\Generated_Source\PSoC5/cyfitter_cfg.c **** 	/* If we ran out of time the PLL didn't lock so go to the error function */
 217:.\Generated_Source\PSoC5/cyfitter_cfg.c **** 	if (timeout == 0u)
ARM GAS  C:\Users\Patrick\AppData\Local\Temp\ccz80ATz.s 			page 7


 218:.\Generated_Source\PSoC5/cyfitter_cfg.c **** 	{
 219:.\Generated_Source\PSoC5/cyfitter_cfg.c **** 		CyClockStartupError(CYCLOCKSTART_PLL_ERROR);
 220:.\Generated_Source\PSoC5/cyfitter_cfg.c **** 	}
 221:.\Generated_Source\PSoC5/cyfitter_cfg.c **** 
 222:.\Generated_Source\PSoC5/cyfitter_cfg.c **** 	/* Configure Bus/Master Clock based on settings from Clock DWR */
 223:.\Generated_Source\PSoC5/cyfitter_cfg.c **** 	CY_SET_XTND_REG16((void CYFAR *)(CYREG_CLKDIST_MSTR0), 0x0100u);
 224:.\Generated_Source\PSoC5/cyfitter_cfg.c **** 	CY_SET_XTND_REG8((void CYFAR *)(CYREG_CLKDIST_MSTR0), 0x07u);
 225:.\Generated_Source\PSoC5/cyfitter_cfg.c **** 	CY_SET_XTND_REG8((void CYFAR *)(CYREG_CLKDIST_BCFG0), 0x00u);
 226:.\Generated_Source\PSoC5/cyfitter_cfg.c **** 	CY_SET_XTND_REG8((void CYFAR *)(CYREG_CLKDIST_BCFG2), 0x48u);
 227:.\Generated_Source\PSoC5/cyfitter_cfg.c **** 	CY_SET_XTND_REG8((void CYFAR *)(CYREG_CLKDIST_MSTR0), 0x00u);
 228:.\Generated_Source\PSoC5/cyfitter_cfg.c **** 	CY_SET_XTND_REG8((void CYFAR *)(CYREG_CLKDIST_LD), 0x02u);
 229:.\Generated_Source\PSoC5/cyfitter_cfg.c **** 
 230:.\Generated_Source\PSoC5/cyfitter_cfg.c **** 	CY_SET_XTND_REG8((void CYFAR *)(CYREG_PM_ACT_CFG2), ((CY_GET_XTND_REG8((void CYFAR *)CYREG_PM_ACT_
 231:.\Generated_Source\PSoC5/cyfitter_cfg.c **** }
 232:.\Generated_Source\PSoC5/cyfitter_cfg.c **** 
 233:.\Generated_Source\PSoC5/cyfitter_cfg.c **** 
 234:.\Generated_Source\PSoC5/cyfitter_cfg.c **** /* Analog API Functions */
 235:.\Generated_Source\PSoC5/cyfitter_cfg.c **** 
 236:.\Generated_Source\PSoC5/cyfitter_cfg.c **** 
 237:.\Generated_Source\PSoC5/cyfitter_cfg.c **** /*******************************************************************************
 238:.\Generated_Source\PSoC5/cyfitter_cfg.c **** * Function Name: AnalogSetDefault
 239:.\Generated_Source\PSoC5/cyfitter_cfg.c **** ********************************************************************************
 240:.\Generated_Source\PSoC5/cyfitter_cfg.c **** *
 241:.\Generated_Source\PSoC5/cyfitter_cfg.c **** * Summary:
 242:.\Generated_Source\PSoC5/cyfitter_cfg.c **** *  Sets up the analog portions of the chip to default values based on chip
 243:.\Generated_Source\PSoC5/cyfitter_cfg.c **** *  configuration options from the project.
 244:.\Generated_Source\PSoC5/cyfitter_cfg.c **** *
 245:.\Generated_Source\PSoC5/cyfitter_cfg.c **** * Parameters:
 246:.\Generated_Source\PSoC5/cyfitter_cfg.c **** *  void
 247:.\Generated_Source\PSoC5/cyfitter_cfg.c **** *
 248:.\Generated_Source\PSoC5/cyfitter_cfg.c **** * Return:
 249:.\Generated_Source\PSoC5/cyfitter_cfg.c **** *  void
 250:.\Generated_Source\PSoC5/cyfitter_cfg.c **** *
 251:.\Generated_Source\PSoC5/cyfitter_cfg.c **** *******************************************************************************/
 252:.\Generated_Source\PSoC5/cyfitter_cfg.c **** static void AnalogSetDefault(void);
 253:.\Generated_Source\PSoC5/cyfitter_cfg.c **** static void AnalogSetDefault(void)
 254:.\Generated_Source\PSoC5/cyfitter_cfg.c **** {
 123              		.loc 1 254 0
 124              		.cfi_startproc
 125              		@ args = 0, pretend = 0, frame = 0
 126              		@ frame_needed = 0, uses_anonymous_args = 0
 127              		@ link register save eliminated.
 255:.\Generated_Source\PSoC5/cyfitter_cfg.c **** 	uint8 bg_xover_inl_trim = CY_GET_XTND_REG8((void CYFAR *)(CYREG_FLSHID_MFG_CFG_BG_XOVER_INL_TRIM +
 128              		.loc 1 255 0
 129 0000 064B     		ldr	r3, .L10
 130 0002 1B78     		ldrb	r3, [r3]	@ zero_extendqisi2
 131 0004 DBB2     		uxtb	r3, r3
 132              	.LVL12:
 256:.\Generated_Source\PSoC5/cyfitter_cfg.c **** 	CY_SET_XTND_REG8((void CYFAR *)(CYREG_BG_DFT0), (bg_xover_inl_trim & 0x07u));
 133              		.loc 1 256 0
 134 0006 03F00701 		and	r1, r3, #7
 135 000a 054A     		ldr	r2, .L10+4
 136 000c 1170     		strb	r1, [r2]
 257:.\Generated_Source\PSoC5/cyfitter_cfg.c **** 	CY_SET_XTND_REG8((void CYFAR *)(CYREG_BG_DFT1), ((bg_xover_inl_trim >> 4) & 0x0Fu));
 137              		.loc 1 257 0
 138 000e 1B09     		lsrs	r3, r3, #4
 139              	.LVL13:
ARM GAS  C:\Users\Patrick\AppData\Local\Temp\ccz80ATz.s 			page 8


 140 0010 0132     		adds	r2, r2, #1
 141 0012 1370     		strb	r3, [r2]
 258:.\Generated_Source\PSoC5/cyfitter_cfg.c **** 	CY_SET_XTND_REG8((void CYFAR *)CYREG_PUMP_CR0, 0x44u);
 142              		.loc 1 258 0
 143 0014 4422     		movs	r2, #68
 144 0016 034B     		ldr	r3, .L10+8
 145 0018 1A70     		strb	r2, [r3]
 146 001a 7047     		bx	lr
 147              	.L11:
 148              		.align	2
 149              	.L10:
 150 001c CF010049 		.word	1224737231
 151 0020 6E580040 		.word	1073764462
 152 0024 76580040 		.word	1073764470
 153              		.cfi_endproc
 154              	.LFE6:
 155              		.size	AnalogSetDefault, .-AnalogSetDefault
 156              		.section	.text.CYMEMZERO,"ax",%progbits
 157              		.align	2
 158              		.thumb
 159              		.thumb_func
 160              		.type	CYMEMZERO, %function
 161              	CYMEMZERO:
 162              	.LFB0:
  63:.\Generated_Source\PSoC5/cyfitter_cfg.c **** 	(void)memset(s, 0, n);
 163              		.loc 1 63 0
 164              		.cfi_startproc
 165              		@ args = 0, pretend = 0, frame = 0
 166              		@ frame_needed = 0, uses_anonymous_args = 0
 167              	.LVL14:
 168 0000 08B5     		push	{r3, lr}
 169              		.cfi_def_cfa_offset 8
 170              		.cfi_offset 3, -8
 171              		.cfi_offset 14, -4
 172 0002 0A46     		mov	r2, r1
  64:.\Generated_Source\PSoC5/cyfitter_cfg.c **** }
 173              		.loc 1 64 0
 174 0004 0021     		movs	r1, #0
 175              	.LVL15:
 176 0006 FFF7FEFF 		bl	memset
 177              	.LVL16:
 178 000a 08BD     		pop	{r3, pc}
 179              		.cfi_endproc
 180              	.LFE0:
 181              		.size	CYMEMZERO, .-CYMEMZERO
 182              		.section	.text.CYCONFIGCPYCODE,"ax",%progbits
 183              		.align	2
 184              		.thumb
 185              		.thumb_func
 186              		.type	CYCONFIGCPYCODE, %function
 187              	CYCONFIGCPYCODE:
 188              	.LFB2:
  77:.\Generated_Source\PSoC5/cyfitter_cfg.c **** 	(void)memcpy(dest, src, n);
 189              		.loc 1 77 0
 190              		.cfi_startproc
 191              		@ args = 0, pretend = 0, frame = 0
 192              		@ frame_needed = 0, uses_anonymous_args = 0
ARM GAS  C:\Users\Patrick\AppData\Local\Temp\ccz80ATz.s 			page 9


 193              	.LVL17:
 194 0000 08B5     		push	{r3, lr}
 195              		.cfi_def_cfa_offset 8
 196              		.cfi_offset 3, -8
 197              		.cfi_offset 14, -4
  78:.\Generated_Source\PSoC5/cyfitter_cfg.c **** }
 198              		.loc 1 78 0
 199 0002 FFF7FEFF 		bl	memcpy
 200              	.LVL18:
 201 0006 08BD     		pop	{r3, pc}
 202              		.cfi_endproc
 203              	.LFE2:
 204              		.size	CYCONFIGCPYCODE, .-CYCONFIGCPYCODE
 205              		.section	.text.CYCONFIGCPY,"ax",%progbits
 206              		.align	2
 207              		.thumb
 208              		.thumb_func
 209              		.type	CYCONFIGCPY, %function
 210              	CYCONFIGCPY:
 211              	.LFB1:
  70:.\Generated_Source\PSoC5/cyfitter_cfg.c **** 	(void)memcpy(dest, src, n);
 212              		.loc 1 70 0
 213              		.cfi_startproc
 214              		@ args = 0, pretend = 0, frame = 0
 215              		@ frame_needed = 0, uses_anonymous_args = 0
 216              	.LVL19:
 217 0000 08B5     		push	{r3, lr}
 218              		.cfi_def_cfa_offset 8
 219              		.cfi_offset 3, -8
 220              		.cfi_offset 14, -4
  71:.\Generated_Source\PSoC5/cyfitter_cfg.c **** }
 221              		.loc 1 71 0
 222 0002 FFF7FEFF 		bl	memcpy
 223              	.LVL20:
 224 0006 08BD     		pop	{r3, pc}
 225              		.cfi_endproc
 226              	.LFE1:
 227              		.size	CYCONFIGCPY, .-CYCONFIGCPY
 228              		.section	.text.ClockSetup,"ax",%progbits
 229              		.align	2
 230              		.thumb
 231              		.thumb_func
 232              		.type	ClockSetup, %function
 233              	ClockSetup:
 234              	.LFB5:
 187:.\Generated_Source\PSoC5/cyfitter_cfg.c **** 	uint32 timeout;
 235              		.loc 1 187 0
 236              		.cfi_startproc
 237              		@ args = 0, pretend = 0, frame = 0
 238              		@ frame_needed = 0, uses_anonymous_args = 0
 239 0000 38B5     		push	{r3, r4, r5, lr}
 240              		.cfi_def_cfa_offset 16
 241              		.cfi_offset 3, -16
 242              		.cfi_offset 4, -12
 243              		.cfi_offset 5, -8
 244              		.cfi_offset 14, -4
 193:.\Generated_Source\PSoC5/cyfitter_cfg.c **** 	CY_SET_XTND_REG8((void CYFAR *)(CYREG_CLKDIST_DCFG0_CFG0 + 0x2u), 0x1Bu);
ARM GAS  C:\Users\Patrick\AppData\Local\Temp\ccz80ATz.s 			page 10


 245              		.loc 1 193 0
 246 0002 0323     		movs	r3, #3
 247 0004 264A     		ldr	r2, .L24
 248 0006 1380     		strh	r3, [r2]	@ movhi
 194:.\Generated_Source\PSoC5/cyfitter_cfg.c **** 	CY_SET_XTND_REG16((void CYFAR *)(CYREG_CLKDIST_DCFG1_CFG0), 0x0019u);
 249              		.loc 1 194 0
 250 0008 1B21     		movs	r1, #27
 251 000a 0232     		adds	r2, r2, #2
 252 000c 1170     		strb	r1, [r2]
 195:.\Generated_Source\PSoC5/cyfitter_cfg.c **** 	CY_SET_XTND_REG8((void CYFAR *)(CYREG_CLKDIST_DCFG1_CFG0 + 0x2u), 0x18u);
 253              		.loc 1 195 0
 254 000e 1925     		movs	r5, #25
 255 0010 0232     		adds	r2, r2, #2
 256 0012 1580     		strh	r5, [r2]	@ movhi
 196:.\Generated_Source\PSoC5/cyfitter_cfg.c **** 
 257              		.loc 1 196 0
 258 0014 1821     		movs	r1, #24
 259 0016 0232     		adds	r2, r2, #2
 260 0018 1170     		strb	r1, [r2]
 199:.\Generated_Source\PSoC5/cyfitter_cfg.c **** 	CY_SET_XTND_REG8((void CYFAR *)(CYREG_CLKDIST_CR), 0x08u);
 261              		.loc 1 199 0
 262 001a 0221     		movs	r1, #2
 263 001c 02F27A22 		addw	r2, r2, #634
 264 0020 1170     		strb	r1, [r2]
 200:.\Generated_Source\PSoC5/cyfitter_cfg.c **** 
 265              		.loc 1 200 0
 266 0022 0822     		movs	r2, #8
 267 0024 4FF04021 		mov	r1, #1073758208
 268 0028 0A70     		strb	r2, [r1]
 203:.\Generated_Source\PSoC5/cyfitter_cfg.c **** 	CY_SET_XTND_REG8((void CYFAR *)(CYREG_IMO_TR1), (CY_GET_XTND_REG8((void CYFAR *)CYREG_FLSHID_CUST_
 269              		.loc 1 203 0
 270 002a 01F50071 		add	r1, r1, #512
 271 002e 0B70     		strb	r3, [r1]
 204:.\Generated_Source\PSoC5/cyfitter_cfg.c **** 
 272              		.loc 1 204 0
 273 0030 1C4B     		ldr	r3, .L24+4
 274 0032 1B78     		ldrb	r3, [r3]	@ zero_extendqisi2
 275 0034 DBB2     		uxtb	r3, r3
 276 0036 01F2A141 		addw	r1, r1, #1185
 277 003a 0B70     		strb	r3, [r1]
 207:.\Generated_Source\PSoC5/cyfitter_cfg.c **** 	CY_SET_XTND_REG16((void CYFAR *)(CYREG_FASTCLK_PLL_CFG0), 0x1251u);
 278              		.loc 1 207 0
 279 003c 1A4B     		ldr	r3, .L24+8
 280 003e 1A80     		strh	r2, [r3]	@ movhi
 208:.\Generated_Source\PSoC5/cyfitter_cfg.c **** 	/* Wait up to 250us for the PLL to lock */
 281              		.loc 1 208 0
 282 0040 41F25122 		movw	r2, #4689
 283 0044 023B     		subs	r3, r3, #2
 284 0046 1A80     		strh	r2, [r3]	@ movhi
 285              	.LVL21:
 210:.\Generated_Source\PSoC5/cyfitter_cfg.c **** 	for (timeout = 250u / 10u; (timeout > 0u) && (pllLock != 0x03u); timeout--)
 286              		.loc 1 210 0
 287 0048 0024     		movs	r4, #0
 211:.\Generated_Source\PSoC5/cyfitter_cfg.c **** 	{ 
 288              		.loc 1 211 0
 289 004a 0CE0     		b	.L19
 290              	.LVL22:
ARM GAS  C:\Users\Patrick\AppData\Local\Temp\ccz80ATz.s 			page 11


 291              	.L21:
 213:.\Generated_Source\PSoC5/cyfitter_cfg.c **** 		CyDelayCycles(10u * 48u); /* Delay 10us based on 48MHz clock */
 292              		.loc 1 213 0 discriminator 4
 293 004c 174B     		ldr	r3, .L24+12
 294 004e 1B78     		ldrb	r3, [r3]	@ zero_extendqisi2
 295 0050 03F00103 		and	r3, r3, #1
 296 0054 43EA4404 		orr	r4, r3, r4, lsl #1
 297              	.LVL23:
 298 0058 04F00304 		and	r4, r4, #3
 299              	.LVL24:
 214:.\Generated_Source\PSoC5/cyfitter_cfg.c **** 	}
 300              		.loc 1 214 0 discriminator 4
 301 005c 4FF4F070 		mov	r0, #480
 302 0060 FFF7FEFF 		bl	CyDelayCycles
 303              	.LVL25:
 211:.\Generated_Source\PSoC5/cyfitter_cfg.c **** 	{ 
 304              		.loc 1 211 0 discriminator 4
 305 0064 013D     		subs	r5, r5, #1
 306              	.LVL26:
 307              	.L19:
 211:.\Generated_Source\PSoC5/cyfitter_cfg.c **** 	{ 
 308              		.loc 1 211 0 is_stmt 0 discriminator 1
 309 0066 0DB1     		cbz	r5, .L20
 211:.\Generated_Source\PSoC5/cyfitter_cfg.c **** 	{ 
 310              		.loc 1 211 0 discriminator 3
 311 0068 032C     		cmp	r4, #3
 312 006a EFD1     		bne	.L21
 313              	.L20:
 217:.\Generated_Source\PSoC5/cyfitter_cfg.c **** 	{
 314              		.loc 1 217 0 is_stmt 1
 315 006c 15B9     		cbnz	r5, .L22
 219:.\Generated_Source\PSoC5/cyfitter_cfg.c **** 	}
 316              		.loc 1 219 0
 317 006e 0320     		movs	r0, #3
 318 0070 FFF7FEFF 		bl	CyClockStartupError
 319              	.LVL27:
 320              	.L22:
 223:.\Generated_Source\PSoC5/cyfitter_cfg.c **** 	CY_SET_XTND_REG8((void CYFAR *)(CYREG_CLKDIST_MSTR0), 0x07u);
 321              		.loc 1 223 0
 322 0074 0E4B     		ldr	r3, .L24+16
 323 0076 4FF48072 		mov	r2, #256
 324 007a 1A80     		strh	r2, [r3]	@ movhi
 224:.\Generated_Source\PSoC5/cyfitter_cfg.c **** 	CY_SET_XTND_REG8((void CYFAR *)(CYREG_CLKDIST_BCFG0), 0x00u);
 325              		.loc 1 224 0
 326 007c 0722     		movs	r2, #7
 327 007e 1A70     		strb	r2, [r3]
 225:.\Generated_Source\PSoC5/cyfitter_cfg.c **** 	CY_SET_XTND_REG8((void CYFAR *)(CYREG_CLKDIST_BCFG2), 0x48u);
 328              		.loc 1 225 0
 329 0080 0022     		movs	r2, #0
 330 0082 0C49     		ldr	r1, .L24+20
 331 0084 0A70     		strb	r2, [r1]
 226:.\Generated_Source\PSoC5/cyfitter_cfg.c **** 	CY_SET_XTND_REG8((void CYFAR *)(CYREG_CLKDIST_MSTR0), 0x00u);
 332              		.loc 1 226 0
 333 0086 4820     		movs	r0, #72
 334 0088 0231     		adds	r1, r1, #2
 335 008a 0870     		strb	r0, [r1]
 227:.\Generated_Source\PSoC5/cyfitter_cfg.c **** 	CY_SET_XTND_REG8((void CYFAR *)(CYREG_CLKDIST_LD), 0x02u);
ARM GAS  C:\Users\Patrick\AppData\Local\Temp\ccz80ATz.s 			page 12


 336              		.loc 1 227 0
 337 008c 1A70     		strb	r2, [r3]
 228:.\Generated_Source\PSoC5/cyfitter_cfg.c **** 
 338              		.loc 1 228 0
 339 008e 0222     		movs	r2, #2
 340 0090 033B     		subs	r3, r3, #3
 341 0092 1A70     		strb	r2, [r3]
 230:.\Generated_Source\PSoC5/cyfitter_cfg.c **** }
 342              		.loc 1 230 0
 343 0094 084A     		ldr	r2, .L24+24
 344 0096 1378     		ldrb	r3, [r2]	@ zero_extendqisi2
 345 0098 43F00303 		orr	r3, r3, #3
 346 009c 1370     		strb	r3, [r2]
 347 009e 38BD     		pop	{r3, r4, r5, pc}
 348              	.LVL28:
 349              	.L25:
 350              		.align	2
 351              	.L24:
 352 00a0 80400040 		.word	1073758336
 353 00a4 08010049 		.word	1224737032
 354 00a8 22420040 		.word	1073758754
 355 00ac 25420040 		.word	1073758757
 356 00b0 04400040 		.word	1073758212
 357 00b4 06400040 		.word	1073758214
 358 00b8 A2430040 		.word	1073759138
 359              		.cfi_endproc
 360              	.LFE5:
 361              		.size	ClockSetup, .-ClockSetup
 362              		.section	.text.SetAnalogRoutingPumps,"ax",%progbits
 363              		.align	2
 364              		.global	SetAnalogRoutingPumps
 365              		.thumb
 366              		.thumb_func
 367              		.type	SetAnalogRoutingPumps, %function
 368              	SetAnalogRoutingPumps:
 369              	.LFB7:
 259:.\Generated_Source\PSoC5/cyfitter_cfg.c **** }
 260:.\Generated_Source\PSoC5/cyfitter_cfg.c **** 
 261:.\Generated_Source\PSoC5/cyfitter_cfg.c **** 
 262:.\Generated_Source\PSoC5/cyfitter_cfg.c **** /*******************************************************************************
 263:.\Generated_Source\PSoC5/cyfitter_cfg.c **** * Function Name: SetAnalogRoutingPumps
 264:.\Generated_Source\PSoC5/cyfitter_cfg.c **** ********************************************************************************
 265:.\Generated_Source\PSoC5/cyfitter_cfg.c **** *
 266:.\Generated_Source\PSoC5/cyfitter_cfg.c **** * Summary:
 267:.\Generated_Source\PSoC5/cyfitter_cfg.c **** * Enables or disables the analog pumps feeding analog routing switches.
 268:.\Generated_Source\PSoC5/cyfitter_cfg.c **** * Intended to be called at startup, based on the Vdda system configuration;
 269:.\Generated_Source\PSoC5/cyfitter_cfg.c **** * may be called during operation when the user informs us that the Vdda voltage
 270:.\Generated_Source\PSoC5/cyfitter_cfg.c **** * crossed the pump threshold.
 271:.\Generated_Source\PSoC5/cyfitter_cfg.c **** *
 272:.\Generated_Source\PSoC5/cyfitter_cfg.c **** * Parameters:
 273:.\Generated_Source\PSoC5/cyfitter_cfg.c **** *  enabled - 1 to enable the pumps, 0 to disable the pumps
 274:.\Generated_Source\PSoC5/cyfitter_cfg.c **** *
 275:.\Generated_Source\PSoC5/cyfitter_cfg.c **** * Return:
 276:.\Generated_Source\PSoC5/cyfitter_cfg.c **** *  void
 277:.\Generated_Source\PSoC5/cyfitter_cfg.c **** *
 278:.\Generated_Source\PSoC5/cyfitter_cfg.c **** *******************************************************************************/
 279:.\Generated_Source\PSoC5/cyfitter_cfg.c **** void SetAnalogRoutingPumps(uint8 enabled)
ARM GAS  C:\Users\Patrick\AppData\Local\Temp\ccz80ATz.s 			page 13


 280:.\Generated_Source\PSoC5/cyfitter_cfg.c **** {
 370              		.loc 1 280 0
 371              		.cfi_startproc
 372              		@ args = 0, pretend = 0, frame = 0
 373              		@ frame_needed = 0, uses_anonymous_args = 0
 374              		@ link register save eliminated.
 375              	.LVL29:
 281:.\Generated_Source\PSoC5/cyfitter_cfg.c **** 	uint8 regValue = CY_GET_XTND_REG8((void CYFAR *)CYREG_PUMP_CR0);
 376              		.loc 1 281 0
 377 0000 024A     		ldr	r2, .L27
 378 0002 1378     		ldrb	r3, [r2]	@ zero_extendqisi2
 379 0004 DBB2     		uxtb	r3, r3
 380              	.LVL30:
 282:.\Generated_Source\PSoC5/cyfitter_cfg.c **** 	if (enabled != 0u)
 283:.\Generated_Source\PSoC5/cyfitter_cfg.c **** 	{
 284:.\Generated_Source\PSoC5/cyfitter_cfg.c **** 		regValue |= 0x00u;
 285:.\Generated_Source\PSoC5/cyfitter_cfg.c **** 	}
 286:.\Generated_Source\PSoC5/cyfitter_cfg.c **** 	else
 287:.\Generated_Source\PSoC5/cyfitter_cfg.c **** 	{
 288:.\Generated_Source\PSoC5/cyfitter_cfg.c **** 		regValue &= (uint8)~0x00u;
 289:.\Generated_Source\PSoC5/cyfitter_cfg.c **** 	}
 290:.\Generated_Source\PSoC5/cyfitter_cfg.c **** 	CY_SET_XTND_REG8((void CYFAR *)CYREG_PUMP_CR0, regValue);
 381              		.loc 1 290 0
 382 0006 1370     		strb	r3, [r2]
 383 0008 7047     		bx	lr
 384              	.L28:
 385 000a 00BF     		.align	2
 386              	.L27:
 387 000c 76580040 		.word	1073764470
 388              		.cfi_endproc
 389              	.LFE7:
 390              		.size	SetAnalogRoutingPumps, .-SetAnalogRoutingPumps
 391              		.section	.text.cyfitter_cfg,"ax",%progbits
 392              		.align	2
 393              		.global	cyfitter_cfg
 394              		.thumb
 395              		.thumb_func
 396              		.type	cyfitter_cfg, %function
 397              	cyfitter_cfg:
 398              	.LFB8:
 291:.\Generated_Source\PSoC5/cyfitter_cfg.c **** }
 292:.\Generated_Source\PSoC5/cyfitter_cfg.c **** 
 293:.\Generated_Source\PSoC5/cyfitter_cfg.c **** #define CY_AMUX_UNUSED CYREG_BOOST_SR
 294:.\Generated_Source\PSoC5/cyfitter_cfg.c **** 
 295:.\Generated_Source\PSoC5/cyfitter_cfg.c **** 
 296:.\Generated_Source\PSoC5/cyfitter_cfg.c **** /*******************************************************************************
 297:.\Generated_Source\PSoC5/cyfitter_cfg.c **** * Function Name: cyfitter_cfg
 298:.\Generated_Source\PSoC5/cyfitter_cfg.c **** ********************************************************************************
 299:.\Generated_Source\PSoC5/cyfitter_cfg.c **** * Summary:
 300:.\Generated_Source\PSoC5/cyfitter_cfg.c **** *  This function is called by the start-up code for the selected device. It
 301:.\Generated_Source\PSoC5/cyfitter_cfg.c **** *  performs all of the necessary device configuration based on the design
 302:.\Generated_Source\PSoC5/cyfitter_cfg.c **** *  settings.  This includes settings from the Design Wide Resources (DWR) such
 303:.\Generated_Source\PSoC5/cyfitter_cfg.c **** *  as Clocks and Pins as well as any component configuration that is necessary.
 304:.\Generated_Source\PSoC5/cyfitter_cfg.c **** *
 305:.\Generated_Source\PSoC5/cyfitter_cfg.c **** * Parameters:  
 306:.\Generated_Source\PSoC5/cyfitter_cfg.c **** *   void
 307:.\Generated_Source\PSoC5/cyfitter_cfg.c **** *
ARM GAS  C:\Users\Patrick\AppData\Local\Temp\ccz80ATz.s 			page 14


 308:.\Generated_Source\PSoC5/cyfitter_cfg.c **** * Return:
 309:.\Generated_Source\PSoC5/cyfitter_cfg.c **** *   void
 310:.\Generated_Source\PSoC5/cyfitter_cfg.c **** *
 311:.\Generated_Source\PSoC5/cyfitter_cfg.c **** *******************************************************************************/
 312:.\Generated_Source\PSoC5/cyfitter_cfg.c **** 
 313:.\Generated_Source\PSoC5/cyfitter_cfg.c **** void cyfitter_cfg(void)
 314:.\Generated_Source\PSoC5/cyfitter_cfg.c **** {
 399              		.loc 1 314 0
 400              		.cfi_startproc
 401              		@ args = 0, pretend = 0, frame = 0
 402              		@ frame_needed = 0, uses_anonymous_args = 0
 403 0000 38B5     		push	{r3, r4, r5, lr}
 404              		.cfi_def_cfa_offset 16
 405              		.cfi_offset 3, -16
 406              		.cfi_offset 4, -12
 407              		.cfi_offset 5, -8
 408              		.cfi_offset 14, -4
 315:.\Generated_Source\PSoC5/cyfitter_cfg.c **** 	/* IOPINS0_7 Address: CYREG_PRT12_DR Size (bytes): 10 */
 316:.\Generated_Source\PSoC5/cyfitter_cfg.c **** 	static const uint8 CYCODE BS_IOPINS0_7_VAL[] = {
 317:.\Generated_Source\PSoC5/cyfitter_cfg.c **** 		0x80u, 0x00u, 0x40u, 0x80u, 0x80u, 0x00u, 0x80u, 0x00u, 0x00u, 0x00u};
 318:.\Generated_Source\PSoC5/cyfitter_cfg.c **** 
 319:.\Generated_Source\PSoC5/cyfitter_cfg.c **** 	/* IOPINS0_2 Address: CYREG_PRT2_DM0 Size (bytes): 8 */
 320:.\Generated_Source\PSoC5/cyfitter_cfg.c **** 	static const uint8 CYCODE BS_IOPINS0_2_VAL[] = {
 321:.\Generated_Source\PSoC5/cyfitter_cfg.c **** 		0x00u, 0x02u, 0x02u, 0x00u, 0x02u, 0x00u, 0x00u, 0x00u};
 322:.\Generated_Source\PSoC5/cyfitter_cfg.c **** 
 323:.\Generated_Source\PSoC5/cyfitter_cfg.c **** #ifdef CYGlobalIntDisable
 324:.\Generated_Source\PSoC5/cyfitter_cfg.c **** 	/* Disable interrupts by default. Let user enable if/when they want. */
 325:.\Generated_Source\PSoC5/cyfitter_cfg.c **** 	CYGlobalIntDisable
 409              		.loc 1 325 0
 410              	@ 325 ".\Generated_Source\PSoC5\cyfitter_cfg.c" 1
 411 0002 72B6     		CPSID   i
 412              	@ 0 "" 2
 326:.\Generated_Source\PSoC5/cyfitter_cfg.c **** #endif
 327:.\Generated_Source\PSoC5/cyfitter_cfg.c **** 
 328:.\Generated_Source\PSoC5/cyfitter_cfg.c **** 	/* Enable/Disable Debug functionality based on settings from System DWR */
 329:.\Generated_Source\PSoC5/cyfitter_cfg.c **** 	CY_SET_XTND_REG8((void CYFAR *)CYREG_MLOGIC_DEBUG, (CY_GET_XTND_REG8((void CYFAR *)CYREG_MLOGIC_DE
 413              		.loc 1 329 0
 414              		.thumb
 415 0004 324A     		ldr	r2, .L35
 416 0006 1378     		ldrb	r3, [r2]	@ zero_extendqisi2
 417 0008 43F00403 		orr	r3, r3, #4
 418 000c 1370     		strb	r3, [r2]
 419              	.LVL31:
 420              	.LBB3:
 330:.\Generated_Source\PSoC5/cyfitter_cfg.c **** 
 331:.\Generated_Source\PSoC5/cyfitter_cfg.c **** 	{
 332:.\Generated_Source\PSoC5/cyfitter_cfg.c **** 		static const uint32 CYCODE cy_cfg_addr_table[] = {
 333:.\Generated_Source\PSoC5/cyfitter_cfg.c **** 			0x40004F01u, /* Base address: 0x40004F00 Count: 1 */
 334:.\Generated_Source\PSoC5/cyfitter_cfg.c **** 			0x40005202u, /* Base address: 0x40005200 Count: 2 */
 335:.\Generated_Source\PSoC5/cyfitter_cfg.c **** 			0x40006401u, /* Base address: 0x40006400 Count: 1 */
 336:.\Generated_Source\PSoC5/cyfitter_cfg.c **** 			0x40006502u, /* Base address: 0x40006500 Count: 2 */
 337:.\Generated_Source\PSoC5/cyfitter_cfg.c **** 			0x40010101u, /* Base address: 0x40010100 Count: 1 */
 338:.\Generated_Source\PSoC5/cyfitter_cfg.c **** 			0x4001084Eu, /* Base address: 0x40010800 Count: 78 */
 339:.\Generated_Source\PSoC5/cyfitter_cfg.c **** 			0x40010930u, /* Base address: 0x40010900 Count: 48 */
 340:.\Generated_Source\PSoC5/cyfitter_cfg.c **** 			0x40010B01u, /* Base address: 0x40010B00 Count: 1 */
 341:.\Generated_Source\PSoC5/cyfitter_cfg.c **** 			0x40010D01u, /* Base address: 0x40010D00 Count: 1 */
 342:.\Generated_Source\PSoC5/cyfitter_cfg.c **** 			0x40010F01u, /* Base address: 0x40010F00 Count: 1 */
ARM GAS  C:\Users\Patrick\AppData\Local\Temp\ccz80ATz.s 			page 15


 343:.\Generated_Source\PSoC5/cyfitter_cfg.c **** 			0x40011502u, /* Base address: 0x40011500 Count: 2 */
 344:.\Generated_Source\PSoC5/cyfitter_cfg.c **** 			0x40011701u, /* Base address: 0x40011700 Count: 1 */
 345:.\Generated_Source\PSoC5/cyfitter_cfg.c **** 			0x4001184Eu, /* Base address: 0x40011800 Count: 78 */
 346:.\Generated_Source\PSoC5/cyfitter_cfg.c **** 			0x4001193Bu, /* Base address: 0x40011900 Count: 59 */
 347:.\Generated_Source\PSoC5/cyfitter_cfg.c **** 			0x40011A14u, /* Base address: 0x40011A00 Count: 20 */
 348:.\Generated_Source\PSoC5/cyfitter_cfg.c **** 			0x40011B48u, /* Base address: 0x40011B00 Count: 72 */
 349:.\Generated_Source\PSoC5/cyfitter_cfg.c **** 			0x40014005u, /* Base address: 0x40014000 Count: 5 */
 350:.\Generated_Source\PSoC5/cyfitter_cfg.c **** 			0x40014101u, /* Base address: 0x40014100 Count: 1 */
 351:.\Generated_Source\PSoC5/cyfitter_cfg.c **** 			0x40014201u, /* Base address: 0x40014200 Count: 1 */
 352:.\Generated_Source\PSoC5/cyfitter_cfg.c **** 			0x40014303u, /* Base address: 0x40014300 Count: 3 */
 353:.\Generated_Source\PSoC5/cyfitter_cfg.c **** 			0x40014502u, /* Base address: 0x40014500 Count: 2 */
 354:.\Generated_Source\PSoC5/cyfitter_cfg.c **** 			0x40014601u, /* Base address: 0x40014600 Count: 1 */
 355:.\Generated_Source\PSoC5/cyfitter_cfg.c **** 			0x40014701u, /* Base address: 0x40014700 Count: 1 */
 356:.\Generated_Source\PSoC5/cyfitter_cfg.c **** 			0x40014804u, /* Base address: 0x40014800 Count: 4 */
 357:.\Generated_Source\PSoC5/cyfitter_cfg.c **** 			0x40014905u, /* Base address: 0x40014900 Count: 5 */
 358:.\Generated_Source\PSoC5/cyfitter_cfg.c **** 			0x40014C02u, /* Base address: 0x40014C00 Count: 2 */
 359:.\Generated_Source\PSoC5/cyfitter_cfg.c **** 			0x40014D08u, /* Base address: 0x40014D00 Count: 8 */
 360:.\Generated_Source\PSoC5/cyfitter_cfg.c **** 			0x40015004u, /* Base address: 0x40015000 Count: 4 */
 361:.\Generated_Source\PSoC5/cyfitter_cfg.c **** 			0x40015101u, /* Base address: 0x40015100 Count: 1 */
 362:.\Generated_Source\PSoC5/cyfitter_cfg.c **** 		};
 363:.\Generated_Source\PSoC5/cyfitter_cfg.c **** 
 364:.\Generated_Source\PSoC5/cyfitter_cfg.c **** 		static const cy_cfg_addrvalue_t CYCODE cy_cfg_data_table[] = {
 365:.\Generated_Source\PSoC5/cyfitter_cfg.c **** 			{0x0Au, 0x36u},
 366:.\Generated_Source\PSoC5/cyfitter_cfg.c **** 			{0x61u, 0x80u},
 367:.\Generated_Source\PSoC5/cyfitter_cfg.c **** 			{0x64u, 0x40u},
 368:.\Generated_Source\PSoC5/cyfitter_cfg.c **** 			{0x89u, 0x0Fu},
 369:.\Generated_Source\PSoC5/cyfitter_cfg.c **** 			{0x88u, 0x72u},
 370:.\Generated_Source\PSoC5/cyfitter_cfg.c **** 			{0x8Bu, 0x38u},
 371:.\Generated_Source\PSoC5/cyfitter_cfg.c **** 			{0xE2u, 0x04u},
 372:.\Generated_Source\PSoC5/cyfitter_cfg.c **** 			{0x01u, 0x1Fu},
 373:.\Generated_Source\PSoC5/cyfitter_cfg.c **** 			{0x05u, 0x04u},
 374:.\Generated_Source\PSoC5/cyfitter_cfg.c **** 			{0x09u, 0x0Eu},
 375:.\Generated_Source\PSoC5/cyfitter_cfg.c **** 			{0x0Au, 0x02u},
 376:.\Generated_Source\PSoC5/cyfitter_cfg.c **** 			{0x0Bu, 0x11u},
 377:.\Generated_Source\PSoC5/cyfitter_cfg.c **** 			{0x0Du, 0x08u},
 378:.\Generated_Source\PSoC5/cyfitter_cfg.c **** 			{0x13u, 0x12u},
 379:.\Generated_Source\PSoC5/cyfitter_cfg.c **** 			{0x15u, 0x13u},
 380:.\Generated_Source\PSoC5/cyfitter_cfg.c **** 			{0x16u, 0x02u},
 381:.\Generated_Source\PSoC5/cyfitter_cfg.c **** 			{0x17u, 0x0Cu},
 382:.\Generated_Source\PSoC5/cyfitter_cfg.c **** 			{0x19u, 0x0Cu},
 383:.\Generated_Source\PSoC5/cyfitter_cfg.c **** 			{0x1Bu, 0x13u},
 384:.\Generated_Source\PSoC5/cyfitter_cfg.c **** 			{0x26u, 0x01u},
 385:.\Generated_Source\PSoC5/cyfitter_cfg.c **** 			{0x29u, 0x0Cu},
 386:.\Generated_Source\PSoC5/cyfitter_cfg.c **** 			{0x30u, 0x02u},
 387:.\Generated_Source\PSoC5/cyfitter_cfg.c **** 			{0x32u, 0x01u},
 388:.\Generated_Source\PSoC5/cyfitter_cfg.c **** 			{0x33u, 0x1Cu},
 389:.\Generated_Source\PSoC5/cyfitter_cfg.c **** 			{0x35u, 0x0Eu},
 390:.\Generated_Source\PSoC5/cyfitter_cfg.c **** 			{0x37u, 0x01u},
 391:.\Generated_Source\PSoC5/cyfitter_cfg.c **** 			{0x39u, 0x80u},
 392:.\Generated_Source\PSoC5/cyfitter_cfg.c **** 			{0x3Bu, 0x08u},
 393:.\Generated_Source\PSoC5/cyfitter_cfg.c **** 			{0x3Eu, 0x01u},
 394:.\Generated_Source\PSoC5/cyfitter_cfg.c **** 			{0x58u, 0x04u},
 395:.\Generated_Source\PSoC5/cyfitter_cfg.c **** 			{0x59u, 0x04u},
 396:.\Generated_Source\PSoC5/cyfitter_cfg.c **** 			{0x5Cu, 0x11u},
 397:.\Generated_Source\PSoC5/cyfitter_cfg.c **** 			{0x5Fu, 0x01u},
 398:.\Generated_Source\PSoC5/cyfitter_cfg.c **** 			{0x84u, 0x13u},
 399:.\Generated_Source\PSoC5/cyfitter_cfg.c **** 			{0x85u, 0x20u},
ARM GAS  C:\Users\Patrick\AppData\Local\Temp\ccz80ATz.s 			page 16


 400:.\Generated_Source\PSoC5/cyfitter_cfg.c **** 			{0x86u, 0x0Cu},
 401:.\Generated_Source\PSoC5/cyfitter_cfg.c **** 			{0x87u, 0x18u},
 402:.\Generated_Source\PSoC5/cyfitter_cfg.c **** 			{0x88u, 0x13u},
 403:.\Generated_Source\PSoC5/cyfitter_cfg.c **** 			{0x89u, 0x28u},
 404:.\Generated_Source\PSoC5/cyfitter_cfg.c **** 			{0x8Au, 0x04u},
 405:.\Generated_Source\PSoC5/cyfitter_cfg.c **** 			{0x8Fu, 0x06u},
 406:.\Generated_Source\PSoC5/cyfitter_cfg.c **** 			{0x95u, 0x12u},
 407:.\Generated_Source\PSoC5/cyfitter_cfg.c **** 			{0x96u, 0x15u},
 408:.\Generated_Source\PSoC5/cyfitter_cfg.c **** 			{0x97u, 0x20u},
 409:.\Generated_Source\PSoC5/cyfitter_cfg.c **** 			{0x98u, 0x0Au},
 410:.\Generated_Source\PSoC5/cyfitter_cfg.c **** 			{0x99u, 0x38u},
 411:.\Generated_Source\PSoC5/cyfitter_cfg.c **** 			{0x9Au, 0x14u},
 412:.\Generated_Source\PSoC5/cyfitter_cfg.c **** 			{0x9Bu, 0x04u},
 413:.\Generated_Source\PSoC5/cyfitter_cfg.c **** 			{0x9Du, 0x20u},
 414:.\Generated_Source\PSoC5/cyfitter_cfg.c **** 			{0xA1u, 0x01u},
 415:.\Generated_Source\PSoC5/cyfitter_cfg.c **** 			{0xA4u, 0x03u},
 416:.\Generated_Source\PSoC5/cyfitter_cfg.c **** 			{0xA6u, 0x14u},
 417:.\Generated_Source\PSoC5/cyfitter_cfg.c **** 			{0xA9u, 0x18u},
 418:.\Generated_Source\PSoC5/cyfitter_cfg.c **** 			{0xAAu, 0x08u},
 419:.\Generated_Source\PSoC5/cyfitter_cfg.c **** 			{0xABu, 0x22u},
 420:.\Generated_Source\PSoC5/cyfitter_cfg.c **** 			{0xB0u, 0x10u},
 421:.\Generated_Source\PSoC5/cyfitter_cfg.c **** 			{0xB1u, 0x3Eu},
 422:.\Generated_Source\PSoC5/cyfitter_cfg.c **** 			{0xB3u, 0x01u},
 423:.\Generated_Source\PSoC5/cyfitter_cfg.c **** 			{0xB4u, 0x0Fu},
 424:.\Generated_Source\PSoC5/cyfitter_cfg.c **** 			{0xBAu, 0x20u},
 425:.\Generated_Source\PSoC5/cyfitter_cfg.c **** 			{0xBEu, 0x01u},
 426:.\Generated_Source\PSoC5/cyfitter_cfg.c **** 			{0xBFu, 0x04u},
 427:.\Generated_Source\PSoC5/cyfitter_cfg.c **** 			{0xC0u, 0x23u},
 428:.\Generated_Source\PSoC5/cyfitter_cfg.c **** 			{0xC1u, 0x06u},
 429:.\Generated_Source\PSoC5/cyfitter_cfg.c **** 			{0xC5u, 0xECu},
 430:.\Generated_Source\PSoC5/cyfitter_cfg.c **** 			{0xC6u, 0xB0u},
 431:.\Generated_Source\PSoC5/cyfitter_cfg.c **** 			{0xC8u, 0x0Bu},
 432:.\Generated_Source\PSoC5/cyfitter_cfg.c **** 			{0xC9u, 0xFFu},
 433:.\Generated_Source\PSoC5/cyfitter_cfg.c **** 			{0xCAu, 0xFFu},
 434:.\Generated_Source\PSoC5/cyfitter_cfg.c **** 			{0xCBu, 0xFFu},
 435:.\Generated_Source\PSoC5/cyfitter_cfg.c **** 			{0xCEu, 0xF0u},
 436:.\Generated_Source\PSoC5/cyfitter_cfg.c **** 			{0xCFu, 0x44u},
 437:.\Generated_Source\PSoC5/cyfitter_cfg.c **** 			{0xD0u, 0x0Cu},
 438:.\Generated_Source\PSoC5/cyfitter_cfg.c **** 			{0xD4u, 0x01u},
 439:.\Generated_Source\PSoC5/cyfitter_cfg.c **** 			{0xD6u, 0x04u},
 440:.\Generated_Source\PSoC5/cyfitter_cfg.c **** 			{0xD8u, 0x04u},
 441:.\Generated_Source\PSoC5/cyfitter_cfg.c **** 			{0xD9u, 0x04u},
 442:.\Generated_Source\PSoC5/cyfitter_cfg.c **** 			{0xDAu, 0x04u},
 443:.\Generated_Source\PSoC5/cyfitter_cfg.c **** 			{0xDBu, 0x04u},
 444:.\Generated_Source\PSoC5/cyfitter_cfg.c **** 			{0xDCu, 0x11u},
 445:.\Generated_Source\PSoC5/cyfitter_cfg.c **** 			{0xDDu, 0x11u},
 446:.\Generated_Source\PSoC5/cyfitter_cfg.c **** 			{0xDFu, 0x01u},
 447:.\Generated_Source\PSoC5/cyfitter_cfg.c **** 			{0xE6u, 0xC0u},
 448:.\Generated_Source\PSoC5/cyfitter_cfg.c **** 			{0xEAu, 0x40u},
 449:.\Generated_Source\PSoC5/cyfitter_cfg.c **** 			{0xEBu, 0x02u},
 450:.\Generated_Source\PSoC5/cyfitter_cfg.c **** 			{0x00u, 0x04u},
 451:.\Generated_Source\PSoC5/cyfitter_cfg.c **** 			{0x01u, 0x20u},
 452:.\Generated_Source\PSoC5/cyfitter_cfg.c **** 			{0x06u, 0x04u},
 453:.\Generated_Source\PSoC5/cyfitter_cfg.c **** 			{0x07u, 0x04u},
 454:.\Generated_Source\PSoC5/cyfitter_cfg.c **** 			{0x09u, 0x28u},
 455:.\Generated_Source\PSoC5/cyfitter_cfg.c **** 			{0x0Fu, 0x20u},
 456:.\Generated_Source\PSoC5/cyfitter_cfg.c **** 			{0x10u, 0x30u},
ARM GAS  C:\Users\Patrick\AppData\Local\Temp\ccz80ATz.s 			page 17


 457:.\Generated_Source\PSoC5/cyfitter_cfg.c **** 			{0x12u, 0x08u},
 458:.\Generated_Source\PSoC5/cyfitter_cfg.c **** 			{0x14u, 0x20u},
 459:.\Generated_Source\PSoC5/cyfitter_cfg.c **** 			{0x18u, 0x04u},
 460:.\Generated_Source\PSoC5/cyfitter_cfg.c **** 			{0x1Au, 0x40u},
 461:.\Generated_Source\PSoC5/cyfitter_cfg.c **** 			{0x1Cu, 0x20u},
 462:.\Generated_Source\PSoC5/cyfitter_cfg.c **** 			{0x1Fu, 0x01u},
 463:.\Generated_Source\PSoC5/cyfitter_cfg.c **** 			{0x20u, 0x40u},
 464:.\Generated_Source\PSoC5/cyfitter_cfg.c **** 			{0x22u, 0x04u},
 465:.\Generated_Source\PSoC5/cyfitter_cfg.c **** 			{0x27u, 0x15u},
 466:.\Generated_Source\PSoC5/cyfitter_cfg.c **** 			{0x29u, 0x21u},
 467:.\Generated_Source\PSoC5/cyfitter_cfg.c **** 			{0x2Eu, 0x20u},
 468:.\Generated_Source\PSoC5/cyfitter_cfg.c **** 			{0x30u, 0x80u},
 469:.\Generated_Source\PSoC5/cyfitter_cfg.c **** 			{0x31u, 0x20u},
 470:.\Generated_Source\PSoC5/cyfitter_cfg.c **** 			{0x32u, 0x08u},
 471:.\Generated_Source\PSoC5/cyfitter_cfg.c **** 			{0x36u, 0x06u},
 472:.\Generated_Source\PSoC5/cyfitter_cfg.c **** 			{0x37u, 0x10u},
 473:.\Generated_Source\PSoC5/cyfitter_cfg.c **** 			{0x38u, 0x64u},
 474:.\Generated_Source\PSoC5/cyfitter_cfg.c **** 			{0x3Au, 0x40u},
 475:.\Generated_Source\PSoC5/cyfitter_cfg.c **** 			{0x3Cu, 0x80u},
 476:.\Generated_Source\PSoC5/cyfitter_cfg.c **** 			{0x3Du, 0x20u},
 477:.\Generated_Source\PSoC5/cyfitter_cfg.c **** 			{0x3Eu, 0x09u},
 478:.\Generated_Source\PSoC5/cyfitter_cfg.c **** 			{0x40u, 0x14u},
 479:.\Generated_Source\PSoC5/cyfitter_cfg.c **** 			{0x41u, 0x08u},
 480:.\Generated_Source\PSoC5/cyfitter_cfg.c **** 			{0x48u, 0x20u},
 481:.\Generated_Source\PSoC5/cyfitter_cfg.c **** 			{0x49u, 0x21u},
 482:.\Generated_Source\PSoC5/cyfitter_cfg.c **** 			{0x50u, 0x10u},
 483:.\Generated_Source\PSoC5/cyfitter_cfg.c **** 			{0x58u, 0x10u},
 484:.\Generated_Source\PSoC5/cyfitter_cfg.c **** 			{0x59u, 0x01u},
 485:.\Generated_Source\PSoC5/cyfitter_cfg.c **** 			{0x5Au, 0x48u},
 486:.\Generated_Source\PSoC5/cyfitter_cfg.c **** 			{0x62u, 0x01u},
 487:.\Generated_Source\PSoC5/cyfitter_cfg.c **** 			{0x9Eu, 0x01u},
 488:.\Generated_Source\PSoC5/cyfitter_cfg.c **** 			{0xC0u, 0x46u},
 489:.\Generated_Source\PSoC5/cyfitter_cfg.c **** 			{0xC2u, 0x26u},
 490:.\Generated_Source\PSoC5/cyfitter_cfg.c **** 			{0xC4u, 0x26u},
 491:.\Generated_Source\PSoC5/cyfitter_cfg.c **** 			{0xCAu, 0x25u},
 492:.\Generated_Source\PSoC5/cyfitter_cfg.c **** 			{0xCCu, 0xEEu},
 493:.\Generated_Source\PSoC5/cyfitter_cfg.c **** 			{0xCEu, 0xFEu},
 494:.\Generated_Source\PSoC5/cyfitter_cfg.c **** 			{0xD0u, 0x06u},
 495:.\Generated_Source\PSoC5/cyfitter_cfg.c **** 			{0xD2u, 0x04u},
 496:.\Generated_Source\PSoC5/cyfitter_cfg.c **** 			{0xD6u, 0x0Fu},
 497:.\Generated_Source\PSoC5/cyfitter_cfg.c **** 			{0xD8u, 0x01u},
 498:.\Generated_Source\PSoC5/cyfitter_cfg.c **** 			{0x9Eu, 0x01u},
 499:.\Generated_Source\PSoC5/cyfitter_cfg.c **** 			{0x9Eu, 0x01u},
 500:.\Generated_Source\PSoC5/cyfitter_cfg.c **** 			{0x82u, 0x01u},
 501:.\Generated_Source\PSoC5/cyfitter_cfg.c **** 			{0xE6u, 0x08u},
 502:.\Generated_Source\PSoC5/cyfitter_cfg.c **** 			{0xEEu, 0x08u},
 503:.\Generated_Source\PSoC5/cyfitter_cfg.c **** 			{0xE8u, 0x10u},
 504:.\Generated_Source\PSoC5/cyfitter_cfg.c **** 			{0x00u, 0x02u},
 505:.\Generated_Source\PSoC5/cyfitter_cfg.c **** 			{0x01u, 0x04u},
 506:.\Generated_Source\PSoC5/cyfitter_cfg.c **** 			{0x04u, 0x1Fu},
 507:.\Generated_Source\PSoC5/cyfitter_cfg.c **** 			{0x05u, 0x08u},
 508:.\Generated_Source\PSoC5/cyfitter_cfg.c **** 			{0x08u, 0x1Cu},
 509:.\Generated_Source\PSoC5/cyfitter_cfg.c **** 			{0x0Au, 0x03u},
 510:.\Generated_Source\PSoC5/cyfitter_cfg.c **** 			{0x0Bu, 0x04u},
 511:.\Generated_Source\PSoC5/cyfitter_cfg.c **** 			{0x0Du, 0x10u},
 512:.\Generated_Source\PSoC5/cyfitter_cfg.c **** 			{0x12u, 0x03u},
 513:.\Generated_Source\PSoC5/cyfitter_cfg.c **** 			{0x13u, 0x03u},
ARM GAS  C:\Users\Patrick\AppData\Local\Temp\ccz80ATz.s 			page 18


 514:.\Generated_Source\PSoC5/cyfitter_cfg.c **** 			{0x14u, 0x03u},
 515:.\Generated_Source\PSoC5/cyfitter_cfg.c **** 			{0x15u, 0x1Cu},
 516:.\Generated_Source\PSoC5/cyfitter_cfg.c **** 			{0x17u, 0x02u},
 517:.\Generated_Source\PSoC5/cyfitter_cfg.c **** 			{0x18u, 0x13u},
 518:.\Generated_Source\PSoC5/cyfitter_cfg.c **** 			{0x19u, 0x1Cu},
 519:.\Generated_Source\PSoC5/cyfitter_cfg.c **** 			{0x1Au, 0x0Cu},
 520:.\Generated_Source\PSoC5/cyfitter_cfg.c **** 			{0x1Bu, 0x01u},
 521:.\Generated_Source\PSoC5/cyfitter_cfg.c **** 			{0x1Cu, 0x1Fu},
 522:.\Generated_Source\PSoC5/cyfitter_cfg.c **** 			{0x20u, 0x08u},
 523:.\Generated_Source\PSoC5/cyfitter_cfg.c **** 			{0x21u, 0x1Fu},
 524:.\Generated_Source\PSoC5/cyfitter_cfg.c **** 			{0x24u, 0x04u},
 525:.\Generated_Source\PSoC5/cyfitter_cfg.c **** 			{0x25u, 0x07u},
 526:.\Generated_Source\PSoC5/cyfitter_cfg.c **** 			{0x27u, 0x18u},
 527:.\Generated_Source\PSoC5/cyfitter_cfg.c **** 			{0x28u, 0x0Cu},
 528:.\Generated_Source\PSoC5/cyfitter_cfg.c **** 			{0x29u, 0x18u},
 529:.\Generated_Source\PSoC5/cyfitter_cfg.c **** 			{0x2Cu, 0x01u},
 530:.\Generated_Source\PSoC5/cyfitter_cfg.c **** 			{0x32u, 0x10u},
 531:.\Generated_Source\PSoC5/cyfitter_cfg.c **** 			{0x34u, 0x0Fu},
 532:.\Generated_Source\PSoC5/cyfitter_cfg.c **** 			{0x35u, 0x1Fu},
 533:.\Generated_Source\PSoC5/cyfitter_cfg.c **** 			{0x3Au, 0xA0u},
 534:.\Generated_Source\PSoC5/cyfitter_cfg.c **** 			{0x3Bu, 0x20u},
 535:.\Generated_Source\PSoC5/cyfitter_cfg.c **** 			{0x3Eu, 0x04u},
 536:.\Generated_Source\PSoC5/cyfitter_cfg.c **** 			{0x56u, 0x02u},
 537:.\Generated_Source\PSoC5/cyfitter_cfg.c **** 			{0x57u, 0x11u},
 538:.\Generated_Source\PSoC5/cyfitter_cfg.c **** 			{0x58u, 0x04u},
 539:.\Generated_Source\PSoC5/cyfitter_cfg.c **** 			{0x59u, 0x04u},
 540:.\Generated_Source\PSoC5/cyfitter_cfg.c **** 			{0x5Bu, 0x04u},
 541:.\Generated_Source\PSoC5/cyfitter_cfg.c **** 			{0x5Cu, 0x11u},
 542:.\Generated_Source\PSoC5/cyfitter_cfg.c **** 			{0x5Du, 0x10u},
 543:.\Generated_Source\PSoC5/cyfitter_cfg.c **** 			{0x5Fu, 0x01u},
 544:.\Generated_Source\PSoC5/cyfitter_cfg.c **** 			{0x85u, 0x03u},
 545:.\Generated_Source\PSoC5/cyfitter_cfg.c **** 			{0x86u, 0x05u},
 546:.\Generated_Source\PSoC5/cyfitter_cfg.c **** 			{0x8Au, 0x03u},
 547:.\Generated_Source\PSoC5/cyfitter_cfg.c **** 			{0x8Bu, 0x01u},
 548:.\Generated_Source\PSoC5/cyfitter_cfg.c **** 			{0x98u, 0x06u},
 549:.\Generated_Source\PSoC5/cyfitter_cfg.c **** 			{0x99u, 0x02u},
 550:.\Generated_Source\PSoC5/cyfitter_cfg.c **** 			{0x9Au, 0x01u},
 551:.\Generated_Source\PSoC5/cyfitter_cfg.c **** 			{0xA2u, 0x02u},
 552:.\Generated_Source\PSoC5/cyfitter_cfg.c **** 			{0xA6u, 0x01u},
 553:.\Generated_Source\PSoC5/cyfitter_cfg.c **** 			{0xA9u, 0x03u},
 554:.\Generated_Source\PSoC5/cyfitter_cfg.c **** 			{0xAAu, 0x06u},
 555:.\Generated_Source\PSoC5/cyfitter_cfg.c **** 			{0xB1u, 0x03u},
 556:.\Generated_Source\PSoC5/cyfitter_cfg.c **** 			{0xB4u, 0x07u},
 557:.\Generated_Source\PSoC5/cyfitter_cfg.c **** 			{0xB8u, 0x02u},
 558:.\Generated_Source\PSoC5/cyfitter_cfg.c **** 			{0xB9u, 0x02u},
 559:.\Generated_Source\PSoC5/cyfitter_cfg.c **** 			{0xBAu, 0x20u},
 560:.\Generated_Source\PSoC5/cyfitter_cfg.c **** 			{0xBEu, 0x01u},
 561:.\Generated_Source\PSoC5/cyfitter_cfg.c **** 			{0xBFu, 0x01u},
 562:.\Generated_Source\PSoC5/cyfitter_cfg.c **** 			{0xC0u, 0x04u},
 563:.\Generated_Source\PSoC5/cyfitter_cfg.c **** 			{0xC5u, 0x40u},
 564:.\Generated_Source\PSoC5/cyfitter_cfg.c **** 			{0xC9u, 0xFFu},
 565:.\Generated_Source\PSoC5/cyfitter_cfg.c **** 			{0xCAu, 0x07u},
 566:.\Generated_Source\PSoC5/cyfitter_cfg.c **** 			{0xCBu, 0xFFu},
 567:.\Generated_Source\PSoC5/cyfitter_cfg.c **** 			{0xCCu, 0x40u},
 568:.\Generated_Source\PSoC5/cyfitter_cfg.c **** 			{0xCDu, 0x20u},
 569:.\Generated_Source\PSoC5/cyfitter_cfg.c **** 			{0xCEu, 0xF0u},
 570:.\Generated_Source\PSoC5/cyfitter_cfg.c **** 			{0xCFu, 0x05u},
ARM GAS  C:\Users\Patrick\AppData\Local\Temp\ccz80ATz.s 			page 19


 571:.\Generated_Source\PSoC5/cyfitter_cfg.c **** 			{0xD0u, 0x08u},
 572:.\Generated_Source\PSoC5/cyfitter_cfg.c **** 			{0xD8u, 0x04u},
 573:.\Generated_Source\PSoC5/cyfitter_cfg.c **** 			{0xD9u, 0x04u},
 574:.\Generated_Source\PSoC5/cyfitter_cfg.c **** 			{0xDAu, 0x04u},
 575:.\Generated_Source\PSoC5/cyfitter_cfg.c **** 			{0xDCu, 0x01u},
 576:.\Generated_Source\PSoC5/cyfitter_cfg.c **** 			{0xDDu, 0x01u},
 577:.\Generated_Source\PSoC5/cyfitter_cfg.c **** 			{0xDFu, 0x01u},
 578:.\Generated_Source\PSoC5/cyfitter_cfg.c **** 			{0xE0u, 0x40u},
 579:.\Generated_Source\PSoC5/cyfitter_cfg.c **** 			{0xE1u, 0xA8u},
 580:.\Generated_Source\PSoC5/cyfitter_cfg.c **** 			{0xE2u, 0x40u},
 581:.\Generated_Source\PSoC5/cyfitter_cfg.c **** 			{0xE3u, 0x20u},
 582:.\Generated_Source\PSoC5/cyfitter_cfg.c **** 			{0x00u, 0x04u},
 583:.\Generated_Source\PSoC5/cyfitter_cfg.c **** 			{0x01u, 0x20u},
 584:.\Generated_Source\PSoC5/cyfitter_cfg.c **** 			{0x05u, 0x01u},
 585:.\Generated_Source\PSoC5/cyfitter_cfg.c **** 			{0x07u, 0x14u},
 586:.\Generated_Source\PSoC5/cyfitter_cfg.c **** 			{0x09u, 0x20u},
 587:.\Generated_Source\PSoC5/cyfitter_cfg.c **** 			{0x0Cu, 0x51u},
 588:.\Generated_Source\PSoC5/cyfitter_cfg.c **** 			{0x0Eu, 0x29u},
 589:.\Generated_Source\PSoC5/cyfitter_cfg.c **** 			{0x10u, 0x80u},
 590:.\Generated_Source\PSoC5/cyfitter_cfg.c **** 			{0x12u, 0x18u},
 591:.\Generated_Source\PSoC5/cyfitter_cfg.c **** 			{0x16u, 0x82u},
 592:.\Generated_Source\PSoC5/cyfitter_cfg.c **** 			{0x17u, 0x28u},
 593:.\Generated_Source\PSoC5/cyfitter_cfg.c **** 			{0x19u, 0x32u},
 594:.\Generated_Source\PSoC5/cyfitter_cfg.c **** 			{0x1Eu, 0x19u},
 595:.\Generated_Source\PSoC5/cyfitter_cfg.c **** 			{0x20u, 0x40u},
 596:.\Generated_Source\PSoC5/cyfitter_cfg.c **** 			{0x25u, 0x10u},
 597:.\Generated_Source\PSoC5/cyfitter_cfg.c **** 			{0x27u, 0x04u},
 598:.\Generated_Source\PSoC5/cyfitter_cfg.c **** 			{0x29u, 0x10u},
 599:.\Generated_Source\PSoC5/cyfitter_cfg.c **** 			{0x2Cu, 0x10u},
 600:.\Generated_Source\PSoC5/cyfitter_cfg.c **** 			{0x2Eu, 0x21u},
 601:.\Generated_Source\PSoC5/cyfitter_cfg.c **** 			{0x31u, 0x20u},
 602:.\Generated_Source\PSoC5/cyfitter_cfg.c **** 			{0x34u, 0x01u},
 603:.\Generated_Source\PSoC5/cyfitter_cfg.c **** 			{0x36u, 0x02u},
 604:.\Generated_Source\PSoC5/cyfitter_cfg.c **** 			{0x37u, 0x14u},
 605:.\Generated_Source\PSoC5/cyfitter_cfg.c **** 			{0x38u, 0x34u},
 606:.\Generated_Source\PSoC5/cyfitter_cfg.c **** 			{0x3Cu, 0xA0u},
 607:.\Generated_Source\PSoC5/cyfitter_cfg.c **** 			{0x3Eu, 0x8Au},
 608:.\Generated_Source\PSoC5/cyfitter_cfg.c **** 			{0x40u, 0x40u},
 609:.\Generated_Source\PSoC5/cyfitter_cfg.c **** 			{0x48u, 0x80u},
 610:.\Generated_Source\PSoC5/cyfitter_cfg.c **** 			{0x50u, 0x10u},
 611:.\Generated_Source\PSoC5/cyfitter_cfg.c **** 			{0x52u, 0x10u},
 612:.\Generated_Source\PSoC5/cyfitter_cfg.c **** 			{0x5Eu, 0x10u},
 613:.\Generated_Source\PSoC5/cyfitter_cfg.c **** 			{0x6Cu, 0x20u},
 614:.\Generated_Source\PSoC5/cyfitter_cfg.c **** 			{0x6Du, 0x90u},
 615:.\Generated_Source\PSoC5/cyfitter_cfg.c **** 			{0x74u, 0x40u},
 616:.\Generated_Source\PSoC5/cyfitter_cfg.c **** 			{0x76u, 0x28u},
 617:.\Generated_Source\PSoC5/cyfitter_cfg.c **** 			{0x77u, 0x28u},
 618:.\Generated_Source\PSoC5/cyfitter_cfg.c **** 			{0x90u, 0x04u},
 619:.\Generated_Source\PSoC5/cyfitter_cfg.c **** 			{0x93u, 0x02u},
 620:.\Generated_Source\PSoC5/cyfitter_cfg.c **** 			{0x94u, 0x10u},
 621:.\Generated_Source\PSoC5/cyfitter_cfg.c **** 			{0x96u, 0x01u},
 622:.\Generated_Source\PSoC5/cyfitter_cfg.c **** 			{0x9Au, 0x44u},
 623:.\Generated_Source\PSoC5/cyfitter_cfg.c **** 			{0x9Bu, 0x11u},
 624:.\Generated_Source\PSoC5/cyfitter_cfg.c **** 			{0x9Cu, 0x20u},
 625:.\Generated_Source\PSoC5/cyfitter_cfg.c **** 			{0x9Du, 0x20u},
 626:.\Generated_Source\PSoC5/cyfitter_cfg.c **** 			{0x9Eu, 0x28u},
 627:.\Generated_Source\PSoC5/cyfitter_cfg.c **** 			{0xA0u, 0x10u},
ARM GAS  C:\Users\Patrick\AppData\Local\Temp\ccz80ATz.s 			page 20


 628:.\Generated_Source\PSoC5/cyfitter_cfg.c **** 			{0xA4u, 0xC0u},
 629:.\Generated_Source\PSoC5/cyfitter_cfg.c **** 			{0xA5u, 0x30u},
 630:.\Generated_Source\PSoC5/cyfitter_cfg.c **** 			{0xA6u, 0x0Eu},
 631:.\Generated_Source\PSoC5/cyfitter_cfg.c **** 			{0xA7u, 0x10u},
 632:.\Generated_Source\PSoC5/cyfitter_cfg.c **** 			{0xC0u, 0x76u},
 633:.\Generated_Source\PSoC5/cyfitter_cfg.c **** 			{0xC2u, 0xF2u},
 634:.\Generated_Source\PSoC5/cyfitter_cfg.c **** 			{0xC4u, 0xFEu},
 635:.\Generated_Source\PSoC5/cyfitter_cfg.c **** 			{0xCAu, 0xE4u},
 636:.\Generated_Source\PSoC5/cyfitter_cfg.c **** 			{0xCCu, 0xE4u},
 637:.\Generated_Source\PSoC5/cyfitter_cfg.c **** 			{0xCEu, 0xF6u},
 638:.\Generated_Source\PSoC5/cyfitter_cfg.c **** 			{0xD0u, 0x01u},
 639:.\Generated_Source\PSoC5/cyfitter_cfg.c **** 			{0xD6u, 0x20u},
 640:.\Generated_Source\PSoC5/cyfitter_cfg.c **** 			{0xE8u, 0x10u},
 641:.\Generated_Source\PSoC5/cyfitter_cfg.c **** 			{0x05u, 0x05u},
 642:.\Generated_Source\PSoC5/cyfitter_cfg.c **** 			{0x07u, 0x18u},
 643:.\Generated_Source\PSoC5/cyfitter_cfg.c **** 			{0x09u, 0x02u},
 644:.\Generated_Source\PSoC5/cyfitter_cfg.c **** 			{0x0Bu, 0x0Cu},
 645:.\Generated_Source\PSoC5/cyfitter_cfg.c **** 			{0x17u, 0x30u},
 646:.\Generated_Source\PSoC5/cyfitter_cfg.c **** 			{0x19u, 0x30u},
 647:.\Generated_Source\PSoC5/cyfitter_cfg.c **** 			{0x1Bu, 0x0Du},
 648:.\Generated_Source\PSoC5/cyfitter_cfg.c **** 			{0x1Fu, 0x20u},
 649:.\Generated_Source\PSoC5/cyfitter_cfg.c **** 			{0x29u, 0x05u},
 650:.\Generated_Source\PSoC5/cyfitter_cfg.c **** 			{0x2Bu, 0x38u},
 651:.\Generated_Source\PSoC5/cyfitter_cfg.c **** 			{0x2Du, 0x40u},
 652:.\Generated_Source\PSoC5/cyfitter_cfg.c **** 			{0x31u, 0x40u},
 653:.\Generated_Source\PSoC5/cyfitter_cfg.c **** 			{0x33u, 0x03u},
 654:.\Generated_Source\PSoC5/cyfitter_cfg.c **** 			{0x35u, 0x3Cu},
 655:.\Generated_Source\PSoC5/cyfitter_cfg.c **** 			{0x39u, 0x08u},
 656:.\Generated_Source\PSoC5/cyfitter_cfg.c **** 			{0x3Bu, 0x20u},
 657:.\Generated_Source\PSoC5/cyfitter_cfg.c **** 			{0x3Fu, 0x01u},
 658:.\Generated_Source\PSoC5/cyfitter_cfg.c **** 			{0x59u, 0x04u},
 659:.\Generated_Source\PSoC5/cyfitter_cfg.c **** 			{0x5Cu, 0x10u},
 660:.\Generated_Source\PSoC5/cyfitter_cfg.c **** 			{0x5Fu, 0x01u},
 661:.\Generated_Source\PSoC5/cyfitter_cfg.c **** 			{0x04u, 0x40u},
 662:.\Generated_Source\PSoC5/cyfitter_cfg.c **** 			{0x05u, 0x40u},
 663:.\Generated_Source\PSoC5/cyfitter_cfg.c **** 			{0x07u, 0x54u},
 664:.\Generated_Source\PSoC5/cyfitter_cfg.c **** 			{0x0Cu, 0x20u},
 665:.\Generated_Source\PSoC5/cyfitter_cfg.c **** 			{0x0Eu, 0x20u},
 666:.\Generated_Source\PSoC5/cyfitter_cfg.c **** 			{0x10u, 0x04u},
 667:.\Generated_Source\PSoC5/cyfitter_cfg.c **** 			{0x13u, 0x20u},
 668:.\Generated_Source\PSoC5/cyfitter_cfg.c **** 			{0x14u, 0x50u},
 669:.\Generated_Source\PSoC5/cyfitter_cfg.c **** 			{0x15u, 0x10u},
 670:.\Generated_Source\PSoC5/cyfitter_cfg.c **** 			{0x16u, 0x02u},
 671:.\Generated_Source\PSoC5/cyfitter_cfg.c **** 			{0x1Cu, 0x40u},
 672:.\Generated_Source\PSoC5/cyfitter_cfg.c **** 			{0x1Du, 0x81u},
 673:.\Generated_Source\PSoC5/cyfitter_cfg.c **** 			{0x1Fu, 0x08u},
 674:.\Generated_Source\PSoC5/cyfitter_cfg.c **** 			{0x21u, 0x21u},
 675:.\Generated_Source\PSoC5/cyfitter_cfg.c **** 			{0x22u, 0x08u},
 676:.\Generated_Source\PSoC5/cyfitter_cfg.c **** 			{0x26u, 0x12u},
 677:.\Generated_Source\PSoC5/cyfitter_cfg.c **** 			{0x27u, 0x60u},
 678:.\Generated_Source\PSoC5/cyfitter_cfg.c **** 			{0x29u, 0x10u},
 679:.\Generated_Source\PSoC5/cyfitter_cfg.c **** 			{0x2Au, 0x40u},
 680:.\Generated_Source\PSoC5/cyfitter_cfg.c **** 			{0x2Cu, 0x20u},
 681:.\Generated_Source\PSoC5/cyfitter_cfg.c **** 			{0x2Eu, 0x02u},
 682:.\Generated_Source\PSoC5/cyfitter_cfg.c **** 			{0x30u, 0x80u},
 683:.\Generated_Source\PSoC5/cyfitter_cfg.c **** 			{0x31u, 0x20u},
 684:.\Generated_Source\PSoC5/cyfitter_cfg.c **** 			{0x32u, 0x08u},
ARM GAS  C:\Users\Patrick\AppData\Local\Temp\ccz80ATz.s 			page 21


 685:.\Generated_Source\PSoC5/cyfitter_cfg.c **** 			{0x35u, 0x40u},
 686:.\Generated_Source\PSoC5/cyfitter_cfg.c **** 			{0x36u, 0x10u},
 687:.\Generated_Source\PSoC5/cyfitter_cfg.c **** 			{0x37u, 0x01u},
 688:.\Generated_Source\PSoC5/cyfitter_cfg.c **** 			{0x38u, 0x24u},
 689:.\Generated_Source\PSoC5/cyfitter_cfg.c **** 			{0x3Du, 0x90u},
 690:.\Generated_Source\PSoC5/cyfitter_cfg.c **** 			{0x3Fu, 0x01u},
 691:.\Generated_Source\PSoC5/cyfitter_cfg.c **** 			{0x44u, 0x50u},
 692:.\Generated_Source\PSoC5/cyfitter_cfg.c **** 			{0x45u, 0x80u},
 693:.\Generated_Source\PSoC5/cyfitter_cfg.c **** 			{0x46u, 0x04u},
 694:.\Generated_Source\PSoC5/cyfitter_cfg.c **** 			{0x4Eu, 0x02u},
 695:.\Generated_Source\PSoC5/cyfitter_cfg.c **** 			{0x4Fu, 0x01u},
 696:.\Generated_Source\PSoC5/cyfitter_cfg.c **** 			{0x57u, 0x10u},
 697:.\Generated_Source\PSoC5/cyfitter_cfg.c **** 			{0x5Eu, 0x02u},
 698:.\Generated_Source\PSoC5/cyfitter_cfg.c **** 			{0x64u, 0x04u},
 699:.\Generated_Source\PSoC5/cyfitter_cfg.c **** 			{0x65u, 0x02u},
 700:.\Generated_Source\PSoC5/cyfitter_cfg.c **** 			{0x67u, 0x02u},
 701:.\Generated_Source\PSoC5/cyfitter_cfg.c **** 			{0x82u, 0x01u},
 702:.\Generated_Source\PSoC5/cyfitter_cfg.c **** 			{0x83u, 0x08u},
 703:.\Generated_Source\PSoC5/cyfitter_cfg.c **** 			{0x85u, 0x02u},
 704:.\Generated_Source\PSoC5/cyfitter_cfg.c **** 			{0x88u, 0x20u},
 705:.\Generated_Source\PSoC5/cyfitter_cfg.c **** 			{0x89u, 0x01u},
 706:.\Generated_Source\PSoC5/cyfitter_cfg.c **** 			{0x8Au, 0x02u},
 707:.\Generated_Source\PSoC5/cyfitter_cfg.c **** 			{0x90u, 0x24u},
 708:.\Generated_Source\PSoC5/cyfitter_cfg.c **** 			{0x91u, 0x10u},
 709:.\Generated_Source\PSoC5/cyfitter_cfg.c **** 			{0x93u, 0x02u},
 710:.\Generated_Source\PSoC5/cyfitter_cfg.c **** 			{0x98u, 0x50u},
 711:.\Generated_Source\PSoC5/cyfitter_cfg.c **** 			{0x99u, 0x10u},
 712:.\Generated_Source\PSoC5/cyfitter_cfg.c **** 			{0x9Au, 0x44u},
 713:.\Generated_Source\PSoC5/cyfitter_cfg.c **** 			{0x9Bu, 0x15u},
 714:.\Generated_Source\PSoC5/cyfitter_cfg.c **** 			{0x9Cu, 0x20u},
 715:.\Generated_Source\PSoC5/cyfitter_cfg.c **** 			{0x9Du, 0x01u},
 716:.\Generated_Source\PSoC5/cyfitter_cfg.c **** 			{0x9Eu, 0x02u},
 717:.\Generated_Source\PSoC5/cyfitter_cfg.c **** 			{0xA0u, 0xA0u},
 718:.\Generated_Source\PSoC5/cyfitter_cfg.c **** 			{0xA1u, 0x40u},
 719:.\Generated_Source\PSoC5/cyfitter_cfg.c **** 			{0xA5u, 0x20u},
 720:.\Generated_Source\PSoC5/cyfitter_cfg.c **** 			{0xA6u, 0x1Au},
 721:.\Generated_Source\PSoC5/cyfitter_cfg.c **** 			{0xA7u, 0x10u},
 722:.\Generated_Source\PSoC5/cyfitter_cfg.c **** 			{0xADu, 0x02u},
 723:.\Generated_Source\PSoC5/cyfitter_cfg.c **** 			{0xC0u, 0xF0u},
 724:.\Generated_Source\PSoC5/cyfitter_cfg.c **** 			{0xC2u, 0x60u},
 725:.\Generated_Source\PSoC5/cyfitter_cfg.c **** 			{0xC4u, 0xF0u},
 726:.\Generated_Source\PSoC5/cyfitter_cfg.c **** 			{0xCAu, 0xCCu},
 727:.\Generated_Source\PSoC5/cyfitter_cfg.c **** 			{0xCCu, 0xBEu},
 728:.\Generated_Source\PSoC5/cyfitter_cfg.c **** 			{0xCEu, 0xB6u},
 729:.\Generated_Source\PSoC5/cyfitter_cfg.c **** 			{0xD0u, 0xF0u},
 730:.\Generated_Source\PSoC5/cyfitter_cfg.c **** 			{0xD2u, 0x10u},
 731:.\Generated_Source\PSoC5/cyfitter_cfg.c **** 			{0xD6u, 0x80u},
 732:.\Generated_Source\PSoC5/cyfitter_cfg.c **** 			{0xD8u, 0xB0u},
 733:.\Generated_Source\PSoC5/cyfitter_cfg.c **** 			{0x32u, 0x80u},
 734:.\Generated_Source\PSoC5/cyfitter_cfg.c **** 			{0x35u, 0x80u},
 735:.\Generated_Source\PSoC5/cyfitter_cfg.c **** 			{0x81u, 0x80u},
 736:.\Generated_Source\PSoC5/cyfitter_cfg.c **** 			{0xCCu, 0x30u},
 737:.\Generated_Source\PSoC5/cyfitter_cfg.c **** 			{0xE2u, 0x20u},
 738:.\Generated_Source\PSoC5/cyfitter_cfg.c **** 			{0xA6u, 0x80u},
 739:.\Generated_Source\PSoC5/cyfitter_cfg.c **** 			{0xA6u, 0x80u},
 740:.\Generated_Source\PSoC5/cyfitter_cfg.c **** 			{0x18u, 0x10u},
 741:.\Generated_Source\PSoC5/cyfitter_cfg.c **** 			{0xA6u, 0x80u},
ARM GAS  C:\Users\Patrick\AppData\Local\Temp\ccz80ATz.s 			page 22


 742:.\Generated_Source\PSoC5/cyfitter_cfg.c **** 			{0xC6u, 0x10u},
 743:.\Generated_Source\PSoC5/cyfitter_cfg.c **** 			{0x50u, 0x04u},
 744:.\Generated_Source\PSoC5/cyfitter_cfg.c **** 			{0xD4u, 0x04u},
 745:.\Generated_Source\PSoC5/cyfitter_cfg.c **** 			{0x94u, 0x08u},
 746:.\Generated_Source\PSoC5/cyfitter_cfg.c **** 			{0x94u, 0x08u},
 747:.\Generated_Source\PSoC5/cyfitter_cfg.c **** 			{0x64u, 0x08u},
 748:.\Generated_Source\PSoC5/cyfitter_cfg.c **** 			{0xA6u, 0x80u},
 749:.\Generated_Source\PSoC5/cyfitter_cfg.c **** 			{0xB4u, 0x10u},
 750:.\Generated_Source\PSoC5/cyfitter_cfg.c **** 			{0xD8u, 0x80u},
 751:.\Generated_Source\PSoC5/cyfitter_cfg.c **** 			{0x86u, 0x80u},
 752:.\Generated_Source\PSoC5/cyfitter_cfg.c **** 			{0xA6u, 0x80u},
 753:.\Generated_Source\PSoC5/cyfitter_cfg.c **** 			{0xACu, 0x08u},
 754:.\Generated_Source\PSoC5/cyfitter_cfg.c **** 			{0xE6u, 0x10u},
 755:.\Generated_Source\PSoC5/cyfitter_cfg.c **** 			{0xEEu, 0x10u},
 756:.\Generated_Source\PSoC5/cyfitter_cfg.c **** 			{0xB4u, 0x04u},
 757:.\Generated_Source\PSoC5/cyfitter_cfg.c **** 			{0xE8u, 0x08u},
 758:.\Generated_Source\PSoC5/cyfitter_cfg.c **** 			{0x10u, 0x40u},
 759:.\Generated_Source\PSoC5/cyfitter_cfg.c **** 			{0x73u, 0x40u},
 760:.\Generated_Source\PSoC5/cyfitter_cfg.c **** 			{0x88u, 0x40u},
 761:.\Generated_Source\PSoC5/cyfitter_cfg.c **** 			{0x8Bu, 0x40u},
 762:.\Generated_Source\PSoC5/cyfitter_cfg.c **** 			{0xC4u, 0x08u},
 763:.\Generated_Source\PSoC5/cyfitter_cfg.c **** 			{0xDCu, 0x01u},
 764:.\Generated_Source\PSoC5/cyfitter_cfg.c **** 			{0xE0u, 0x04u},
 765:.\Generated_Source\PSoC5/cyfitter_cfg.c **** 			{0xE2u, 0x01u},
 766:.\Generated_Source\PSoC5/cyfitter_cfg.c **** 			{0x00u, 0x02u},
 767:.\Generated_Source\PSoC5/cyfitter_cfg.c **** 			{0x0Cu, 0x02u},
 768:.\Generated_Source\PSoC5/cyfitter_cfg.c **** 			{0x10u, 0x02u},
 769:.\Generated_Source\PSoC5/cyfitter_cfg.c **** 			{0x1Cu, 0x02u},
 770:.\Generated_Source\PSoC5/cyfitter_cfg.c **** 			{0x00u, 0x0Fu},
 771:.\Generated_Source\PSoC5/cyfitter_cfg.c **** 		};
 772:.\Generated_Source\PSoC5/cyfitter_cfg.c **** 
 773:.\Generated_Source\PSoC5/cyfitter_cfg.c **** 
 774:.\Generated_Source\PSoC5/cyfitter_cfg.c **** 
 775:.\Generated_Source\PSoC5/cyfitter_cfg.c **** 		CYPACKED typedef struct {
 776:.\Generated_Source\PSoC5/cyfitter_cfg.c **** 			void CYFAR *address;
 777:.\Generated_Source\PSoC5/cyfitter_cfg.c **** 			uint16 size;
 778:.\Generated_Source\PSoC5/cyfitter_cfg.c **** 		} CYPACKED_ATTR cfg_memset_t;
 779:.\Generated_Source\PSoC5/cyfitter_cfg.c **** 
 780:.\Generated_Source\PSoC5/cyfitter_cfg.c **** 
 781:.\Generated_Source\PSoC5/cyfitter_cfg.c **** 		CYPACKED typedef struct {
 782:.\Generated_Source\PSoC5/cyfitter_cfg.c **** 			void CYFAR *dest;
 783:.\Generated_Source\PSoC5/cyfitter_cfg.c **** 			const void CYCODE *src;
 784:.\Generated_Source\PSoC5/cyfitter_cfg.c **** 			uint16 size;
 785:.\Generated_Source\PSoC5/cyfitter_cfg.c **** 		} CYPACKED_ATTR cfg_memcpy_t;
 786:.\Generated_Source\PSoC5/cyfitter_cfg.c **** 
 787:.\Generated_Source\PSoC5/cyfitter_cfg.c **** 		static const cfg_memset_t CYCODE cfg_memset_list [] = {
 788:.\Generated_Source\PSoC5/cyfitter_cfg.c **** 			/* address, size */
 789:.\Generated_Source\PSoC5/cyfitter_cfg.c **** 			{(void CYFAR *)(CYREG_TMR0_CFG0), 12u},
 790:.\Generated_Source\PSoC5/cyfitter_cfg.c **** 			{(void CYFAR *)(CYREG_PRT0_DR), 32u},
 791:.\Generated_Source\PSoC5/cyfitter_cfg.c **** 			{(void CYFAR *)(CYREG_PRT3_DR), 64u},
 792:.\Generated_Source\PSoC5/cyfitter_cfg.c **** 			{(void CYFAR *)(CYREG_PRT15_DR), 16u},
 793:.\Generated_Source\PSoC5/cyfitter_cfg.c **** 			{(void CYFAR *)(CYDEV_UCFG_B0_P0_U0_BASE), 4096u},
 794:.\Generated_Source\PSoC5/cyfitter_cfg.c **** 			{(void CYFAR *)(CYDEV_UCFG_B1_P2_U0_BASE), 1664u},
 795:.\Generated_Source\PSoC5/cyfitter_cfg.c **** 			{(void CYFAR *)(CYDEV_UCFG_B1_P5_ROUTE_BASE), 256u},
 796:.\Generated_Source\PSoC5/cyfitter_cfg.c **** 			{(void CYFAR *)(CYDEV_UCFG_DSI0_BASE), 2560u},
 797:.\Generated_Source\PSoC5/cyfitter_cfg.c **** 			{(void CYFAR *)(CYDEV_UCFG_DSI12_BASE), 512u},
 798:.\Generated_Source\PSoC5/cyfitter_cfg.c **** 			{(void CYFAR *)(CYREG_BCTL0_MDCLK_EN), 32u},
ARM GAS  C:\Users\Patrick\AppData\Local\Temp\ccz80ATz.s 			page 23


 799:.\Generated_Source\PSoC5/cyfitter_cfg.c **** 		};
 800:.\Generated_Source\PSoC5/cyfitter_cfg.c **** 
 801:.\Generated_Source\PSoC5/cyfitter_cfg.c **** 		/* UDB_0_0_1_CONFIG Address: CYDEV_UCFG_B1_P5_U1_BASE Size (bytes): 128 */
 802:.\Generated_Source\PSoC5/cyfitter_cfg.c **** 		static const uint8 CYCODE BS_UDB_0_0_1_CONFIG_VAL[] = {
 803:.\Generated_Source\PSoC5/cyfitter_cfg.c **** 			0x00u, 0x00u, 0x03u, 0x10u, 0x00u, 0x00u, 0x03u, 0x00u, 0x00u, 0x0Fu, 0x03u, 0x00u, 0x0Au, 0x08u
 804:.\Generated_Source\PSoC5/cyfitter_cfg.c **** 			0x00u, 0x00u, 0x00u, 0x10u, 0x03u, 0x00u, 0x10u, 0x00u, 0x0Cu, 0x01u, 0x00u, 0x06u, 0x00u, 0x04u
 805:.\Generated_Source\PSoC5/cyfitter_cfg.c **** 			0x03u, 0x02u, 0x00u, 0x01u, 0x03u, 0x0Fu, 0x00u, 0x00u, 0x0Cu, 0x00u, 0x00u, 0x00u, 0x05u, 0x00u
 806:.\Generated_Source\PSoC5/cyfitter_cfg.c **** 			0x0Cu, 0x08u, 0x03u, 0x10u, 0x00u, 0x07u, 0x30u, 0x00u, 0x00u, 0x00u, 0x00u, 0x00u, 0x00u, 0x00u
 807:.\Generated_Source\PSoC5/cyfitter_cfg.c **** 			0x35u, 0x04u, 0x02u, 0x00u, 0x01u, 0xE0u, 0xC0u, 0x00u, 0x0Au, 0xFFu, 0xFFu, 0xFFu, 0x62u, 0xA0u
 808:.\Generated_Source\PSoC5/cyfitter_cfg.c **** 			0x0Cu, 0x00u, 0x00u, 0x00u, 0x18u, 0x00u, 0x04u, 0x00u, 0x04u, 0x04u, 0x04u, 0x04u, 0x11u, 0x11u
 809:.\Generated_Source\PSoC5/cyfitter_cfg.c **** 			0x00u, 0x00u, 0x00u, 0x00u, 0x00u, 0x00u, 0x40u, 0x02u, 0x00u, 0x10u, 0x30u, 0x10u, 0x00u, 0x10u
 810:.\Generated_Source\PSoC5/cyfitter_cfg.c **** 			0x00u, 0x00u, 0x00u, 0x00u, 0x00u, 0x00u, 0x00u, 0x00u, 0x00u, 0x00u, 0x00u, 0x00u, 0x00u, 0x00u
 811:.\Generated_Source\PSoC5/cyfitter_cfg.c **** 
 812:.\Generated_Source\PSoC5/cyfitter_cfg.c **** 		static const cfg_memcpy_t CYCODE cfg_memcpy_list [] = {
 813:.\Generated_Source\PSoC5/cyfitter_cfg.c **** 			/* dest, src, size */
 814:.\Generated_Source\PSoC5/cyfitter_cfg.c **** 			{(void CYFAR *)(CYDEV_UCFG_B1_P5_U1_BASE), BS_UDB_0_0_1_CONFIG_VAL, 128u},
 815:.\Generated_Source\PSoC5/cyfitter_cfg.c **** 		};
 816:.\Generated_Source\PSoC5/cyfitter_cfg.c **** 
 817:.\Generated_Source\PSoC5/cyfitter_cfg.c **** 		uint8 CYDATA i;
 818:.\Generated_Source\PSoC5/cyfitter_cfg.c **** 
 819:.\Generated_Source\PSoC5/cyfitter_cfg.c **** 		/* Zero out critical memory blocks before beginning configuration */
 820:.\Generated_Source\PSoC5/cyfitter_cfg.c **** 		for (i = 0u; i < (sizeof(cfg_memset_list)/sizeof(cfg_memset_list[0])); i++)
 421              		.loc 1 820 0
 422 000e 0024     		movs	r4, #0
 423 0010 0CE0     		b	.L30
 424              	.LVL32:
 425              	.L31:
 426              	.LBB4:
 821:.\Generated_Source\PSoC5/cyfitter_cfg.c **** 		{
 822:.\Generated_Source\PSoC5/cyfitter_cfg.c **** 			const cfg_memset_t CYCODE * CYDATA ms = &cfg_memset_list[i];
 823:.\Generated_Source\PSoC5/cyfitter_cfg.c **** 			CYMEMZERO(ms->address, (size_t)(uint32)(ms->size));
 427              		.loc 1 823 0 discriminator 3
 428 0012 3049     		ldr	r1, .L35+4
 429 0014 6300     		lsls	r3, r4, #1
 430 0016 1A19     		adds	r2, r3, r4
 431 0018 5200     		lsls	r2, r2, #1
 432 001a 0A44     		add	r2, r2, r1
 433 001c 2344     		add	r3, r3, r4
 434 001e 5B00     		lsls	r3, r3, #1
 435 0020 C858     		ldr	r0, [r1, r3]	@ unaligned
 436 0022 9188     		ldrh	r1, [r2, #4]
 437 0024 FFF7FEFF 		bl	CYMEMZERO
 438              	.LVL33:
 439              	.LBE4:
 820:.\Generated_Source\PSoC5/cyfitter_cfg.c **** 		{
 440              		.loc 1 820 0 discriminator 3
 441 0028 0134     		adds	r4, r4, #1
 442              	.LVL34:
 443 002a E4B2     		uxtb	r4, r4
 444              	.LVL35:
 445              	.L30:
 820:.\Generated_Source\PSoC5/cyfitter_cfg.c **** 		{
 446              		.loc 1 820 0 is_stmt 0 discriminator 1
 447 002c 092C     		cmp	r4, #9
 448 002e F0D9     		bls	.L31
 449 0030 0024     		movs	r4, #0
 450              	.LVL36:
ARM GAS  C:\Users\Patrick\AppData\Local\Temp\ccz80ATz.s 			page 24


 451 0032 0BE0     		b	.L32
 452              	.LVL37:
 453              	.L33:
 454              	.LBB5:
 824:.\Generated_Source\PSoC5/cyfitter_cfg.c **** 		}
 825:.\Generated_Source\PSoC5/cyfitter_cfg.c **** 
 826:.\Generated_Source\PSoC5/cyfitter_cfg.c **** 		/* Copy device configuration data into registers */
 827:.\Generated_Source\PSoC5/cyfitter_cfg.c **** 		for (i = 0u; i < (sizeof(cfg_memcpy_list)/sizeof(cfg_memcpy_list[0])); i++)
 828:.\Generated_Source\PSoC5/cyfitter_cfg.c **** 		{
 829:.\Generated_Source\PSoC5/cyfitter_cfg.c **** 			const cfg_memcpy_t CYCODE * CYDATA mc = &cfg_memcpy_list[i];
 830:.\Generated_Source\PSoC5/cyfitter_cfg.c **** 			void * CYDATA destPtr = mc->dest;
 455              		.loc 1 830 0 is_stmt 1 discriminator 3
 456 0034 2749     		ldr	r1, .L35+4
 457 0036 A300     		lsls	r3, r4, #2
 458 0038 1A19     		adds	r2, r3, r4
 459 003a 5200     		lsls	r2, r2, #1
 460 003c 0A44     		add	r2, r2, r1
 461              	.LVL38:
 831:.\Generated_Source\PSoC5/cyfitter_cfg.c **** 			const void CYCODE * CYDATA srcPtr = mc->src;
 832:.\Generated_Source\PSoC5/cyfitter_cfg.c **** 			uint16 CYDATA numBytes = mc->size;
 833:.\Generated_Source\PSoC5/cyfitter_cfg.c **** 			CYCONFIGCPYCODE(destPtr, srcPtr, numBytes);
 462              		.loc 1 833 0 discriminator 3
 463 003e D06B     		ldr	r0, [r2, #60]	@ unaligned
 464              	.LVL39:
 465 0040 116C     		ldr	r1, [r2, #64]	@ unaligned
 466              	.LVL40:
 467 0042 8022     		movs	r2, #128
 468 0044 FFF7FEFF 		bl	CYCONFIGCPYCODE
 469              	.LVL41:
 470              	.LBE5:
 827:.\Generated_Source\PSoC5/cyfitter_cfg.c **** 		{
 471              		.loc 1 827 0 discriminator 3
 472 0048 0134     		adds	r4, r4, #1
 473              	.LVL42:
 474 004a E4B2     		uxtb	r4, r4
 475              	.LVL43:
 476              	.L32:
 827:.\Generated_Source\PSoC5/cyfitter_cfg.c **** 		{
 477              		.loc 1 827 0 is_stmt 0 discriminator 1
 478 004c 002C     		cmp	r4, #0
 479 004e F1D0     		beq	.L33
 834:.\Generated_Source\PSoC5/cyfitter_cfg.c **** 		}
 835:.\Generated_Source\PSoC5/cyfitter_cfg.c **** 
 836:.\Generated_Source\PSoC5/cyfitter_cfg.c **** 		cfg_write_bytes32(cy_cfg_addr_table, cy_cfg_data_table);
 480              		.loc 1 836 0 is_stmt 1
 481 0050 204C     		ldr	r4, .L35+4
 482              	.LVL44:
 483 0052 04F14800 		add	r0, r4, #72
 484 0056 04F1BC01 		add	r1, r4, #188
 485 005a FFF7FEFF 		bl	cfg_write_bytes32
 486              	.LVL45:
 837:.\Generated_Source\PSoC5/cyfitter_cfg.c **** 
 838:.\Generated_Source\PSoC5/cyfitter_cfg.c **** 		/* Enable digital routing */
 839:.\Generated_Source\PSoC5/cyfitter_cfg.c **** 		CY_SET_XTND_REG8((void CYFAR *)CYREG_BCTL0_BANK_CTL, CY_GET_XTND_REG8((void CYFAR *)CYREG_BCTL0_B
 487              		.loc 1 839 0
 488 005e 1E4A     		ldr	r2, .L35+8
 489 0060 1378     		ldrb	r3, [r2]	@ zero_extendqisi2
ARM GAS  C:\Users\Patrick\AppData\Local\Temp\ccz80ATz.s 			page 25


 490 0062 43F00203 		orr	r3, r3, #2
 491 0066 1370     		strb	r3, [r2]
 840:.\Generated_Source\PSoC5/cyfitter_cfg.c **** 		CY_SET_XTND_REG8((void CYFAR *)CYREG_BCTL1_BANK_CTL, CY_GET_XTND_REG8((void CYFAR *)CYREG_BCTL1_B
 492              		.loc 1 840 0
 493 0068 1032     		adds	r2, r2, #16
 494 006a 1378     		ldrb	r3, [r2]	@ zero_extendqisi2
 495 006c 43F00203 		orr	r3, r3, #2
 496 0070 1370     		strb	r3, [r2]
 841:.\Generated_Source\PSoC5/cyfitter_cfg.c **** 
 842:.\Generated_Source\PSoC5/cyfitter_cfg.c **** 		/* Enable UDB array */
 843:.\Generated_Source\PSoC5/cyfitter_cfg.c **** 		CY_SET_XTND_REG8((void CYFAR *)CYREG_PM_ACT_CFG0, CY_GET_XTND_REG8((void CYFAR *)CYREG_PM_ACT_CFG
 497              		.loc 1 843 0
 498 0072 1A4D     		ldr	r5, .L35+12
 499 0074 2B78     		ldrb	r3, [r5]	@ zero_extendqisi2
 500 0076 43F04003 		orr	r3, r3, #64
 501 007a 2B70     		strb	r3, [r5]
 844:.\Generated_Source\PSoC5/cyfitter_cfg.c **** 		CY_SET_XTND_REG8((void CYFAR *)CYREG_PM_AVAIL_CR2, CY_GET_XTND_REG8((void CYFAR *)CYREG_PM_AVAIL_
 502              		.loc 1 844 0
 503 007c A2F58632 		sub	r2, r2, #68608
 504 0080 513A     		subs	r2, r2, #81
 505 0082 1378     		ldrb	r3, [r2]	@ zero_extendqisi2
 506 0084 43F01003 		orr	r3, r3, #16
 507 0088 1370     		strb	r3, [r2]
 508              	.LBE3:
 845:.\Generated_Source\PSoC5/cyfitter_cfg.c **** 	}
 846:.\Generated_Source\PSoC5/cyfitter_cfg.c **** 
 847:.\Generated_Source\PSoC5/cyfitter_cfg.c **** 
 848:.\Generated_Source\PSoC5/cyfitter_cfg.c **** 	/* Perform second pass device configuration. These items must be configured in specific order afte
 849:.\Generated_Source\PSoC5/cyfitter_cfg.c **** 	CYCONFIGCPYCODE((void CYFAR *)(CYREG_PRT12_DR), (const void CYCODE *)(BS_IOPINS0_7_VAL), 10u);
 509              		.loc 1 849 0
 510 008a 1548     		ldr	r0, .L35+16
 511 008c 04F57A71 		add	r1, r4, #1000
 512 0090 0A22     		movs	r2, #10
 513 0092 FFF7FEFF 		bl	CYCONFIGCPYCODE
 514              	.LVL46:
 850:.\Generated_Source\PSoC5/cyfitter_cfg.c **** 	CYCONFIGCPYCODE((void CYFAR *)(CYREG_PRT2_DM0), (const void CYCODE *)(BS_IOPINS0_2_VAL), 8u);
 515              		.loc 1 850 0
 516 0096 1348     		ldr	r0, .L35+20
 517 0098 04F57D71 		add	r1, r4, #1012
 518 009c 0822     		movs	r2, #8
 519 009e FFF7FEFF 		bl	CYCONFIGCPYCODE
 520              	.LVL47:
 851:.\Generated_Source\PSoC5/cyfitter_cfg.c **** 	/* Switch Boost to the precision bandgap reference from its internal reference */
 852:.\Generated_Source\PSoC5/cyfitter_cfg.c **** 	CY_SET_REG8((void CYXDATA *)CYREG_BOOST_CR2, (CY_GET_REG8((void CYXDATA *)CYREG_BOOST_CR2) | 0x08u
 521              		.loc 1 852 0
 522 00a2 114A     		ldr	r2, .L35+24
 523 00a4 1378     		ldrb	r3, [r2]	@ zero_extendqisi2
 524 00a6 43F00803 		orr	r3, r3, #8
 525 00aa 1370     		strb	r3, [r2]
 853:.\Generated_Source\PSoC5/cyfitter_cfg.c **** 
 854:.\Generated_Source\PSoC5/cyfitter_cfg.c **** 	/* Set Flash Cycles based on max possible frequency in case a glitch occurs during ClockSetup(). *
 855:.\Generated_Source\PSoC5/cyfitter_cfg.c **** 	CY_SET_XTND_REG8((void CYFAR *)(CYREG_CACHE_CC_CTL), (((CYDEV_INSTRUCT_CACHE_ENABLED) != 0) ? 0x61
 526              		.loc 1 855 0
 527 00ac 0F4C     		ldr	r4, .L35+28
 528 00ae 6123     		movs	r3, #97
 529 00b0 2370     		strb	r3, [r4]
 856:.\Generated_Source\PSoC5/cyfitter_cfg.c **** 	/* Setup clocks based on selections from Clock DWR */
ARM GAS  C:\Users\Patrick\AppData\Local\Temp\ccz80ATz.s 			page 26


 857:.\Generated_Source\PSoC5/cyfitter_cfg.c **** 	ClockSetup();
 530              		.loc 1 857 0
 531 00b2 FFF7FEFF 		bl	ClockSetup
 532              	.LVL48:
 858:.\Generated_Source\PSoC5/cyfitter_cfg.c **** 	/* Set Flash Cycles based on newly configured 24.00MHz Bus Clock. */
 859:.\Generated_Source\PSoC5/cyfitter_cfg.c **** 	CY_SET_XTND_REG8((void CYFAR *)(CYREG_CACHE_CC_CTL), (((CYDEV_INSTRUCT_CACHE_ENABLED) != 0) ? 0x81
 533              		.loc 1 859 0
 534 00b6 8123     		movs	r3, #129
 535 00b8 2370     		strb	r3, [r4]
 860:.\Generated_Source\PSoC5/cyfitter_cfg.c **** 	CY_SET_XTND_REG8((void CYFAR *)(CYREG_PANTHER_WAITPIPE), 0x01u);
 536              		.loc 1 860 0
 537 00ba 0122     		movs	r2, #1
 538 00bc 0C4B     		ldr	r3, .L35+32
 539 00be 1A70     		strb	r2, [r3]
 861:.\Generated_Source\PSoC5/cyfitter_cfg.c **** 
 862:.\Generated_Source\PSoC5/cyfitter_cfg.c **** 	/* Perform basic analog initialization to defaults */
 863:.\Generated_Source\PSoC5/cyfitter_cfg.c **** 	AnalogSetDefault();
 540              		.loc 1 863 0
 541 00c0 FFF7FEFF 		bl	AnalogSetDefault
 542              	.LVL49:
 864:.\Generated_Source\PSoC5/cyfitter_cfg.c **** 
 865:.\Generated_Source\PSoC5/cyfitter_cfg.c **** 	/* Configure alternate active mode */
 866:.\Generated_Source\PSoC5/cyfitter_cfg.c **** 	CYCONFIGCPY((void CYFAR *)CYDEV_PM_STBY_BASE, (const void CYFAR *)CYDEV_PM_ACT_BASE, 14u);
 543              		.loc 1 866 0
 544 00c4 0B48     		ldr	r0, .L35+36
 545 00c6 2946     		mov	r1, r5
 546 00c8 0E22     		movs	r2, #14
 547 00ca FFF7FEFF 		bl	CYCONFIGCPY
 548              	.LVL50:
 549 00ce 38BD     		pop	{r3, r4, r5, pc}
 550              	.L36:
 551              		.align	2
 552              	.L35:
 553 00d0 E8460040 		.word	1073759976
 554 00d4 00000000 		.word	.LANCHOR0
 555 00d8 03500140 		.word	1073827843
 556 00dc A0430040 		.word	1073759136
 557 00e0 C0510040 		.word	1073762752
 558 00e4 22510040 		.word	1073762594
 559 00e8 22430040 		.word	1073759010
 560 00ec 00480040 		.word	1073760256
 561 00f0 04000840 		.word	1074266116
 562 00f4 B0430040 		.word	1073759152
 563              		.cfi_endproc
 564              	.LFE8:
 565              		.size	cyfitter_cfg, .-cyfitter_cfg
 566              		.section	.rodata
 567              		.align	2
 568              		.set	.LANCHOR0,. + 0
 569              		.type	cfg_memset_list.4889, %object
 570              		.size	cfg_memset_list.4889, 60
 571              	cfg_memset_list.4889:
 572 0000 004F0040 		.word	1073762048
 573 0004 0C00     		.short	12
 574 0006 00510040 		.4byte	1073762560
 575 000a 2000     		.short	32
 576 000c 30510040 		.word	1073762608
ARM GAS  C:\Users\Patrick\AppData\Local\Temp\ccz80ATz.s 			page 27


 577 0010 4000     		.short	64
 578 0012 F0510040 		.4byte	1073762800
 579 0016 1000     		.short	16
 580 0018 00000140 		.word	1073807360
 581 001c 0010     		.short	4096
 582 001e 00140140 		.4byte	1073812480
 583 0022 8006     		.short	1664
 584 0024 001B0140 		.word	1073814272
 585 0028 0001     		.short	256
 586 002a 00400140 		.4byte	1073823744
 587 002e 000A     		.short	2560
 588 0030 004C0140 		.word	1073826816
 589 0034 0002     		.short	512
 590 0036 00500140 		.4byte	1073827840
 591 003a 2000     		.short	32
 592              		.type	cfg_memcpy_list.4891, %object
 593              		.size	cfg_memcpy_list.4891, 10
 594              	cfg_memcpy_list.4891:
 595 003c 801A0140 		.word	1073814144
 596 0040 FC030000 		.word	BS_UDB_0_0_1_CONFIG_VAL.4890
 597 0044 8000     		.short	128
 598 0046 0000     		.space	2
 599              		.type	cy_cfg_addr_table.4878, %object
 600              		.size	cy_cfg_addr_table.4878, 116
 601              	cy_cfg_addr_table.4878:
 602 0048 014F0040 		.word	1073762049
 603 004c 02520040 		.word	1073762818
 604 0050 01640040 		.word	1073767425
 605 0054 02650040 		.word	1073767682
 606 0058 01010140 		.word	1073807617
 607 005c 4E080140 		.word	1073809486
 608 0060 30090140 		.word	1073809712
 609 0064 010B0140 		.word	1073810177
 610 0068 010D0140 		.word	1073810689
 611 006c 010F0140 		.word	1073811201
 612 0070 02150140 		.word	1073812738
 613 0074 01170140 		.word	1073813249
 614 0078 4E180140 		.word	1073813582
 615 007c 3B190140 		.word	1073813819
 616 0080 141A0140 		.word	1073814036
 617 0084 481B0140 		.word	1073814344
 618 0088 05400140 		.word	1073823749
 619 008c 01410140 		.word	1073824001
 620 0090 01420140 		.word	1073824257
 621 0094 03430140 		.word	1073824515
 622 0098 02450140 		.word	1073825026
 623 009c 01460140 		.word	1073825281
 624 00a0 01470140 		.word	1073825537
 625 00a4 04480140 		.word	1073825796
 626 00a8 05490140 		.word	1073826053
 627 00ac 024C0140 		.word	1073826818
 628 00b0 084D0140 		.word	1073827080
 629 00b4 04500140 		.word	1073827844
 630 00b8 01510140 		.word	1073828097
 631              		.type	cy_cfg_data_table.4879, %object
 632              		.size	cy_cfg_data_table.4879, 812
 633              	cy_cfg_data_table.4879:
ARM GAS  C:\Users\Patrick\AppData\Local\Temp\ccz80ATz.s 			page 28


 634 00bc 0A       		.byte	10
 635 00bd 36       		.byte	54
 636 00be 61       		.byte	97
 637 00bf 80       		.byte	-128
 638 00c0 64       		.byte	100
 639 00c1 40       		.byte	64
 640 00c2 89       		.byte	-119
 641 00c3 0F       		.byte	15
 642 00c4 88       		.byte	-120
 643 00c5 72       		.byte	114
 644 00c6 8B       		.byte	-117
 645 00c7 38       		.byte	56
 646 00c8 E2       		.byte	-30
 647 00c9 04       		.byte	4
 648 00ca 01       		.byte	1
 649 00cb 1F       		.byte	31
 650 00cc 05       		.byte	5
 651 00cd 04       		.byte	4
 652 00ce 09       		.byte	9
 653 00cf 0E       		.byte	14
 654 00d0 0A       		.byte	10
 655 00d1 02       		.byte	2
 656 00d2 0B       		.byte	11
 657 00d3 11       		.byte	17
 658 00d4 0D       		.byte	13
 659 00d5 08       		.byte	8
 660 00d6 13       		.byte	19
 661 00d7 12       		.byte	18
 662 00d8 15       		.byte	21
 663 00d9 13       		.byte	19
 664 00da 16       		.byte	22
 665 00db 02       		.byte	2
 666 00dc 17       		.byte	23
 667 00dd 0C       		.byte	12
 668 00de 19       		.byte	25
 669 00df 0C       		.byte	12
 670 00e0 1B       		.byte	27
 671 00e1 13       		.byte	19
 672 00e2 26       		.byte	38
 673 00e3 01       		.byte	1
 674 00e4 29       		.byte	41
 675 00e5 0C       		.byte	12
 676 00e6 30       		.byte	48
 677 00e7 02       		.byte	2
 678 00e8 32       		.byte	50
 679 00e9 01       		.byte	1
 680 00ea 33       		.byte	51
 681 00eb 1C       		.byte	28
 682 00ec 35       		.byte	53
 683 00ed 0E       		.byte	14
 684 00ee 37       		.byte	55
 685 00ef 01       		.byte	1
 686 00f0 39       		.byte	57
 687 00f1 80       		.byte	-128
 688 00f2 3B       		.byte	59
 689 00f3 08       		.byte	8
 690 00f4 3E       		.byte	62
ARM GAS  C:\Users\Patrick\AppData\Local\Temp\ccz80ATz.s 			page 29


 691 00f5 01       		.byte	1
 692 00f6 58       		.byte	88
 693 00f7 04       		.byte	4
 694 00f8 59       		.byte	89
 695 00f9 04       		.byte	4
 696 00fa 5C       		.byte	92
 697 00fb 11       		.byte	17
 698 00fc 5F       		.byte	95
 699 00fd 01       		.byte	1
 700 00fe 84       		.byte	-124
 701 00ff 13       		.byte	19
 702 0100 85       		.byte	-123
 703 0101 20       		.byte	32
 704 0102 86       		.byte	-122
 705 0103 0C       		.byte	12
 706 0104 87       		.byte	-121
 707 0105 18       		.byte	24
 708 0106 88       		.byte	-120
 709 0107 13       		.byte	19
 710 0108 89       		.byte	-119
 711 0109 28       		.byte	40
 712 010a 8A       		.byte	-118
 713 010b 04       		.byte	4
 714 010c 8F       		.byte	-113
 715 010d 06       		.byte	6
 716 010e 95       		.byte	-107
 717 010f 12       		.byte	18
 718 0110 96       		.byte	-106
 719 0111 15       		.byte	21
 720 0112 97       		.byte	-105
 721 0113 20       		.byte	32
 722 0114 98       		.byte	-104
 723 0115 0A       		.byte	10
 724 0116 99       		.byte	-103
 725 0117 38       		.byte	56
 726 0118 9A       		.byte	-102
 727 0119 14       		.byte	20
 728 011a 9B       		.byte	-101
 729 011b 04       		.byte	4
 730 011c 9D       		.byte	-99
 731 011d 20       		.byte	32
 732 011e A1       		.byte	-95
 733 011f 01       		.byte	1
 734 0120 A4       		.byte	-92
 735 0121 03       		.byte	3
 736 0122 A6       		.byte	-90
 737 0123 14       		.byte	20
 738 0124 A9       		.byte	-87
 739 0125 18       		.byte	24
 740 0126 AA       		.byte	-86
 741 0127 08       		.byte	8
 742 0128 AB       		.byte	-85
 743 0129 22       		.byte	34
 744 012a B0       		.byte	-80
 745 012b 10       		.byte	16
 746 012c B1       		.byte	-79
 747 012d 3E       		.byte	62
ARM GAS  C:\Users\Patrick\AppData\Local\Temp\ccz80ATz.s 			page 30


 748 012e B3       		.byte	-77
 749 012f 01       		.byte	1
 750 0130 B4       		.byte	-76
 751 0131 0F       		.byte	15
 752 0132 BA       		.byte	-70
 753 0133 20       		.byte	32
 754 0134 BE       		.byte	-66
 755 0135 01       		.byte	1
 756 0136 BF       		.byte	-65
 757 0137 04       		.byte	4
 758 0138 C0       		.byte	-64
 759 0139 23       		.byte	35
 760 013a C1       		.byte	-63
 761 013b 06       		.byte	6
 762 013c C5       		.byte	-59
 763 013d EC       		.byte	-20
 764 013e C6       		.byte	-58
 765 013f B0       		.byte	-80
 766 0140 C8       		.byte	-56
 767 0141 0B       		.byte	11
 768 0142 C9       		.byte	-55
 769 0143 FF       		.byte	-1
 770 0144 CA       		.byte	-54
 771 0145 FF       		.byte	-1
 772 0146 CB       		.byte	-53
 773 0147 FF       		.byte	-1
 774 0148 CE       		.byte	-50
 775 0149 F0       		.byte	-16
 776 014a CF       		.byte	-49
 777 014b 44       		.byte	68
 778 014c D0       		.byte	-48
 779 014d 0C       		.byte	12
 780 014e D4       		.byte	-44
 781 014f 01       		.byte	1
 782 0150 D6       		.byte	-42
 783 0151 04       		.byte	4
 784 0152 D8       		.byte	-40
 785 0153 04       		.byte	4
 786 0154 D9       		.byte	-39
 787 0155 04       		.byte	4
 788 0156 DA       		.byte	-38
 789 0157 04       		.byte	4
 790 0158 DB       		.byte	-37
 791 0159 04       		.byte	4
 792 015a DC       		.byte	-36
 793 015b 11       		.byte	17
 794 015c DD       		.byte	-35
 795 015d 11       		.byte	17
 796 015e DF       		.byte	-33
 797 015f 01       		.byte	1
 798 0160 E6       		.byte	-26
 799 0161 C0       		.byte	-64
 800 0162 EA       		.byte	-22
 801 0163 40       		.byte	64
 802 0164 EB       		.byte	-21
 803 0165 02       		.byte	2
 804 0166 00       		.byte	0
ARM GAS  C:\Users\Patrick\AppData\Local\Temp\ccz80ATz.s 			page 31


 805 0167 04       		.byte	4
 806 0168 01       		.byte	1
 807 0169 20       		.byte	32
 808 016a 06       		.byte	6
 809 016b 04       		.byte	4
 810 016c 07       		.byte	7
 811 016d 04       		.byte	4
 812 016e 09       		.byte	9
 813 016f 28       		.byte	40
 814 0170 0F       		.byte	15
 815 0171 20       		.byte	32
 816 0172 10       		.byte	16
 817 0173 30       		.byte	48
 818 0174 12       		.byte	18
 819 0175 08       		.byte	8
 820 0176 14       		.byte	20
 821 0177 20       		.byte	32
 822 0178 18       		.byte	24
 823 0179 04       		.byte	4
 824 017a 1A       		.byte	26
 825 017b 40       		.byte	64
 826 017c 1C       		.byte	28
 827 017d 20       		.byte	32
 828 017e 1F       		.byte	31
 829 017f 01       		.byte	1
 830 0180 20       		.byte	32
 831 0181 40       		.byte	64
 832 0182 22       		.byte	34
 833 0183 04       		.byte	4
 834 0184 27       		.byte	39
 835 0185 15       		.byte	21
 836 0186 29       		.byte	41
 837 0187 21       		.byte	33
 838 0188 2E       		.byte	46
 839 0189 20       		.byte	32
 840 018a 30       		.byte	48
 841 018b 80       		.byte	-128
 842 018c 31       		.byte	49
 843 018d 20       		.byte	32
 844 018e 32       		.byte	50
 845 018f 08       		.byte	8
 846 0190 36       		.byte	54
 847 0191 06       		.byte	6
 848 0192 37       		.byte	55
 849 0193 10       		.byte	16
 850 0194 38       		.byte	56
 851 0195 64       		.byte	100
 852 0196 3A       		.byte	58
 853 0197 40       		.byte	64
 854 0198 3C       		.byte	60
 855 0199 80       		.byte	-128
 856 019a 3D       		.byte	61
 857 019b 20       		.byte	32
 858 019c 3E       		.byte	62
 859 019d 09       		.byte	9
 860 019e 40       		.byte	64
 861 019f 14       		.byte	20
ARM GAS  C:\Users\Patrick\AppData\Local\Temp\ccz80ATz.s 			page 32


 862 01a0 41       		.byte	65
 863 01a1 08       		.byte	8
 864 01a2 48       		.byte	72
 865 01a3 20       		.byte	32
 866 01a4 49       		.byte	73
 867 01a5 21       		.byte	33
 868 01a6 50       		.byte	80
 869 01a7 10       		.byte	16
 870 01a8 58       		.byte	88
 871 01a9 10       		.byte	16
 872 01aa 59       		.byte	89
 873 01ab 01       		.byte	1
 874 01ac 5A       		.byte	90
 875 01ad 48       		.byte	72
 876 01ae 62       		.byte	98
 877 01af 01       		.byte	1
 878 01b0 9E       		.byte	-98
 879 01b1 01       		.byte	1
 880 01b2 C0       		.byte	-64
 881 01b3 46       		.byte	70
 882 01b4 C2       		.byte	-62
 883 01b5 26       		.byte	38
 884 01b6 C4       		.byte	-60
 885 01b7 26       		.byte	38
 886 01b8 CA       		.byte	-54
 887 01b9 25       		.byte	37
 888 01ba CC       		.byte	-52
 889 01bb EE       		.byte	-18
 890 01bc CE       		.byte	-50
 891 01bd FE       		.byte	-2
 892 01be D0       		.byte	-48
 893 01bf 06       		.byte	6
 894 01c0 D2       		.byte	-46
 895 01c1 04       		.byte	4
 896 01c2 D6       		.byte	-42
 897 01c3 0F       		.byte	15
 898 01c4 D8       		.byte	-40
 899 01c5 01       		.byte	1
 900 01c6 9E       		.byte	-98
 901 01c7 01       		.byte	1
 902 01c8 9E       		.byte	-98
 903 01c9 01       		.byte	1
 904 01ca 82       		.byte	-126
 905 01cb 01       		.byte	1
 906 01cc E6       		.byte	-26
 907 01cd 08       		.byte	8
 908 01ce EE       		.byte	-18
 909 01cf 08       		.byte	8
 910 01d0 E8       		.byte	-24
 911 01d1 10       		.byte	16
 912 01d2 00       		.byte	0
 913 01d3 02       		.byte	2
 914 01d4 01       		.byte	1
 915 01d5 04       		.byte	4
 916 01d6 04       		.byte	4
 917 01d7 1F       		.byte	31
 918 01d8 05       		.byte	5
ARM GAS  C:\Users\Patrick\AppData\Local\Temp\ccz80ATz.s 			page 33


 919 01d9 08       		.byte	8
 920 01da 08       		.byte	8
 921 01db 1C       		.byte	28
 922 01dc 0A       		.byte	10
 923 01dd 03       		.byte	3
 924 01de 0B       		.byte	11
 925 01df 04       		.byte	4
 926 01e0 0D       		.byte	13
 927 01e1 10       		.byte	16
 928 01e2 12       		.byte	18
 929 01e3 03       		.byte	3
 930 01e4 13       		.byte	19
 931 01e5 03       		.byte	3
 932 01e6 14       		.byte	20
 933 01e7 03       		.byte	3
 934 01e8 15       		.byte	21
 935 01e9 1C       		.byte	28
 936 01ea 17       		.byte	23
 937 01eb 02       		.byte	2
 938 01ec 18       		.byte	24
 939 01ed 13       		.byte	19
 940 01ee 19       		.byte	25
 941 01ef 1C       		.byte	28
 942 01f0 1A       		.byte	26
 943 01f1 0C       		.byte	12
 944 01f2 1B       		.byte	27
 945 01f3 01       		.byte	1
 946 01f4 1C       		.byte	28
 947 01f5 1F       		.byte	31
 948 01f6 20       		.byte	32
 949 01f7 08       		.byte	8
 950 01f8 21       		.byte	33
 951 01f9 1F       		.byte	31
 952 01fa 24       		.byte	36
 953 01fb 04       		.byte	4
 954 01fc 25       		.byte	37
 955 01fd 07       		.byte	7
 956 01fe 27       		.byte	39
 957 01ff 18       		.byte	24
 958 0200 28       		.byte	40
 959 0201 0C       		.byte	12
 960 0202 29       		.byte	41
 961 0203 18       		.byte	24
 962 0204 2C       		.byte	44
 963 0205 01       		.byte	1
 964 0206 32       		.byte	50
 965 0207 10       		.byte	16
 966 0208 34       		.byte	52
 967 0209 0F       		.byte	15
 968 020a 35       		.byte	53
 969 020b 1F       		.byte	31
 970 020c 3A       		.byte	58
 971 020d A0       		.byte	-96
 972 020e 3B       		.byte	59
 973 020f 20       		.byte	32
 974 0210 3E       		.byte	62
 975 0211 04       		.byte	4
ARM GAS  C:\Users\Patrick\AppData\Local\Temp\ccz80ATz.s 			page 34


 976 0212 56       		.byte	86
 977 0213 02       		.byte	2
 978 0214 57       		.byte	87
 979 0215 11       		.byte	17
 980 0216 58       		.byte	88
 981 0217 04       		.byte	4
 982 0218 59       		.byte	89
 983 0219 04       		.byte	4
 984 021a 5B       		.byte	91
 985 021b 04       		.byte	4
 986 021c 5C       		.byte	92
 987 021d 11       		.byte	17
 988 021e 5D       		.byte	93
 989 021f 10       		.byte	16
 990 0220 5F       		.byte	95
 991 0221 01       		.byte	1
 992 0222 85       		.byte	-123
 993 0223 03       		.byte	3
 994 0224 86       		.byte	-122
 995 0225 05       		.byte	5
 996 0226 8A       		.byte	-118
 997 0227 03       		.byte	3
 998 0228 8B       		.byte	-117
 999 0229 01       		.byte	1
 1000 022a 98       		.byte	-104
 1001 022b 06       		.byte	6
 1002 022c 99       		.byte	-103
 1003 022d 02       		.byte	2
 1004 022e 9A       		.byte	-102
 1005 022f 01       		.byte	1
 1006 0230 A2       		.byte	-94
 1007 0231 02       		.byte	2
 1008 0232 A6       		.byte	-90
 1009 0233 01       		.byte	1
 1010 0234 A9       		.byte	-87
 1011 0235 03       		.byte	3
 1012 0236 AA       		.byte	-86
 1013 0237 06       		.byte	6
 1014 0238 B1       		.byte	-79
 1015 0239 03       		.byte	3
 1016 023a B4       		.byte	-76
 1017 023b 07       		.byte	7
 1018 023c B8       		.byte	-72
 1019 023d 02       		.byte	2
 1020 023e B9       		.byte	-71
 1021 023f 02       		.byte	2
 1022 0240 BA       		.byte	-70
 1023 0241 20       		.byte	32
 1024 0242 BE       		.byte	-66
 1025 0243 01       		.byte	1
 1026 0244 BF       		.byte	-65
 1027 0245 01       		.byte	1
 1028 0246 C0       		.byte	-64
 1029 0247 04       		.byte	4
 1030 0248 C5       		.byte	-59
 1031 0249 40       		.byte	64
 1032 024a C9       		.byte	-55
ARM GAS  C:\Users\Patrick\AppData\Local\Temp\ccz80ATz.s 			page 35


 1033 024b FF       		.byte	-1
 1034 024c CA       		.byte	-54
 1035 024d 07       		.byte	7
 1036 024e CB       		.byte	-53
 1037 024f FF       		.byte	-1
 1038 0250 CC       		.byte	-52
 1039 0251 40       		.byte	64
 1040 0252 CD       		.byte	-51
 1041 0253 20       		.byte	32
 1042 0254 CE       		.byte	-50
 1043 0255 F0       		.byte	-16
 1044 0256 CF       		.byte	-49
 1045 0257 05       		.byte	5
 1046 0258 D0       		.byte	-48
 1047 0259 08       		.byte	8
 1048 025a D8       		.byte	-40
 1049 025b 04       		.byte	4
 1050 025c D9       		.byte	-39
 1051 025d 04       		.byte	4
 1052 025e DA       		.byte	-38
 1053 025f 04       		.byte	4
 1054 0260 DC       		.byte	-36
 1055 0261 01       		.byte	1
 1056 0262 DD       		.byte	-35
 1057 0263 01       		.byte	1
 1058 0264 DF       		.byte	-33
 1059 0265 01       		.byte	1
 1060 0266 E0       		.byte	-32
 1061 0267 40       		.byte	64
 1062 0268 E1       		.byte	-31
 1063 0269 A8       		.byte	-88
 1064 026a E2       		.byte	-30
 1065 026b 40       		.byte	64
 1066 026c E3       		.byte	-29
 1067 026d 20       		.byte	32
 1068 026e 00       		.byte	0
 1069 026f 04       		.byte	4
 1070 0270 01       		.byte	1
 1071 0271 20       		.byte	32
 1072 0272 05       		.byte	5
 1073 0273 01       		.byte	1
 1074 0274 07       		.byte	7
 1075 0275 14       		.byte	20
 1076 0276 09       		.byte	9
 1077 0277 20       		.byte	32
 1078 0278 0C       		.byte	12
 1079 0279 51       		.byte	81
 1080 027a 0E       		.byte	14
 1081 027b 29       		.byte	41
 1082 027c 10       		.byte	16
 1083 027d 80       		.byte	-128
 1084 027e 12       		.byte	18
 1085 027f 18       		.byte	24
 1086 0280 16       		.byte	22
 1087 0281 82       		.byte	-126
 1088 0282 17       		.byte	23
 1089 0283 28       		.byte	40
ARM GAS  C:\Users\Patrick\AppData\Local\Temp\ccz80ATz.s 			page 36


 1090 0284 19       		.byte	25
 1091 0285 32       		.byte	50
 1092 0286 1E       		.byte	30
 1093 0287 19       		.byte	25
 1094 0288 20       		.byte	32
 1095 0289 40       		.byte	64
 1096 028a 25       		.byte	37
 1097 028b 10       		.byte	16
 1098 028c 27       		.byte	39
 1099 028d 04       		.byte	4
 1100 028e 29       		.byte	41
 1101 028f 10       		.byte	16
 1102 0290 2C       		.byte	44
 1103 0291 10       		.byte	16
 1104 0292 2E       		.byte	46
 1105 0293 21       		.byte	33
 1106 0294 31       		.byte	49
 1107 0295 20       		.byte	32
 1108 0296 34       		.byte	52
 1109 0297 01       		.byte	1
 1110 0298 36       		.byte	54
 1111 0299 02       		.byte	2
 1112 029a 37       		.byte	55
 1113 029b 14       		.byte	20
 1114 029c 38       		.byte	56
 1115 029d 34       		.byte	52
 1116 029e 3C       		.byte	60
 1117 029f A0       		.byte	-96
 1118 02a0 3E       		.byte	62
 1119 02a1 8A       		.byte	-118
 1120 02a2 40       		.byte	64
 1121 02a3 40       		.byte	64
 1122 02a4 48       		.byte	72
 1123 02a5 80       		.byte	-128
 1124 02a6 50       		.byte	80
 1125 02a7 10       		.byte	16
 1126 02a8 52       		.byte	82
 1127 02a9 10       		.byte	16
 1128 02aa 5E       		.byte	94
 1129 02ab 10       		.byte	16
 1130 02ac 6C       		.byte	108
 1131 02ad 20       		.byte	32
 1132 02ae 6D       		.byte	109
 1133 02af 90       		.byte	-112
 1134 02b0 74       		.byte	116
 1135 02b1 40       		.byte	64
 1136 02b2 76       		.byte	118
 1137 02b3 28       		.byte	40
 1138 02b4 77       		.byte	119
 1139 02b5 28       		.byte	40
 1140 02b6 90       		.byte	-112
 1141 02b7 04       		.byte	4
 1142 02b8 93       		.byte	-109
 1143 02b9 02       		.byte	2
 1144 02ba 94       		.byte	-108
 1145 02bb 10       		.byte	16
 1146 02bc 96       		.byte	-106
ARM GAS  C:\Users\Patrick\AppData\Local\Temp\ccz80ATz.s 			page 37


 1147 02bd 01       		.byte	1
 1148 02be 9A       		.byte	-102
 1149 02bf 44       		.byte	68
 1150 02c0 9B       		.byte	-101
 1151 02c1 11       		.byte	17
 1152 02c2 9C       		.byte	-100
 1153 02c3 20       		.byte	32
 1154 02c4 9D       		.byte	-99
 1155 02c5 20       		.byte	32
 1156 02c6 9E       		.byte	-98
 1157 02c7 28       		.byte	40
 1158 02c8 A0       		.byte	-96
 1159 02c9 10       		.byte	16
 1160 02ca A4       		.byte	-92
 1161 02cb C0       		.byte	-64
 1162 02cc A5       		.byte	-91
 1163 02cd 30       		.byte	48
 1164 02ce A6       		.byte	-90
 1165 02cf 0E       		.byte	14
 1166 02d0 A7       		.byte	-89
 1167 02d1 10       		.byte	16
 1168 02d2 C0       		.byte	-64
 1169 02d3 76       		.byte	118
 1170 02d4 C2       		.byte	-62
 1171 02d5 F2       		.byte	-14
 1172 02d6 C4       		.byte	-60
 1173 02d7 FE       		.byte	-2
 1174 02d8 CA       		.byte	-54
 1175 02d9 E4       		.byte	-28
 1176 02da CC       		.byte	-52
 1177 02db E4       		.byte	-28
 1178 02dc CE       		.byte	-50
 1179 02dd F6       		.byte	-10
 1180 02de D0       		.byte	-48
 1181 02df 01       		.byte	1
 1182 02e0 D6       		.byte	-42
 1183 02e1 20       		.byte	32
 1184 02e2 E8       		.byte	-24
 1185 02e3 10       		.byte	16
 1186 02e4 05       		.byte	5
 1187 02e5 05       		.byte	5
 1188 02e6 07       		.byte	7
 1189 02e7 18       		.byte	24
 1190 02e8 09       		.byte	9
 1191 02e9 02       		.byte	2
 1192 02ea 0B       		.byte	11
 1193 02eb 0C       		.byte	12
 1194 02ec 17       		.byte	23
 1195 02ed 30       		.byte	48
 1196 02ee 19       		.byte	25
 1197 02ef 30       		.byte	48
 1198 02f0 1B       		.byte	27
 1199 02f1 0D       		.byte	13
 1200 02f2 1F       		.byte	31
 1201 02f3 20       		.byte	32
 1202 02f4 29       		.byte	41
 1203 02f5 05       		.byte	5
ARM GAS  C:\Users\Patrick\AppData\Local\Temp\ccz80ATz.s 			page 38


 1204 02f6 2B       		.byte	43
 1205 02f7 38       		.byte	56
 1206 02f8 2D       		.byte	45
 1207 02f9 40       		.byte	64
 1208 02fa 31       		.byte	49
 1209 02fb 40       		.byte	64
 1210 02fc 33       		.byte	51
 1211 02fd 03       		.byte	3
 1212 02fe 35       		.byte	53
 1213 02ff 3C       		.byte	60
 1214 0300 39       		.byte	57
 1215 0301 08       		.byte	8
 1216 0302 3B       		.byte	59
 1217 0303 20       		.byte	32
 1218 0304 3F       		.byte	63
 1219 0305 01       		.byte	1
 1220 0306 59       		.byte	89
 1221 0307 04       		.byte	4
 1222 0308 5C       		.byte	92
 1223 0309 10       		.byte	16
 1224 030a 5F       		.byte	95
 1225 030b 01       		.byte	1
 1226 030c 04       		.byte	4
 1227 030d 40       		.byte	64
 1228 030e 05       		.byte	5
 1229 030f 40       		.byte	64
 1230 0310 07       		.byte	7
 1231 0311 54       		.byte	84
 1232 0312 0C       		.byte	12
 1233 0313 20       		.byte	32
 1234 0314 0E       		.byte	14
 1235 0315 20       		.byte	32
 1236 0316 10       		.byte	16
 1237 0317 04       		.byte	4
 1238 0318 13       		.byte	19
 1239 0319 20       		.byte	32
 1240 031a 14       		.byte	20
 1241 031b 50       		.byte	80
 1242 031c 15       		.byte	21
 1243 031d 10       		.byte	16
 1244 031e 16       		.byte	22
 1245 031f 02       		.byte	2
 1246 0320 1C       		.byte	28
 1247 0321 40       		.byte	64
 1248 0322 1D       		.byte	29
 1249 0323 81       		.byte	-127
 1250 0324 1F       		.byte	31
 1251 0325 08       		.byte	8
 1252 0326 21       		.byte	33
 1253 0327 21       		.byte	33
 1254 0328 22       		.byte	34
 1255 0329 08       		.byte	8
 1256 032a 26       		.byte	38
 1257 032b 12       		.byte	18
 1258 032c 27       		.byte	39
 1259 032d 60       		.byte	96
 1260 032e 29       		.byte	41
ARM GAS  C:\Users\Patrick\AppData\Local\Temp\ccz80ATz.s 			page 39


 1261 032f 10       		.byte	16
 1262 0330 2A       		.byte	42
 1263 0331 40       		.byte	64
 1264 0332 2C       		.byte	44
 1265 0333 20       		.byte	32
 1266 0334 2E       		.byte	46
 1267 0335 02       		.byte	2
 1268 0336 30       		.byte	48
 1269 0337 80       		.byte	-128
 1270 0338 31       		.byte	49
 1271 0339 20       		.byte	32
 1272 033a 32       		.byte	50
 1273 033b 08       		.byte	8
 1274 033c 35       		.byte	53
 1275 033d 40       		.byte	64
 1276 033e 36       		.byte	54
 1277 033f 10       		.byte	16
 1278 0340 37       		.byte	55
 1279 0341 01       		.byte	1
 1280 0342 38       		.byte	56
 1281 0343 24       		.byte	36
 1282 0344 3D       		.byte	61
 1283 0345 90       		.byte	-112
 1284 0346 3F       		.byte	63
 1285 0347 01       		.byte	1
 1286 0348 44       		.byte	68
 1287 0349 50       		.byte	80
 1288 034a 45       		.byte	69
 1289 034b 80       		.byte	-128
 1290 034c 46       		.byte	70
 1291 034d 04       		.byte	4
 1292 034e 4E       		.byte	78
 1293 034f 02       		.byte	2
 1294 0350 4F       		.byte	79
 1295 0351 01       		.byte	1
 1296 0352 57       		.byte	87
 1297 0353 10       		.byte	16
 1298 0354 5E       		.byte	94
 1299 0355 02       		.byte	2
 1300 0356 64       		.byte	100
 1301 0357 04       		.byte	4
 1302 0358 65       		.byte	101
 1303 0359 02       		.byte	2
 1304 035a 67       		.byte	103
 1305 035b 02       		.byte	2
 1306 035c 82       		.byte	-126
 1307 035d 01       		.byte	1
 1308 035e 83       		.byte	-125
 1309 035f 08       		.byte	8
 1310 0360 85       		.byte	-123
 1311 0361 02       		.byte	2
 1312 0362 88       		.byte	-120
 1313 0363 20       		.byte	32
 1314 0364 89       		.byte	-119
 1315 0365 01       		.byte	1
 1316 0366 8A       		.byte	-118
 1317 0367 02       		.byte	2
ARM GAS  C:\Users\Patrick\AppData\Local\Temp\ccz80ATz.s 			page 40


 1318 0368 90       		.byte	-112
 1319 0369 24       		.byte	36
 1320 036a 91       		.byte	-111
 1321 036b 10       		.byte	16
 1322 036c 93       		.byte	-109
 1323 036d 02       		.byte	2
 1324 036e 98       		.byte	-104
 1325 036f 50       		.byte	80
 1326 0370 99       		.byte	-103
 1327 0371 10       		.byte	16
 1328 0372 9A       		.byte	-102
 1329 0373 44       		.byte	68
 1330 0374 9B       		.byte	-101
 1331 0375 15       		.byte	21
 1332 0376 9C       		.byte	-100
 1333 0377 20       		.byte	32
 1334 0378 9D       		.byte	-99
 1335 0379 01       		.byte	1
 1336 037a 9E       		.byte	-98
 1337 037b 02       		.byte	2
 1338 037c A0       		.byte	-96
 1339 037d A0       		.byte	-96
 1340 037e A1       		.byte	-95
 1341 037f 40       		.byte	64
 1342 0380 A5       		.byte	-91
 1343 0381 20       		.byte	32
 1344 0382 A6       		.byte	-90
 1345 0383 1A       		.byte	26
 1346 0384 A7       		.byte	-89
 1347 0385 10       		.byte	16
 1348 0386 AD       		.byte	-83
 1349 0387 02       		.byte	2
 1350 0388 C0       		.byte	-64
 1351 0389 F0       		.byte	-16
 1352 038a C2       		.byte	-62
 1353 038b 60       		.byte	96
 1354 038c C4       		.byte	-60
 1355 038d F0       		.byte	-16
 1356 038e CA       		.byte	-54
 1357 038f CC       		.byte	-52
 1358 0390 CC       		.byte	-52
 1359 0391 BE       		.byte	-66
 1360 0392 CE       		.byte	-50
 1361 0393 B6       		.byte	-74
 1362 0394 D0       		.byte	-48
 1363 0395 F0       		.byte	-16
 1364 0396 D2       		.byte	-46
 1365 0397 10       		.byte	16
 1366 0398 D6       		.byte	-42
 1367 0399 80       		.byte	-128
 1368 039a D8       		.byte	-40
 1369 039b B0       		.byte	-80
 1370 039c 32       		.byte	50
 1371 039d 80       		.byte	-128
 1372 039e 35       		.byte	53
 1373 039f 80       		.byte	-128
 1374 03a0 81       		.byte	-127
ARM GAS  C:\Users\Patrick\AppData\Local\Temp\ccz80ATz.s 			page 41


 1375 03a1 80       		.byte	-128
 1376 03a2 CC       		.byte	-52
 1377 03a3 30       		.byte	48
 1378 03a4 E2       		.byte	-30
 1379 03a5 20       		.byte	32
 1380 03a6 A6       		.byte	-90
 1381 03a7 80       		.byte	-128
 1382 03a8 A6       		.byte	-90
 1383 03a9 80       		.byte	-128
 1384 03aa 18       		.byte	24
 1385 03ab 10       		.byte	16
 1386 03ac A6       		.byte	-90
 1387 03ad 80       		.byte	-128
 1388 03ae C6       		.byte	-58
 1389 03af 10       		.byte	16
 1390 03b0 50       		.byte	80
 1391 03b1 04       		.byte	4
 1392 03b2 D4       		.byte	-44
 1393 03b3 04       		.byte	4
 1394 03b4 94       		.byte	-108
 1395 03b5 08       		.byte	8
 1396 03b6 94       		.byte	-108
 1397 03b7 08       		.byte	8
 1398 03b8 64       		.byte	100
 1399 03b9 08       		.byte	8
 1400 03ba A6       		.byte	-90
 1401 03bb 80       		.byte	-128
 1402 03bc B4       		.byte	-76
 1403 03bd 10       		.byte	16
 1404 03be D8       		.byte	-40
 1405 03bf 80       		.byte	-128
 1406 03c0 86       		.byte	-122
 1407 03c1 80       		.byte	-128
 1408 03c2 A6       		.byte	-90
 1409 03c3 80       		.byte	-128
 1410 03c4 AC       		.byte	-84
 1411 03c5 08       		.byte	8
 1412 03c6 E6       		.byte	-26
 1413 03c7 10       		.byte	16
 1414 03c8 EE       		.byte	-18
 1415 03c9 10       		.byte	16
 1416 03ca B4       		.byte	-76
 1417 03cb 04       		.byte	4
 1418 03cc E8       		.byte	-24
 1419 03cd 08       		.byte	8
 1420 03ce 10       		.byte	16
 1421 03cf 40       		.byte	64
 1422 03d0 73       		.byte	115
 1423 03d1 40       		.byte	64
 1424 03d2 88       		.byte	-120
 1425 03d3 40       		.byte	64
 1426 03d4 8B       		.byte	-117
 1427 03d5 40       		.byte	64
 1428 03d6 C4       		.byte	-60
 1429 03d7 08       		.byte	8
 1430 03d8 DC       		.byte	-36
 1431 03d9 01       		.byte	1
ARM GAS  C:\Users\Patrick\AppData\Local\Temp\ccz80ATz.s 			page 42


 1432 03da E0       		.byte	-32
 1433 03db 04       		.byte	4
 1434 03dc E2       		.byte	-30
 1435 03dd 01       		.byte	1
 1436 03de 00       		.byte	0
 1437 03df 02       		.byte	2
 1438 03e0 0C       		.byte	12
 1439 03e1 02       		.byte	2
 1440 03e2 10       		.byte	16
 1441 03e3 02       		.byte	2
 1442 03e4 1C       		.byte	28
 1443 03e5 02       		.byte	2
 1444 03e6 00       		.byte	0
 1445 03e7 0F       		.byte	15
 1446              		.type	BS_IOPINS0_7_VAL.4876, %object
 1447              		.size	BS_IOPINS0_7_VAL.4876, 10
 1448              	BS_IOPINS0_7_VAL.4876:
 1449 03e8 80       		.byte	-128
 1450 03e9 00       		.byte	0
 1451 03ea 40       		.byte	64
 1452 03eb 80       		.byte	-128
 1453 03ec 80       		.byte	-128
 1454 03ed 00       		.byte	0
 1455 03ee 80       		.byte	-128
 1456 03ef 00       		.byte	0
 1457 03f0 00       		.byte	0
 1458 03f1 00       		.byte	0
 1459 03f2 0000     		.space	2
 1460              		.type	BS_IOPINS0_2_VAL.4877, %object
 1461              		.size	BS_IOPINS0_2_VAL.4877, 8
 1462              	BS_IOPINS0_2_VAL.4877:
 1463 03f4 00       		.byte	0
 1464 03f5 02       		.byte	2
 1465 03f6 02       		.byte	2
 1466 03f7 00       		.byte	0
 1467 03f8 02       		.byte	2
 1468 03f9 00       		.byte	0
 1469 03fa 00       		.byte	0
 1470 03fb 00       		.byte	0
 1471              		.type	BS_UDB_0_0_1_CONFIG_VAL.4890, %object
 1472              		.size	BS_UDB_0_0_1_CONFIG_VAL.4890, 128
 1473              	BS_UDB_0_0_1_CONFIG_VAL.4890:
 1474 03fc 00       		.byte	0
 1475 03fd 00       		.byte	0
 1476 03fe 03       		.byte	3
 1477 03ff 10       		.byte	16
 1478 0400 00       		.byte	0
 1479 0401 00       		.byte	0
 1480 0402 03       		.byte	3
 1481 0403 00       		.byte	0
 1482 0404 00       		.byte	0
 1483 0405 0F       		.byte	15
 1484 0406 03       		.byte	3
 1485 0407 00       		.byte	0
 1486 0408 0A       		.byte	10
 1487 0409 08       		.byte	8
 1488 040a 24       		.byte	36
ARM GAS  C:\Users\Patrick\AppData\Local\Temp\ccz80ATz.s 			page 43


 1489 040b 00       		.byte	0
 1490 040c 00       		.byte	0
 1491 040d 00       		.byte	0
 1492 040e 00       		.byte	0
 1493 040f 10       		.byte	16
 1494 0410 03       		.byte	3
 1495 0411 00       		.byte	0
 1496 0412 10       		.byte	16
 1497 0413 00       		.byte	0
 1498 0414 0C       		.byte	12
 1499 0415 01       		.byte	1
 1500 0416 00       		.byte	0
 1501 0417 06       		.byte	6
 1502 0418 00       		.byte	0
 1503 0419 04       		.byte	4
 1504 041a 00       		.byte	0
 1505 041b 01       		.byte	1
 1506 041c 03       		.byte	3
 1507 041d 02       		.byte	2
 1508 041e 00       		.byte	0
 1509 041f 01       		.byte	1
 1510 0420 03       		.byte	3
 1511 0421 0F       		.byte	15
 1512 0422 00       		.byte	0
 1513 0423 00       		.byte	0
 1514 0424 0C       		.byte	12
 1515 0425 00       		.byte	0
 1516 0426 00       		.byte	0
 1517 0427 00       		.byte	0
 1518 0428 05       		.byte	5
 1519 0429 00       		.byte	0
 1520 042a 28       		.byte	40
 1521 042b 00       		.byte	0
 1522 042c 0C       		.byte	12
 1523 042d 08       		.byte	8
 1524 042e 03       		.byte	3
 1525 042f 10       		.byte	16
 1526 0430 00       		.byte	0
 1527 0431 07       		.byte	7
 1528 0432 30       		.byte	48
 1529 0433 00       		.byte	0
 1530 0434 00       		.byte	0
 1531 0435 00       		.byte	0
 1532 0436 00       		.byte	0
 1533 0437 00       		.byte	0
 1534 0438 00       		.byte	0
 1535 0439 00       		.byte	0
 1536 043a 40       		.byte	64
 1537 043b 04       		.byte	4
 1538 043c 35       		.byte	53
 1539 043d 04       		.byte	4
 1540 043e 02       		.byte	2
 1541 043f 00       		.byte	0
 1542 0440 01       		.byte	1
 1543 0441 E0       		.byte	-32
 1544 0442 C0       		.byte	-64
 1545 0443 00       		.byte	0
ARM GAS  C:\Users\Patrick\AppData\Local\Temp\ccz80ATz.s 			page 44


 1546 0444 0A       		.byte	10
 1547 0445 FF       		.byte	-1
 1548 0446 FF       		.byte	-1
 1549 0447 FF       		.byte	-1
 1550 0448 62       		.byte	98
 1551 0449 A0       		.byte	-96
 1552 044a F0       		.byte	-16
 1553 044b 41       		.byte	65
 1554 044c 0C       		.byte	12
 1555 044d 00       		.byte	0
 1556 044e 00       		.byte	0
 1557 044f 00       		.byte	0
 1558 0450 18       		.byte	24
 1559 0451 00       		.byte	0
 1560 0452 04       		.byte	4
 1561 0453 00       		.byte	0
 1562 0454 04       		.byte	4
 1563 0455 04       		.byte	4
 1564 0456 04       		.byte	4
 1565 0457 04       		.byte	4
 1566 0458 11       		.byte	17
 1567 0459 11       		.byte	17
 1568 045a 00       		.byte	0
 1569 045b 01       		.byte	1
 1570 045c 00       		.byte	0
 1571 045d 00       		.byte	0
 1572 045e 00       		.byte	0
 1573 045f 00       		.byte	0
 1574 0460 00       		.byte	0
 1575 0461 00       		.byte	0
 1576 0462 40       		.byte	64
 1577 0463 02       		.byte	2
 1578 0464 00       		.byte	0
 1579 0465 10       		.byte	16
 1580 0466 30       		.byte	48
 1581 0467 10       		.byte	16
 1582 0468 00       		.byte	0
 1583 0469 10       		.byte	16
 1584 046a 10       		.byte	16
 1585 046b 12       		.byte	18
 1586 046c 00       		.byte	0
 1587 046d 00       		.byte	0
 1588 046e 00       		.byte	0
 1589 046f 00       		.byte	0
 1590 0470 00       		.byte	0
 1591 0471 00       		.byte	0
 1592 0472 00       		.byte	0
 1593 0473 00       		.byte	0
 1594 0474 00       		.byte	0
 1595 0475 00       		.byte	0
 1596 0476 00       		.byte	0
 1597 0477 00       		.byte	0
 1598 0478 00       		.byte	0
 1599 0479 00       		.byte	0
 1600 047a 00       		.byte	0
 1601 047b 00       		.byte	0
 1602              		.text
ARM GAS  C:\Users\Patrick\AppData\Local\Temp\ccz80ATz.s 			page 45


 1603              	.Letext0:
 1604              		.file 2 "c:\\program files (x86)\\cypress\\psoc creator\\3.3\\psoc creator\\import\\gnu\\arm\\4.9.
 1605              		.file 3 ".\\Generated_Source\\PSoC5\\cytypes.h"
 1606              		.file 4 ".\\Generated_Source\\PSoC5\\CyLib.h"