ARM GAS  C:\Users\Patrick\AppData\Local\Temp\ccRDuB7I.s 			page 1


   1              		.syntax unified
   2              		.cpu cortex-m3
   3              		.fpu softvfp
   4              		.eabi_attribute 20, 1
   5              		.eabi_attribute 21, 1
   6              		.eabi_attribute 23, 3
   7              		.eabi_attribute 24, 1
   8              		.eabi_attribute 25, 1
   9              		.eabi_attribute 26, 1
  10              		.eabi_attribute 30, 2
  11              		.eabi_attribute 34, 1
  12              		.eabi_attribute 18, 4
  13              		.thumb
  14              		.file	"ADC_SAR_1.c"
  15              		.text
  16              	.Ltext0:
  17              		.cfi_sections	.debug_frame
  18              		.section	.text.ADC_SAR_1_Start,"ax",%progbits
  19              		.align	2
  20              		.global	ADC_SAR_1_Start
  21              		.thumb
  22              		.thumb_func
  23              		.type	ADC_SAR_1_Start, %function
  24              	ADC_SAR_1_Start:
  25              	.LFB0:
  26              		.file 1 ".\\Generated_Source\\PSoC5\\ADC_SAR_1.c"
   1:.\Generated_Source\PSoC5/ADC_SAR_1.c **** /*******************************************************************************
   2:.\Generated_Source\PSoC5/ADC_SAR_1.c **** * File Name: ADC_SAR_1.c
   3:.\Generated_Source\PSoC5/ADC_SAR_1.c **** * Version 3.0
   4:.\Generated_Source\PSoC5/ADC_SAR_1.c **** *
   5:.\Generated_Source\PSoC5/ADC_SAR_1.c **** * Description:
   6:.\Generated_Source\PSoC5/ADC_SAR_1.c **** *  This file provides the source code to the API for the Successive
   7:.\Generated_Source\PSoC5/ADC_SAR_1.c **** *  approximation ADC Component.
   8:.\Generated_Source\PSoC5/ADC_SAR_1.c **** *
   9:.\Generated_Source\PSoC5/ADC_SAR_1.c **** * Note:
  10:.\Generated_Source\PSoC5/ADC_SAR_1.c **** *
  11:.\Generated_Source\PSoC5/ADC_SAR_1.c **** ********************************************************************************
  12:.\Generated_Source\PSoC5/ADC_SAR_1.c **** * Copyright 2008-2015, Cypress Semiconductor Corporation.  All rights reserved.
  13:.\Generated_Source\PSoC5/ADC_SAR_1.c **** * You may use this file only in accordance with the license, terms, conditions,
  14:.\Generated_Source\PSoC5/ADC_SAR_1.c **** * disclaimers, and limitations in the end user license agreement accompanying
  15:.\Generated_Source\PSoC5/ADC_SAR_1.c **** * the software package with which this file was provided.
  16:.\Generated_Source\PSoC5/ADC_SAR_1.c **** *******************************************************************************/
  17:.\Generated_Source\PSoC5/ADC_SAR_1.c **** 
  18:.\Generated_Source\PSoC5/ADC_SAR_1.c **** #include "CyLib.h"
  19:.\Generated_Source\PSoC5/ADC_SAR_1.c **** #include "ADC_SAR_1.h"
  20:.\Generated_Source\PSoC5/ADC_SAR_1.c **** 
  21:.\Generated_Source\PSoC5/ADC_SAR_1.c **** #if(ADC_SAR_1_DEFAULT_INTERNAL_CLK)
  22:.\Generated_Source\PSoC5/ADC_SAR_1.c ****     #include "ADC_SAR_1_theACLK.h"
  23:.\Generated_Source\PSoC5/ADC_SAR_1.c **** #endif /* End ADC_SAR_1_DEFAULT_INTERNAL_CLK */
  24:.\Generated_Source\PSoC5/ADC_SAR_1.c **** 
  25:.\Generated_Source\PSoC5/ADC_SAR_1.c **** 
  26:.\Generated_Source\PSoC5/ADC_SAR_1.c **** /***************************************
  27:.\Generated_Source\PSoC5/ADC_SAR_1.c **** * Forward function references
  28:.\Generated_Source\PSoC5/ADC_SAR_1.c **** ***************************************/
  29:.\Generated_Source\PSoC5/ADC_SAR_1.c **** static void ADC_SAR_1_CalcGain(uint8 resolution);
  30:.\Generated_Source\PSoC5/ADC_SAR_1.c **** 
  31:.\Generated_Source\PSoC5/ADC_SAR_1.c **** 
ARM GAS  C:\Users\Patrick\AppData\Local\Temp\ccRDuB7I.s 			page 2


  32:.\Generated_Source\PSoC5/ADC_SAR_1.c **** /***************************************
  33:.\Generated_Source\PSoC5/ADC_SAR_1.c **** * Global data allocation
  34:.\Generated_Source\PSoC5/ADC_SAR_1.c **** ***************************************/
  35:.\Generated_Source\PSoC5/ADC_SAR_1.c **** uint8 ADC_SAR_1_initVar = 0u;
  36:.\Generated_Source\PSoC5/ADC_SAR_1.c **** volatile int16 ADC_SAR_1_offset;
  37:.\Generated_Source\PSoC5/ADC_SAR_1.c **** volatile int16 ADC_SAR_1_countsPerVolt;     /* Obsolete Gain compensation */
  38:.\Generated_Source\PSoC5/ADC_SAR_1.c **** volatile int32 ADC_SAR_1_countsPer10Volt;   /* Gain compensation */
  39:.\Generated_Source\PSoC5/ADC_SAR_1.c **** volatile int16 ADC_SAR_1_shift;
  40:.\Generated_Source\PSoC5/ADC_SAR_1.c **** 
  41:.\Generated_Source\PSoC5/ADC_SAR_1.c **** 
  42:.\Generated_Source\PSoC5/ADC_SAR_1.c **** /*******************************************************************************
  43:.\Generated_Source\PSoC5/ADC_SAR_1.c **** * Function Name: ADC_SAR_1_Start
  44:.\Generated_Source\PSoC5/ADC_SAR_1.c **** ********************************************************************************
  45:.\Generated_Source\PSoC5/ADC_SAR_1.c **** *
  46:.\Generated_Source\PSoC5/ADC_SAR_1.c **** * Summary:
  47:.\Generated_Source\PSoC5/ADC_SAR_1.c **** *  This is the preferred method to begin component operation.
  48:.\Generated_Source\PSoC5/ADC_SAR_1.c **** *  ADC_SAR_1_Start() sets the initVar variable, calls the
  49:.\Generated_Source\PSoC5/ADC_SAR_1.c **** *  ADC_SAR_1_Init() function, and then calls the
  50:.\Generated_Source\PSoC5/ADC_SAR_1.c **** *  ADC_SAR_1_Enable() function.
  51:.\Generated_Source\PSoC5/ADC_SAR_1.c **** *
  52:.\Generated_Source\PSoC5/ADC_SAR_1.c **** * Parameters:
  53:.\Generated_Source\PSoC5/ADC_SAR_1.c **** *  None.
  54:.\Generated_Source\PSoC5/ADC_SAR_1.c **** *
  55:.\Generated_Source\PSoC5/ADC_SAR_1.c **** * Return:
  56:.\Generated_Source\PSoC5/ADC_SAR_1.c **** *  None.
  57:.\Generated_Source\PSoC5/ADC_SAR_1.c **** *
  58:.\Generated_Source\PSoC5/ADC_SAR_1.c **** * Global variables:
  59:.\Generated_Source\PSoC5/ADC_SAR_1.c **** *  The ADC_SAR_1_initVar variable is used to indicate when/if initial
  60:.\Generated_Source\PSoC5/ADC_SAR_1.c **** *  configuration of this component has happened. The variable is initialized to
  61:.\Generated_Source\PSoC5/ADC_SAR_1.c **** *  zero and set to 1 the first time ADC_Start() is called. This allows for
  62:.\Generated_Source\PSoC5/ADC_SAR_1.c **** *  component Re-Start without re-initialization in all subsequent calls to the
  63:.\Generated_Source\PSoC5/ADC_SAR_1.c **** *  ADC_SAR_1_Start() routine.
  64:.\Generated_Source\PSoC5/ADC_SAR_1.c **** *  If re-initialization of the component is required the variable should be set
  65:.\Generated_Source\PSoC5/ADC_SAR_1.c **** *  to zero before call of ADC_SAR_1_Start() routine, or the user may call
  66:.\Generated_Source\PSoC5/ADC_SAR_1.c **** *  ADC_SAR_1_Init() and ADC_SAR_1_Enable() as done in the
  67:.\Generated_Source\PSoC5/ADC_SAR_1.c **** *  ADC_SAR_1_Start() routine.
  68:.\Generated_Source\PSoC5/ADC_SAR_1.c **** *
  69:.\Generated_Source\PSoC5/ADC_SAR_1.c **** * Side Effect:
  70:.\Generated_Source\PSoC5/ADC_SAR_1.c **** *  If the initVar variable is already set, this function only calls the
  71:.\Generated_Source\PSoC5/ADC_SAR_1.c **** *  ADC_SAR_1_Enable() function.
  72:.\Generated_Source\PSoC5/ADC_SAR_1.c **** *
  73:.\Generated_Source\PSoC5/ADC_SAR_1.c **** *******************************************************************************/
  74:.\Generated_Source\PSoC5/ADC_SAR_1.c **** void ADC_SAR_1_Start(void)
  75:.\Generated_Source\PSoC5/ADC_SAR_1.c **** {
  27              		.loc 1 75 0
  28              		.cfi_startproc
  29              		@ args = 0, pretend = 0, frame = 0
  30              		@ frame_needed = 0, uses_anonymous_args = 0
  31 0000 2DE9F843 		push	{r3, r4, r5, r6, r7, r8, r9, lr}
  32              		.cfi_def_cfa_offset 32
  33              		.cfi_offset 3, -32
  34              		.cfi_offset 4, -28
  35              		.cfi_offset 5, -24
  36              		.cfi_offset 6, -20
  37              		.cfi_offset 7, -16
  38              		.cfi_offset 8, -12
  39              		.cfi_offset 9, -8
ARM GAS  C:\Users\Patrick\AppData\Local\Temp\ccRDuB7I.s 			page 3


  40              		.cfi_offset 14, -4
  76:.\Generated_Source\PSoC5/ADC_SAR_1.c **** 
  77:.\Generated_Source\PSoC5/ADC_SAR_1.c ****     /* If not Initialized then initialize all required hardware and software */
  78:.\Generated_Source\PSoC5/ADC_SAR_1.c ****     if(ADC_SAR_1_initVar == 0u)
  41              		.loc 1 78 0
  42 0004 354D     		ldr	r5, .L5
  43 0006 2C78     		ldrb	r4, [r5]	@ zero_extendqisi2
  44 0008 2CBB     		cbnz	r4, .L2
  45              	.LBB10:
  46              	.LBB11:
  79:.\Generated_Source\PSoC5/ADC_SAR_1.c ****     {
  80:.\Generated_Source\PSoC5/ADC_SAR_1.c ****         ADC_SAR_1_Init();
  81:.\Generated_Source\PSoC5/ADC_SAR_1.c ****         ADC_SAR_1_initVar = 1u;
  82:.\Generated_Source\PSoC5/ADC_SAR_1.c ****     }
  83:.\Generated_Source\PSoC5/ADC_SAR_1.c ****     ADC_SAR_1_Enable();
  84:.\Generated_Source\PSoC5/ADC_SAR_1.c **** }
  85:.\Generated_Source\PSoC5/ADC_SAR_1.c **** 
  86:.\Generated_Source\PSoC5/ADC_SAR_1.c **** 
  87:.\Generated_Source\PSoC5/ADC_SAR_1.c **** /*******************************************************************************
  88:.\Generated_Source\PSoC5/ADC_SAR_1.c **** * Function Name: ADC_SAR_1_Init
  89:.\Generated_Source\PSoC5/ADC_SAR_1.c **** ********************************************************************************
  90:.\Generated_Source\PSoC5/ADC_SAR_1.c **** *
  91:.\Generated_Source\PSoC5/ADC_SAR_1.c **** * Summary:
  92:.\Generated_Source\PSoC5/ADC_SAR_1.c **** *  Initialize component's parameters to the parameters set by user in the
  93:.\Generated_Source\PSoC5/ADC_SAR_1.c **** *  customizer of the component placed onto schematic. Usually called in
  94:.\Generated_Source\PSoC5/ADC_SAR_1.c **** *  ADC_SAR_1_Start().
  95:.\Generated_Source\PSoC5/ADC_SAR_1.c **** *
  96:.\Generated_Source\PSoC5/ADC_SAR_1.c **** * Parameters:
  97:.\Generated_Source\PSoC5/ADC_SAR_1.c **** *  None.
  98:.\Generated_Source\PSoC5/ADC_SAR_1.c **** *
  99:.\Generated_Source\PSoC5/ADC_SAR_1.c **** * Return:
 100:.\Generated_Source\PSoC5/ADC_SAR_1.c **** *  None.
 101:.\Generated_Source\PSoC5/ADC_SAR_1.c **** *
 102:.\Generated_Source\PSoC5/ADC_SAR_1.c **** * Global variables:
 103:.\Generated_Source\PSoC5/ADC_SAR_1.c **** *  The ADC_SAR_1_offset variable is initialized to 0.
 104:.\Generated_Source\PSoC5/ADC_SAR_1.c **** *
 105:.\Generated_Source\PSoC5/ADC_SAR_1.c **** *******************************************************************************/
 106:.\Generated_Source\PSoC5/ADC_SAR_1.c **** void ADC_SAR_1_Init(void)
 107:.\Generated_Source\PSoC5/ADC_SAR_1.c **** {
 108:.\Generated_Source\PSoC5/ADC_SAR_1.c **** 
 109:.\Generated_Source\PSoC5/ADC_SAR_1.c ****     /* This is only valid if there is an internal clock */
 110:.\Generated_Source\PSoC5/ADC_SAR_1.c ****     #if(ADC_SAR_1_DEFAULT_INTERNAL_CLK)
 111:.\Generated_Source\PSoC5/ADC_SAR_1.c ****         ADC_SAR_1_theACLK_SetMode(CYCLK_DUTY);
  47              		.loc 1 111 0
  48 000a 1020     		movs	r0, #16
  49 000c FFF7FEFF 		bl	ADC_SAR_1_theACLK_SetModeRegister
  50              	.LVL0:
 112:.\Generated_Source\PSoC5/ADC_SAR_1.c ****     #endif /* End ADC_SAR_1_DEFAULT_INTERNAL_CLK */
 113:.\Generated_Source\PSoC5/ADC_SAR_1.c **** 
 114:.\Generated_Source\PSoC5/ADC_SAR_1.c ****     #if(ADC_SAR_1_IRQ_REMOVE == 0u)
 115:.\Generated_Source\PSoC5/ADC_SAR_1.c ****         /* Start and set interrupt vector */
 116:.\Generated_Source\PSoC5/ADC_SAR_1.c ****         CyIntSetPriority(ADC_SAR_1_INTC_NUMBER, ADC_SAR_1_INTC_PRIOR_NUMBER);
  51              		.loc 1 116 0
  52 0010 0120     		movs	r0, #1
  53 0012 0721     		movs	r1, #7
  54 0014 FFF7FEFF 		bl	CyIntSetPriority
  55              	.LVL1:
ARM GAS  C:\Users\Patrick\AppData\Local\Temp\ccRDuB7I.s 			page 4


 117:.\Generated_Source\PSoC5/ADC_SAR_1.c ****         (void)CyIntSetVector(ADC_SAR_1_INTC_NUMBER, &ADC_SAR_1_ISR);
  56              		.loc 1 117 0
  57 0018 3149     		ldr	r1, .L5+4
  58 001a 0120     		movs	r0, #1
  59 001c FFF7FEFF 		bl	CyIntSetVector
  60              	.LVL2:
 118:.\Generated_Source\PSoC5/ADC_SAR_1.c ****     #endif   /* End ADC_SAR_1_IRQ_REMOVE */
 119:.\Generated_Source\PSoC5/ADC_SAR_1.c **** 
 120:.\Generated_Source\PSoC5/ADC_SAR_1.c ****     /* Enable IRQ mode*/
 121:.\Generated_Source\PSoC5/ADC_SAR_1.c ****     ADC_SAR_1_SAR_CSR1_REG |= ADC_SAR_1_SAR_IRQ_MASK_EN | ADC_SAR_1_SAR_IRQ_MODE_EDGE;
  61              		.loc 1 121 0
  62 0020 304A     		ldr	r2, .L5+8
  63              	.LBB12:
  64              	.LBB13:
 122:.\Generated_Source\PSoC5/ADC_SAR_1.c **** 
 123:.\Generated_Source\PSoC5/ADC_SAR_1.c ****     /*Set SAR ADC resolution ADC */
 124:.\Generated_Source\PSoC5/ADC_SAR_1.c ****     ADC_SAR_1_SetResolution(ADC_SAR_1_DEFAULT_RESOLUTION);
 125:.\Generated_Source\PSoC5/ADC_SAR_1.c ****     ADC_SAR_1_offset = 0;
 126:.\Generated_Source\PSoC5/ADC_SAR_1.c **** }
 127:.\Generated_Source\PSoC5/ADC_SAR_1.c **** 
 128:.\Generated_Source\PSoC5/ADC_SAR_1.c **** 
 129:.\Generated_Source\PSoC5/ADC_SAR_1.c **** /*******************************************************************************
 130:.\Generated_Source\PSoC5/ADC_SAR_1.c **** * Function Name: ADC_SAR_1_Enable
 131:.\Generated_Source\PSoC5/ADC_SAR_1.c **** ********************************************************************************
 132:.\Generated_Source\PSoC5/ADC_SAR_1.c **** *
 133:.\Generated_Source\PSoC5/ADC_SAR_1.c **** * Summary:
 134:.\Generated_Source\PSoC5/ADC_SAR_1.c **** *  Enables the reference, clock and power for SAR ADC.
 135:.\Generated_Source\PSoC5/ADC_SAR_1.c **** *
 136:.\Generated_Source\PSoC5/ADC_SAR_1.c **** * Parameters:
 137:.\Generated_Source\PSoC5/ADC_SAR_1.c **** *  None.
 138:.\Generated_Source\PSoC5/ADC_SAR_1.c **** *
 139:.\Generated_Source\PSoC5/ADC_SAR_1.c **** * Return:
 140:.\Generated_Source\PSoC5/ADC_SAR_1.c **** *  None.
 141:.\Generated_Source\PSoC5/ADC_SAR_1.c **** *
 142:.\Generated_Source\PSoC5/ADC_SAR_1.c **** *******************************************************************************/
 143:.\Generated_Source\PSoC5/ADC_SAR_1.c **** void ADC_SAR_1_Enable(void)
 144:.\Generated_Source\PSoC5/ADC_SAR_1.c **** {
 145:.\Generated_Source\PSoC5/ADC_SAR_1.c ****     uint8 tmpReg;
 146:.\Generated_Source\PSoC5/ADC_SAR_1.c ****     uint8 enableInterrupts;
 147:.\Generated_Source\PSoC5/ADC_SAR_1.c ****     enableInterrupts = CyEnterCriticalSection();
 148:.\Generated_Source\PSoC5/ADC_SAR_1.c **** 
 149:.\Generated_Source\PSoC5/ADC_SAR_1.c ****     /* Enable the SAR ADC block in Active Power Mode */
 150:.\Generated_Source\PSoC5/ADC_SAR_1.c ****     ADC_SAR_1_PWRMGR_SAR_REG |= ADC_SAR_1_ACT_PWR_SAR_EN;
 151:.\Generated_Source\PSoC5/ADC_SAR_1.c **** 
 152:.\Generated_Source\PSoC5/ADC_SAR_1.c ****      /* Enable the SAR ADC in Standby Power Mode*/
 153:.\Generated_Source\PSoC5/ADC_SAR_1.c ****     ADC_SAR_1_STBY_PWRMGR_SAR_REG |= ADC_SAR_1_STBY_PWR_SAR_EN;
 154:.\Generated_Source\PSoC5/ADC_SAR_1.c **** 
 155:.\Generated_Source\PSoC5/ADC_SAR_1.c ****     /* This is only valid if there is an internal clock */
 156:.\Generated_Source\PSoC5/ADC_SAR_1.c ****     #if(ADC_SAR_1_DEFAULT_INTERNAL_CLK)
 157:.\Generated_Source\PSoC5/ADC_SAR_1.c ****         ADC_SAR_1_PWRMGR_CLK_REG |= ADC_SAR_1_ACT_PWR_CLK_EN;
 158:.\Generated_Source\PSoC5/ADC_SAR_1.c ****         ADC_SAR_1_STBY_PWRMGR_CLK_REG |= ADC_SAR_1_STBY_PWR_CLK_EN;
 159:.\Generated_Source\PSoC5/ADC_SAR_1.c ****     #endif /* End ADC_SAR_1_DEFAULT_INTERNAL_CLK */
 160:.\Generated_Source\PSoC5/ADC_SAR_1.c **** 
 161:.\Generated_Source\PSoC5/ADC_SAR_1.c ****     /* Enable VCM buffer and Enable Int Ref Amp */
 162:.\Generated_Source\PSoC5/ADC_SAR_1.c ****     tmpReg = ADC_SAR_1_SAR_CSR3_REG;
 163:.\Generated_Source\PSoC5/ADC_SAR_1.c ****     tmpReg |= ADC_SAR_1_SAR_EN_BUF_VCM_EN;
 164:.\Generated_Source\PSoC5/ADC_SAR_1.c ****     /* PD_BUF_VREF is OFF in External reference or Vdda reference mode */
ARM GAS  C:\Users\Patrick\AppData\Local\Temp\ccRDuB7I.s 			page 5


 165:.\Generated_Source\PSoC5/ADC_SAR_1.c ****     #if((ADC_SAR_1_DEFAULT_REFERENCE == ADC_SAR_1__EXT_REF) || \
 166:.\Generated_Source\PSoC5/ADC_SAR_1.c ****         (ADC_SAR_1_DEFAULT_RANGE == ADC_SAR_1__VNEG_VDDA_DIFF))
 167:.\Generated_Source\PSoC5/ADC_SAR_1.c ****         tmpReg &= (uint8)~ADC_SAR_1_SAR_EN_BUF_VREF_EN;
 168:.\Generated_Source\PSoC5/ADC_SAR_1.c ****     #else /* In INTREF or INTREF Bypassed this buffer is ON */
 169:.\Generated_Source\PSoC5/ADC_SAR_1.c ****         tmpReg |= ADC_SAR_1_SAR_EN_BUF_VREF_EN;
 170:.\Generated_Source\PSoC5/ADC_SAR_1.c ****     #endif /* ADC_SAR_1_DEFAULT_REFERENCE == ADC_SAR_1__EXT_REF */
 171:.\Generated_Source\PSoC5/ADC_SAR_1.c ****     ADC_SAR_1_SAR_CSR3_REG = tmpReg;
 172:.\Generated_Source\PSoC5/ADC_SAR_1.c **** 
 173:.\Generated_Source\PSoC5/ADC_SAR_1.c ****     /* Set reference for ADC */
 174:.\Generated_Source\PSoC5/ADC_SAR_1.c ****     #if(ADC_SAR_1_DEFAULT_RANGE == ADC_SAR_1__VNEG_VDDA_DIFF)
 175:.\Generated_Source\PSoC5/ADC_SAR_1.c ****         #if(ADC_SAR_1_DEFAULT_REFERENCE == ADC_SAR_1__EXT_REF)
 176:.\Generated_Source\PSoC5/ADC_SAR_1.c ****             ADC_SAR_1_SAR_CSR6_REG = ADC_SAR_1_INT_BYPASS_EXT_VREF; /* S2 */
 177:.\Generated_Source\PSoC5/ADC_SAR_1.c ****         #else /* Internal Vdda reference or obsolete bypass mode */
 178:.\Generated_Source\PSoC5/ADC_SAR_1.c ****             ADC_SAR_1_SAR_CSR6_REG = ADC_SAR_1_VDDA_VREF;           /* S7 */
 179:.\Generated_Source\PSoC5/ADC_SAR_1.c ****         #endif /* ADC_SAR_1_DEFAULT_REFERENCE == ADC_SAR_1__EXT_REF */
 180:.\Generated_Source\PSoC5/ADC_SAR_1.c ****     #else  /* Reference goes through internal buffer */
 181:.\Generated_Source\PSoC5/ADC_SAR_1.c ****         #if(ADC_SAR_1_DEFAULT_REFERENCE == ADC_SAR_1__INT_REF_NOT_BYPASSED)
 182:.\Generated_Source\PSoC5/ADC_SAR_1.c ****             ADC_SAR_1_SAR_CSR6_REG = ADC_SAR_1_INT_VREF;            /* S3 + S4 */
 183:.\Generated_Source\PSoC5/ADC_SAR_1.c ****         #else /* INTREF Bypassed of External */
 184:.\Generated_Source\PSoC5/ADC_SAR_1.c ****             ADC_SAR_1_SAR_CSR6_REG = ADC_SAR_1_INT_BYPASS_EXT_VREF; /* S2 */
 185:.\Generated_Source\PSoC5/ADC_SAR_1.c ****         #endif /* ADC_SAR_1_DEFAULT_REFERENCE == ADC_SAR_1__INT_REF_NOT_BYPASSED */
 186:.\Generated_Source\PSoC5/ADC_SAR_1.c ****     #endif /* VNEG_VDDA_DIFF */
 187:.\Generated_Source\PSoC5/ADC_SAR_1.c **** 
 188:.\Generated_Source\PSoC5/ADC_SAR_1.c ****     /* Low non-overlap delay for sampling clock signals (for 1MSPS) */
 189:.\Generated_Source\PSoC5/ADC_SAR_1.c ****     #if(ADC_SAR_1_HIGH_POWER_PULSE == 0u) /* MinPulseWidth <= 50 ns */
 190:.\Generated_Source\PSoC5/ADC_SAR_1.c ****         ADC_SAR_1_SAR_CSR5_REG &= (uint8)~ADC_SAR_1_SAR_DLY_INC;
 191:.\Generated_Source\PSoC5/ADC_SAR_1.c ****     #else /* Set High non-overlap delay for sampling clock signals (for <500KSPS)*/
 192:.\Generated_Source\PSoC5/ADC_SAR_1.c ****         ADC_SAR_1_SAR_CSR5_REG |= ADC_SAR_1_SAR_DLY_INC;
 193:.\Generated_Source\PSoC5/ADC_SAR_1.c ****     #endif /* ADC_SAR_1_HIGH_POWER_PULSE == 0u */
 194:.\Generated_Source\PSoC5/ADC_SAR_1.c **** 
 195:.\Generated_Source\PSoC5/ADC_SAR_1.c ****     /* Increase comparator latch enable delay by 20%, 
 196:.\Generated_Source\PSoC5/ADC_SAR_1.c ****     *  Increase comparator bias current by 30% without impacting delaysDelay 
 197:.\Generated_Source\PSoC5/ADC_SAR_1.c ****     *  Default for 1MSPS) 
 198:.\Generated_Source\PSoC5/ADC_SAR_1.c ****     */
 199:.\Generated_Source\PSoC5/ADC_SAR_1.c ****     #if(ADC_SAR_1_HIGH_POWER_PULSE == 0u)    /* MinPulseWidth <= 50 ns */
 200:.\Generated_Source\PSoC5/ADC_SAR_1.c ****         ADC_SAR_1_SAR_CSR5_REG |= ADC_SAR_1_SAR_SEL_CSEL_DFT_CHAR;
 201:.\Generated_Source\PSoC5/ADC_SAR_1.c ****     #else /* for <500ksps */
 202:.\Generated_Source\PSoC5/ADC_SAR_1.c ****         ADC_SAR_1_SAR_CSR5_REG &= (uint8)~ADC_SAR_1_SAR_SEL_CSEL_DFT_CHAR;
 203:.\Generated_Source\PSoC5/ADC_SAR_1.c ****     #endif /* ADC_SAR_1_HIGH_POWER_PULSE == 0u */
 204:.\Generated_Source\PSoC5/ADC_SAR_1.c **** 
 205:.\Generated_Source\PSoC5/ADC_SAR_1.c ****     /* Set default power and other configurations for control register 0 in multiple lines */
 206:.\Generated_Source\PSoC5/ADC_SAR_1.c ****     ADC_SAR_1_SAR_CSR0_REG = (uint8)((uint8)ADC_SAR_1_DEFAULT_POWER << ADC_SAR_1_SAR_POWER_SHIFT)
 207:.\Generated_Source\PSoC5/ADC_SAR_1.c ****     /* SAR_HIZ_CLEAR:   Should not be used for LP */
 208:.\Generated_Source\PSoC5/ADC_SAR_1.c ****     #if ((CY_PSOC5LP) || (ADC_SAR_1_DEFAULT_REFERENCE != ADC_SAR_1__EXT_REF))
 209:.\Generated_Source\PSoC5/ADC_SAR_1.c ****         | ADC_SAR_1_SAR_HIZ_CLEAR
 210:.\Generated_Source\PSoC5/ADC_SAR_1.c ****     #endif /* SAR_HIZ_CLEAR */
 211:.\Generated_Source\PSoC5/ADC_SAR_1.c ****     /*Set Convertion mode */
 212:.\Generated_Source\PSoC5/ADC_SAR_1.c ****     #if(ADC_SAR_1_DEFAULT_CONV_MODE != ADC_SAR_1__FREE_RUNNING)      /* If triggered mode */
 213:.\Generated_Source\PSoC5/ADC_SAR_1.c ****         | ADC_SAR_1_SAR_MX_SOF_UDB           /* source: UDB */
 214:.\Generated_Source\PSoC5/ADC_SAR_1.c ****         | ADC_SAR_1_SAR_SOF_MODE_EDGE        /* Set edge-sensitive sof source */
 215:.\Generated_Source\PSoC5/ADC_SAR_1.c ****     #endif /* ADC_SAR_1_DEFAULT_CONV_MODE */
 216:.\Generated_Source\PSoC5/ADC_SAR_1.c ****     ; /* end of multiple line initialization */
 217:.\Generated_Source\PSoC5/ADC_SAR_1.c **** 
 218:.\Generated_Source\PSoC5/ADC_SAR_1.c ****     ADC_SAR_1_SAR_TR0_REG = ADC_SAR_1_SAR_CAP_TRIM_2;
 219:.\Generated_Source\PSoC5/ADC_SAR_1.c **** 
 220:.\Generated_Source\PSoC5/ADC_SAR_1.c ****     /* Enable clock for SAR ADC*/
 221:.\Generated_Source\PSoC5/ADC_SAR_1.c ****     ADC_SAR_1_SAR_CLK_REG |= ADC_SAR_1_SAR_MX_CLK_EN;
ARM GAS  C:\Users\Patrick\AppData\Local\Temp\ccRDuB7I.s 			page 6


 222:.\Generated_Source\PSoC5/ADC_SAR_1.c **** 
 223:.\Generated_Source\PSoC5/ADC_SAR_1.c ****     CyDelayUs(10u); /* The block is ready to use 10 us after the enable signal is set high. */
 224:.\Generated_Source\PSoC5/ADC_SAR_1.c **** 
 225:.\Generated_Source\PSoC5/ADC_SAR_1.c ****     #if(ADC_SAR_1_IRQ_REMOVE == 0u)
 226:.\Generated_Source\PSoC5/ADC_SAR_1.c ****         /* Clear a pending interrupt */
 227:.\Generated_Source\PSoC5/ADC_SAR_1.c ****         CyIntClearPending(ADC_SAR_1_INTC_NUMBER);
 228:.\Generated_Source\PSoC5/ADC_SAR_1.c ****     #endif   /* End ADC_SAR_1_IRQ_REMOVE */
 229:.\Generated_Source\PSoC5/ADC_SAR_1.c **** 
 230:.\Generated_Source\PSoC5/ADC_SAR_1.c ****     CyExitCriticalSection(enableInterrupts);
 231:.\Generated_Source\PSoC5/ADC_SAR_1.c **** }
 232:.\Generated_Source\PSoC5/ADC_SAR_1.c **** 
 233:.\Generated_Source\PSoC5/ADC_SAR_1.c **** 
 234:.\Generated_Source\PSoC5/ADC_SAR_1.c **** /*******************************************************************************
 235:.\Generated_Source\PSoC5/ADC_SAR_1.c **** * Function Name: ADC_SAR_1_Stop
 236:.\Generated_Source\PSoC5/ADC_SAR_1.c **** ********************************************************************************
 237:.\Generated_Source\PSoC5/ADC_SAR_1.c **** *
 238:.\Generated_Source\PSoC5/ADC_SAR_1.c **** * Summary:
 239:.\Generated_Source\PSoC5/ADC_SAR_1.c **** *  Stops ADC conversions and puts the ADC into its lowest power mode.
 240:.\Generated_Source\PSoC5/ADC_SAR_1.c **** *
 241:.\Generated_Source\PSoC5/ADC_SAR_1.c **** * Parameters:
 242:.\Generated_Source\PSoC5/ADC_SAR_1.c **** *  None.
 243:.\Generated_Source\PSoC5/ADC_SAR_1.c **** *
 244:.\Generated_Source\PSoC5/ADC_SAR_1.c **** * Return:
 245:.\Generated_Source\PSoC5/ADC_SAR_1.c **** *  None.
 246:.\Generated_Source\PSoC5/ADC_SAR_1.c **** *
 247:.\Generated_Source\PSoC5/ADC_SAR_1.c **** *******************************************************************************/
 248:.\Generated_Source\PSoC5/ADC_SAR_1.c **** void ADC_SAR_1_Stop(void)
 249:.\Generated_Source\PSoC5/ADC_SAR_1.c **** {
 250:.\Generated_Source\PSoC5/ADC_SAR_1.c ****     uint8 enableInterrupts;
 251:.\Generated_Source\PSoC5/ADC_SAR_1.c ****     enableInterrupts = CyEnterCriticalSection();
 252:.\Generated_Source\PSoC5/ADC_SAR_1.c **** 
 253:.\Generated_Source\PSoC5/ADC_SAR_1.c ****     /* Stop all conversions */
 254:.\Generated_Source\PSoC5/ADC_SAR_1.c ****     ADC_SAR_1_SAR_CSR0_REG &= (uint8)~ADC_SAR_1_SAR_SOF_START_CONV;
 255:.\Generated_Source\PSoC5/ADC_SAR_1.c ****     /* Disable the SAR ADC block in Active Power Mode */
 256:.\Generated_Source\PSoC5/ADC_SAR_1.c ****     ADC_SAR_1_PWRMGR_SAR_REG &= (uint8)~ADC_SAR_1_ACT_PWR_SAR_EN;
 257:.\Generated_Source\PSoC5/ADC_SAR_1.c ****     /* Disable the SAR ADC in Standby Power Mode */
 258:.\Generated_Source\PSoC5/ADC_SAR_1.c ****     ADC_SAR_1_STBY_PWRMGR_SAR_REG &= (uint8)~ADC_SAR_1_STBY_PWR_SAR_EN;
 259:.\Generated_Source\PSoC5/ADC_SAR_1.c **** 
 260:.\Generated_Source\PSoC5/ADC_SAR_1.c ****     /* This is only valid if there is an internal clock */
 261:.\Generated_Source\PSoC5/ADC_SAR_1.c ****     #if(ADC_SAR_1_DEFAULT_INTERNAL_CLK)
 262:.\Generated_Source\PSoC5/ADC_SAR_1.c ****         ADC_SAR_1_PWRMGR_CLK_REG &= (uint8)~ADC_SAR_1_ACT_PWR_CLK_EN;
 263:.\Generated_Source\PSoC5/ADC_SAR_1.c ****         ADC_SAR_1_STBY_PWRMGR_CLK_REG &= (uint8)~ADC_SAR_1_STBY_PWR_CLK_EN;
 264:.\Generated_Source\PSoC5/ADC_SAR_1.c ****     #endif /* End ADC_SAR_1_DEFAULT_INTERNAL_CLK */
 265:.\Generated_Source\PSoC5/ADC_SAR_1.c **** 
 266:.\Generated_Source\PSoC5/ADC_SAR_1.c ****     CyExitCriticalSection(enableInterrupts);
 267:.\Generated_Source\PSoC5/ADC_SAR_1.c **** 
 268:.\Generated_Source\PSoC5/ADC_SAR_1.c **** }
 269:.\Generated_Source\PSoC5/ADC_SAR_1.c **** 
 270:.\Generated_Source\PSoC5/ADC_SAR_1.c **** 
 271:.\Generated_Source\PSoC5/ADC_SAR_1.c **** /*******************************************************************************
 272:.\Generated_Source\PSoC5/ADC_SAR_1.c **** * Function Name: ADC_SAR_1_SetPower
 273:.\Generated_Source\PSoC5/ADC_SAR_1.c **** ********************************************************************************
 274:.\Generated_Source\PSoC5/ADC_SAR_1.c **** *
 275:.\Generated_Source\PSoC5/ADC_SAR_1.c **** * Summary:
 276:.\Generated_Source\PSoC5/ADC_SAR_1.c **** *  Sets the operational power of the ADC. You should use the higher power
 277:.\Generated_Source\PSoC5/ADC_SAR_1.c **** *  settings with faster clock speeds.
 278:.\Generated_Source\PSoC5/ADC_SAR_1.c **** *
ARM GAS  C:\Users\Patrick\AppData\Local\Temp\ccRDuB7I.s 			page 7


 279:.\Generated_Source\PSoC5/ADC_SAR_1.c **** * Parameters:
 280:.\Generated_Source\PSoC5/ADC_SAR_1.c **** *  power:  Power setting for ADC
 281:.\Generated_Source\PSoC5/ADC_SAR_1.c **** *  0 ->    Normal
 282:.\Generated_Source\PSoC5/ADC_SAR_1.c **** *  1 ->    Medium power
 283:.\Generated_Source\PSoC5/ADC_SAR_1.c **** *  2 ->    1.25 power
 284:.\Generated_Source\PSoC5/ADC_SAR_1.c **** *  3 ->    Minimum power.
 285:.\Generated_Source\PSoC5/ADC_SAR_1.c **** *
 286:.\Generated_Source\PSoC5/ADC_SAR_1.c **** * Return:
 287:.\Generated_Source\PSoC5/ADC_SAR_1.c **** *  None.
 288:.\Generated_Source\PSoC5/ADC_SAR_1.c **** *
 289:.\Generated_Source\PSoC5/ADC_SAR_1.c **** *******************************************************************************/
 290:.\Generated_Source\PSoC5/ADC_SAR_1.c **** void ADC_SAR_1_SetPower(uint8 power)
 291:.\Generated_Source\PSoC5/ADC_SAR_1.c **** {
 292:.\Generated_Source\PSoC5/ADC_SAR_1.c ****     uint8 tmpReg;
 293:.\Generated_Source\PSoC5/ADC_SAR_1.c **** 
 294:.\Generated_Source\PSoC5/ADC_SAR_1.c ****     /* mask off invalid power settings */
 295:.\Generated_Source\PSoC5/ADC_SAR_1.c ****     power &= ADC_SAR_1_SAR_API_POWER_MASK;
 296:.\Generated_Source\PSoC5/ADC_SAR_1.c **** 
 297:.\Generated_Source\PSoC5/ADC_SAR_1.c ****     /* Set Power parameter  */
 298:.\Generated_Source\PSoC5/ADC_SAR_1.c ****     tmpReg = ADC_SAR_1_SAR_CSR0_REG & (uint8)~ADC_SAR_1_SAR_POWER_MASK;
 299:.\Generated_Source\PSoC5/ADC_SAR_1.c ****     tmpReg |= (uint8)(power << ADC_SAR_1_SAR_POWER_SHIFT);
 300:.\Generated_Source\PSoC5/ADC_SAR_1.c ****     ADC_SAR_1_SAR_CSR0_REG = tmpReg;
 301:.\Generated_Source\PSoC5/ADC_SAR_1.c **** }
 302:.\Generated_Source\PSoC5/ADC_SAR_1.c **** 
 303:.\Generated_Source\PSoC5/ADC_SAR_1.c **** 
 304:.\Generated_Source\PSoC5/ADC_SAR_1.c **** /*******************************************************************************
 305:.\Generated_Source\PSoC5/ADC_SAR_1.c **** * Function Name: ADC_SAR_1_SetResolution
 306:.\Generated_Source\PSoC5/ADC_SAR_1.c **** ********************************************************************************
 307:.\Generated_Source\PSoC5/ADC_SAR_1.c **** *
 308:.\Generated_Source\PSoC5/ADC_SAR_1.c **** * Summary:
 309:.\Generated_Source\PSoC5/ADC_SAR_1.c **** *  Sets the Relution of the SAR.
 310:.\Generated_Source\PSoC5/ADC_SAR_1.c **** *
 311:.\Generated_Source\PSoC5/ADC_SAR_1.c **** * Parameters:
 312:.\Generated_Source\PSoC5/ADC_SAR_1.c **** *  resolution:
 313:.\Generated_Source\PSoC5/ADC_SAR_1.c **** *  12 ->    RES12
 314:.\Generated_Source\PSoC5/ADC_SAR_1.c **** *  10 ->    RES10
 315:.\Generated_Source\PSoC5/ADC_SAR_1.c **** *  8  ->    RES8
 316:.\Generated_Source\PSoC5/ADC_SAR_1.c **** *
 317:.\Generated_Source\PSoC5/ADC_SAR_1.c **** * Return:
 318:.\Generated_Source\PSoC5/ADC_SAR_1.c **** *  None.
 319:.\Generated_Source\PSoC5/ADC_SAR_1.c **** *
 320:.\Generated_Source\PSoC5/ADC_SAR_1.c **** * Side Effects:
 321:.\Generated_Source\PSoC5/ADC_SAR_1.c **** *  The ADC resolution cannot be changed during a conversion cycle. The
 322:.\Generated_Source\PSoC5/ADC_SAR_1.c **** *  recommended best practice is to stop conversions with
 323:.\Generated_Source\PSoC5/ADC_SAR_1.c **** *  ADC_StopConvert(), change the resolution, then restart the
 324:.\Generated_Source\PSoC5/ADC_SAR_1.c **** *  conversions with ADC_StartConvert().
 325:.\Generated_Source\PSoC5/ADC_SAR_1.c **** *  If you decide not to stop conversions before calling this API, you
 326:.\Generated_Source\PSoC5/ADC_SAR_1.c **** *  should use ADC_IsEndConversion() to wait until conversion is complete
 327:.\Generated_Source\PSoC5/ADC_SAR_1.c **** *  before changing the resolution.
 328:.\Generated_Source\PSoC5/ADC_SAR_1.c **** *  If you call ADC_SetResolution() during a conversion, the resolution will
 329:.\Generated_Source\PSoC5/ADC_SAR_1.c **** *  not be changed until the current conversion is complete. Data will not be
 330:.\Generated_Source\PSoC5/ADC_SAR_1.c **** *  available in the new resolution for another 6 + "New Resolution(in bits)"
 331:.\Generated_Source\PSoC5/ADC_SAR_1.c **** *  clock cycles.
 332:.\Generated_Source\PSoC5/ADC_SAR_1.c **** *  You may need add a delay of this number of clock cycles after
 333:.\Generated_Source\PSoC5/ADC_SAR_1.c **** *  ADC_SetResolution() is called before data is valid again.
 334:.\Generated_Source\PSoC5/ADC_SAR_1.c **** *  Affects ADC_CountsTo_Volts(), ADC_CountsTo_mVolts(), and
 335:.\Generated_Source\PSoC5/ADC_SAR_1.c **** *  ADC_CountsTo_uVolts() by calculating the correct conversion between ADC
ARM GAS  C:\Users\Patrick\AppData\Local\Temp\ccRDuB7I.s 			page 8


 336:.\Generated_Source\PSoC5/ADC_SAR_1.c **** *  counts and the applied input voltage. Calculation depends on resolution,
 337:.\Generated_Source\PSoC5/ADC_SAR_1.c **** *  input range, and voltage reference.
 338:.\Generated_Source\PSoC5/ADC_SAR_1.c **** *
 339:.\Generated_Source\PSoC5/ADC_SAR_1.c **** *******************************************************************************/
 340:.\Generated_Source\PSoC5/ADC_SAR_1.c **** void ADC_SAR_1_SetResolution(uint8 resolution)
 341:.\Generated_Source\PSoC5/ADC_SAR_1.c **** {
 342:.\Generated_Source\PSoC5/ADC_SAR_1.c ****     uint8 tmpReg;
 343:.\Generated_Source\PSoC5/ADC_SAR_1.c **** 
 344:.\Generated_Source\PSoC5/ADC_SAR_1.c ****     /* Set SAR ADC resolution and sample width: 18 conversion cycles at 12bits + 1 gap */
 345:.\Generated_Source\PSoC5/ADC_SAR_1.c ****     switch (resolution)
 346:.\Generated_Source\PSoC5/ADC_SAR_1.c ****     {
 347:.\Generated_Source\PSoC5/ADC_SAR_1.c ****         case (uint8)ADC_SAR_1__BITS_12:
 348:.\Generated_Source\PSoC5/ADC_SAR_1.c ****             tmpReg = ADC_SAR_1_SAR_RESOLUTION_12BIT | ADC_SAR_1_SAR_SAMPLE_WIDTH;
 349:.\Generated_Source\PSoC5/ADC_SAR_1.c ****             break;
 350:.\Generated_Source\PSoC5/ADC_SAR_1.c ****         case (uint8)ADC_SAR_1__BITS_10:
 351:.\Generated_Source\PSoC5/ADC_SAR_1.c ****             tmpReg = ADC_SAR_1_SAR_RESOLUTION_10BIT | ADC_SAR_1_SAR_SAMPLE_WIDTH;
 352:.\Generated_Source\PSoC5/ADC_SAR_1.c ****             break;
 353:.\Generated_Source\PSoC5/ADC_SAR_1.c ****         case (uint8)ADC_SAR_1__BITS_8:
 354:.\Generated_Source\PSoC5/ADC_SAR_1.c ****             tmpReg = ADC_SAR_1_SAR_RESOLUTION_8BIT | ADC_SAR_1_SAR_SAMPLE_WIDTH;
 355:.\Generated_Source\PSoC5/ADC_SAR_1.c ****             break;
 356:.\Generated_Source\PSoC5/ADC_SAR_1.c ****         default:
 357:.\Generated_Source\PSoC5/ADC_SAR_1.c ****             tmpReg = ADC_SAR_1_SAR_RESOLUTION_12BIT | ADC_SAR_1_SAR_SAMPLE_WIDTH;
 358:.\Generated_Source\PSoC5/ADC_SAR_1.c ****             /* Halt CPU in debug mode if resolution is out of valid range */
 359:.\Generated_Source\PSoC5/ADC_SAR_1.c ****             CYASSERT(0u != 0u);
 360:.\Generated_Source\PSoC5/ADC_SAR_1.c ****             break;
 361:.\Generated_Source\PSoC5/ADC_SAR_1.c ****     }
 362:.\Generated_Source\PSoC5/ADC_SAR_1.c ****     ADC_SAR_1_SAR_CSR2_REG = tmpReg;
  65              		.loc 1 362 0
  66 0022 DFF8E880 		ldr	r8, .L5+48
  67              	.LBE13:
  68              	.LBE12:
 121:.\Generated_Source\PSoC5/ADC_SAR_1.c **** 
  69              		.loc 1 121 0
  70 0026 1378     		ldrb	r3, [r2]	@ zero_extendqisi2
  71              	.LBB26:
  72              	.LBB22:
  73              	.LBB14:
  74              	.LBB15:
 363:.\Generated_Source\PSoC5/ADC_SAR_1.c **** 
 364:.\Generated_Source\PSoC5/ADC_SAR_1.c ****      /* Calculate gain for convert counts to volts */
 365:.\Generated_Source\PSoC5/ADC_SAR_1.c ****     ADC_SAR_1_CalcGain(resolution);
 366:.\Generated_Source\PSoC5/ADC_SAR_1.c **** }
 367:.\Generated_Source\PSoC5/ADC_SAR_1.c **** 
 368:.\Generated_Source\PSoC5/ADC_SAR_1.c **** 
 369:.\Generated_Source\PSoC5/ADC_SAR_1.c **** #if(ADC_SAR_1_DEFAULT_CONV_MODE != ADC_SAR_1__HARDWARE_TRIGGER)
 370:.\Generated_Source\PSoC5/ADC_SAR_1.c **** 
 371:.\Generated_Source\PSoC5/ADC_SAR_1.c **** 
 372:.\Generated_Source\PSoC5/ADC_SAR_1.c ****     /*******************************************************************************
 373:.\Generated_Source\PSoC5/ADC_SAR_1.c ****     * Function Name: ADC_SAR_1_StartConvert
 374:.\Generated_Source\PSoC5/ADC_SAR_1.c ****     ********************************************************************************
 375:.\Generated_Source\PSoC5/ADC_SAR_1.c ****     *
 376:.\Generated_Source\PSoC5/ADC_SAR_1.c ****     * Summary:
 377:.\Generated_Source\PSoC5/ADC_SAR_1.c ****     *  Forces the ADC to initiate a conversion. In free-running mode, the ADC runs
 378:.\Generated_Source\PSoC5/ADC_SAR_1.c ****     *  continuously. In software trigger mode, the function also acts as a software
 379:.\Generated_Source\PSoC5/ADC_SAR_1.c ****     *  version of the SOC and every conversion must be triggered by
 380:.\Generated_Source\PSoC5/ADC_SAR_1.c ****     *  ADC_SAR_1_StartConvert(). This function is not available when the
 381:.\Generated_Source\PSoC5/ADC_SAR_1.c ****     *  Hardware Trigger sample mode is selected.
ARM GAS  C:\Users\Patrick\AppData\Local\Temp\ccRDuB7I.s 			page 9


 382:.\Generated_Source\PSoC5/ADC_SAR_1.c ****     *
 383:.\Generated_Source\PSoC5/ADC_SAR_1.c ****     * Parameters:
 384:.\Generated_Source\PSoC5/ADC_SAR_1.c ****     *  None.
 385:.\Generated_Source\PSoC5/ADC_SAR_1.c ****     *
 386:.\Generated_Source\PSoC5/ADC_SAR_1.c ****     * Return:
 387:.\Generated_Source\PSoC5/ADC_SAR_1.c ****     *  None.
 388:.\Generated_Source\PSoC5/ADC_SAR_1.c ****     *
 389:.\Generated_Source\PSoC5/ADC_SAR_1.c ****     * Theory:
 390:.\Generated_Source\PSoC5/ADC_SAR_1.c ****     *  Forces the ADC to initiate a conversion. In Free Running mode, the ADC will
 391:.\Generated_Source\PSoC5/ADC_SAR_1.c ****     *  run continuously. In a software trigger mode the function also acts as a
 392:.\Generated_Source\PSoC5/ADC_SAR_1.c ****     *  software version of the SOC. Here every conversion has to be triggered by
 393:.\Generated_Source\PSoC5/ADC_SAR_1.c ****     *  the routine. This writes into the SOC bit in SAR_CTRL reg.
 394:.\Generated_Source\PSoC5/ADC_SAR_1.c ****     *
 395:.\Generated_Source\PSoC5/ADC_SAR_1.c ****     * Side Effects:
 396:.\Generated_Source\PSoC5/ADC_SAR_1.c ****     *  In a software trigger mode the function switches source for SOF from the
 397:.\Generated_Source\PSoC5/ADC_SAR_1.c ****     *  external pin to the internal SOF generation. Application should not call
 398:.\Generated_Source\PSoC5/ADC_SAR_1.c ****     *  StartConvert if external source used for SOF.
 399:.\Generated_Source\PSoC5/ADC_SAR_1.c ****     *
 400:.\Generated_Source\PSoC5/ADC_SAR_1.c ****     *******************************************************************************/
 401:.\Generated_Source\PSoC5/ADC_SAR_1.c ****     void ADC_SAR_1_StartConvert(void)
 402:.\Generated_Source\PSoC5/ADC_SAR_1.c ****     {
 403:.\Generated_Source\PSoC5/ADC_SAR_1.c ****         #if(ADC_SAR_1_DEFAULT_CONV_MODE != ADC_SAR_1__FREE_RUNNING)  /* If software triggered mode 
 404:.\Generated_Source\PSoC5/ADC_SAR_1.c ****             ADC_SAR_1_SAR_CSR0_REG &= (uint8)~ADC_SAR_1_SAR_MX_SOF_UDB;   /* source: SOF bit */
 405:.\Generated_Source\PSoC5/ADC_SAR_1.c ****         #endif /* End ADC_SAR_1_DEFAULT_CONV_MODE */
 406:.\Generated_Source\PSoC5/ADC_SAR_1.c **** 
 407:.\Generated_Source\PSoC5/ADC_SAR_1.c ****         /* Start the conversion */
 408:.\Generated_Source\PSoC5/ADC_SAR_1.c ****         ADC_SAR_1_SAR_CSR0_REG |= ADC_SAR_1_SAR_SOF_START_CONV;
 409:.\Generated_Source\PSoC5/ADC_SAR_1.c ****     }
 410:.\Generated_Source\PSoC5/ADC_SAR_1.c **** 
 411:.\Generated_Source\PSoC5/ADC_SAR_1.c **** 
 412:.\Generated_Source\PSoC5/ADC_SAR_1.c ****     /*******************************************************************************
 413:.\Generated_Source\PSoC5/ADC_SAR_1.c ****     * Function Name: ADC_SAR_1_StopConvert
 414:.\Generated_Source\PSoC5/ADC_SAR_1.c ****     ********************************************************************************
 415:.\Generated_Source\PSoC5/ADC_SAR_1.c ****     *
 416:.\Generated_Source\PSoC5/ADC_SAR_1.c ****     * Summary:
 417:.\Generated_Source\PSoC5/ADC_SAR_1.c ****     *  Forces the ADC to stop conversions. If a conversion is currently executing,
 418:.\Generated_Source\PSoC5/ADC_SAR_1.c ****     *  that conversion will complete, but no further conversions will occur. This
 419:.\Generated_Source\PSoC5/ADC_SAR_1.c ****     *  function is not available when the Hardware Trigger sample mode is selected.
 420:.\Generated_Source\PSoC5/ADC_SAR_1.c ****     *
 421:.\Generated_Source\PSoC5/ADC_SAR_1.c ****     * Parameters:
 422:.\Generated_Source\PSoC5/ADC_SAR_1.c ****     *  None.
 423:.\Generated_Source\PSoC5/ADC_SAR_1.c ****     *
 424:.\Generated_Source\PSoC5/ADC_SAR_1.c ****     * Return:
 425:.\Generated_Source\PSoC5/ADC_SAR_1.c ****     *  None.
 426:.\Generated_Source\PSoC5/ADC_SAR_1.c ****     *
 427:.\Generated_Source\PSoC5/ADC_SAR_1.c ****     * Theory:
 428:.\Generated_Source\PSoC5/ADC_SAR_1.c ****     *  Stops ADC conversion in Free Running mode.
 429:.\Generated_Source\PSoC5/ADC_SAR_1.c ****     *
 430:.\Generated_Source\PSoC5/ADC_SAR_1.c ****     * Side Effects:
 431:.\Generated_Source\PSoC5/ADC_SAR_1.c ****     *  In Software Trigger sample mode, this function sets a software version of the
 432:.\Generated_Source\PSoC5/ADC_SAR_1.c ****     *  SOC to low level and switches the SOC source to hardware SOC input.
 433:.\Generated_Source\PSoC5/ADC_SAR_1.c ****     *
 434:.\Generated_Source\PSoC5/ADC_SAR_1.c ****     *******************************************************************************/
 435:.\Generated_Source\PSoC5/ADC_SAR_1.c ****     void ADC_SAR_1_StopConvert(void)
 436:.\Generated_Source\PSoC5/ADC_SAR_1.c ****     {
 437:.\Generated_Source\PSoC5/ADC_SAR_1.c ****         /* Stop all conversions */
 438:.\Generated_Source\PSoC5/ADC_SAR_1.c ****         ADC_SAR_1_SAR_CSR0_REG &= (uint8)~ADC_SAR_1_SAR_SOF_START_CONV;
ARM GAS  C:\Users\Patrick\AppData\Local\Temp\ccRDuB7I.s 			page 10


 439:.\Generated_Source\PSoC5/ADC_SAR_1.c **** 
 440:.\Generated_Source\PSoC5/ADC_SAR_1.c ****         #if(ADC_SAR_1_DEFAULT_CONV_MODE != ADC_SAR_1__FREE_RUNNING)  /* If software triggered mode 
 441:.\Generated_Source\PSoC5/ADC_SAR_1.c ****             /* Return source to UDB for hardware SOF signal */
 442:.\Generated_Source\PSoC5/ADC_SAR_1.c ****             ADC_SAR_1_SAR_CSR0_REG |= ADC_SAR_1_SAR_MX_SOF_UDB;    /* source: UDB */
 443:.\Generated_Source\PSoC5/ADC_SAR_1.c ****         #endif /* End ADC_SAR_1_DEFAULT_CONV_MODE */
 444:.\Generated_Source\PSoC5/ADC_SAR_1.c **** 
 445:.\Generated_Source\PSoC5/ADC_SAR_1.c ****     }
 446:.\Generated_Source\PSoC5/ADC_SAR_1.c **** 
 447:.\Generated_Source\PSoC5/ADC_SAR_1.c **** #endif /* End ADC_SAR_1_DEFAULT_CONV_MODE != ADC_SAR_1__HARDWARE_TRIGGER */
 448:.\Generated_Source\PSoC5/ADC_SAR_1.c **** 
 449:.\Generated_Source\PSoC5/ADC_SAR_1.c **** 
 450:.\Generated_Source\PSoC5/ADC_SAR_1.c **** /*******************************************************************************
 451:.\Generated_Source\PSoC5/ADC_SAR_1.c **** * Function Name: ADC_SAR_1_IsEndConversion
 452:.\Generated_Source\PSoC5/ADC_SAR_1.c **** ********************************************************************************
 453:.\Generated_Source\PSoC5/ADC_SAR_1.c **** *
 454:.\Generated_Source\PSoC5/ADC_SAR_1.c **** * Summary:
 455:.\Generated_Source\PSoC5/ADC_SAR_1.c **** *  Immediately returns the status of the conversion or does not return
 456:.\Generated_Source\PSoC5/ADC_SAR_1.c **** *  (blocking) until the conversion completes, depending on the retMode
 457:.\Generated_Source\PSoC5/ADC_SAR_1.c **** *  parameter.
 458:.\Generated_Source\PSoC5/ADC_SAR_1.c **** *
 459:.\Generated_Source\PSoC5/ADC_SAR_1.c **** * Parameters:
 460:.\Generated_Source\PSoC5/ADC_SAR_1.c **** *  retMode:  Check conversion return mode.
 461:.\Generated_Source\PSoC5/ADC_SAR_1.c **** *   ADC_SAR_1_RETURN_STATUS: Immediately returns the status. If the
 462:.\Generated_Source\PSoC5/ADC_SAR_1.c **** *     value returned is zero, the conversion is not complete, and this function
 463:.\Generated_Source\PSoC5/ADC_SAR_1.c **** *     should be retried until a nonzero result is returned.
 464:.\Generated_Source\PSoC5/ADC_SAR_1.c **** *   ADC_SAR_1_WAIT_FOR_RESULT: Does not return a result until the ADC
 465:.\Generated_Source\PSoC5/ADC_SAR_1.c **** *     conversion is complete.
 466:.\Generated_Source\PSoC5/ADC_SAR_1.c **** *
 467:.\Generated_Source\PSoC5/ADC_SAR_1.c **** * Return:
 468:.\Generated_Source\PSoC5/ADC_SAR_1.c **** *  (uint8)  0 =>  The ADC is still calculating the last result.
 469:.\Generated_Source\PSoC5/ADC_SAR_1.c **** *           1 =>  The last conversion is complete.
 470:.\Generated_Source\PSoC5/ADC_SAR_1.c **** *
 471:.\Generated_Source\PSoC5/ADC_SAR_1.c **** * Side Effects:
 472:.\Generated_Source\PSoC5/ADC_SAR_1.c **** *  This function reads the end of conversion status, which is cleared on read.
 473:.\Generated_Source\PSoC5/ADC_SAR_1.c **** *
 474:.\Generated_Source\PSoC5/ADC_SAR_1.c **** *******************************************************************************/
 475:.\Generated_Source\PSoC5/ADC_SAR_1.c **** uint8 ADC_SAR_1_IsEndConversion(uint8 retMode)
 476:.\Generated_Source\PSoC5/ADC_SAR_1.c **** {
 477:.\Generated_Source\PSoC5/ADC_SAR_1.c ****     uint8 status;
 478:.\Generated_Source\PSoC5/ADC_SAR_1.c **** 
 479:.\Generated_Source\PSoC5/ADC_SAR_1.c ****     do
 480:.\Generated_Source\PSoC5/ADC_SAR_1.c ****     {
 481:.\Generated_Source\PSoC5/ADC_SAR_1.c ****         status = ADC_SAR_1_SAR_CSR1_REG & ADC_SAR_1_SAR_EOF_1;
 482:.\Generated_Source\PSoC5/ADC_SAR_1.c ****     } while ((status != ADC_SAR_1_SAR_EOF_1) && (retMode == ADC_SAR_1_WAIT_FOR_RESULT));
 483:.\Generated_Source\PSoC5/ADC_SAR_1.c ****     /* If convertion complete, wait until EOF bit released */
 484:.\Generated_Source\PSoC5/ADC_SAR_1.c ****     if(status == ADC_SAR_1_SAR_EOF_1)
 485:.\Generated_Source\PSoC5/ADC_SAR_1.c ****     {
 486:.\Generated_Source\PSoC5/ADC_SAR_1.c ****         /* wait one ADC clock to let the EOC status bit release */
 487:.\Generated_Source\PSoC5/ADC_SAR_1.c ****         CyDelayUs(1u);
 488:.\Generated_Source\PSoC5/ADC_SAR_1.c ****         /* Do the unconditional read operation of the CSR1 register to make sure the EOC bit has be
 489:.\Generated_Source\PSoC5/ADC_SAR_1.c ****         CY_GET_REG8(ADC_SAR_1_SAR_CSR1_PTR);
 490:.\Generated_Source\PSoC5/ADC_SAR_1.c ****     }
 491:.\Generated_Source\PSoC5/ADC_SAR_1.c **** 
 492:.\Generated_Source\PSoC5/ADC_SAR_1.c ****     return(status);
 493:.\Generated_Source\PSoC5/ADC_SAR_1.c **** }
 494:.\Generated_Source\PSoC5/ADC_SAR_1.c **** 
 495:.\Generated_Source\PSoC5/ADC_SAR_1.c **** 
ARM GAS  C:\Users\Patrick\AppData\Local\Temp\ccRDuB7I.s 			page 11


 496:.\Generated_Source\PSoC5/ADC_SAR_1.c **** /*******************************************************************************
 497:.\Generated_Source\PSoC5/ADC_SAR_1.c **** * Function Name: ADC_SAR_1_GetResult8
 498:.\Generated_Source\PSoC5/ADC_SAR_1.c **** ********************************************************************************
 499:.\Generated_Source\PSoC5/ADC_SAR_1.c **** *
 500:.\Generated_Source\PSoC5/ADC_SAR_1.c **** * Summary:
 501:.\Generated_Source\PSoC5/ADC_SAR_1.c **** *  Returns the result of an 8-bit conversion. If the resolution is set greater
 502:.\Generated_Source\PSoC5/ADC_SAR_1.c **** *  than 8 bits, the function returns the LSB of the result.
 503:.\Generated_Source\PSoC5/ADC_SAR_1.c **** *  ADC_SAR_1_IsEndConversion() should be called to verify that the data
 504:.\Generated_Source\PSoC5/ADC_SAR_1.c **** *   sample is ready.
 505:.\Generated_Source\PSoC5/ADC_SAR_1.c **** *
 506:.\Generated_Source\PSoC5/ADC_SAR_1.c **** * Parameters:
 507:.\Generated_Source\PSoC5/ADC_SAR_1.c **** *  None.
 508:.\Generated_Source\PSoC5/ADC_SAR_1.c **** *
 509:.\Generated_Source\PSoC5/ADC_SAR_1.c **** * Return:
 510:.\Generated_Source\PSoC5/ADC_SAR_1.c **** *  The LSB of the last ADC conversion.
 511:.\Generated_Source\PSoC5/ADC_SAR_1.c **** *
 512:.\Generated_Source\PSoC5/ADC_SAR_1.c **** * Global Variables:
 513:.\Generated_Source\PSoC5/ADC_SAR_1.c **** *  ADC_SAR_1_shift - used to convert the ADC counts to the 2s
 514:.\Generated_Source\PSoC5/ADC_SAR_1.c **** *  compliment form.
 515:.\Generated_Source\PSoC5/ADC_SAR_1.c **** *
 516:.\Generated_Source\PSoC5/ADC_SAR_1.c **** * Side Effects:
 517:.\Generated_Source\PSoC5/ADC_SAR_1.c **** *  Converts the ADC counts to the 2s complement form.
 518:.\Generated_Source\PSoC5/ADC_SAR_1.c **** *
 519:.\Generated_Source\PSoC5/ADC_SAR_1.c **** *******************************************************************************/
 520:.\Generated_Source\PSoC5/ADC_SAR_1.c **** int8 ADC_SAR_1_GetResult8( void )
 521:.\Generated_Source\PSoC5/ADC_SAR_1.c **** {
 522:.\Generated_Source\PSoC5/ADC_SAR_1.c ****     return( (int8)ADC_SAR_1_SAR_WRK0_REG - (int8)ADC_SAR_1_shift);
 523:.\Generated_Source\PSoC5/ADC_SAR_1.c **** }
 524:.\Generated_Source\PSoC5/ADC_SAR_1.c **** 
 525:.\Generated_Source\PSoC5/ADC_SAR_1.c **** 
 526:.\Generated_Source\PSoC5/ADC_SAR_1.c **** /*******************************************************************************
 527:.\Generated_Source\PSoC5/ADC_SAR_1.c **** * Function Name: ADC_SAR_1_GetResult16
 528:.\Generated_Source\PSoC5/ADC_SAR_1.c **** ********************************************************************************
 529:.\Generated_Source\PSoC5/ADC_SAR_1.c **** *
 530:.\Generated_Source\PSoC5/ADC_SAR_1.c **** * Summary:
 531:.\Generated_Source\PSoC5/ADC_SAR_1.c **** *  Returns a 16-bit result for a conversion with a result that has a resolution
 532:.\Generated_Source\PSoC5/ADC_SAR_1.c **** *  of 8 to 12 bits.
 533:.\Generated_Source\PSoC5/ADC_SAR_1.c **** *  ADC_SAR_1_IsEndConversion() should be called to verify that the data
 534:.\Generated_Source\PSoC5/ADC_SAR_1.c **** *   sample is ready
 535:.\Generated_Source\PSoC5/ADC_SAR_1.c **** *
 536:.\Generated_Source\PSoC5/ADC_SAR_1.c **** * Parameters:
 537:.\Generated_Source\PSoC5/ADC_SAR_1.c **** *  None.
 538:.\Generated_Source\PSoC5/ADC_SAR_1.c **** *
 539:.\Generated_Source\PSoC5/ADC_SAR_1.c **** * Return:
 540:.\Generated_Source\PSoC5/ADC_SAR_1.c **** *  The 16-bit result of the last ADC conversion
 541:.\Generated_Source\PSoC5/ADC_SAR_1.c **** *
 542:.\Generated_Source\PSoC5/ADC_SAR_1.c **** * Global Variables:
 543:.\Generated_Source\PSoC5/ADC_SAR_1.c **** *  ADC_SAR_1_shift - used to convert the ADC counts to the 2s
 544:.\Generated_Source\PSoC5/ADC_SAR_1.c **** *  compliment form.
 545:.\Generated_Source\PSoC5/ADC_SAR_1.c **** *
 546:.\Generated_Source\PSoC5/ADC_SAR_1.c **** * Side Effects:
 547:.\Generated_Source\PSoC5/ADC_SAR_1.c **** *  Converts the ADC counts to the 2s complement form.
 548:.\Generated_Source\PSoC5/ADC_SAR_1.c **** *
 549:.\Generated_Source\PSoC5/ADC_SAR_1.c **** *******************************************************************************/
 550:.\Generated_Source\PSoC5/ADC_SAR_1.c **** int16 ADC_SAR_1_GetResult16( void )
 551:.\Generated_Source\PSoC5/ADC_SAR_1.c **** {
 552:.\Generated_Source\PSoC5/ADC_SAR_1.c ****     uint16 res;
ARM GAS  C:\Users\Patrick\AppData\Local\Temp\ccRDuB7I.s 			page 12


 553:.\Generated_Source\PSoC5/ADC_SAR_1.c **** 
 554:.\Generated_Source\PSoC5/ADC_SAR_1.c ****     res = CY_GET_REG16(ADC_SAR_1_SAR_WRK_PTR);
 555:.\Generated_Source\PSoC5/ADC_SAR_1.c **** 
 556:.\Generated_Source\PSoC5/ADC_SAR_1.c ****     return( (int16)res - ADC_SAR_1_shift );
 557:.\Generated_Source\PSoC5/ADC_SAR_1.c **** }
 558:.\Generated_Source\PSoC5/ADC_SAR_1.c **** 
 559:.\Generated_Source\PSoC5/ADC_SAR_1.c **** 
 560:.\Generated_Source\PSoC5/ADC_SAR_1.c **** /*******************************************************************************
 561:.\Generated_Source\PSoC5/ADC_SAR_1.c **** * Function Name: ADC_SAR_1_SetOffset
 562:.\Generated_Source\PSoC5/ADC_SAR_1.c **** ********************************************************************************
 563:.\Generated_Source\PSoC5/ADC_SAR_1.c **** *
 564:.\Generated_Source\PSoC5/ADC_SAR_1.c **** * Summary:
 565:.\Generated_Source\PSoC5/ADC_SAR_1.c **** *  Sets the ADC offset, which is used by ADC_SAR_1_CountsTo_Volts(),
 566:.\Generated_Source\PSoC5/ADC_SAR_1.c **** *  ADC_SAR_1_CountsTo_mVolts(), and ADC_SAR_1_CountsTo_uVolts()
 567:.\Generated_Source\PSoC5/ADC_SAR_1.c **** *  to subtract the offset from the given reading before calculating the voltage
 568:.\Generated_Source\PSoC5/ADC_SAR_1.c **** *  conversion.
 569:.\Generated_Source\PSoC5/ADC_SAR_1.c **** *
 570:.\Generated_Source\PSoC5/ADC_SAR_1.c **** * Parameters:
 571:.\Generated_Source\PSoC5/ADC_SAR_1.c **** *  int16: This value is measured when the inputs are shorted or connected to
 572:.\Generated_Source\PSoC5/ADC_SAR_1.c ****    the same input voltage.
 573:.\Generated_Source\PSoC5/ADC_SAR_1.c **** *
 574:.\Generated_Source\PSoC5/ADC_SAR_1.c **** * Return:
 575:.\Generated_Source\PSoC5/ADC_SAR_1.c **** *  None.
 576:.\Generated_Source\PSoC5/ADC_SAR_1.c **** *
 577:.\Generated_Source\PSoC5/ADC_SAR_1.c **** * Global Variables:
 578:.\Generated_Source\PSoC5/ADC_SAR_1.c **** *  The ADC_SAR_1_offset variable modified. This variable is used for
 579:.\Generated_Source\PSoC5/ADC_SAR_1.c **** *  offset calibration purpose.
 580:.\Generated_Source\PSoC5/ADC_SAR_1.c **** *  Affects the ADC_SAR_1_CountsTo_Volts,
 581:.\Generated_Source\PSoC5/ADC_SAR_1.c **** *  ADC_SAR_1_CountsTo_mVolts, ADC_SAR_1_CountsTo_uVolts functions
 582:.\Generated_Source\PSoC5/ADC_SAR_1.c **** *  by subtracting the given offset.
 583:.\Generated_Source\PSoC5/ADC_SAR_1.c **** *
 584:.\Generated_Source\PSoC5/ADC_SAR_1.c **** *******************************************************************************/
 585:.\Generated_Source\PSoC5/ADC_SAR_1.c **** void ADC_SAR_1_SetOffset(int16 offset)
 586:.\Generated_Source\PSoC5/ADC_SAR_1.c **** {
 587:.\Generated_Source\PSoC5/ADC_SAR_1.c ****     ADC_SAR_1_offset = offset;
 588:.\Generated_Source\PSoC5/ADC_SAR_1.c **** }
 589:.\Generated_Source\PSoC5/ADC_SAR_1.c **** 
 590:.\Generated_Source\PSoC5/ADC_SAR_1.c **** 
 591:.\Generated_Source\PSoC5/ADC_SAR_1.c **** /*******************************************************************************
 592:.\Generated_Source\PSoC5/ADC_SAR_1.c **** * Function Name: ADC_SAR_1_CalcGain
 593:.\Generated_Source\PSoC5/ADC_SAR_1.c **** ********************************************************************************
 594:.\Generated_Source\PSoC5/ADC_SAR_1.c **** *
 595:.\Generated_Source\PSoC5/ADC_SAR_1.c **** * Summary:
 596:.\Generated_Source\PSoC5/ADC_SAR_1.c **** *  This function calculates the ADC gain in counts per 10 volt.
 597:.\Generated_Source\PSoC5/ADC_SAR_1.c **** *
 598:.\Generated_Source\PSoC5/ADC_SAR_1.c **** * Parameters:
 599:.\Generated_Source\PSoC5/ADC_SAR_1.c **** *  uint8: resolution
 600:.\Generated_Source\PSoC5/ADC_SAR_1.c **** *
 601:.\Generated_Source\PSoC5/ADC_SAR_1.c **** * Return:
 602:.\Generated_Source\PSoC5/ADC_SAR_1.c **** *  None.
 603:.\Generated_Source\PSoC5/ADC_SAR_1.c **** *
 604:.\Generated_Source\PSoC5/ADC_SAR_1.c **** * Global Variables:
 605:.\Generated_Source\PSoC5/ADC_SAR_1.c **** *  ADC_SAR_1_shift variable initialized. This variable is used to
 606:.\Generated_Source\PSoC5/ADC_SAR_1.c **** *  convert the ADC counts to the 2s compliment form.
 607:.\Generated_Source\PSoC5/ADC_SAR_1.c **** *  ADC_SAR_1_countsPer10Volt variable initialized. This variable is used
 608:.\Generated_Source\PSoC5/ADC_SAR_1.c **** *  for gain calibration purpose.
 609:.\Generated_Source\PSoC5/ADC_SAR_1.c **** *
ARM GAS  C:\Users\Patrick\AppData\Local\Temp\ccRDuB7I.s 			page 13


 610:.\Generated_Source\PSoC5/ADC_SAR_1.c **** *******************************************************************************/
 611:.\Generated_Source\PSoC5/ADC_SAR_1.c **** static void ADC_SAR_1_CalcGain( uint8 resolution )
 612:.\Generated_Source\PSoC5/ADC_SAR_1.c **** {
 613:.\Generated_Source\PSoC5/ADC_SAR_1.c ****     int32 counts;
 614:.\Generated_Source\PSoC5/ADC_SAR_1.c ****     #if(!((ADC_SAR_1_DEFAULT_RANGE == ADC_SAR_1__VSS_TO_VREF) || \
 615:.\Generated_Source\PSoC5/ADC_SAR_1.c ****          (ADC_SAR_1_DEFAULT_RANGE == ADC_SAR_1__VSSA_TO_VDDA) || \
 616:.\Generated_Source\PSoC5/ADC_SAR_1.c ****          (ADC_SAR_1_DEFAULT_RANGE == ADC_SAR_1__VSSA_TO_VDAC)) )
 617:.\Generated_Source\PSoC5/ADC_SAR_1.c ****         uint16 diff_zero;
 618:.\Generated_Source\PSoC5/ADC_SAR_1.c ****     #endif /* End ADC_SAR_1_DEFAULT_RANGE */
 619:.\Generated_Source\PSoC5/ADC_SAR_1.c **** 
 620:.\Generated_Source\PSoC5/ADC_SAR_1.c ****     switch (resolution)
 621:.\Generated_Source\PSoC5/ADC_SAR_1.c ****     {
 622:.\Generated_Source\PSoC5/ADC_SAR_1.c ****         case (uint8)ADC_SAR_1__BITS_12:
 623:.\Generated_Source\PSoC5/ADC_SAR_1.c ****             counts = (int32)ADC_SAR_1_SAR_WRK_MAX_12BIT;
 624:.\Generated_Source\PSoC5/ADC_SAR_1.c ****             #if(!((ADC_SAR_1_DEFAULT_RANGE == ADC_SAR_1__VSS_TO_VREF) || \
 625:.\Generated_Source\PSoC5/ADC_SAR_1.c ****                  (ADC_SAR_1_DEFAULT_RANGE == ADC_SAR_1__VSSA_TO_VDDA) || \
 626:.\Generated_Source\PSoC5/ADC_SAR_1.c ****                  (ADC_SAR_1_DEFAULT_RANGE == ADC_SAR_1__VSSA_TO_VDAC)) )
 627:.\Generated_Source\PSoC5/ADC_SAR_1.c ****                 diff_zero = ADC_SAR_1_SAR_DIFF_SHIFT;
 628:.\Generated_Source\PSoC5/ADC_SAR_1.c ****             #endif /* End ADC_SAR_1_DEFAULT_RANGE */
 629:.\Generated_Source\PSoC5/ADC_SAR_1.c ****             break;
 630:.\Generated_Source\PSoC5/ADC_SAR_1.c ****         case (uint8)ADC_SAR_1__BITS_10:
 631:.\Generated_Source\PSoC5/ADC_SAR_1.c ****             counts = (int32)ADC_SAR_1_SAR_WRK_MAX_10BIT;
 632:.\Generated_Source\PSoC5/ADC_SAR_1.c ****             #if(!((ADC_SAR_1_DEFAULT_RANGE == ADC_SAR_1__VSS_TO_VREF) || \
 633:.\Generated_Source\PSoC5/ADC_SAR_1.c ****                  (ADC_SAR_1_DEFAULT_RANGE == ADC_SAR_1__VSSA_TO_VDDA) || \
 634:.\Generated_Source\PSoC5/ADC_SAR_1.c ****                  (ADC_SAR_1_DEFAULT_RANGE == ADC_SAR_1__VSSA_TO_VDAC)) )
 635:.\Generated_Source\PSoC5/ADC_SAR_1.c ****                 diff_zero = ADC_SAR_1_SAR_DIFF_SHIFT >> 2u;
 636:.\Generated_Source\PSoC5/ADC_SAR_1.c ****             #endif /* End ADC_SAR_1_DEFAULT_RANGE */
 637:.\Generated_Source\PSoC5/ADC_SAR_1.c ****             break;
 638:.\Generated_Source\PSoC5/ADC_SAR_1.c ****         case (uint8)ADC_SAR_1__BITS_8:
 639:.\Generated_Source\PSoC5/ADC_SAR_1.c ****             counts = (int32)ADC_SAR_1_SAR_WRK_MAX_8BIT;
 640:.\Generated_Source\PSoC5/ADC_SAR_1.c ****             #if(!((ADC_SAR_1_DEFAULT_RANGE == ADC_SAR_1__VSS_TO_VREF) || \
 641:.\Generated_Source\PSoC5/ADC_SAR_1.c ****                  (ADC_SAR_1_DEFAULT_RANGE == ADC_SAR_1__VSSA_TO_VDDA) || \
 642:.\Generated_Source\PSoC5/ADC_SAR_1.c ****                  (ADC_SAR_1_DEFAULT_RANGE == ADC_SAR_1__VSSA_TO_VDAC)) )
 643:.\Generated_Source\PSoC5/ADC_SAR_1.c ****                 diff_zero = ADC_SAR_1_SAR_DIFF_SHIFT >> 4u;
 644:.\Generated_Source\PSoC5/ADC_SAR_1.c ****             #endif /* End ADC_SAR_1_DEFAULT_RANGE */
 645:.\Generated_Source\PSoC5/ADC_SAR_1.c ****             break;
 646:.\Generated_Source\PSoC5/ADC_SAR_1.c ****         default: /* Halt CPU in debug mode if resolution is out of valid range */
 647:.\Generated_Source\PSoC5/ADC_SAR_1.c ****             counts = 0;
 648:.\Generated_Source\PSoC5/ADC_SAR_1.c ****             #if(!((ADC_SAR_1_DEFAULT_RANGE == ADC_SAR_1__VSS_TO_VREF) || \
 649:.\Generated_Source\PSoC5/ADC_SAR_1.c ****                  (ADC_SAR_1_DEFAULT_RANGE == ADC_SAR_1__VSSA_TO_VDDA) || \
 650:.\Generated_Source\PSoC5/ADC_SAR_1.c ****                  (ADC_SAR_1_DEFAULT_RANGE == ADC_SAR_1__VSSA_TO_VDAC)) )
 651:.\Generated_Source\PSoC5/ADC_SAR_1.c ****                 diff_zero = 0u;
 652:.\Generated_Source\PSoC5/ADC_SAR_1.c ****             #endif /* End ADC_SAR_1_DEFAULT_RANGE */
 653:.\Generated_Source\PSoC5/ADC_SAR_1.c ****             CYASSERT(0u != 0u);
 654:.\Generated_Source\PSoC5/ADC_SAR_1.c ****             break;
 655:.\Generated_Source\PSoC5/ADC_SAR_1.c ****     }
 656:.\Generated_Source\PSoC5/ADC_SAR_1.c ****     ADC_SAR_1_countsPerVolt = 0; /* Clear obsolete variable */
  75              		.loc 1 656 0
  76 0028 DFF8E4C0 		ldr	ip, .L5+52
 657:.\Generated_Source\PSoC5/ADC_SAR_1.c ****     /* Calculate gain in counts per 10 volts with rounding */
 658:.\Generated_Source\PSoC5/ADC_SAR_1.c ****     ADC_SAR_1_countsPer10Volt = (((counts * ADC_SAR_1_10MV_COUNTS) +
  77              		.loc 1 658 0
  78 002c 2E4E     		ldr	r6, .L5+12
 659:.\Generated_Source\PSoC5/ADC_SAR_1.c ****                         ADC_SAR_1_DEFAULT_REF_VOLTAGE_MV) / (ADC_SAR_1_DEFAULT_REF_VOLTAGE_MV * 2))
 660:.\Generated_Source\PSoC5/ADC_SAR_1.c **** 
 661:.\Generated_Source\PSoC5/ADC_SAR_1.c ****     #if( (ADC_SAR_1_DEFAULT_RANGE == ADC_SAR_1__VSS_TO_VREF) || \
 662:.\Generated_Source\PSoC5/ADC_SAR_1.c ****          (ADC_SAR_1_DEFAULT_RANGE == ADC_SAR_1__VSSA_TO_VDDA) || \
ARM GAS  C:\Users\Patrick\AppData\Local\Temp\ccRDuB7I.s 			page 14


 663:.\Generated_Source\PSoC5/ADC_SAR_1.c ****          (ADC_SAR_1_DEFAULT_RANGE == ADC_SAR_1__VSSA_TO_VDAC) )
 664:.\Generated_Source\PSoC5/ADC_SAR_1.c ****         ADC_SAR_1_shift = 0;
  79              		.loc 1 664 0
  80 002e 2F48     		ldr	r0, .L5+16
  81              	.LBE15:
  82              	.LBE14:
  83              	.LBE22:
  84              	.LBE26:
 125:.\Generated_Source\PSoC5/ADC_SAR_1.c **** }
  85              		.loc 1 125 0
  86 0030 2F49     		ldr	r1, .L5+20
 121:.\Generated_Source\PSoC5/ADC_SAR_1.c **** 
  87              		.loc 1 121 0
  88 0032 43F00603 		orr	r3, r3, #6
  89              	.LBB27:
  90              	.LBB23:
 362:.\Generated_Source\PSoC5/ADC_SAR_1.c **** 
  91              		.loc 1 362 0
  92 0036 4FF0C409 		mov	r9, #196
  93              	.LBB19:
  94              	.LBB16:
 658:.\Generated_Source\PSoC5/ADC_SAR_1.c ****                         ADC_SAR_1_DEFAULT_REF_VOLTAGE_MV) / (ADC_SAR_1_DEFAULT_REF_VOLTAGE_MV * 2))
  95              		.loc 1 658 0
  96 003a 4FF40057 		mov	r7, #8192
  97              	.LBE16:
  98              	.LBE19:
  99              	.LBE23:
 100              	.LBE27:
 101              	.LBE11:
 102              	.LBE10:
  81:.\Generated_Source\PSoC5/ADC_SAR_1.c ****     }
 103              		.loc 1 81 0
 104 003e 4FF0010E 		mov	lr, #1
 105              	.LBB32:
 106              	.LBB30:
 121:.\Generated_Source\PSoC5/ADC_SAR_1.c **** 
 107              		.loc 1 121 0
 108 0042 1370     		strb	r3, [r2]
 109              	.LVL3:
 110              	.LBB28:
 111              	.LBB24:
 362:.\Generated_Source\PSoC5/ADC_SAR_1.c **** 
 112              		.loc 1 362 0
 113 0044 88F80090 		strb	r9, [r8]
 114              	.LVL4:
 115              	.LBB20:
 116              	.LBB17:
 656:.\Generated_Source\PSoC5/ADC_SAR_1.c ****     /* Calculate gain in counts per 10 volts with rounding */
 117              		.loc 1 656 0
 118 0048 ACF80040 		strh	r4, [ip]	@ movhi
 119              	.LBE17:
 120              	.LBE20:
 121              	.LBE24:
 122              	.LBE28:
 123              	.LBE30:
 124              	.LBE32:
  81:.\Generated_Source\PSoC5/ADC_SAR_1.c ****     }
ARM GAS  C:\Users\Patrick\AppData\Local\Temp\ccRDuB7I.s 			page 15


 125              		.loc 1 81 0
 126 004c 85F800E0 		strb	lr, [r5]
 127              	.LBB33:
 128              	.LBB31:
 129              	.LBB29:
 130              	.LBB25:
 131              	.LBB21:
 132              	.LBB18:
 658:.\Generated_Source\PSoC5/ADC_SAR_1.c ****                         ADC_SAR_1_DEFAULT_REF_VOLTAGE_MV) / (ADC_SAR_1_DEFAULT_REF_VOLTAGE_MV * 2))
 133              		.loc 1 658 0
 134 0050 3760     		str	r7, [r6]
 135              		.loc 1 664 0
 136 0052 0480     		strh	r4, [r0]	@ movhi
 137              	.LBE18:
 138              	.LBE21:
 139              	.LBE25:
 140              	.LBE29:
 125:.\Generated_Source\PSoC5/ADC_SAR_1.c **** }
 141              		.loc 1 125 0
 142 0054 0C80     		strh	r4, [r1]	@ movhi
 143              	.LVL5:
 144              	.L2:
 145              	.LBE31:
 146              	.LBE33:
 147              	.LBB34:
 148              	.LBB35:
 147:.\Generated_Source\PSoC5/ADC_SAR_1.c **** 
 149              		.loc 1 147 0
 150 0056 FFF7FEFF 		bl	CyEnterCriticalSection
 151              	.LVL6:
 150:.\Generated_Source\PSoC5/ADC_SAR_1.c **** 
 152              		.loc 1 150 0
 153 005a 264A     		ldr	r2, .L5+24
 147:.\Generated_Source\PSoC5/ADC_SAR_1.c **** 
 154              		.loc 1 147 0
 155 005c 0446     		mov	r4, r0
 156              	.LVL7:
 150:.\Generated_Source\PSoC5/ADC_SAR_1.c **** 
 157              		.loc 1 150 0
 158 005e 1378     		ldrb	r3, [r2]	@ zero_extendqisi2
 153:.\Generated_Source\PSoC5/ADC_SAR_1.c **** 
 159              		.loc 1 153 0
 160 0060 2549     		ldr	r1, .L5+28
 150:.\Generated_Source\PSoC5/ADC_SAR_1.c **** 
 161              		.loc 1 150 0
 162 0062 43F00103 		orr	r3, r3, #1
 163 0066 1370     		strb	r3, [r2]
 153:.\Generated_Source\PSoC5/ADC_SAR_1.c **** 
 164              		.loc 1 153 0
 165 0068 0B78     		ldrb	r3, [r1]	@ zero_extendqisi2
 157:.\Generated_Source\PSoC5/ADC_SAR_1.c ****         ADC_SAR_1_STBY_PWRMGR_CLK_REG |= ADC_SAR_1_STBY_PWR_CLK_EN;
 166              		.loc 1 157 0
 167 006a 2448     		ldr	r0, .L5+32
 153:.\Generated_Source\PSoC5/ADC_SAR_1.c **** 
 168              		.loc 1 153 0
 169 006c 43F00103 		orr	r3, r3, #1
 170 0070 0B70     		strb	r3, [r1]
ARM GAS  C:\Users\Patrick\AppData\Local\Temp\ccRDuB7I.s 			page 16


 157:.\Generated_Source\PSoC5/ADC_SAR_1.c ****         ADC_SAR_1_STBY_PWRMGR_CLK_REG |= ADC_SAR_1_STBY_PWR_CLK_EN;
 171              		.loc 1 157 0
 172 0072 0378     		ldrb	r3, [r0]	@ zero_extendqisi2
 162:.\Generated_Source\PSoC5/ADC_SAR_1.c ****     tmpReg |= ADC_SAR_1_SAR_EN_BUF_VCM_EN;
 173              		.loc 1 162 0
 174 0074 01F5AA51 		add	r1, r1, #5440
 157:.\Generated_Source\PSoC5/ADC_SAR_1.c ****         ADC_SAR_1_STBY_PWRMGR_CLK_REG |= ADC_SAR_1_STBY_PWR_CLK_EN;
 175              		.loc 1 157 0
 176 0078 43F00203 		orr	r3, r3, #2
 177 007c 0370     		strb	r3, [r0]
 158:.\Generated_Source\PSoC5/ADC_SAR_1.c ****     #endif /* End ADC_SAR_1_DEFAULT_INTERNAL_CLK */
 178              		.loc 1 158 0
 179 007e D379     		ldrb	r3, [r2, #7]	@ zero_extendqisi2
 162:.\Generated_Source\PSoC5/ADC_SAR_1.c ****     tmpReg |= ADC_SAR_1_SAR_EN_BUF_VCM_EN;
 180              		.loc 1 162 0
 181 0080 0831     		adds	r1, r1, #8
 158:.\Generated_Source\PSoC5/ADC_SAR_1.c ****     #endif /* End ADC_SAR_1_DEFAULT_INTERNAL_CLK */
 182              		.loc 1 158 0
 183 0082 43F00203 		orr	r3, r3, #2
 184 0086 D371     		strb	r3, [r2, #7]
 162:.\Generated_Source\PSoC5/ADC_SAR_1.c ****     tmpReg |= ADC_SAR_1_SAR_EN_BUF_VCM_EN;
 185              		.loc 1 162 0
 186 0088 0A78     		ldrb	r2, [r1]	@ zero_extendqisi2
 187              	.LVL8:
 184:.\Generated_Source\PSoC5/ADC_SAR_1.c ****         #endif /* ADC_SAR_1_DEFAULT_REFERENCE == ADC_SAR_1__INT_REF_NOT_BYPASSED */
 188              		.loc 1 184 0
 189 008a 00F5AB50 		add	r0, r0, #5472
 190:.\Generated_Source\PSoC5/ADC_SAR_1.c ****     #else /* Set High non-overlap delay for sampling clock signals (for <500KSPS)*/
 190              		.loc 1 190 0
 191 008e 1C4B     		ldr	r3, .L5+36
 184:.\Generated_Source\PSoC5/ADC_SAR_1.c ****         #endif /* ADC_SAR_1_DEFAULT_REFERENCE == ADC_SAR_1__INT_REF_NOT_BYPASSED */
 192              		.loc 1 184 0
 193 0090 0430     		adds	r0, r0, #4
 194 0092 0425     		movs	r5, #4
 169:.\Generated_Source\PSoC5/ADC_SAR_1.c ****     #endif /* ADC_SAR_1_DEFAULT_REFERENCE == ADC_SAR_1__EXT_REF */
 195              		.loc 1 169 0
 196 0094 42F00302 		orr	r2, r2, #3
 197              	.LVL9:
 171:.\Generated_Source\PSoC5/ADC_SAR_1.c **** 
 198              		.loc 1 171 0
 199 0098 0A70     		strb	r2, [r1]
 184:.\Generated_Source\PSoC5/ADC_SAR_1.c ****         #endif /* ADC_SAR_1_DEFAULT_REFERENCE == ADC_SAR_1__INT_REF_NOT_BYPASSED */
 200              		.loc 1 184 0
 201 009a 0570     		strb	r5, [r0]
 190:.\Generated_Source\PSoC5/ADC_SAR_1.c ****     #else /* Set High non-overlap delay for sampling clock signals (for <500KSPS)*/
 202              		.loc 1 190 0
 203 009c 1A78     		ldrb	r2, [r3]	@ zero_extendqisi2
 204              	.LVL10:
 206:.\Generated_Source\PSoC5/ADC_SAR_1.c ****     /* SAR_HIZ_CLEAR:   Should not be used for LP */
 205              		.loc 1 206 0
 206 009e 194E     		ldr	r6, .L5+40
 190:.\Generated_Source\PSoC5/ADC_SAR_1.c ****     #else /* Set High non-overlap delay for sampling clock signals (for <500KSPS)*/
 207              		.loc 1 190 0
 208 00a0 02F0BF02 		and	r2, r2, #191
 209 00a4 1A70     		strb	r2, [r3]
 200:.\Generated_Source\PSoC5/ADC_SAR_1.c ****     #else /* for <500ksps */
 210              		.loc 1 200 0
ARM GAS  C:\Users\Patrick\AppData\Local\Temp\ccRDuB7I.s 			page 17


 211 00a6 1A78     		ldrb	r2, [r3]	@ zero_extendqisi2
 218:.\Generated_Source\PSoC5/ADC_SAR_1.c **** 
 212              		.loc 1 218 0
 213 00a8 A0F59750 		sub	r0, r0, #4832
 214 00ac 0225     		movs	r5, #2
 215 00ae 1238     		subs	r0, r0, #18
 200:.\Generated_Source\PSoC5/ADC_SAR_1.c ****     #else /* for <500ksps */
 216              		.loc 1 200 0
 217 00b0 42F00302 		orr	r2, r2, #3
 206:.\Generated_Source\PSoC5/ADC_SAR_1.c ****     /* SAR_HIZ_CLEAR:   Should not be used for LP */
 218              		.loc 1 206 0
 219 00b4 0E27     		movs	r7, #14
 200:.\Generated_Source\PSoC5/ADC_SAR_1.c ****     #else /* for <500ksps */
 220              		.loc 1 200 0
 221 00b6 1A70     		strb	r2, [r3]
 206:.\Generated_Source\PSoC5/ADC_SAR_1.c ****     /* SAR_HIZ_CLEAR:   Should not be used for LP */
 222              		.loc 1 206 0
 223 00b8 3770     		strb	r7, [r6]
 218:.\Generated_Source\PSoC5/ADC_SAR_1.c **** 
 224              		.loc 1 218 0
 225 00ba 0570     		strb	r5, [r0]
 221:.\Generated_Source\PSoC5/ADC_SAR_1.c **** 
 226              		.loc 1 221 0
 227 00bc 91F82432 		ldrb	r3, [r1, #548]	@ zero_extendqisi2
 223:.\Generated_Source\PSoC5/ADC_SAR_1.c **** 
 228              		.loc 1 223 0
 229 00c0 0A20     		movs	r0, #10
 221:.\Generated_Source\PSoC5/ADC_SAR_1.c **** 
 230              		.loc 1 221 0
 231 00c2 43F00803 		orr	r3, r3, #8
 232 00c6 81F82432 		strb	r3, [r1, #548]
 223:.\Generated_Source\PSoC5/ADC_SAR_1.c **** 
 233              		.loc 1 223 0
 234 00ca FFF7FEFF 		bl	CyDelayUs
 235              	.LVL11:
 227:.\Generated_Source\PSoC5/ADC_SAR_1.c ****     #endif   /* End ADC_SAR_1_IRQ_REMOVE */
 236              		.loc 1 227 0
 237 00ce 0E4B     		ldr	r3, .L5+44
 230:.\Generated_Source\PSoC5/ADC_SAR_1.c **** }
 238              		.loc 1 230 0
 239 00d0 2046     		mov	r0, r4
 227:.\Generated_Source\PSoC5/ADC_SAR_1.c ****     #endif   /* End ADC_SAR_1_IRQ_REMOVE */
 240              		.loc 1 227 0
 241 00d2 1D60     		str	r5, [r3]
 242              	.LBE35:
 243              	.LBE34:
  84:.\Generated_Source\PSoC5/ADC_SAR_1.c **** 
 244              		.loc 1 84 0
 245 00d4 BDE8F843 		pop	{r3, r4, r5, r6, r7, r8, r9, lr}
 246              		.cfi_restore 14
 247              		.cfi_restore 9
 248              		.cfi_restore 8
 249              		.cfi_restore 7
 250              		.cfi_restore 6
 251              		.cfi_restore 5
 252              		.cfi_restore 4
 253              		.cfi_restore 3
ARM GAS  C:\Users\Patrick\AppData\Local\Temp\ccRDuB7I.s 			page 18


 254              		.cfi_def_cfa_offset 0
 255              	.LVL12:
 256              	.LBB37:
 257              	.LBB36:
 230:.\Generated_Source\PSoC5/ADC_SAR_1.c **** }
 258              		.loc 1 230 0
 259 00d8 FFF7FEBF 		b	CyExitCriticalSection
 260              	.LVL13:
 261              	.L6:
 262              		.align	2
 263              	.L5:
 264 00dc 00000000 		.word	.LANCHOR0
 265 00e0 00000000 		.word	ADC_SAR_1_ISR
 266 00e4 01590040 		.word	1073764609
 267 00e8 00000000 		.word	ADC_SAR_1_countsPer10Volt
 268 00ec 00000000 		.word	ADC_SAR_1_shift
 269 00f0 00000000 		.word	ADC_SAR_1_offset
 270 00f4 AB430040 		.word	1073759147
 271 00f8 BB430040 		.word	1073759163
 272 00fc A2430040 		.word	1073759138
 273 0100 05590040 		.word	1073764613
 274 0104 00590040 		.word	1073764608
 275 0108 80E200E0 		.word	-536812928
 276 010c 02590040 		.word	1073764610
 277 0110 00000000 		.word	ADC_SAR_1_countsPerVolt
 278              	.LBE36:
 279              	.LBE37:
 280              		.cfi_endproc
 281              	.LFE0:
 282              		.size	ADC_SAR_1_Start, .-ADC_SAR_1_Start
 283              		.section	.text.ADC_SAR_1_Init,"ax",%progbits
 284              		.align	2
 285              		.global	ADC_SAR_1_Init
 286              		.thumb
 287              		.thumb_func
 288              		.type	ADC_SAR_1_Init, %function
 289              	ADC_SAR_1_Init:
 290              	.LFB1:
 107:.\Generated_Source\PSoC5/ADC_SAR_1.c **** 
 291              		.loc 1 107 0
 292              		.cfi_startproc
 293              		@ args = 0, pretend = 0, frame = 0
 294              		@ frame_needed = 0, uses_anonymous_args = 0
 295 0000 F8B5     		push	{r3, r4, r5, r6, r7, lr}
 296              		.cfi_def_cfa_offset 24
 297              		.cfi_offset 3, -24
 298              		.cfi_offset 4, -20
 299              		.cfi_offset 5, -16
 300              		.cfi_offset 6, -12
 301              		.cfi_offset 7, -8
 302              		.cfi_offset 14, -4
 111:.\Generated_Source\PSoC5/ADC_SAR_1.c ****     #endif /* End ADC_SAR_1_DEFAULT_INTERNAL_CLK */
 303              		.loc 1 111 0
 304 0002 1020     		movs	r0, #16
 305 0004 FFF7FEFF 		bl	ADC_SAR_1_theACLK_SetModeRegister
 306              	.LVL14:
 116:.\Generated_Source\PSoC5/ADC_SAR_1.c ****         (void)CyIntSetVector(ADC_SAR_1_INTC_NUMBER, &ADC_SAR_1_ISR);
ARM GAS  C:\Users\Patrick\AppData\Local\Temp\ccRDuB7I.s 			page 19


 307              		.loc 1 116 0
 308 0008 0120     		movs	r0, #1
 309 000a 0721     		movs	r1, #7
 310 000c FFF7FEFF 		bl	CyIntSetPriority
 311              	.LVL15:
 117:.\Generated_Source\PSoC5/ADC_SAR_1.c ****     #endif   /* End ADC_SAR_1_IRQ_REMOVE */
 312              		.loc 1 117 0
 313 0010 0D49     		ldr	r1, .L9
 314 0012 0120     		movs	r0, #1
 315 0014 FFF7FEFF 		bl	CyIntSetVector
 316              	.LVL16:
 121:.\Generated_Source\PSoC5/ADC_SAR_1.c **** 
 317              		.loc 1 121 0
 318 0018 0C49     		ldr	r1, .L9+4
 319              	.LBB42:
 320              	.LBB43:
 362:.\Generated_Source\PSoC5/ADC_SAR_1.c **** 
 321              		.loc 1 362 0
 322 001a DFF844E0 		ldr	lr, .L9+24
 323              	.LBE43:
 324              	.LBE42:
 121:.\Generated_Source\PSoC5/ADC_SAR_1.c **** 
 325              		.loc 1 121 0
 326 001e 0A78     		ldrb	r2, [r1]	@ zero_extendqisi2
 327              	.LBB53:
 328              	.LBB50:
 329              	.LBB44:
 330              	.LBB45:
 656:.\Generated_Source\PSoC5/ADC_SAR_1.c ****     /* Calculate gain in counts per 10 volts with rounding */
 331              		.loc 1 656 0
 332 0020 0B4F     		ldr	r7, .L9+8
 658:.\Generated_Source\PSoC5/ADC_SAR_1.c ****                         ADC_SAR_1_DEFAULT_REF_VOLTAGE_MV) / (ADC_SAR_1_DEFAULT_REF_VOLTAGE_MV * 2))
 333              		.loc 1 658 0
 334 0022 0C4D     		ldr	r5, .L9+12
 335              		.loc 1 664 0
 336 0024 0C4C     		ldr	r4, .L9+16
 337              	.LBE45:
 338              	.LBE44:
 339              	.LBE50:
 340              	.LBE53:
 125:.\Generated_Source\PSoC5/ADC_SAR_1.c **** }
 341              		.loc 1 125 0
 342 0026 0D48     		ldr	r0, .L9+20
 121:.\Generated_Source\PSoC5/ADC_SAR_1.c **** 
 343              		.loc 1 121 0
 344 0028 42F00602 		orr	r2, r2, #6
 345              	.LBB54:
 346              	.LBB51:
 362:.\Generated_Source\PSoC5/ADC_SAR_1.c **** 
 347              		.loc 1 362 0
 348 002c 4FF0C40C 		mov	ip, #196
 349              	.LBE51:
 350              	.LBE54:
 121:.\Generated_Source\PSoC5/ADC_SAR_1.c **** 
 351              		.loc 1 121 0
 352 0030 0A70     		strb	r2, [r1]
 353              	.LVL17:
ARM GAS  C:\Users\Patrick\AppData\Local\Temp\ccRDuB7I.s 			page 20


 354              	.LBB55:
 355              	.LBB52:
 356              	.LBB48:
 357              	.LBB46:
 656:.\Generated_Source\PSoC5/ADC_SAR_1.c ****     /* Calculate gain in counts per 10 volts with rounding */
 358              		.loc 1 656 0
 359 0032 0023     		movs	r3, #0
 360              	.LBE46:
 361              	.LBE48:
 362:.\Generated_Source\PSoC5/ADC_SAR_1.c **** 
 362              		.loc 1 362 0
 363 0034 8EF800C0 		strb	ip, [lr]
 364              	.LVL18:
 365              	.LBB49:
 366              	.LBB47:
 658:.\Generated_Source\PSoC5/ADC_SAR_1.c ****                         ADC_SAR_1_DEFAULT_REF_VOLTAGE_MV) / (ADC_SAR_1_DEFAULT_REF_VOLTAGE_MV * 2))
 367              		.loc 1 658 0
 368 0038 4FF40056 		mov	r6, #8192
 656:.\Generated_Source\PSoC5/ADC_SAR_1.c ****     /* Calculate gain in counts per 10 volts with rounding */
 369              		.loc 1 656 0
 370 003c 3B80     		strh	r3, [r7]	@ movhi
 658:.\Generated_Source\PSoC5/ADC_SAR_1.c ****                         ADC_SAR_1_DEFAULT_REF_VOLTAGE_MV) / (ADC_SAR_1_DEFAULT_REF_VOLTAGE_MV * 2))
 371              		.loc 1 658 0
 372 003e 2E60     		str	r6, [r5]
 373              		.loc 1 664 0
 374 0040 2380     		strh	r3, [r4]	@ movhi
 375              	.LBE47:
 376              	.LBE49:
 377              	.LBE52:
 378              	.LBE55:
 125:.\Generated_Source\PSoC5/ADC_SAR_1.c **** }
 379              		.loc 1 125 0
 380 0042 0380     		strh	r3, [r0]	@ movhi
 381 0044 F8BD     		pop	{r3, r4, r5, r6, r7, pc}
 382              	.L10:
 383 0046 00BF     		.align	2
 384              	.L9:
 385 0048 00000000 		.word	ADC_SAR_1_ISR
 386 004c 01590040 		.word	1073764609
 387 0050 00000000 		.word	ADC_SAR_1_countsPerVolt
 388 0054 00000000 		.word	ADC_SAR_1_countsPer10Volt
 389 0058 00000000 		.word	ADC_SAR_1_shift
 390 005c 00000000 		.word	ADC_SAR_1_offset
 391 0060 02590040 		.word	1073764610
 392              		.cfi_endproc
 393              	.LFE1:
 394              		.size	ADC_SAR_1_Init, .-ADC_SAR_1_Init
 395              		.section	.text.ADC_SAR_1_Enable,"ax",%progbits
 396              		.align	2
 397              		.global	ADC_SAR_1_Enable
 398              		.thumb
 399              		.thumb_func
 400              		.type	ADC_SAR_1_Enable, %function
 401              	ADC_SAR_1_Enable:
 402              	.LFB2:
 144:.\Generated_Source\PSoC5/ADC_SAR_1.c ****     uint8 tmpReg;
 403              		.loc 1 144 0
ARM GAS  C:\Users\Patrick\AppData\Local\Temp\ccRDuB7I.s 			page 21


 404              		.cfi_startproc
 405              		@ args = 0, pretend = 0, frame = 0
 406              		@ frame_needed = 0, uses_anonymous_args = 0
 407 0000 F8B5     		push	{r3, r4, r5, r6, r7, lr}
 408              		.cfi_def_cfa_offset 24
 409              		.cfi_offset 3, -24
 410              		.cfi_offset 4, -20
 411              		.cfi_offset 5, -16
 412              		.cfi_offset 6, -12
 413              		.cfi_offset 7, -8
 414              		.cfi_offset 14, -4
 147:.\Generated_Source\PSoC5/ADC_SAR_1.c **** 
 415              		.loc 1 147 0
 416 0002 FFF7FEFF 		bl	CyEnterCriticalSection
 417              	.LVL19:
 150:.\Generated_Source\PSoC5/ADC_SAR_1.c **** 
 418              		.loc 1 150 0
 419 0006 204A     		ldr	r2, .L13
 147:.\Generated_Source\PSoC5/ADC_SAR_1.c **** 
 420              		.loc 1 147 0
 421 0008 0446     		mov	r4, r0
 422              	.LVL20:
 150:.\Generated_Source\PSoC5/ADC_SAR_1.c **** 
 423              		.loc 1 150 0
 424 000a 1378     		ldrb	r3, [r2]	@ zero_extendqisi2
 153:.\Generated_Source\PSoC5/ADC_SAR_1.c **** 
 425              		.loc 1 153 0
 426 000c 1F49     		ldr	r1, .L13+4
 150:.\Generated_Source\PSoC5/ADC_SAR_1.c **** 
 427              		.loc 1 150 0
 428 000e 43F00103 		orr	r3, r3, #1
 429 0012 1370     		strb	r3, [r2]
 153:.\Generated_Source\PSoC5/ADC_SAR_1.c **** 
 430              		.loc 1 153 0
 431 0014 0B78     		ldrb	r3, [r1]	@ zero_extendqisi2
 157:.\Generated_Source\PSoC5/ADC_SAR_1.c ****         ADC_SAR_1_STBY_PWRMGR_CLK_REG |= ADC_SAR_1_STBY_PWR_CLK_EN;
 432              		.loc 1 157 0
 433 0016 1E48     		ldr	r0, .L13+8
 153:.\Generated_Source\PSoC5/ADC_SAR_1.c **** 
 434              		.loc 1 153 0
 435 0018 43F00103 		orr	r3, r3, #1
 436 001c 0B70     		strb	r3, [r1]
 157:.\Generated_Source\PSoC5/ADC_SAR_1.c ****         ADC_SAR_1_STBY_PWRMGR_CLK_REG |= ADC_SAR_1_STBY_PWR_CLK_EN;
 437              		.loc 1 157 0
 438 001e 0378     		ldrb	r3, [r0]	@ zero_extendqisi2
 162:.\Generated_Source\PSoC5/ADC_SAR_1.c ****     tmpReg |= ADC_SAR_1_SAR_EN_BUF_VCM_EN;
 439              		.loc 1 162 0
 440 0020 01F5AA51 		add	r1, r1, #5440
 157:.\Generated_Source\PSoC5/ADC_SAR_1.c ****         ADC_SAR_1_STBY_PWRMGR_CLK_REG |= ADC_SAR_1_STBY_PWR_CLK_EN;
 441              		.loc 1 157 0
 442 0024 43F00203 		orr	r3, r3, #2
 443 0028 0370     		strb	r3, [r0]
 158:.\Generated_Source\PSoC5/ADC_SAR_1.c ****     #endif /* End ADC_SAR_1_DEFAULT_INTERNAL_CLK */
 444              		.loc 1 158 0
 445 002a D379     		ldrb	r3, [r2, #7]	@ zero_extendqisi2
 162:.\Generated_Source\PSoC5/ADC_SAR_1.c ****     tmpReg |= ADC_SAR_1_SAR_EN_BUF_VCM_EN;
 446              		.loc 1 162 0
ARM GAS  C:\Users\Patrick\AppData\Local\Temp\ccRDuB7I.s 			page 22


 447 002c 0831     		adds	r1, r1, #8
 158:.\Generated_Source\PSoC5/ADC_SAR_1.c ****     #endif /* End ADC_SAR_1_DEFAULT_INTERNAL_CLK */
 448              		.loc 1 158 0
 449 002e 43F00203 		orr	r3, r3, #2
 450 0032 D371     		strb	r3, [r2, #7]
 162:.\Generated_Source\PSoC5/ADC_SAR_1.c ****     tmpReg |= ADC_SAR_1_SAR_EN_BUF_VCM_EN;
 451              		.loc 1 162 0
 452 0034 0A78     		ldrb	r2, [r1]	@ zero_extendqisi2
 453              	.LVL21:
 184:.\Generated_Source\PSoC5/ADC_SAR_1.c ****         #endif /* ADC_SAR_1_DEFAULT_REFERENCE == ADC_SAR_1__INT_REF_NOT_BYPASSED */
 454              		.loc 1 184 0
 455 0036 00F5AB50 		add	r0, r0, #5472
 190:.\Generated_Source\PSoC5/ADC_SAR_1.c ****     #else /* Set High non-overlap delay for sampling clock signals (for <500KSPS)*/
 456              		.loc 1 190 0
 457 003a 164B     		ldr	r3, .L13+12
 184:.\Generated_Source\PSoC5/ADC_SAR_1.c ****         #endif /* ADC_SAR_1_DEFAULT_REFERENCE == ADC_SAR_1__INT_REF_NOT_BYPASSED */
 458              		.loc 1 184 0
 459 003c 0430     		adds	r0, r0, #4
 460 003e 0425     		movs	r5, #4
 169:.\Generated_Source\PSoC5/ADC_SAR_1.c ****     #endif /* ADC_SAR_1_DEFAULT_REFERENCE == ADC_SAR_1__EXT_REF */
 461              		.loc 1 169 0
 462 0040 42F00302 		orr	r2, r2, #3
 463              	.LVL22:
 171:.\Generated_Source\PSoC5/ADC_SAR_1.c **** 
 464              		.loc 1 171 0
 465 0044 0A70     		strb	r2, [r1]
 184:.\Generated_Source\PSoC5/ADC_SAR_1.c ****         #endif /* ADC_SAR_1_DEFAULT_REFERENCE == ADC_SAR_1__INT_REF_NOT_BYPASSED */
 466              		.loc 1 184 0
 467 0046 0570     		strb	r5, [r0]
 190:.\Generated_Source\PSoC5/ADC_SAR_1.c ****     #else /* Set High non-overlap delay for sampling clock signals (for <500KSPS)*/
 468              		.loc 1 190 0
 469 0048 1A78     		ldrb	r2, [r3]	@ zero_extendqisi2
 470              	.LVL23:
 206:.\Generated_Source\PSoC5/ADC_SAR_1.c ****     /* SAR_HIZ_CLEAR:   Should not be used for LP */
 471              		.loc 1 206 0
 472 004a 134E     		ldr	r6, .L13+16
 190:.\Generated_Source\PSoC5/ADC_SAR_1.c ****     #else /* Set High non-overlap delay for sampling clock signals (for <500KSPS)*/
 473              		.loc 1 190 0
 474 004c 02F0BF02 		and	r2, r2, #191
 475 0050 1A70     		strb	r2, [r3]
 200:.\Generated_Source\PSoC5/ADC_SAR_1.c ****     #else /* for <500ksps */
 476              		.loc 1 200 0
 477 0052 1A78     		ldrb	r2, [r3]	@ zero_extendqisi2
 218:.\Generated_Source\PSoC5/ADC_SAR_1.c **** 
 478              		.loc 1 218 0
 479 0054 A0F59750 		sub	r0, r0, #4832
 480 0058 0225     		movs	r5, #2
 481 005a 1238     		subs	r0, r0, #18
 200:.\Generated_Source\PSoC5/ADC_SAR_1.c ****     #else /* for <500ksps */
 482              		.loc 1 200 0
 483 005c 42F00302 		orr	r2, r2, #3
 206:.\Generated_Source\PSoC5/ADC_SAR_1.c ****     /* SAR_HIZ_CLEAR:   Should not be used for LP */
 484              		.loc 1 206 0
 485 0060 0E27     		movs	r7, #14
 200:.\Generated_Source\PSoC5/ADC_SAR_1.c ****     #else /* for <500ksps */
 486              		.loc 1 200 0
 487 0062 1A70     		strb	r2, [r3]
ARM GAS  C:\Users\Patrick\AppData\Local\Temp\ccRDuB7I.s 			page 23


 206:.\Generated_Source\PSoC5/ADC_SAR_1.c ****     /* SAR_HIZ_CLEAR:   Should not be used for LP */
 488              		.loc 1 206 0
 489 0064 3770     		strb	r7, [r6]
 218:.\Generated_Source\PSoC5/ADC_SAR_1.c **** 
 490              		.loc 1 218 0
 491 0066 0570     		strb	r5, [r0]
 221:.\Generated_Source\PSoC5/ADC_SAR_1.c **** 
 492              		.loc 1 221 0
 493 0068 91F82432 		ldrb	r3, [r1, #548]	@ zero_extendqisi2
 223:.\Generated_Source\PSoC5/ADC_SAR_1.c **** 
 494              		.loc 1 223 0
 495 006c 0A20     		movs	r0, #10
 221:.\Generated_Source\PSoC5/ADC_SAR_1.c **** 
 496              		.loc 1 221 0
 497 006e 43F00803 		orr	r3, r3, #8
 498 0072 81F82432 		strb	r3, [r1, #548]
 223:.\Generated_Source\PSoC5/ADC_SAR_1.c **** 
 499              		.loc 1 223 0
 500 0076 FFF7FEFF 		bl	CyDelayUs
 501              	.LVL24:
 227:.\Generated_Source\PSoC5/ADC_SAR_1.c ****     #endif   /* End ADC_SAR_1_IRQ_REMOVE */
 502              		.loc 1 227 0
 503 007a 084B     		ldr	r3, .L13+20
 230:.\Generated_Source\PSoC5/ADC_SAR_1.c **** }
 504              		.loc 1 230 0
 505 007c 2046     		mov	r0, r4
 227:.\Generated_Source\PSoC5/ADC_SAR_1.c ****     #endif   /* End ADC_SAR_1_IRQ_REMOVE */
 506              		.loc 1 227 0
 507 007e 1D60     		str	r5, [r3]
 231:.\Generated_Source\PSoC5/ADC_SAR_1.c **** 
 508              		.loc 1 231 0
 509 0080 BDE8F840 		pop	{r3, r4, r5, r6, r7, lr}
 510              		.cfi_restore 14
 511              		.cfi_restore 7
 512              		.cfi_restore 6
 513              		.cfi_restore 5
 514              		.cfi_restore 4
 515              		.cfi_restore 3
 516              		.cfi_def_cfa_offset 0
 517              	.LVL25:
 230:.\Generated_Source\PSoC5/ADC_SAR_1.c **** }
 518              		.loc 1 230 0
 519 0084 FFF7FEBF 		b	CyExitCriticalSection
 520              	.LVL26:
 521              	.L14:
 522              		.align	2
 523              	.L13:
 524 0088 AB430040 		.word	1073759147
 525 008c BB430040 		.word	1073759163
 526 0090 A2430040 		.word	1073759138
 527 0094 05590040 		.word	1073764613
 528 0098 00590040 		.word	1073764608
 529 009c 80E200E0 		.word	-536812928
 530              		.cfi_endproc
 531              	.LFE2:
 532              		.size	ADC_SAR_1_Enable, .-ADC_SAR_1_Enable
 533              		.section	.text.ADC_SAR_1_Stop,"ax",%progbits
ARM GAS  C:\Users\Patrick\AppData\Local\Temp\ccRDuB7I.s 			page 24


 534              		.align	2
 535              		.global	ADC_SAR_1_Stop
 536              		.thumb
 537              		.thumb_func
 538              		.type	ADC_SAR_1_Stop, %function
 539              	ADC_SAR_1_Stop:
 540              	.LFB3:
 249:.\Generated_Source\PSoC5/ADC_SAR_1.c ****     uint8 enableInterrupts;
 541              		.loc 1 249 0
 542              		.cfi_startproc
 543              		@ args = 0, pretend = 0, frame = 0
 544              		@ frame_needed = 0, uses_anonymous_args = 0
 545 0000 10B5     		push	{r4, lr}
 546              		.cfi_def_cfa_offset 8
 547              		.cfi_offset 4, -8
 548              		.cfi_offset 14, -4
 251:.\Generated_Source\PSoC5/ADC_SAR_1.c **** 
 549              		.loc 1 251 0
 550 0002 FFF7FEFF 		bl	CyEnterCriticalSection
 551              	.LVL27:
 254:.\Generated_Source\PSoC5/ADC_SAR_1.c ****     /* Disable the SAR ADC block in Active Power Mode */
 552              		.loc 1 254 0
 553 0006 0F49     		ldr	r1, .L17
 256:.\Generated_Source\PSoC5/ADC_SAR_1.c ****     /* Disable the SAR ADC in Standby Power Mode */
 554              		.loc 1 256 0
 555 0008 0F4A     		ldr	r2, .L17+4
 254:.\Generated_Source\PSoC5/ADC_SAR_1.c ****     /* Disable the SAR ADC block in Active Power Mode */
 556              		.loc 1 254 0
 557 000a 0B78     		ldrb	r3, [r1]	@ zero_extendqisi2
 258:.\Generated_Source\PSoC5/ADC_SAR_1.c **** 
 558              		.loc 1 258 0
 559 000c 0F4C     		ldr	r4, .L17+8
 254:.\Generated_Source\PSoC5/ADC_SAR_1.c ****     /* Disable the SAR ADC block in Active Power Mode */
 560              		.loc 1 254 0
 561 000e 03F0FE03 		and	r3, r3, #254
 562 0012 0B70     		strb	r3, [r1]
 256:.\Generated_Source\PSoC5/ADC_SAR_1.c ****     /* Disable the SAR ADC in Standby Power Mode */
 563              		.loc 1 256 0
 564 0014 1378     		ldrb	r3, [r2]	@ zero_extendqisi2
 262:.\Generated_Source\PSoC5/ADC_SAR_1.c ****         ADC_SAR_1_STBY_PWRMGR_CLK_REG &= (uint8)~ADC_SAR_1_STBY_PWR_CLK_EN;
 565              		.loc 1 262 0
 566 0016 A1F5AA51 		sub	r1, r1, #5440
 256:.\Generated_Source\PSoC5/ADC_SAR_1.c ****     /* Disable the SAR ADC in Standby Power Mode */
 567              		.loc 1 256 0
 568 001a 03F0FE03 		and	r3, r3, #254
 569 001e 1370     		strb	r3, [r2]
 258:.\Generated_Source\PSoC5/ADC_SAR_1.c **** 
 570              		.loc 1 258 0
 571 0020 2378     		ldrb	r3, [r4]	@ zero_extendqisi2
 262:.\Generated_Source\PSoC5/ADC_SAR_1.c ****         ADC_SAR_1_STBY_PWRMGR_CLK_REG &= (uint8)~ADC_SAR_1_STBY_PWR_CLK_EN;
 572              		.loc 1 262 0
 573 0022 1E39     		subs	r1, r1, #30
 258:.\Generated_Source\PSoC5/ADC_SAR_1.c **** 
 574              		.loc 1 258 0
 575 0024 03F0FE03 		and	r3, r3, #254
 576 0028 2370     		strb	r3, [r4]
 262:.\Generated_Source\PSoC5/ADC_SAR_1.c ****         ADC_SAR_1_STBY_PWRMGR_CLK_REG &= (uint8)~ADC_SAR_1_STBY_PWR_CLK_EN;
ARM GAS  C:\Users\Patrick\AppData\Local\Temp\ccRDuB7I.s 			page 25


 577              		.loc 1 262 0
 578 002a 0B78     		ldrb	r3, [r1]	@ zero_extendqisi2
 579 002c 03F0FD03 		and	r3, r3, #253
 580 0030 0B70     		strb	r3, [r1]
 263:.\Generated_Source\PSoC5/ADC_SAR_1.c ****     #endif /* End ADC_SAR_1_DEFAULT_INTERNAL_CLK */
 581              		.loc 1 263 0
 582 0032 D379     		ldrb	r3, [r2, #7]	@ zero_extendqisi2
 583 0034 03F0FD03 		and	r3, r3, #253
 584 0038 D371     		strb	r3, [r2, #7]
 268:.\Generated_Source\PSoC5/ADC_SAR_1.c **** 
 585              		.loc 1 268 0
 586 003a BDE81040 		pop	{r4, lr}
 587              		.cfi_restore 14
 588              		.cfi_restore 4
 589              		.cfi_def_cfa_offset 0
 266:.\Generated_Source\PSoC5/ADC_SAR_1.c **** 
 590              		.loc 1 266 0
 591 003e FFF7FEBF 		b	CyExitCriticalSection
 592              	.LVL28:
 593              	.L18:
 594 0042 00BF     		.align	2
 595              	.L17:
 596 0044 00590040 		.word	1073764608
 597 0048 AB430040 		.word	1073759147
 598 004c BB430040 		.word	1073759163
 599              		.cfi_endproc
 600              	.LFE3:
 601              		.size	ADC_SAR_1_Stop, .-ADC_SAR_1_Stop
 602              		.section	.text.ADC_SAR_1_SetPower,"ax",%progbits
 603              		.align	2
 604              		.global	ADC_SAR_1_SetPower
 605              		.thumb
 606              		.thumb_func
 607              		.type	ADC_SAR_1_SetPower, %function
 608              	ADC_SAR_1_SetPower:
 609              	.LFB4:
 291:.\Generated_Source\PSoC5/ADC_SAR_1.c ****     uint8 tmpReg;
 610              		.loc 1 291 0
 611              		.cfi_startproc
 612              		@ args = 0, pretend = 0, frame = 0
 613              		@ frame_needed = 0, uses_anonymous_args = 0
 614              		@ link register save eliminated.
 615              	.LVL29:
 298:.\Generated_Source\PSoC5/ADC_SAR_1.c ****     tmpReg |= (uint8)(power << ADC_SAR_1_SAR_POWER_SHIFT);
 616              		.loc 1 298 0
 617 0000 044A     		ldr	r2, .L20
 295:.\Generated_Source\PSoC5/ADC_SAR_1.c **** 
 618              		.loc 1 295 0
 619 0002 00F00300 		and	r0, r0, #3
 620              	.LVL30:
 298:.\Generated_Source\PSoC5/ADC_SAR_1.c ****     tmpReg |= (uint8)(power << ADC_SAR_1_SAR_POWER_SHIFT);
 621              		.loc 1 298 0
 622 0006 1378     		ldrb	r3, [r2]	@ zero_extendqisi2
 623 0008 03F03F03 		and	r3, r3, #63
 624              	.LVL31:
 299:.\Generated_Source\PSoC5/ADC_SAR_1.c ****     ADC_SAR_1_SAR_CSR0_REG = tmpReg;
 625              		.loc 1 299 0
ARM GAS  C:\Users\Patrick\AppData\Local\Temp\ccRDuB7I.s 			page 26


 626 000c 43EA8010 		orr	r0, r3, r0, lsl #6
 627              	.LVL32:
 300:.\Generated_Source\PSoC5/ADC_SAR_1.c **** }
 628              		.loc 1 300 0
 629 0010 1070     		strb	r0, [r2]
 630 0012 7047     		bx	lr
 631              	.L21:
 632              		.align	2
 633              	.L20:
 634 0014 00590040 		.word	1073764608
 635              		.cfi_endproc
 636              	.LFE4:
 637              		.size	ADC_SAR_1_SetPower, .-ADC_SAR_1_SetPower
 638              		.section	.text.ADC_SAR_1_SetResolution,"ax",%progbits
 639              		.align	2
 640              		.global	ADC_SAR_1_SetResolution
 641              		.thumb
 642              		.thumb_func
 643              		.type	ADC_SAR_1_SetResolution, %function
 644              	ADC_SAR_1_SetResolution:
 645              	.LFB5:
 341:.\Generated_Source\PSoC5/ADC_SAR_1.c ****     uint8 tmpReg;
 646              		.loc 1 341 0
 647              		.cfi_startproc
 648              		@ args = 0, pretend = 0, frame = 0
 649              		@ frame_needed = 0, uses_anonymous_args = 0
 650              	.LVL33:
 345:.\Generated_Source\PSoC5/ADC_SAR_1.c ****     {
 651              		.loc 1 345 0
 652 0000 0A28     		cmp	r0, #10
 341:.\Generated_Source\PSoC5/ADC_SAR_1.c ****     uint8 tmpReg;
 653              		.loc 1 341 0
 654 0002 10B5     		push	{r4, lr}
 655              		.cfi_def_cfa_offset 8
 656              		.cfi_offset 4, -8
 657              		.cfi_offset 14, -4
 341:.\Generated_Source\PSoC5/ADC_SAR_1.c ****     uint8 tmpReg;
 658              		.loc 1 341 0
 659 0004 0446     		mov	r4, r0
 345:.\Generated_Source\PSoC5/ADC_SAR_1.c ****     {
 660              		.loc 1 345 0
 661 0006 2AD0     		beq	.L31
 662 0008 0C28     		cmp	r0, #12
 663 000a 22D0     		beq	.L25
 664 000c 0828     		cmp	r0, #8
 665 000e 17D0     		beq	.L26
 666              	.LVL34:
 359:.\Generated_Source\PSoC5/ADC_SAR_1.c ****             break;
 667              		.loc 1 359 0
 668 0010 0020     		movs	r0, #0
 669              	.LVL35:
 670 0012 FFF7FEFF 		bl	CyHalt
 671              	.LVL36:
 357:.\Generated_Source\PSoC5/ADC_SAR_1.c ****             /* Halt CPU in debug mode if resolution is out of valid range */
 672              		.loc 1 357 0
 673 0016 C423     		movs	r3, #196
 674              	.LVL37:
ARM GAS  C:\Users\Patrick\AppData\Local\Temp\ccRDuB7I.s 			page 27


 675              	.L24:
 362:.\Generated_Source\PSoC5/ADC_SAR_1.c **** 
 676              		.loc 1 362 0
 677 0018 134A     		ldr	r2, .L39
 678              	.LBB58:
 679              	.LBB59:
 620:.\Generated_Source\PSoC5/ADC_SAR_1.c ****     {
 680              		.loc 1 620 0
 681 001a 0A2C     		cmp	r4, #10
 682              	.LBE59:
 683              	.LBE58:
 362:.\Generated_Source\PSoC5/ADC_SAR_1.c **** 
 684              		.loc 1 362 0
 685 001c 1370     		strb	r3, [r2]
 686              	.LVL38:
 687              	.LBB63:
 688              	.LBB60:
 620:.\Generated_Source\PSoC5/ADC_SAR_1.c ****     {
 689              		.loc 1 620 0
 690 001e 15D0     		beq	.L28
 691 0020 0C2C     		cmp	r4, #12
 692 0022 1ED0     		beq	.L32
 693 0024 082C     		cmp	r4, #8
 694 0026 0ED0     		beq	.L30
 695              	.LVL39:
 653:.\Generated_Source\PSoC5/ADC_SAR_1.c ****             break;
 696              		.loc 1 653 0
 697 0028 0020     		movs	r0, #0
 698 002a FFF7FEFF 		bl	CyHalt
 699              	.LVL40:
 700 002e 0022     		movs	r2, #0
 701              	.LVL41:
 702              	.L29:
 656:.\Generated_Source\PSoC5/ADC_SAR_1.c ****     /* Calculate gain in counts per 10 volts with rounding */
 703              		.loc 1 656 0
 704 0030 0E4C     		ldr	r4, .L39+4
 658:.\Generated_Source\PSoC5/ADC_SAR_1.c ****                         ADC_SAR_1_DEFAULT_REF_VOLTAGE_MV) / (ADC_SAR_1_DEFAULT_REF_VOLTAGE_MV * 2))
 705              		.loc 1 658 0
 706 0032 0F48     		ldr	r0, .L39+8
 707              		.loc 1 664 0
 708 0034 0F49     		ldr	r1, .L39+12
 656:.\Generated_Source\PSoC5/ADC_SAR_1.c ****     /* Calculate gain in counts per 10 volts with rounding */
 709              		.loc 1 656 0
 710 0036 0023     		movs	r3, #0
 711 0038 2380     		strh	r3, [r4]	@ movhi
 658:.\Generated_Source\PSoC5/ADC_SAR_1.c ****                         ADC_SAR_1_DEFAULT_REF_VOLTAGE_MV) / (ADC_SAR_1_DEFAULT_REF_VOLTAGE_MV * 2))
 712              		.loc 1 658 0
 713 003a 0260     		str	r2, [r0]
 714              		.loc 1 664 0
 715 003c 0B80     		strh	r3, [r1]	@ movhi
 716 003e 10BD     		pop	{r4, pc}
 717              	.LVL42:
 718              	.L26:
 719              	.LBE60:
 720              	.LBE63:
 362:.\Generated_Source\PSoC5/ADC_SAR_1.c **** 
 721              		.loc 1 362 0
ARM GAS  C:\Users\Patrick\AppData\Local\Temp\ccRDuB7I.s 			page 28


 722 0040 094B     		ldr	r3, .L39
 723 0042 4422     		movs	r2, #68
 724 0044 1A70     		strb	r2, [r3]
 725              	.LVL43:
 726              	.L30:
 727              	.LBB64:
 728              	.LBB61:
 729 0046 4FF40072 		mov	r2, #512
 730 004a F1E7     		b	.L29
 731              	.LVL44:
 732              	.L28:
 620:.\Generated_Source\PSoC5/ADC_SAR_1.c ****     {
 733              		.loc 1 620 0
 734 004c 4FF40062 		mov	r2, #2048
 735 0050 EEE7     		b	.L29
 736              	.LVL45:
 737              	.L25:
 738              	.LBE61:
 739              	.LBE64:
 362:.\Generated_Source\PSoC5/ADC_SAR_1.c **** 
 740              		.loc 1 362 0
 741 0052 054B     		ldr	r3, .L39
 742 0054 C422     		movs	r2, #196
 743 0056 1A70     		strb	r2, [r3]
 744              	.LVL46:
 745 0058 4FF40052 		mov	r2, #8192
 746 005c E8E7     		b	.L29
 747              	.LVL47:
 748              	.L31:
 351:.\Generated_Source\PSoC5/ADC_SAR_1.c ****             break;
 749              		.loc 1 351 0
 750 005e 8423     		movs	r3, #132
 751 0060 DAE7     		b	.L24
 752              	.LVL48:
 753              	.L32:
 754              	.LBB65:
 755              	.LBB62:
 620:.\Generated_Source\PSoC5/ADC_SAR_1.c ****     {
 756              		.loc 1 620 0
 757 0062 4FF40052 		mov	r2, #8192
 758 0066 E3E7     		b	.L29
 759              	.L40:
 760              		.align	2
 761              	.L39:
 762 0068 02590040 		.word	1073764610
 763 006c 00000000 		.word	ADC_SAR_1_countsPerVolt
 764 0070 00000000 		.word	ADC_SAR_1_countsPer10Volt
 765 0074 00000000 		.word	ADC_SAR_1_shift
 766              	.LBE62:
 767              	.LBE65:
 768              		.cfi_endproc
 769              	.LFE5:
 770              		.size	ADC_SAR_1_SetResolution, .-ADC_SAR_1_SetResolution
 771              		.section	.text.ADC_SAR_1_StartConvert,"ax",%progbits
 772              		.align	2
 773              		.global	ADC_SAR_1_StartConvert
 774              		.thumb
ARM GAS  C:\Users\Patrick\AppData\Local\Temp\ccRDuB7I.s 			page 29


 775              		.thumb_func
 776              		.type	ADC_SAR_1_StartConvert, %function
 777              	ADC_SAR_1_StartConvert:
 778              	.LFB6:
 402:.\Generated_Source\PSoC5/ADC_SAR_1.c ****         #if(ADC_SAR_1_DEFAULT_CONV_MODE != ADC_SAR_1__FREE_RUNNING)  /* If software triggered mode 
 779              		.loc 1 402 0
 780              		.cfi_startproc
 781              		@ args = 0, pretend = 0, frame = 0
 782              		@ frame_needed = 0, uses_anonymous_args = 0
 783              		@ link register save eliminated.
 404:.\Generated_Source\PSoC5/ADC_SAR_1.c ****         #endif /* End ADC_SAR_1_DEFAULT_CONV_MODE */
 784              		.loc 1 404 0
 785 0000 044B     		ldr	r3, .L42
 786 0002 1A78     		ldrb	r2, [r3]	@ zero_extendqisi2
 787 0004 02F0FB02 		and	r2, r2, #251
 788 0008 1A70     		strb	r2, [r3]
 408:.\Generated_Source\PSoC5/ADC_SAR_1.c ****     }
 789              		.loc 1 408 0
 790 000a 1A78     		ldrb	r2, [r3]	@ zero_extendqisi2
 791 000c 42F00102 		orr	r2, r2, #1
 792 0010 1A70     		strb	r2, [r3]
 793 0012 7047     		bx	lr
 794              	.L43:
 795              		.align	2
 796              	.L42:
 797 0014 00590040 		.word	1073764608
 798              		.cfi_endproc
 799              	.LFE6:
 800              		.size	ADC_SAR_1_StartConvert, .-ADC_SAR_1_StartConvert
 801              		.section	.text.ADC_SAR_1_StopConvert,"ax",%progbits
 802              		.align	2
 803              		.global	ADC_SAR_1_StopConvert
 804              		.thumb
 805              		.thumb_func
 806              		.type	ADC_SAR_1_StopConvert, %function
 807              	ADC_SAR_1_StopConvert:
 808              	.LFB7:
 436:.\Generated_Source\PSoC5/ADC_SAR_1.c ****         /* Stop all conversions */
 809              		.loc 1 436 0
 810              		.cfi_startproc
 811              		@ args = 0, pretend = 0, frame = 0
 812              		@ frame_needed = 0, uses_anonymous_args = 0
 813              		@ link register save eliminated.
 438:.\Generated_Source\PSoC5/ADC_SAR_1.c **** 
 814              		.loc 1 438 0
 815 0000 044B     		ldr	r3, .L45
 816 0002 1A78     		ldrb	r2, [r3]	@ zero_extendqisi2
 817 0004 02F0FE02 		and	r2, r2, #254
 818 0008 1A70     		strb	r2, [r3]
 442:.\Generated_Source\PSoC5/ADC_SAR_1.c ****         #endif /* End ADC_SAR_1_DEFAULT_CONV_MODE */
 819              		.loc 1 442 0
 820 000a 1A78     		ldrb	r2, [r3]	@ zero_extendqisi2
 821 000c 42F00402 		orr	r2, r2, #4
 822 0010 1A70     		strb	r2, [r3]
 823 0012 7047     		bx	lr
 824              	.L46:
 825              		.align	2
ARM GAS  C:\Users\Patrick\AppData\Local\Temp\ccRDuB7I.s 			page 30


 826              	.L45:
 827 0014 00590040 		.word	1073764608
 828              		.cfi_endproc
 829              	.LFE7:
 830              		.size	ADC_SAR_1_StopConvert, .-ADC_SAR_1_StopConvert
 831              		.section	.text.ADC_SAR_1_IsEndConversion,"ax",%progbits
 832              		.align	2
 833              		.global	ADC_SAR_1_IsEndConversion
 834              		.thumb
 835              		.thumb_func
 836              		.type	ADC_SAR_1_IsEndConversion, %function
 837              	ADC_SAR_1_IsEndConversion:
 838              	.LFB8:
 476:.\Generated_Source\PSoC5/ADC_SAR_1.c ****     uint8 status;
 839              		.loc 1 476 0
 840              		.cfi_startproc
 841              		@ args = 0, pretend = 0, frame = 0
 842              		@ frame_needed = 0, uses_anonymous_args = 0
 843              	.LVL49:
 844 0000 08B5     		push	{r3, lr}
 845              		.cfi_def_cfa_offset 8
 846              		.cfi_offset 3, -8
 847              		.cfi_offset 14, -4
 848 0002 50B9     		cbnz	r0, .L54
 481:.\Generated_Source\PSoC5/ADC_SAR_1.c ****     } while ((status != ADC_SAR_1_SAR_EOF_1) && (retMode == ADC_SAR_1_WAIT_FOR_RESULT));
 849              		.loc 1 481 0
 850 0004 084A     		ldr	r2, .L57
 851              	.L48:
 481:.\Generated_Source\PSoC5/ADC_SAR_1.c ****     } while ((status != ADC_SAR_1_SAR_EOF_1) && (retMode == ADC_SAR_1_WAIT_FOR_RESULT));
 852              		.loc 1 481 0 is_stmt 0 discriminator 2
 853 0006 1378     		ldrb	r3, [r2]	@ zero_extendqisi2
 854              	.LVL50:
 482:.\Generated_Source\PSoC5/ADC_SAR_1.c ****     /* If convertion complete, wait until EOF bit released */
 855              		.loc 1 482 0 is_stmt 1 discriminator 2
 856 0008 DB07     		lsls	r3, r3, #31
 857              	.LVL51:
 858 000a FCD5     		bpl	.L48
 859              	.L50:
 487:.\Generated_Source\PSoC5/ADC_SAR_1.c ****         /* Do the unconditional read operation of the CSR1 register to make sure the EOC bit has be
 860              		.loc 1 487 0
 861 000c 0120     		movs	r0, #1
 862              	.LVL52:
 863 000e FFF7FEFF 		bl	CyDelayUs
 864              	.LVL53:
 489:.\Generated_Source\PSoC5/ADC_SAR_1.c ****     }
 865              		.loc 1 489 0
 866 0012 054B     		ldr	r3, .L57
 867 0014 0120     		movs	r0, #1
 868 0016 1B78     		ldrb	r3, [r3]	@ zero_extendqisi2
 493:.\Generated_Source\PSoC5/ADC_SAR_1.c **** 
 869              		.loc 1 493 0
 870 0018 08BD     		pop	{r3, pc}
 871              	.LVL54:
 872              	.L54:
 481:.\Generated_Source\PSoC5/ADC_SAR_1.c ****     } while ((status != ADC_SAR_1_SAR_EOF_1) && (retMode == ADC_SAR_1_WAIT_FOR_RESULT));
 873              		.loc 1 481 0
 874 001a 034B     		ldr	r3, .L57
ARM GAS  C:\Users\Patrick\AppData\Local\Temp\ccRDuB7I.s 			page 31


 875 001c 1B78     		ldrb	r3, [r3]	@ zero_extendqisi2
 876              	.LVL55:
 482:.\Generated_Source\PSoC5/ADC_SAR_1.c ****     /* If convertion complete, wait until EOF bit released */
 877              		.loc 1 482 0
 878 001e DA07     		lsls	r2, r3, #31
 879 0020 F4D4     		bmi	.L50
 880 0022 0020     		movs	r0, #0
 881              	.LVL56:
 882 0024 08BD     		pop	{r3, pc}
 883              	.LVL57:
 884              	.L58:
 885 0026 00BF     		.align	2
 886              	.L57:
 887 0028 01590040 		.word	1073764609
 888              		.cfi_endproc
 889              	.LFE8:
 890              		.size	ADC_SAR_1_IsEndConversion, .-ADC_SAR_1_IsEndConversion
 891              		.section	.text.ADC_SAR_1_GetResult8,"ax",%progbits
 892              		.align	2
 893              		.global	ADC_SAR_1_GetResult8
 894              		.thumb
 895              		.thumb_func
 896              		.type	ADC_SAR_1_GetResult8, %function
 897              	ADC_SAR_1_GetResult8:
 898              	.LFB9:
 521:.\Generated_Source\PSoC5/ADC_SAR_1.c ****     return( (int8)ADC_SAR_1_SAR_WRK0_REG - (int8)ADC_SAR_1_shift);
 899              		.loc 1 521 0
 900              		.cfi_startproc
 901              		@ args = 0, pretend = 0, frame = 0
 902              		@ frame_needed = 0, uses_anonymous_args = 0
 903              		@ link register save eliminated.
 522:.\Generated_Source\PSoC5/ADC_SAR_1.c **** }
 904              		.loc 1 522 0
 905 0000 034A     		ldr	r2, .L60
 906 0002 044B     		ldr	r3, .L60+4
 907 0004 1B78     		ldrb	r3, [r3]	@ zero_extendqisi2
 908 0006 1088     		ldrh	r0, [r2]
 909 0008 181A     		subs	r0, r3, r0
 523:.\Generated_Source\PSoC5/ADC_SAR_1.c **** 
 910              		.loc 1 523 0
 911 000a 40B2     		sxtb	r0, r0
 912 000c 7047     		bx	lr
 913              	.L61:
 914 000e 00BF     		.align	2
 915              	.L60:
 916 0010 00000000 		.word	ADC_SAR_1_shift
 917 0014 A05B0040 		.word	1073765280
 918              		.cfi_endproc
 919              	.LFE9:
 920              		.size	ADC_SAR_1_GetResult8, .-ADC_SAR_1_GetResult8
 921              		.section	.text.ADC_SAR_1_GetResult16,"ax",%progbits
 922              		.align	2
 923              		.global	ADC_SAR_1_GetResult16
 924              		.thumb
 925              		.thumb_func
 926              		.type	ADC_SAR_1_GetResult16, %function
 927              	ADC_SAR_1_GetResult16:
ARM GAS  C:\Users\Patrick\AppData\Local\Temp\ccRDuB7I.s 			page 32


 928              	.LFB10:
 551:.\Generated_Source\PSoC5/ADC_SAR_1.c ****     uint16 res;
 929              		.loc 1 551 0
 930              		.cfi_startproc
 931              		@ args = 0, pretend = 0, frame = 0
 932              		@ frame_needed = 0, uses_anonymous_args = 0
 933              		@ link register save eliminated.
 556:.\Generated_Source\PSoC5/ADC_SAR_1.c **** }
 934              		.loc 1 556 0
 935 0000 034A     		ldr	r2, .L63
 554:.\Generated_Source\PSoC5/ADC_SAR_1.c **** 
 936              		.loc 1 554 0
 937 0002 044B     		ldr	r3, .L63+4
 938 0004 1B88     		ldrh	r3, [r3]
 939              	.LVL58:
 556:.\Generated_Source\PSoC5/ADC_SAR_1.c **** }
 940              		.loc 1 556 0
 941 0006 1088     		ldrh	r0, [r2]
 942 0008 181A     		subs	r0, r3, r0
 557:.\Generated_Source\PSoC5/ADC_SAR_1.c **** 
 943              		.loc 1 557 0
 944 000a 00B2     		sxth	r0, r0
 945 000c 7047     		bx	lr
 946              	.L64:
 947 000e 00BF     		.align	2
 948              	.L63:
 949 0010 00000000 		.word	ADC_SAR_1_shift
 950 0014 A05B0040 		.word	1073765280
 951              		.cfi_endproc
 952              	.LFE10:
 953              		.size	ADC_SAR_1_GetResult16, .-ADC_SAR_1_GetResult16
 954              		.section	.text.ADC_SAR_1_SetOffset,"ax",%progbits
 955              		.align	2
 956              		.global	ADC_SAR_1_SetOffset
 957              		.thumb
 958              		.thumb_func
 959              		.type	ADC_SAR_1_SetOffset, %function
 960              	ADC_SAR_1_SetOffset:
 961              	.LFB11:
 586:.\Generated_Source\PSoC5/ADC_SAR_1.c ****     ADC_SAR_1_offset = offset;
 962              		.loc 1 586 0
 963              		.cfi_startproc
 964              		@ args = 0, pretend = 0, frame = 0
 965              		@ frame_needed = 0, uses_anonymous_args = 0
 966              		@ link register save eliminated.
 967              	.LVL59:
 587:.\Generated_Source\PSoC5/ADC_SAR_1.c **** }
 968              		.loc 1 587 0
 969 0000 014B     		ldr	r3, .L66
 970 0002 1880     		strh	r0, [r3]	@ movhi
 971 0004 7047     		bx	lr
 972              	.L67:
 973 0006 00BF     		.align	2
 974              	.L66:
 975 0008 00000000 		.word	ADC_SAR_1_offset
 976              		.cfi_endproc
 977              	.LFE11:
ARM GAS  C:\Users\Patrick\AppData\Local\Temp\ccRDuB7I.s 			page 33


 978              		.size	ADC_SAR_1_SetOffset, .-ADC_SAR_1_SetOffset
 979              		.section	.text.ADC_SAR_1_SetGain,"ax",%progbits
 980              		.align	2
 981              		.global	ADC_SAR_1_SetGain
 982              		.thumb
 983              		.thumb_func
 984              		.type	ADC_SAR_1_SetGain, %function
 985              	ADC_SAR_1_SetGain:
 986              	.LFB13:
 665:.\Generated_Source\PSoC5/ADC_SAR_1.c ****     #else
 666:.\Generated_Source\PSoC5/ADC_SAR_1.c ****         ADC_SAR_1_shift = diff_zero;
 667:.\Generated_Source\PSoC5/ADC_SAR_1.c ****     #endif /* End ADC_SAR_1_DEFAULT_RANGE */
 668:.\Generated_Source\PSoC5/ADC_SAR_1.c **** }
 669:.\Generated_Source\PSoC5/ADC_SAR_1.c **** 
 670:.\Generated_Source\PSoC5/ADC_SAR_1.c **** 
 671:.\Generated_Source\PSoC5/ADC_SAR_1.c **** /*******************************************************************************
 672:.\Generated_Source\PSoC5/ADC_SAR_1.c **** * Function Name: ADC_SAR_1_SetGain
 673:.\Generated_Source\PSoC5/ADC_SAR_1.c **** ********************************************************************************
 674:.\Generated_Source\PSoC5/ADC_SAR_1.c **** *
 675:.\Generated_Source\PSoC5/ADC_SAR_1.c **** * Summary:
 676:.\Generated_Source\PSoC5/ADC_SAR_1.c **** *  Sets the ADC gain in counts per volt for the voltage conversion functions
 677:.\Generated_Source\PSoC5/ADC_SAR_1.c **** *  that follow. This value is set by default by the reference and input range
 678:.\Generated_Source\PSoC5/ADC_SAR_1.c **** *  settings. It should only be used to further calibrate the ADC with a known
 679:.\Generated_Source\PSoC5/ADC_SAR_1.c **** *  input or if the ADC is using an external reference.
 680:.\Generated_Source\PSoC5/ADC_SAR_1.c **** *
 681:.\Generated_Source\PSoC5/ADC_SAR_1.c **** * Parameters:
 682:.\Generated_Source\PSoC5/ADC_SAR_1.c **** *  int16 adcGain counts per volt
 683:.\Generated_Source\PSoC5/ADC_SAR_1.c **** *
 684:.\Generated_Source\PSoC5/ADC_SAR_1.c **** * Return:
 685:.\Generated_Source\PSoC5/ADC_SAR_1.c **** *  None.
 686:.\Generated_Source\PSoC5/ADC_SAR_1.c **** *
 687:.\Generated_Source\PSoC5/ADC_SAR_1.c **** * Global Variables:
 688:.\Generated_Source\PSoC5/ADC_SAR_1.c **** *  ADC_SAR_1_countsPer10Volt variable modified. This variable is used
 689:.\Generated_Source\PSoC5/ADC_SAR_1.c **** *  for gain calibration purpose.
 690:.\Generated_Source\PSoC5/ADC_SAR_1.c **** *
 691:.\Generated_Source\PSoC5/ADC_SAR_1.c **** *******************************************************************************/
 692:.\Generated_Source\PSoC5/ADC_SAR_1.c **** void ADC_SAR_1_SetGain(int16 adcGain)
 693:.\Generated_Source\PSoC5/ADC_SAR_1.c **** {
 987              		.loc 1 693 0
 988              		.cfi_startproc
 989              		@ args = 0, pretend = 0, frame = 0
 990              		@ frame_needed = 0, uses_anonymous_args = 0
 991              		@ link register save eliminated.
 992              	.LVL60:
 694:.\Generated_Source\PSoC5/ADC_SAR_1.c ****     ADC_SAR_1_countsPer10Volt = (int32)adcGain * 10;
 993              		.loc 1 694 0
 994 0000 00EB8000 		add	r0, r0, r0, lsl #2
 995              	.LVL61:
 996 0004 014B     		ldr	r3, .L69
 997 0006 4000     		lsls	r0, r0, #1
 998 0008 1860     		str	r0, [r3]
 999 000a 7047     		bx	lr
 1000              	.L70:
 1001              		.align	2
 1002              	.L69:
 1003 000c 00000000 		.word	ADC_SAR_1_countsPer10Volt
 1004              		.cfi_endproc
ARM GAS  C:\Users\Patrick\AppData\Local\Temp\ccRDuB7I.s 			page 34


 1005              	.LFE13:
 1006              		.size	ADC_SAR_1_SetGain, .-ADC_SAR_1_SetGain
 1007              		.section	.text.ADC_SAR_1_SetScaledGain,"ax",%progbits
 1008              		.align	2
 1009              		.global	ADC_SAR_1_SetScaledGain
 1010              		.thumb
 1011              		.thumb_func
 1012              		.type	ADC_SAR_1_SetScaledGain, %function
 1013              	ADC_SAR_1_SetScaledGain:
 1014              	.LFB14:
 695:.\Generated_Source\PSoC5/ADC_SAR_1.c **** }
 696:.\Generated_Source\PSoC5/ADC_SAR_1.c **** 
 697:.\Generated_Source\PSoC5/ADC_SAR_1.c **** 
 698:.\Generated_Source\PSoC5/ADC_SAR_1.c **** /*******************************************************************************
 699:.\Generated_Source\PSoC5/ADC_SAR_1.c **** * Function Name: ADC_SAR_1_SetScaledGain
 700:.\Generated_Source\PSoC5/ADC_SAR_1.c **** ********************************************************************************
 701:.\Generated_Source\PSoC5/ADC_SAR_1.c **** *
 702:.\Generated_Source\PSoC5/ADC_SAR_1.c **** * Summary:
 703:.\Generated_Source\PSoC5/ADC_SAR_1.c **** *  Sets the ADC gain in counts per 10 volt for the voltage conversion functions
 704:.\Generated_Source\PSoC5/ADC_SAR_1.c **** *  that follow. This value is set by default by the reference and input range
 705:.\Generated_Source\PSoC5/ADC_SAR_1.c **** *  settings. It should only be used to further calibrate the ADC with a known
 706:.\Generated_Source\PSoC5/ADC_SAR_1.c **** *  input or if the ADC is using an external reference.
 707:.\Generated_Source\PSoC5/ADC_SAR_1.c **** *
 708:.\Generated_Source\PSoC5/ADC_SAR_1.c **** * Parameters:
 709:.\Generated_Source\PSoC5/ADC_SAR_1.c **** *  int32 adcGain  counts per 10 volt
 710:.\Generated_Source\PSoC5/ADC_SAR_1.c **** *
 711:.\Generated_Source\PSoC5/ADC_SAR_1.c **** * Return:
 712:.\Generated_Source\PSoC5/ADC_SAR_1.c **** *  None.
 713:.\Generated_Source\PSoC5/ADC_SAR_1.c **** *
 714:.\Generated_Source\PSoC5/ADC_SAR_1.c **** * Global Variables:
 715:.\Generated_Source\PSoC5/ADC_SAR_1.c **** *  ADC_SAR_1_countsPer10Volt variable modified. This variable is used
 716:.\Generated_Source\PSoC5/ADC_SAR_1.c **** *  for gain calibration purpose.
 717:.\Generated_Source\PSoC5/ADC_SAR_1.c **** *
 718:.\Generated_Source\PSoC5/ADC_SAR_1.c **** *******************************************************************************/
 719:.\Generated_Source\PSoC5/ADC_SAR_1.c **** void ADC_SAR_1_SetScaledGain(int32 adcGain)
 720:.\Generated_Source\PSoC5/ADC_SAR_1.c **** {
 1015              		.loc 1 720 0
 1016              		.cfi_startproc
 1017              		@ args = 0, pretend = 0, frame = 0
 1018              		@ frame_needed = 0, uses_anonymous_args = 0
 1019              		@ link register save eliminated.
 1020              	.LVL62:
 721:.\Generated_Source\PSoC5/ADC_SAR_1.c ****     ADC_SAR_1_countsPer10Volt = adcGain;
 1021              		.loc 1 721 0
 1022 0000 014B     		ldr	r3, .L72
 1023 0002 1860     		str	r0, [r3]
 1024 0004 7047     		bx	lr
 1025              	.L73:
 1026 0006 00BF     		.align	2
 1027              	.L72:
 1028 0008 00000000 		.word	ADC_SAR_1_countsPer10Volt
 1029              		.cfi_endproc
 1030              	.LFE14:
 1031              		.size	ADC_SAR_1_SetScaledGain, .-ADC_SAR_1_SetScaledGain
 1032              		.section	.text.ADC_SAR_1_CountsTo_mVolts,"ax",%progbits
 1033              		.align	2
 1034              		.global	ADC_SAR_1_CountsTo_mVolts
ARM GAS  C:\Users\Patrick\AppData\Local\Temp\ccRDuB7I.s 			page 35


 1035              		.thumb
 1036              		.thumb_func
 1037              		.type	ADC_SAR_1_CountsTo_mVolts, %function
 1038              	ADC_SAR_1_CountsTo_mVolts:
 1039              	.LFB15:
 722:.\Generated_Source\PSoC5/ADC_SAR_1.c **** }
 723:.\Generated_Source\PSoC5/ADC_SAR_1.c **** 
 724:.\Generated_Source\PSoC5/ADC_SAR_1.c **** 
 725:.\Generated_Source\PSoC5/ADC_SAR_1.c **** /*******************************************************************************
 726:.\Generated_Source\PSoC5/ADC_SAR_1.c **** * Function Name: ADC_SAR_1_CountsTo_mVolts
 727:.\Generated_Source\PSoC5/ADC_SAR_1.c **** ********************************************************************************
 728:.\Generated_Source\PSoC5/ADC_SAR_1.c **** *
 729:.\Generated_Source\PSoC5/ADC_SAR_1.c **** * Summary:
 730:.\Generated_Source\PSoC5/ADC_SAR_1.c **** *  Converts the ADC output to millivolts as a 16-bit integer.
 731:.\Generated_Source\PSoC5/ADC_SAR_1.c **** *
 732:.\Generated_Source\PSoC5/ADC_SAR_1.c **** * Parameters:
 733:.\Generated_Source\PSoC5/ADC_SAR_1.c **** *  int16 adcCounts:  Result from the ADC conversion
 734:.\Generated_Source\PSoC5/ADC_SAR_1.c **** *
 735:.\Generated_Source\PSoC5/ADC_SAR_1.c **** * Return:
 736:.\Generated_Source\PSoC5/ADC_SAR_1.c **** *  int16 Result in mVolts
 737:.\Generated_Source\PSoC5/ADC_SAR_1.c **** *
 738:.\Generated_Source\PSoC5/ADC_SAR_1.c **** * Global Variables:
 739:.\Generated_Source\PSoC5/ADC_SAR_1.c **** *  ADC_SAR_1_offset variable used.
 740:.\Generated_Source\PSoC5/ADC_SAR_1.c **** *  ADC_SAR_1_countsPer10Volt variable used.
 741:.\Generated_Source\PSoC5/ADC_SAR_1.c **** *
 742:.\Generated_Source\PSoC5/ADC_SAR_1.c **** *******************************************************************************/
 743:.\Generated_Source\PSoC5/ADC_SAR_1.c **** int16 ADC_SAR_1_CountsTo_mVolts(int16 adcCounts)
 744:.\Generated_Source\PSoC5/ADC_SAR_1.c **** {
 1040              		.loc 1 744 0
 1041              		.cfi_startproc
 1042              		@ args = 0, pretend = 0, frame = 0
 1043              		@ frame_needed = 0, uses_anonymous_args = 0
 1044              		@ link register save eliminated.
 1045              	.LVL63:
 745:.\Generated_Source\PSoC5/ADC_SAR_1.c ****     int16 mVolts;
 746:.\Generated_Source\PSoC5/ADC_SAR_1.c ****     int32 countsPer10Volt;
 747:.\Generated_Source\PSoC5/ADC_SAR_1.c **** 
 748:.\Generated_Source\PSoC5/ADC_SAR_1.c ****     if(ADC_SAR_1_countsPerVolt != 0)
 1046              		.loc 1 748 0
 1047 0000 0F4A     		ldr	r2, .L79
 1048 0002 1388     		ldrh	r3, [r2]
 1049 0004 9BB2     		uxth	r3, r3
 1050 0006 C3B1     		cbz	r3, .L75
 749:.\Generated_Source\PSoC5/ADC_SAR_1.c ****     {   /* Support obsolete method */
 750:.\Generated_Source\PSoC5/ADC_SAR_1.c ****         countsPer10Volt = (int32)ADC_SAR_1_countsPerVolt * 10;
 1051              		.loc 1 750 0
 1052 0008 1288     		ldrh	r2, [r2]
 1053 000a 12B2     		sxth	r2, r2
 1054 000c 02EB8202 		add	r2, r2, r2, lsl #2
 1055 0010 5200     		lsls	r2, r2, #1
 1056              	.LVL64:
 1057              	.L76:
 751:.\Generated_Source\PSoC5/ADC_SAR_1.c ****     }
 752:.\Generated_Source\PSoC5/ADC_SAR_1.c ****     else
 753:.\Generated_Source\PSoC5/ADC_SAR_1.c ****     {
 754:.\Generated_Source\PSoC5/ADC_SAR_1.c ****         countsPer10Volt = ADC_SAR_1_countsPer10Volt;
 755:.\Generated_Source\PSoC5/ADC_SAR_1.c ****     }
ARM GAS  C:\Users\Patrick\AppData\Local\Temp\ccRDuB7I.s 			page 36


 756:.\Generated_Source\PSoC5/ADC_SAR_1.c **** 
 757:.\Generated_Source\PSoC5/ADC_SAR_1.c ****     /* Subtract ADC offset */
 758:.\Generated_Source\PSoC5/ADC_SAR_1.c ****     adcCounts -= ADC_SAR_1_offset;
 759:.\Generated_Source\PSoC5/ADC_SAR_1.c ****     /* Convert to millivolts with rounding */
 760:.\Generated_Source\PSoC5/ADC_SAR_1.c ****     mVolts = (int16)( (( (int32)adcCounts * ADC_SAR_1_10MV_COUNTS ) + ( (adcCounts > 0) ?
 1058              		.loc 1 760 0
 1059 0012 42F21071 		movw	r1, #10000
 758:.\Generated_Source\PSoC5/ADC_SAR_1.c ****     /* Convert to millivolts with rounding */
 1060              		.loc 1 758 0
 1061 0016 0B4B     		ldr	r3, .L79+4
 1062 0018 1B88     		ldrh	r3, [r3]
 1063 001a C31A     		subs	r3, r0, r3
 1064 001c 1BB2     		sxth	r3, r3
 1065              	.LVL65:
 1066              		.loc 1 760 0
 1067 001e 01FB03F0 		mul	r0, r1, r3
 761:.\Generated_Source\PSoC5/ADC_SAR_1.c ****                        (countsPer10Volt / 2) : (-(countsPer10Volt / 2)) )) / countsPer10Volt);
 1068              		.loc 1 761 0
 1069 0022 002B     		cmp	r3, #0
 1070 0024 02EBD273 		add	r3, r2, r2, lsr #31
 1071              	.LVL66:
 1072 0028 4FEA6303 		asr	r3, r3, #1
 1073 002c D8BF     		it	le
 1074 002e 5B42     		rsble	r3, r3, #0
 1075              	.LVL67:
 760:.\Generated_Source\PSoC5/ADC_SAR_1.c ****                        (countsPer10Volt / 2) : (-(countsPer10Volt / 2)) )) / countsPer10Volt);
 1076              		.loc 1 760 0
 1077 0030 1844     		add	r0, r0, r3
 1078              	.LVL68:
 1079              		.loc 1 761 0
 1080 0032 90FBF2F0 		sdiv	r0, r0, r2
 762:.\Generated_Source\PSoC5/ADC_SAR_1.c **** 
 763:.\Generated_Source\PSoC5/ADC_SAR_1.c ****     return( mVolts );
 764:.\Generated_Source\PSoC5/ADC_SAR_1.c **** }
 1081              		.loc 1 764 0
 1082 0036 00B2     		sxth	r0, r0
 1083 0038 7047     		bx	lr
 1084              	.LVL69:
 1085              	.L75:
 754:.\Generated_Source\PSoC5/ADC_SAR_1.c ****     }
 1086              		.loc 1 754 0
 1087 003a 034B     		ldr	r3, .L79+8
 1088 003c 1A68     		ldr	r2, [r3]
 1089              	.LVL70:
 1090 003e E8E7     		b	.L76
 1091              	.L80:
 1092              		.align	2
 1093              	.L79:
 1094 0040 00000000 		.word	ADC_SAR_1_countsPerVolt
 1095 0044 00000000 		.word	ADC_SAR_1_offset
 1096 0048 00000000 		.word	ADC_SAR_1_countsPer10Volt
 1097              		.cfi_endproc
 1098              	.LFE15:
 1099              		.size	ADC_SAR_1_CountsTo_mVolts, .-ADC_SAR_1_CountsTo_mVolts
 1100              		.global	__aeabi_ldivmod
 1101              		.section	.text.ADC_SAR_1_CountsTo_uVolts,"ax",%progbits
 1102              		.align	2
ARM GAS  C:\Users\Patrick\AppData\Local\Temp\ccRDuB7I.s 			page 37


 1103              		.global	ADC_SAR_1_CountsTo_uVolts
 1104              		.thumb
 1105              		.thumb_func
 1106              		.type	ADC_SAR_1_CountsTo_uVolts, %function
 1107              	ADC_SAR_1_CountsTo_uVolts:
 1108              	.LFB16:
 765:.\Generated_Source\PSoC5/ADC_SAR_1.c **** 
 766:.\Generated_Source\PSoC5/ADC_SAR_1.c **** 
 767:.\Generated_Source\PSoC5/ADC_SAR_1.c **** /*******************************************************************************
 768:.\Generated_Source\PSoC5/ADC_SAR_1.c **** * Function Name: ADC_SAR_1_CountsTo_uVolts
 769:.\Generated_Source\PSoC5/ADC_SAR_1.c **** ********************************************************************************
 770:.\Generated_Source\PSoC5/ADC_SAR_1.c **** *
 771:.\Generated_Source\PSoC5/ADC_SAR_1.c **** * Summary:
 772:.\Generated_Source\PSoC5/ADC_SAR_1.c **** *  Converts the ADC output to microvolts as a 32-bit integer.
 773:.\Generated_Source\PSoC5/ADC_SAR_1.c **** *
 774:.\Generated_Source\PSoC5/ADC_SAR_1.c **** * Parameters:
 775:.\Generated_Source\PSoC5/ADC_SAR_1.c **** *  int16 adcCounts: Result from the ADC conversion
 776:.\Generated_Source\PSoC5/ADC_SAR_1.c **** *
 777:.\Generated_Source\PSoC5/ADC_SAR_1.c **** * Return:
 778:.\Generated_Source\PSoC5/ADC_SAR_1.c **** *  int32 Result in micro Volts
 779:.\Generated_Source\PSoC5/ADC_SAR_1.c **** *
 780:.\Generated_Source\PSoC5/ADC_SAR_1.c **** * Global Variables:
 781:.\Generated_Source\PSoC5/ADC_SAR_1.c **** *  ADC_SAR_1_offset variable used.
 782:.\Generated_Source\PSoC5/ADC_SAR_1.c **** *  ADC_SAR_1_countsPer10Volt used to convert ADC counts to uVolts.
 783:.\Generated_Source\PSoC5/ADC_SAR_1.c **** *
 784:.\Generated_Source\PSoC5/ADC_SAR_1.c **** *******************************************************************************/
 785:.\Generated_Source\PSoC5/ADC_SAR_1.c **** int32 ADC_SAR_1_CountsTo_uVolts(int16 adcCounts)
 786:.\Generated_Source\PSoC5/ADC_SAR_1.c **** {
 1109              		.loc 1 786 0
 1110              		.cfi_startproc
 1111              		@ args = 0, pretend = 0, frame = 0
 1112              		@ frame_needed = 0, uses_anonymous_args = 0
 1113              	.LVL71:
 787:.\Generated_Source\PSoC5/ADC_SAR_1.c **** 
 788:.\Generated_Source\PSoC5/ADC_SAR_1.c ****     int64 uVolts;
 789:.\Generated_Source\PSoC5/ADC_SAR_1.c ****     int32 countsPer10Volt;
 790:.\Generated_Source\PSoC5/ADC_SAR_1.c **** 
 791:.\Generated_Source\PSoC5/ADC_SAR_1.c ****     if(ADC_SAR_1_countsPerVolt != 0)
 1114              		.loc 1 791 0
 1115 0000 0D4A     		ldr	r2, .L86
 786:.\Generated_Source\PSoC5/ADC_SAR_1.c **** 
 1116              		.loc 1 786 0
 1117 0002 70B5     		push	{r4, r5, r6, lr}
 1118              		.cfi_def_cfa_offset 16
 1119              		.cfi_offset 4, -16
 1120              		.cfi_offset 5, -12
 1121              		.cfi_offset 6, -8
 1122              		.cfi_offset 14, -4
 1123              		.loc 1 791 0
 1124 0004 1388     		ldrh	r3, [r2]
 1125 0006 9BB2     		uxth	r3, r3
 1126 0008 7BB9     		cbnz	r3, .L85
 792:.\Generated_Source\PSoC5/ADC_SAR_1.c ****     {   /* Support obsolete method */
 793:.\Generated_Source\PSoC5/ADC_SAR_1.c ****         countsPer10Volt = (int32)ADC_SAR_1_countsPerVolt * 10;
 794:.\Generated_Source\PSoC5/ADC_SAR_1.c ****     }
 795:.\Generated_Source\PSoC5/ADC_SAR_1.c ****     else
 796:.\Generated_Source\PSoC5/ADC_SAR_1.c ****     {
ARM GAS  C:\Users\Patrick\AppData\Local\Temp\ccRDuB7I.s 			page 38


 797:.\Generated_Source\PSoC5/ADC_SAR_1.c ****         countsPer10Volt = ADC_SAR_1_countsPer10Volt;
 1127              		.loc 1 797 0
 1128 000a 0C4B     		ldr	r3, .L86+4
 1129 000c 1A68     		ldr	r2, [r3]
 1130              	.LVL72:
 1131              	.L83:
 798:.\Generated_Source\PSoC5/ADC_SAR_1.c ****     }
 799:.\Generated_Source\PSoC5/ADC_SAR_1.c **** 
 800:.\Generated_Source\PSoC5/ADC_SAR_1.c ****     /* Subtract ADC offset */
 801:.\Generated_Source\PSoC5/ADC_SAR_1.c ****     adcCounts -= ADC_SAR_1_offset;
 1132              		.loc 1 801 0
 1133 000e 0C4B     		ldr	r3, .L86+8
 802:.\Generated_Source\PSoC5/ADC_SAR_1.c ****     /* To convert adcCounts to microVolts it is required to be multiplied
 803:.\Generated_Source\PSoC5/ADC_SAR_1.c ****     *  on 10 million and later divide on gain in counts per 10V.
 804:.\Generated_Source\PSoC5/ADC_SAR_1.c ****     */
 805:.\Generated_Source\PSoC5/ADC_SAR_1.c ****     uVolts = (( (int64)adcCounts * ADC_SAR_1_10UV_COUNTS ) / countsPer10Volt);
 1134              		.loc 1 805 0
 1135 0010 0C4E     		ldr	r6, .L86+12
 801:.\Generated_Source\PSoC5/ADC_SAR_1.c ****     /* To convert adcCounts to microVolts it is required to be multiplied
 1136              		.loc 1 801 0
 1137 0012 1C88     		ldrh	r4, [r3]
 1138              	.LVL73:
 1139              		.loc 1 805 0
 1140 0014 D317     		asrs	r3, r2, #31
 1141 0016 041B     		subs	r4, r0, r4
 1142              	.LVL74:
 1143 0018 24B2     		sxth	r4, r4
 1144 001a A4FB0601 		umull	r0, r1, r4, r6
 1145 001e E517     		asrs	r5, r4, #31
 1146 0020 06FB0511 		mla	r1, r6, r5, r1
 1147 0024 FFF7FEFF 		bl	__aeabi_ldivmod
 1148              	.LVL75:
 806:.\Generated_Source\PSoC5/ADC_SAR_1.c **** 
 807:.\Generated_Source\PSoC5/ADC_SAR_1.c ****     return( uVolts );
 808:.\Generated_Source\PSoC5/ADC_SAR_1.c **** }
 1149              		.loc 1 808 0
 1150 0028 70BD     		pop	{r4, r5, r6, pc}
 1151              	.LVL76:
 1152              	.L85:
 793:.\Generated_Source\PSoC5/ADC_SAR_1.c ****     }
 1153              		.loc 1 793 0
 1154 002a 1288     		ldrh	r2, [r2]
 1155 002c 12B2     		sxth	r2, r2
 1156 002e 02EB8202 		add	r2, r2, r2, lsl #2
 1157 0032 5200     		lsls	r2, r2, #1
 1158              	.LVL77:
 1159 0034 EBE7     		b	.L83
 1160              	.L87:
 1161 0036 00BF     		.align	2
 1162              	.L86:
 1163 0038 00000000 		.word	ADC_SAR_1_countsPerVolt
 1164 003c 00000000 		.word	ADC_SAR_1_countsPer10Volt
 1165 0040 00000000 		.word	ADC_SAR_1_offset
 1166 0044 80969800 		.word	10000000
 1167              		.cfi_endproc
 1168              	.LFE16:
 1169              		.size	ADC_SAR_1_CountsTo_uVolts, .-ADC_SAR_1_CountsTo_uVolts
ARM GAS  C:\Users\Patrick\AppData\Local\Temp\ccRDuB7I.s 			page 39


 1170              		.global	__aeabi_i2f
 1171              		.global	__aeabi_fmul
 1172              		.global	__aeabi_fdiv
 1173              		.section	.text.ADC_SAR_1_CountsTo_Volts,"ax",%progbits
 1174              		.align	2
 1175              		.global	ADC_SAR_1_CountsTo_Volts
 1176              		.thumb
 1177              		.thumb_func
 1178              		.type	ADC_SAR_1_CountsTo_Volts, %function
 1179              	ADC_SAR_1_CountsTo_Volts:
 1180              	.LFB17:
 809:.\Generated_Source\PSoC5/ADC_SAR_1.c **** 
 810:.\Generated_Source\PSoC5/ADC_SAR_1.c **** 
 811:.\Generated_Source\PSoC5/ADC_SAR_1.c **** /*******************************************************************************
 812:.\Generated_Source\PSoC5/ADC_SAR_1.c **** * Function Name: ADC_SAR_1_CountsTo_Volts
 813:.\Generated_Source\PSoC5/ADC_SAR_1.c **** ********************************************************************************
 814:.\Generated_Source\PSoC5/ADC_SAR_1.c **** *
 815:.\Generated_Source\PSoC5/ADC_SAR_1.c **** * Summary:
 816:.\Generated_Source\PSoC5/ADC_SAR_1.c **** *  Converts the ADC output to volts as a floating-point number.
 817:.\Generated_Source\PSoC5/ADC_SAR_1.c **** *
 818:.\Generated_Source\PSoC5/ADC_SAR_1.c **** * Parameters:
 819:.\Generated_Source\PSoC5/ADC_SAR_1.c **** *  int16 adcCounts: Result from the ADC conversion
 820:.\Generated_Source\PSoC5/ADC_SAR_1.c **** *
 821:.\Generated_Source\PSoC5/ADC_SAR_1.c **** * Return:
 822:.\Generated_Source\PSoC5/ADC_SAR_1.c **** *  float Result in Volts
 823:.\Generated_Source\PSoC5/ADC_SAR_1.c **** *
 824:.\Generated_Source\PSoC5/ADC_SAR_1.c **** * Global Variables:
 825:.\Generated_Source\PSoC5/ADC_SAR_1.c **** *  ADC_SAR_1_offset variable used.
 826:.\Generated_Source\PSoC5/ADC_SAR_1.c **** *  ADC_SAR_1_countsPer10Volt used to convert ADC counts to Volts.
 827:.\Generated_Source\PSoC5/ADC_SAR_1.c **** *
 828:.\Generated_Source\PSoC5/ADC_SAR_1.c **** *******************************************************************************/
 829:.\Generated_Source\PSoC5/ADC_SAR_1.c **** float32 ADC_SAR_1_CountsTo_Volts(int16 adcCounts)
 830:.\Generated_Source\PSoC5/ADC_SAR_1.c **** {
 1181              		.loc 1 830 0
 1182              		.cfi_startproc
 1183              		@ args = 0, pretend = 0, frame = 0
 1184              		@ frame_needed = 0, uses_anonymous_args = 0
 1185              	.LVL78:
 831:.\Generated_Source\PSoC5/ADC_SAR_1.c ****     float32 volts;
 832:.\Generated_Source\PSoC5/ADC_SAR_1.c ****     int32 countsPer10Volt;
 833:.\Generated_Source\PSoC5/ADC_SAR_1.c **** 
 834:.\Generated_Source\PSoC5/ADC_SAR_1.c ****     if(ADC_SAR_1_countsPerVolt != 0)
 1186              		.loc 1 834 0
 1187 0000 0F4A     		ldr	r2, .L93
 830:.\Generated_Source\PSoC5/ADC_SAR_1.c ****     float32 volts;
 1188              		.loc 1 830 0
 1189 0002 38B5     		push	{r3, r4, r5, lr}
 1190              		.cfi_def_cfa_offset 16
 1191              		.cfi_offset 3, -16
 1192              		.cfi_offset 4, -12
 1193              		.cfi_offset 5, -8
 1194              		.cfi_offset 14, -4
 1195              		.loc 1 834 0
 1196 0004 1388     		ldrh	r3, [r2]
 1197 0006 9BB2     		uxth	r3, r3
 1198 0008 9BB9     		cbnz	r3, .L92
 835:.\Generated_Source\PSoC5/ADC_SAR_1.c ****     {   /* Support obsolete method */
ARM GAS  C:\Users\Patrick\AppData\Local\Temp\ccRDuB7I.s 			page 40


 836:.\Generated_Source\PSoC5/ADC_SAR_1.c ****         countsPer10Volt = (int32)ADC_SAR_1_countsPerVolt * 10;
 837:.\Generated_Source\PSoC5/ADC_SAR_1.c ****     }
 838:.\Generated_Source\PSoC5/ADC_SAR_1.c ****     else
 839:.\Generated_Source\PSoC5/ADC_SAR_1.c ****     {
 840:.\Generated_Source\PSoC5/ADC_SAR_1.c ****         countsPer10Volt = ADC_SAR_1_countsPer10Volt;
 1199              		.loc 1 840 0
 1200 000a 0E4B     		ldr	r3, .L93+4
 1201 000c 1C68     		ldr	r4, [r3]
 1202              	.LVL79:
 1203              	.L90:
 841:.\Generated_Source\PSoC5/ADC_SAR_1.c ****     }
 842:.\Generated_Source\PSoC5/ADC_SAR_1.c **** 
 843:.\Generated_Source\PSoC5/ADC_SAR_1.c ****     /* Subtract ADC offset */
 844:.\Generated_Source\PSoC5/ADC_SAR_1.c ****     adcCounts -= ADC_SAR_1_offset;
 1204              		.loc 1 844 0
 1205 000e 0E4B     		ldr	r3, .L93+8
 1206 0010 1B88     		ldrh	r3, [r3]
 1207 0012 C01A     		subs	r0, r0, r3
 1208              	.LVL80:
 845:.\Generated_Source\PSoC5/ADC_SAR_1.c **** 
 846:.\Generated_Source\PSoC5/ADC_SAR_1.c ****     volts = ((float32)adcCounts * ADC_SAR_1_10V_COUNTS) / (float32)countsPer10Volt;
 1209              		.loc 1 846 0
 1210 0014 00B2     		sxth	r0, r0
 1211 0016 FFF7FEFF 		bl	__aeabi_i2f
 1212              	.LVL81:
 1213 001a 0C49     		ldr	r1, .L93+12
 1214 001c FFF7FEFF 		bl	__aeabi_fmul
 1215              	.LVL82:
 1216 0020 0546     		mov	r5, r0
 1217 0022 2046     		mov	r0, r4
 1218 0024 FFF7FEFF 		bl	__aeabi_i2f
 1219              	.LVL83:
 1220 0028 0146     		mov	r1, r0
 1221 002a 2846     		mov	r0, r5
 1222 002c FFF7FEFF 		bl	__aeabi_fdiv
 1223              	.LVL84:
 847:.\Generated_Source\PSoC5/ADC_SAR_1.c **** 
 848:.\Generated_Source\PSoC5/ADC_SAR_1.c ****     return( volts );
 849:.\Generated_Source\PSoC5/ADC_SAR_1.c **** }
 1224              		.loc 1 849 0
 1225 0030 38BD     		pop	{r3, r4, r5, pc}
 1226              	.LVL85:
 1227              	.L92:
 836:.\Generated_Source\PSoC5/ADC_SAR_1.c ****     }
 1228              		.loc 1 836 0
 1229 0032 1488     		ldrh	r4, [r2]
 1230 0034 24B2     		sxth	r4, r4
 1231 0036 04EB8404 		add	r4, r4, r4, lsl #2
 1232 003a 6400     		lsls	r4, r4, #1
 1233              	.LVL86:
 1234 003c E7E7     		b	.L90
 1235              	.L94:
 1236 003e 00BF     		.align	2
 1237              	.L93:
 1238 0040 00000000 		.word	ADC_SAR_1_countsPerVolt
 1239 0044 00000000 		.word	ADC_SAR_1_countsPer10Volt
 1240 0048 00000000 		.word	ADC_SAR_1_offset
ARM GAS  C:\Users\Patrick\AppData\Local\Temp\ccRDuB7I.s 			page 41


 1241 004c 00002041 		.word	1092616192
 1242              		.cfi_endproc
 1243              	.LFE17:
 1244              		.size	ADC_SAR_1_CountsTo_Volts, .-ADC_SAR_1_CountsTo_Volts
 1245              		.comm	ADC_SAR_1_shift,2,2
 1246              		.comm	ADC_SAR_1_countsPer10Volt,4,4
 1247              		.comm	ADC_SAR_1_countsPerVolt,2,2
 1248              		.comm	ADC_SAR_1_offset,2,2
 1249              		.global	ADC_SAR_1_initVar
 1250              		.bss
 1251              		.set	.LANCHOR0,. + 0
 1252              		.type	ADC_SAR_1_initVar, %object
 1253              		.size	ADC_SAR_1_initVar, 1
 1254              	ADC_SAR_1_initVar:
 1255 0000 00       		.space	1
 1256              		.text
 1257              	.Letext0:
 1258              		.file 2 ".\\Generated_Source\\PSoC5\\cytypes.h"
 1259              		.file 3 ".\\Generated_Source\\PSoC5\\ADC_SAR_1_theACLK.h"
 1260              		.file 4 ".\\Generated_Source\\PSoC5\\CyLib.h"