ARM GAS  C:\Users\Patrick\AppData\Local\Temp\cc4ZZri1.s 			page 1


   1              		.syntax unified
   2              		.cpu cortex-m3
   3              		.fpu softvfp
   4              		.eabi_attribute 20, 1
   5              		.eabi_attribute 21, 1
   6              		.eabi_attribute 23, 3
   7              		.eabi_attribute 24, 1
   8              		.eabi_attribute 25, 1
   9              		.eabi_attribute 26, 1
  10              		.eabi_attribute 30, 6
  11              		.eabi_attribute 34, 1
  12              		.eabi_attribute 18, 4
  13              		.thumb
  14              		.file	"C-CAN.c"
  15              		.text
  16              	.Ltext0:
  17              		.cfi_sections	.debug_frame
  18              		.comm	zero,164,4
  19              		.comm	one,164,4
  20              		.comm	two,164,4
  21              		.comm	three,164,4
  22              		.comm	four,164,4
  23              		.comm	five,164,4
  24              		.comm	left,168,4
  25              		.comm	right,168,4
  26              		.bss
  27              		.align	2
  28              	temp_enable:
  29 0000 00000000 		.space	8
  29      00000000 
  30              		.comm	TxMessage1,8,4
  31              		.comm	RxMessage1,8,4
  32              		.comm	RXDLC1,1,1
  33              		.comm	RxFlag1,1,1
  34              		.section	.text.GetSample,"ax",%progbits
  35              		.align	2
  36              		.global	GetSample
  37              		.thumb
  38              		.thumb_func
  39              		.type	GetSample, %function
  40              	GetSample:
  41              	.LFB63:
  42              		.file 1 ".\\C-CAN.c"
   1:.\C-CAN.c     **** /* ========================================
   2:.\C-CAN.c     ****  *
   3:.\C-CAN.c     ****  * Copyright YOUR COMPANY, THE YEAR
   4:.\C-CAN.c     ****  * All Rights Reserved
   5:.\C-CAN.c     ****  * UNPUBLISHED, LICENSED SOFTWARE.
   6:.\C-CAN.c     ****  *
   7:.\C-CAN.c     ****  * CONFIDENTIAL AND PROPRIETARY INFORMATION
   8:.\C-CAN.c     ****  * WHICH IS THE PROPERTY OF your company.
   9:.\C-CAN.c     ****  *
  10:.\C-CAN.c     ****  * ========================================
  11:.\C-CAN.c     **** */
  12:.\C-CAN.c     **** 
  13:.\C-CAN.c     **** #include <C-CAN.h>
  14:.\C-CAN.c     **** 
ARM GAS  C:\Users\Patrick\AppData\Local\Temp\cc4ZZri1.s 			page 2


  15:.\C-CAN.c     **** void GetSample( Pot * pot){
  43              		.loc 1 15 0
  44              		.cfi_startproc
  45              		@ args = 0, pretend = 0, frame = 8
  46              		@ frame_needed = 1, uses_anonymous_args = 0
  47 0000 90B5     		push	{r4, r7, lr}
  48              		.cfi_def_cfa_offset 12
  49              		.cfi_offset 4, -12
  50              		.cfi_offset 7, -8
  51              		.cfi_offset 14, -4
  52 0002 83B0     		sub	sp, sp, #12
  53              		.cfi_def_cfa_offset 24
  54 0004 00AF     		add	r7, sp, #0
  55              		.cfi_def_cfa_register 7
  56 0006 7860     		str	r0, [r7, #4]
  16:.\C-CAN.c     ****     
  17:.\C-CAN.c     ****     /*This function applies a moving average filter to the data read by the ADC. Each sensor
  18:.\C-CAN.c     ****     *has an associated sensor struct that contains all necessary variables. The multiplexer
  19:.\C-CAN.c     ****     *is switched such that the intended sensor is read by the ADC. The if loop waits for the
  20:.\C-CAN.c     ****     *ADC to sample and then applies the circular buffer-based moving average.
  21:.\C-CAN.c     ****     *
  22:.\C-CAN.c     ****     *For serial debugging purposes, this function also converts the averaged sensor reading
  23:.\C-CAN.c     ****     *to a millivolt value.
  24:.\C-CAN.c     ****     *
  25:.\C-CAN.c     ****     */
  26:.\C-CAN.c     ****     AMux_1_FastSelect(pot->sensor.number);
  57              		.loc 1 26 0
  58 0008 7B68     		ldr	r3, [r7, #4]
  59 000a 93F89830 		ldrb	r3, [r3, #152]	@ zero_extendqisi2
  60 000e 1846     		mov	r0, r3
  61 0010 FFF7FEFF 		bl	AMux_1_FastSelect
  27:.\C-CAN.c     ****     ADC_SAR_1_StartConvert();
  62              		.loc 1 27 0
  63 0014 FFF7FEFF 		bl	ADC_SAR_1_StartConvert
  28:.\C-CAN.c     ****     if(ADC_SAR_1_IsEndConversion(ADC_SAR_1_WAIT_FOR_RESULT))
  64              		.loc 1 28 0
  65 0018 0020     		movs	r0, #0
  66 001a FFF7FEFF 		bl	ADC_SAR_1_IsEndConversion
  67 001e 0346     		mov	r3, r0
  68 0020 002B     		cmp	r3, #0
  69 0022 2CD0     		beq	.L2
  29:.\C-CAN.c     ****     {
  30:.\C-CAN.c     ****         pot->sensor.accumulator -= pot->sensor.data[pot->sensor.index];
  70              		.loc 1 30 0
  71 0024 7B68     		ldr	r3, [r7, #4]
  72 0026 D3F89420 		ldr	r2, [r3, #148]
  73 002a 7B68     		ldr	r3, [r7, #4]
  74 002c 93F89930 		ldrb	r3, [r3, #153]	@ zero_extendqisi2
  75 0030 7968     		ldr	r1, [r7, #4]
  76 0032 0833     		adds	r3, r3, #8
  77 0034 5B00     		lsls	r3, r3, #1
  78 0036 0B44     		add	r3, r3, r1
  79 0038 5B88     		ldrh	r3, [r3, #2]
  80 003a D21A     		subs	r2, r2, r3
  81 003c 7B68     		ldr	r3, [r7, #4]
  82 003e C3F89420 		str	r2, [r3, #148]
  31:.\C-CAN.c     ****         pot->sensor.data[pot->sensor.index] = ADC_SAR_1_GetResult16();
ARM GAS  C:\Users\Patrick\AppData\Local\Temp\cc4ZZri1.s 			page 3


  83              		.loc 1 31 0
  84 0042 7B68     		ldr	r3, [r7, #4]
  85 0044 93F89930 		ldrb	r3, [r3, #153]	@ zero_extendqisi2
  86 0048 1C46     		mov	r4, r3
  87 004a FFF7FEFF 		bl	ADC_SAR_1_GetResult16
  88 004e 0346     		mov	r3, r0
  89 0050 99B2     		uxth	r1, r3
  90 0052 7A68     		ldr	r2, [r7, #4]
  91 0054 04F10803 		add	r3, r4, #8
  92 0058 5B00     		lsls	r3, r3, #1
  93 005a 1344     		add	r3, r3, r2
  94 005c 0A46     		mov	r2, r1	@ movhi
  95 005e 5A80     		strh	r2, [r3, #2]	@ movhi
  32:.\C-CAN.c     ****         pot->sensor.accumulator += pot->sensor.data[pot->sensor.index];
  96              		.loc 1 32 0
  97 0060 7B68     		ldr	r3, [r7, #4]
  98 0062 D3F89420 		ldr	r2, [r3, #148]
  99 0066 7B68     		ldr	r3, [r7, #4]
 100 0068 93F89930 		ldrb	r3, [r3, #153]	@ zero_extendqisi2
 101 006c 7968     		ldr	r1, [r7, #4]
 102 006e 0833     		adds	r3, r3, #8
 103 0070 5B00     		lsls	r3, r3, #1
 104 0072 0B44     		add	r3, r3, r1
 105 0074 5B88     		ldrh	r3, [r3, #2]
 106 0076 1A44     		add	r2, r2, r3
 107 0078 7B68     		ldr	r3, [r7, #4]
 108 007a C3F89420 		str	r2, [r3, #148]
 109              	.L2:
  33:.\C-CAN.c     ****     }
  34:.\C-CAN.c     ****     pot->sensor.index++;
 110              		.loc 1 34 0
 111 007e 7B68     		ldr	r3, [r7, #4]
 112 0080 93F89930 		ldrb	r3, [r3, #153]	@ zero_extendqisi2
 113 0084 0133     		adds	r3, r3, #1
 114 0086 DAB2     		uxtb	r2, r3
 115 0088 7B68     		ldr	r3, [r7, #4]
 116 008a 83F89920 		strb	r2, [r3, #153]
  35:.\C-CAN.c     ****     if(pot->sensor.index==pot->sensor.window){
 117              		.loc 1 35 0
 118 008e 7B68     		ldr	r3, [r7, #4]
 119 0090 93F89920 		ldrb	r2, [r3, #153]	@ zero_extendqisi2
 120 0094 7B68     		ldr	r3, [r7, #4]
 121 0096 93F89A30 		ldrb	r3, [r3, #154]	@ zero_extendqisi2
 122 009a 9A42     		cmp	r2, r3
 123 009c 03D1     		bne	.L3
  36:.\C-CAN.c     ****         pot->sensor.index = 0;
 124              		.loc 1 36 0
 125 009e 7B68     		ldr	r3, [r7, #4]
 126 00a0 0022     		movs	r2, #0
 127 00a2 83F89920 		strb	r2, [r3, #153]
 128              	.L3:
  37:.\C-CAN.c     ****     }
  38:.\C-CAN.c     ****     
  39:.\C-CAN.c     ****     pot->mV = ADC_SAR_1_CountsTo_mVolts((pot->sensor.accumulator)/pot->sensor.window);
 129              		.loc 1 39 0
 130 00a6 7B68     		ldr	r3, [r7, #4]
 131 00a8 D3F89430 		ldr	r3, [r3, #148]
ARM GAS  C:\Users\Patrick\AppData\Local\Temp\cc4ZZri1.s 			page 4


 132 00ac 7A68     		ldr	r2, [r7, #4]
 133 00ae 92F89A20 		ldrb	r2, [r2, #154]	@ zero_extendqisi2
 134 00b2 B3FBF2F3 		udiv	r3, r3, r2
 135 00b6 9BB2     		uxth	r3, r3
 136 00b8 1BB2     		sxth	r3, r3
 137 00ba 1846     		mov	r0, r3
 138 00bc FFF7FEFF 		bl	ADC_SAR_1_CountsTo_mVolts
 139 00c0 0346     		mov	r3, r0
 140 00c2 1A46     		mov	r2, r3
 141 00c4 7B68     		ldr	r3, [r7, #4]
 142 00c6 A3F8A020 		strh	r2, [r3, #160]	@ movhi
  40:.\C-CAN.c     ****     
  41:.\C-CAN.c     ****     pot->sensor.flag = FALSE;
 143              		.loc 1 41 0
 144 00ca 7B68     		ldr	r3, [r7, #4]
 145 00cc 0022     		movs	r2, #0
 146 00ce 83F89B20 		strb	r2, [r3, #155]
  42:.\C-CAN.c     **** 
  43:.\C-CAN.c     ****     #ifdef DEBUG_MULTIRATE
  44:.\C-CAN.c     ****     UART_1_PutString("\n\rPot ");
  45:.\C-CAN.c     ****     UART_1_PutChar(pot->sensor.number+48);
  46:.\C-CAN.c     ****     UART_1_PutString("\n\r");
  47:.\C-CAN.c     ****     #endif
  48:.\C-CAN.c     ****     
  49:.\C-CAN.c     ****     
  50:.\C-CAN.c     **** 
  51:.\C-CAN.c     ****     
  52:.\C-CAN.c     **** }
 147              		.loc 1 52 0
 148 00d2 0C37     		adds	r7, r7, #12
 149              		.cfi_def_cfa_offset 12
 150 00d4 BD46     		mov	sp, r7
 151              		.cfi_def_cfa_register 13
 152              		@ sp needed
 153 00d6 90BD     		pop	{r4, r7, pc}
 154              		.cfi_endproc
 155              	.LFE63:
 156              		.size	GetSample, .-GetSample
 157              		.global	__aeabi_i2f
 158              		.global	__aeabi_fadd
 159              		.global	__aeabi_fdiv
 160              		.global	__aeabi_fmul
 161              		.section	.text.GetRPM,"ax",%progbits
 162              		.align	2
 163              		.global	GetRPM
 164              		.thumb
 165              		.thumb_func
 166              		.type	GetRPM, %function
 167              	GetRPM:
 168              	.LFB64:
  53:.\C-CAN.c     **** 
  54:.\C-CAN.c     **** void GetRPM(Encoder * encoder){
 169              		.loc 1 54 0
 170              		.cfi_startproc
 171              		@ args = 0, pretend = 0, frame = 8
 172              		@ frame_needed = 1, uses_anonymous_args = 0
 173 0000 90B5     		push	{r4, r7, lr}
ARM GAS  C:\Users\Patrick\AppData\Local\Temp\cc4ZZri1.s 			page 5


 174              		.cfi_def_cfa_offset 12
 175              		.cfi_offset 4, -12
 176              		.cfi_offset 7, -8
 177              		.cfi_offset 14, -4
 178 0002 83B0     		sub	sp, sp, #12
 179              		.cfi_def_cfa_offset 24
 180 0004 00AF     		add	r7, sp, #0
 181              		.cfi_def_cfa_register 7
 182 0006 7860     		str	r0, [r7, #4]
  55:.\C-CAN.c     ****     
  56:.\C-CAN.c     ****     /*This function applies a moving average filter to the number of encoder pulses
  57:.\C-CAN.c     ****     *counted by an encoder counter. Each encoder has an encoder struct that contains
  58:.\C-CAN.c     ****     *all of the relevant variables for an encoder. 
  59:.\C-CAN.c     ****     *
  60:.\C-CAN.c     ****     *The moving average filter implemented is the "shortcut" version, making use of a circular
  61:.\C-CAN.c     ****     *buffer to keep things speeds. 
  62:.\C-CAN.c     ****     *
  63:.\C-CAN.c     ****     *Each encoder has an associated hardware pulse counter and time counter. As of 8/19/16
  64:.\C-CAN.c     ****     *the time counter counts microseconds and the encoders are 600ppr. 
  65:.\C-CAN.c     ****     
  66:.\C-CAN.c     ****     *RPM is calculated as follows:
  67:.\C-CAN.c     ****     *(pulses)*(1 rev/600 pulses)*(1/microseconds)*(10^6 microseconds/second)*(60 seconds/minute)=rp
  68:.\C-CAN.c     ****     *
  69:.\C-CAN.c     ****     *This simplifies to (pulses * 100000) / (microseconds elapsed)
  70:.\C-CAN.c     ****     *
  71:.\C-CAN.c     ****     *With the current setup, the time counter does not reset and can only handle ~65milliseconds.
  72:.\C-CAN.c     ****     *
  73:.\C-CAN.c     ****     */
  74:.\C-CAN.c     ****     
  75:.\C-CAN.c     ****     
  76:.\C-CAN.c     ****     if(encoder->sensor.number == 6){ //calculate left rpm
 183              		.loc 1 76 0
 184 0008 7B68     		ldr	r3, [r7, #4]
 185 000a 93F89830 		ldrb	r3, [r3, #152]	@ zero_extendqisi2
 186 000e 062B     		cmp	r3, #6
 187 0010 60D1     		bne	.L5
  77:.\C-CAN.c     ****         encoder->sensor.accumulator -= encoder->sensor.data[encoder->sensor.index];
 188              		.loc 1 77 0
 189 0012 7B68     		ldr	r3, [r7, #4]
 190 0014 D3F89420 		ldr	r2, [r3, #148]
 191 0018 7B68     		ldr	r3, [r7, #4]
 192 001a 93F89930 		ldrb	r3, [r3, #153]	@ zero_extendqisi2
 193 001e 7968     		ldr	r1, [r7, #4]
 194 0020 0833     		adds	r3, r3, #8
 195 0022 5B00     		lsls	r3, r3, #1
 196 0024 0B44     		add	r3, r3, r1
 197 0026 5B88     		ldrh	r3, [r3, #2]
 198 0028 D21A     		subs	r2, r2, r3
 199 002a 7B68     		ldr	r3, [r7, #4]
 200 002c C3F89420 		str	r2, [r3, #148]
  78:.\C-CAN.c     ****         encoder->sensor.data[encoder->sensor.index] = Encoder_Left_ReadCounter();
 201              		.loc 1 78 0
 202 0030 7B68     		ldr	r3, [r7, #4]
 203 0032 93F89930 		ldrb	r3, [r3, #153]	@ zero_extendqisi2
 204 0036 1C46     		mov	r4, r3
 205 0038 FFF7FEFF 		bl	Encoder_Left_ReadCounter
 206 003c 0346     		mov	r3, r0
ARM GAS  C:\Users\Patrick\AppData\Local\Temp\cc4ZZri1.s 			page 6


 207 003e 1946     		mov	r1, r3
 208 0040 7A68     		ldr	r2, [r7, #4]
 209 0042 04F10803 		add	r3, r4, #8
 210 0046 5B00     		lsls	r3, r3, #1
 211 0048 1344     		add	r3, r3, r2
 212 004a 0A46     		mov	r2, r1	@ movhi
 213 004c 5A80     		strh	r2, [r3, #2]	@ movhi
  79:.\C-CAN.c     ****         Encoder_Left_WriteCounter(0); //clear the pulse counter
 214              		.loc 1 79 0
 215 004e 0020     		movs	r0, #0
 216 0050 FFF7FEFF 		bl	Encoder_Left_WriteCounter
  80:.\C-CAN.c     ****         encoder->accumulator += encoder->sensor.data[encoder->sensor.index];
 217              		.loc 1 80 0
 218 0054 7B68     		ldr	r3, [r7, #4]
 219 0056 D3F8A040 		ldr	r4, [r3, #160]	@ float
 220 005a 7B68     		ldr	r3, [r7, #4]
 221 005c 93F89930 		ldrb	r3, [r3, #153]	@ zero_extendqisi2
 222 0060 7A68     		ldr	r2, [r7, #4]
 223 0062 0833     		adds	r3, r3, #8
 224 0064 5B00     		lsls	r3, r3, #1
 225 0066 1344     		add	r3, r3, r2
 226 0068 5B88     		ldrh	r3, [r3, #2]
 227 006a 1846     		mov	r0, r3
 228 006c FFF7FEFF 		bl	__aeabi_i2f
 229 0070 0346     		mov	r3, r0
 230 0072 2046     		mov	r0, r4
 231 0074 1946     		mov	r1, r3
 232 0076 FFF7FEFF 		bl	__aeabi_fadd
 233 007a 0346     		mov	r3, r0
 234 007c 1A46     		mov	r2, r3
 235 007e 7B68     		ldr	r3, [r7, #4]
 236 0080 C3F8A020 		str	r2, [r3, #160]	@ float
  81:.\C-CAN.c     ****         
  82:.\C-CAN.c     ****         
  83:.\C-CAN.c     ****         
  84:.\C-CAN.c     ****         encoder->rpm = (encoder->accumulator/encoder->sensor.window) * 100000 / (leftEncTimer_ReadC
 237              		.loc 1 84 0
 238 0084 7B68     		ldr	r3, [r7, #4]
 239 0086 D3F8A040 		ldr	r4, [r3, #160]	@ float
 240 008a 7B68     		ldr	r3, [r7, #4]
 241 008c 93F89A30 		ldrb	r3, [r3, #154]	@ zero_extendqisi2
 242 0090 1846     		mov	r0, r3
 243 0092 FFF7FEFF 		bl	__aeabi_i2f
 244 0096 0346     		mov	r3, r0
 245 0098 2046     		mov	r0, r4
 246 009a 1946     		mov	r1, r3
 247 009c FFF7FEFF 		bl	__aeabi_fdiv
 248 00a0 0346     		mov	r3, r0
 249 00a2 1846     		mov	r0, r3
 250 00a4 4C49     		ldr	r1, .L8
 251 00a6 FFF7FEFF 		bl	__aeabi_fmul
 252 00aa 0346     		mov	r3, r0
 253 00ac 1C46     		mov	r4, r3
 254 00ae FFF7FEFF 		bl	leftEncTimer_ReadCounter
 255 00b2 0346     		mov	r3, r0
 256 00b4 1846     		mov	r0, r3
 257 00b6 FFF7FEFF 		bl	__aeabi_i2f
ARM GAS  C:\Users\Patrick\AppData\Local\Temp\cc4ZZri1.s 			page 7


 258 00ba 0346     		mov	r3, r0
 259 00bc 2046     		mov	r0, r4
 260 00be 1946     		mov	r1, r3
 261 00c0 FFF7FEFF 		bl	__aeabi_fdiv
 262 00c4 0346     		mov	r3, r0
 263 00c6 1A46     		mov	r2, r3
 264 00c8 7B68     		ldr	r3, [r7, #4]
 265 00ca C3F8A420 		str	r2, [r3, #164]	@ float
  85:.\C-CAN.c     ****         leftEncTimer_WriteCounter(0); //clear the microsecond counter
 266              		.loc 1 85 0
 267 00ce 0020     		movs	r0, #0
 268 00d0 FFF7FEFF 		bl	leftEncTimer_WriteCounter
 269              	.L5:
  86:.\C-CAN.c     ****     }
  87:.\C-CAN.c     ****     
  88:.\C-CAN.c     ****     if(encoder->sensor.number == 7){ //calculate right rpm
 270              		.loc 1 88 0
 271 00d4 7B68     		ldr	r3, [r7, #4]
 272 00d6 93F89830 		ldrb	r3, [r3, #152]	@ zero_extendqisi2
 273 00da 072B     		cmp	r3, #7
 274 00dc 60D1     		bne	.L6
  89:.\C-CAN.c     ****         encoder->sensor.accumulator -= encoder->sensor.data[encoder->sensor.index];
 275              		.loc 1 89 0
 276 00de 7B68     		ldr	r3, [r7, #4]
 277 00e0 D3F89420 		ldr	r2, [r3, #148]
 278 00e4 7B68     		ldr	r3, [r7, #4]
 279 00e6 93F89930 		ldrb	r3, [r3, #153]	@ zero_extendqisi2
 280 00ea 7968     		ldr	r1, [r7, #4]
 281 00ec 0833     		adds	r3, r3, #8
 282 00ee 5B00     		lsls	r3, r3, #1
 283 00f0 0B44     		add	r3, r3, r1
 284 00f2 5B88     		ldrh	r3, [r3, #2]
 285 00f4 D21A     		subs	r2, r2, r3
 286 00f6 7B68     		ldr	r3, [r7, #4]
 287 00f8 C3F89420 		str	r2, [r3, #148]
  90:.\C-CAN.c     ****         encoder->sensor.data[encoder->sensor.index] = Encoder_Right_ReadCounter();
 288              		.loc 1 90 0
 289 00fc 7B68     		ldr	r3, [r7, #4]
 290 00fe 93F89930 		ldrb	r3, [r3, #153]	@ zero_extendqisi2
 291 0102 1C46     		mov	r4, r3
 292 0104 FFF7FEFF 		bl	Encoder_Right_ReadCounter
 293 0108 0346     		mov	r3, r0
 294 010a 1946     		mov	r1, r3
 295 010c 7A68     		ldr	r2, [r7, #4]
 296 010e 04F10803 		add	r3, r4, #8
 297 0112 5B00     		lsls	r3, r3, #1
 298 0114 1344     		add	r3, r3, r2
 299 0116 0A46     		mov	r2, r1	@ movhi
 300 0118 5A80     		strh	r2, [r3, #2]	@ movhi
  91:.\C-CAN.c     ****         Encoder_Right_WriteCounter(0); //clear the pulse counter
 301              		.loc 1 91 0
 302 011a 0020     		movs	r0, #0
 303 011c FFF7FEFF 		bl	Encoder_Right_WriteCounter
  92:.\C-CAN.c     ****         encoder->accumulator += encoder->sensor.data[encoder->sensor.index];
 304              		.loc 1 92 0
 305 0120 7B68     		ldr	r3, [r7, #4]
 306 0122 D3F8A040 		ldr	r4, [r3, #160]	@ float
ARM GAS  C:\Users\Patrick\AppData\Local\Temp\cc4ZZri1.s 			page 8


 307 0126 7B68     		ldr	r3, [r7, #4]
 308 0128 93F89930 		ldrb	r3, [r3, #153]	@ zero_extendqisi2
 309 012c 7A68     		ldr	r2, [r7, #4]
 310 012e 0833     		adds	r3, r3, #8
 311 0130 5B00     		lsls	r3, r3, #1
 312 0132 1344     		add	r3, r3, r2
 313 0134 5B88     		ldrh	r3, [r3, #2]
 314 0136 1846     		mov	r0, r3
 315 0138 FFF7FEFF 		bl	__aeabi_i2f
 316 013c 0346     		mov	r3, r0
 317 013e 2046     		mov	r0, r4
 318 0140 1946     		mov	r1, r3
 319 0142 FFF7FEFF 		bl	__aeabi_fadd
 320 0146 0346     		mov	r3, r0
 321 0148 1A46     		mov	r2, r3
 322 014a 7B68     		ldr	r3, [r7, #4]
 323 014c C3F8A020 		str	r2, [r3, #160]	@ float
  93:.\C-CAN.c     ****         
  94:.\C-CAN.c     ****         encoder->rpm = (encoder->accumulator/encoder->sensor.window) * 100000 / (rightEncTimer_Read
 324              		.loc 1 94 0
 325 0150 7B68     		ldr	r3, [r7, #4]
 326 0152 D3F8A040 		ldr	r4, [r3, #160]	@ float
 327 0156 7B68     		ldr	r3, [r7, #4]
 328 0158 93F89A30 		ldrb	r3, [r3, #154]	@ zero_extendqisi2
 329 015c 1846     		mov	r0, r3
 330 015e FFF7FEFF 		bl	__aeabi_i2f
 331 0162 0346     		mov	r3, r0
 332 0164 2046     		mov	r0, r4
 333 0166 1946     		mov	r1, r3
 334 0168 FFF7FEFF 		bl	__aeabi_fdiv
 335 016c 0346     		mov	r3, r0
 336 016e 1846     		mov	r0, r3
 337 0170 1949     		ldr	r1, .L8
 338 0172 FFF7FEFF 		bl	__aeabi_fmul
 339 0176 0346     		mov	r3, r0
 340 0178 1C46     		mov	r4, r3
 341 017a FFF7FEFF 		bl	rightEncTimer_ReadCounter
 342 017e 0346     		mov	r3, r0
 343 0180 1846     		mov	r0, r3
 344 0182 FFF7FEFF 		bl	__aeabi_i2f
 345 0186 0346     		mov	r3, r0
 346 0188 2046     		mov	r0, r4
 347 018a 1946     		mov	r1, r3
 348 018c FFF7FEFF 		bl	__aeabi_fdiv
 349 0190 0346     		mov	r3, r0
 350 0192 1A46     		mov	r2, r3
 351 0194 7B68     		ldr	r3, [r7, #4]
 352 0196 C3F8A420 		str	r2, [r3, #164]	@ float
  95:.\C-CAN.c     ****         rightEncTimer_WriteCounter(0); //clear the microsecond counter
 353              		.loc 1 95 0
 354 019a 0020     		movs	r0, #0
 355 019c FFF7FEFF 		bl	rightEncTimer_WriteCounter
 356              	.L6:
  96:.\C-CAN.c     ****     }
  97:.\C-CAN.c     ****     
  98:.\C-CAN.c     ****     encoder->sensor.index++;
 357              		.loc 1 98 0
ARM GAS  C:\Users\Patrick\AppData\Local\Temp\cc4ZZri1.s 			page 9


 358 01a0 7B68     		ldr	r3, [r7, #4]
 359 01a2 93F89930 		ldrb	r3, [r3, #153]	@ zero_extendqisi2
 360 01a6 0133     		adds	r3, r3, #1
 361 01a8 DAB2     		uxtb	r2, r3
 362 01aa 7B68     		ldr	r3, [r7, #4]
 363 01ac 83F89920 		strb	r2, [r3, #153]
  99:.\C-CAN.c     ****     if(encoder->sensor.index >= encoder->sensor.window){
 364              		.loc 1 99 0
 365 01b0 7B68     		ldr	r3, [r7, #4]
 366 01b2 93F89920 		ldrb	r2, [r3, #153]	@ zero_extendqisi2
 367 01b6 7B68     		ldr	r3, [r7, #4]
 368 01b8 93F89A30 		ldrb	r3, [r3, #154]	@ zero_extendqisi2
 369 01bc 9A42     		cmp	r2, r3
 370 01be 03D3     		bcc	.L7
 100:.\C-CAN.c     ****         encoder->sensor.index = 0;
 371              		.loc 1 100 0
 372 01c0 7B68     		ldr	r3, [r7, #4]
 373 01c2 0022     		movs	r2, #0
 374 01c4 83F89920 		strb	r2, [r3, #153]
 375              	.L7:
 101:.\C-CAN.c     ****     }
 102:.\C-CAN.c     ****     
 103:.\C-CAN.c     ****     encoder->sensor.flag = FALSE;
 376              		.loc 1 103 0
 377 01c8 7B68     		ldr	r3, [r7, #4]
 378 01ca 0022     		movs	r2, #0
 379 01cc 83F89B20 		strb	r2, [r3, #155]
 104:.\C-CAN.c     ****     
 105:.\C-CAN.c     ****     #ifdef DEBUG_MULTIRATE
 106:.\C-CAN.c     ****     UART_1_PutString("\n\rEncoder ");
 107:.\C-CAN.c     ****     UART_1_PutChar(encoder->sensor.number+48);
 108:.\C-CAN.c     ****     UART_1_PutString("\n\r");
 109:.\C-CAN.c     ****     #endif
 110:.\C-CAN.c     **** 
 111:.\C-CAN.c     **** }
 380              		.loc 1 111 0
 381 01d0 0C37     		adds	r7, r7, #12
 382              		.cfi_def_cfa_offset 12
 383 01d2 BD46     		mov	sp, r7
 384              		.cfi_def_cfa_register 13
 385              		@ sp needed
 386 01d4 90BD     		pop	{r4, r7, pc}
 387              	.L9:
 388 01d6 00BF     		.align	2
 389              	.L8:
 390 01d8 0050C347 		.word	1203982336
 391              		.cfi_endproc
 392              	.LFE64:
 393              		.size	GetRPM, .-GetRPM
 394              		.section	.text.SensorSet,"ax",%progbits
 395              		.align	2
 396              		.global	SensorSet
 397              		.thumb
 398              		.thumb_func
 399              		.type	SensorSet, %function
 400              	SensorSet:
 401              	.LFB65:
ARM GAS  C:\Users\Patrick\AppData\Local\Temp\cc4ZZri1.s 			page 10


 112:.\C-CAN.c     **** 
 113:.\C-CAN.c     **** void SensorSet(Sensor * sensor, uint8 number_set, uint8 window_set, uint16 rate_set){
 402              		.loc 1 113 0
 403              		.cfi_startproc
 404              		@ args = 0, pretend = 0, frame = 8
 405              		@ frame_needed = 1, uses_anonymous_args = 0
 406              		@ link register save eliminated.
 407 0000 80B4     		push	{r7}
 408              		.cfi_def_cfa_offset 4
 409              		.cfi_offset 7, -4
 410 0002 83B0     		sub	sp, sp, #12
 411              		.cfi_def_cfa_offset 16
 412 0004 00AF     		add	r7, sp, #0
 413              		.cfi_def_cfa_register 7
 414 0006 7860     		str	r0, [r7, #4]
 415 0008 0846     		mov	r0, r1
 416 000a 1146     		mov	r1, r2
 417 000c 1A46     		mov	r2, r3
 418 000e 0346     		mov	r3, r0
 419 0010 FB70     		strb	r3, [r7, #3]
 420 0012 0B46     		mov	r3, r1
 421 0014 BB70     		strb	r3, [r7, #2]
 422 0016 1346     		mov	r3, r2	@ movhi
 423 0018 3B80     		strh	r3, [r7]	@ movhi
 114:.\C-CAN.c     ****     
 115:.\C-CAN.c     ****     /* This functions sets up a sensor. It should be called during initialization after
 116:.\C-CAN.c     ****     *  the sensor objects have been initialized. It sets the filtering window, sensor number
 117:.\C-CAN.c     ****     *  and sampling rate.
 118:.\C-CAN.c     ****     */
 119:.\C-CAN.c     ****     
 120:.\C-CAN.c     ****     sensor->number = number_set;
 424              		.loc 1 120 0
 425 001a 7B68     		ldr	r3, [r7, #4]
 426 001c FA78     		ldrb	r2, [r7, #3]
 427 001e 83F89820 		strb	r2, [r3, #152]
 121:.\C-CAN.c     ****     sensor->window = window_set;
 428              		.loc 1 121 0
 429 0022 7B68     		ldr	r3, [r7, #4]
 430 0024 BA78     		ldrb	r2, [r7, #2]
 431 0026 83F89A20 		strb	r2, [r3, #154]
 122:.\C-CAN.c     ****     sensor->rate = rate_set;
 432              		.loc 1 122 0
 433 002a 7B68     		ldr	r3, [r7, #4]
 434 002c 3A88     		ldrh	r2, [r7]	@ movhi
 435 002e A3F89E20 		strh	r2, [r3, #158]	@ movhi
 123:.\C-CAN.c     ****     if(window_set>=BUFF){
 436              		.loc 1 123 0
 437 0032 BB78     		ldrb	r3, [r7, #2]	@ zero_extendqisi2
 438 0034 3F2B     		cmp	r3, #63
 439 0036 03D9     		bls	.L10
 124:.\C-CAN.c     ****         sensor->window = BUFF;
 440              		.loc 1 124 0
 441 0038 7B68     		ldr	r3, [r7, #4]
 442 003a 4022     		movs	r2, #64
 443 003c 83F89A20 		strb	r2, [r3, #154]
 444              	.L10:
 125:.\C-CAN.c     ****     }
ARM GAS  C:\Users\Patrick\AppData\Local\Temp\cc4ZZri1.s 			page 11


 126:.\C-CAN.c     **** }
 445              		.loc 1 126 0
 446 0040 0C37     		adds	r7, r7, #12
 447              		.cfi_def_cfa_offset 4
 448 0042 BD46     		mov	sp, r7
 449              		.cfi_def_cfa_register 13
 450              		@ sp needed
 451 0044 5DF8047B 		ldr	r7, [sp], #4
 452              		.cfi_restore 7
 453              		.cfi_def_cfa_offset 0
 454 0048 7047     		bx	lr
 455              		.cfi_endproc
 456              	.LFE65:
 457              		.size	SensorSet, .-SensorSet
 458 004a 00BF     		.section	.text.PotInit,"ax",%progbits
 459              		.align	2
 460              		.global	PotInit
 461              		.thumb
 462              		.thumb_func
 463              		.type	PotInit, %function
 464              	PotInit:
 465              	.LFB66:
 127:.\C-CAN.c     **** 
 128:.\C-CAN.c     **** void PotInit(Pot * pot){
 466              		.loc 1 128 0
 467              		.cfi_startproc
 468              		@ args = 0, pretend = 0, frame = 16
 469              		@ frame_needed = 1, uses_anonymous_args = 0
 470              		@ link register save eliminated.
 471 0000 80B4     		push	{r7}
 472              		.cfi_def_cfa_offset 4
 473              		.cfi_offset 7, -4
 474 0002 85B0     		sub	sp, sp, #20
 475              		.cfi_def_cfa_offset 24
 476 0004 00AF     		add	r7, sp, #0
 477              		.cfi_def_cfa_register 7
 478 0006 7860     		str	r0, [r7, #4]
 129:.\C-CAN.c     ****     
 130:.\C-CAN.c     ****     /* This function initializes a Pot object. It clears the accumulator, mV, and data buffer.
 131:.\C-CAN.c     ****     *  It also clears the sensor flag and sets the sensor window index to 0.
 132:.\C-CAN.c     ****     */
 133:.\C-CAN.c     ****     
 134:.\C-CAN.c     ****     int i = 0;
 479              		.loc 1 134 0
 480 0008 0023     		movs	r3, #0
 481 000a FB60     		str	r3, [r7, #12]
 135:.\C-CAN.c     ****     pot->sensor.accumulator = 0;
 482              		.loc 1 135 0
 483 000c 7B68     		ldr	r3, [r7, #4]
 484 000e 0022     		movs	r2, #0
 485 0010 C3F89420 		str	r2, [r3, #148]
 136:.\C-CAN.c     ****     pot->mV = 0;
 486              		.loc 1 136 0
 487 0014 7B68     		ldr	r3, [r7, #4]
 488 0016 0022     		movs	r2, #0
 489 0018 A3F8A020 		strh	r2, [r3, #160]	@ movhi
 137:.\C-CAN.c     ****     pot->sensor.index = 0;
ARM GAS  C:\Users\Patrick\AppData\Local\Temp\cc4ZZri1.s 			page 12


 490              		.loc 1 137 0
 491 001c 7B68     		ldr	r3, [r7, #4]
 492 001e 0022     		movs	r2, #0
 493 0020 83F89920 		strb	r2, [r3, #153]
 138:.\C-CAN.c     ****     pot->sensor.flag = 0;
 494              		.loc 1 138 0
 495 0024 7B68     		ldr	r3, [r7, #4]
 496 0026 0022     		movs	r2, #0
 497 0028 83F89B20 		strb	r2, [r3, #155]
 139:.\C-CAN.c     ****     for(i=0;i<BUFF;i++){
 498              		.loc 1 139 0
 499 002c 0023     		movs	r3, #0
 500 002e FB60     		str	r3, [r7, #12]
 501 0030 09E0     		b	.L13
 502              	.L14:
 140:.\C-CAN.c     ****         pot->sensor.data[i]=0;
 503              		.loc 1 140 0 discriminator 3
 504 0032 7A68     		ldr	r2, [r7, #4]
 505 0034 FB68     		ldr	r3, [r7, #12]
 506 0036 0833     		adds	r3, r3, #8
 507 0038 5B00     		lsls	r3, r3, #1
 508 003a 1344     		add	r3, r3, r2
 509 003c 0022     		movs	r2, #0
 510 003e 5A80     		strh	r2, [r3, #2]	@ movhi
 139:.\C-CAN.c     ****     for(i=0;i<BUFF;i++){
 511              		.loc 1 139 0 discriminator 3
 512 0040 FB68     		ldr	r3, [r7, #12]
 513 0042 0133     		adds	r3, r3, #1
 514 0044 FB60     		str	r3, [r7, #12]
 515              	.L13:
 139:.\C-CAN.c     ****     for(i=0;i<BUFF;i++){
 516              		.loc 1 139 0 is_stmt 0 discriminator 1
 517 0046 FB68     		ldr	r3, [r7, #12]
 518 0048 3F2B     		cmp	r3, #63
 519 004a F2DD     		ble	.L14
 141:.\C-CAN.c     ****     }
 142:.\C-CAN.c     **** }
 520              		.loc 1 142 0 is_stmt 1
 521 004c 1437     		adds	r7, r7, #20
 522              		.cfi_def_cfa_offset 4
 523 004e BD46     		mov	sp, r7
 524              		.cfi_def_cfa_register 13
 525              		@ sp needed
 526 0050 5DF8047B 		ldr	r7, [sp], #4
 527              		.cfi_restore 7
 528              		.cfi_def_cfa_offset 0
 529 0054 7047     		bx	lr
 530              		.cfi_endproc
 531              	.LFE66:
 532              		.size	PotInit, .-PotInit
 533 0056 00BF     		.section	.text.EncoderInit,"ax",%progbits
 534              		.align	2
 535              		.global	EncoderInit
 536              		.thumb
 537              		.thumb_func
 538              		.type	EncoderInit, %function
 539              	EncoderInit:
ARM GAS  C:\Users\Patrick\AppData\Local\Temp\cc4ZZri1.s 			page 13


 540              	.LFB67:
 143:.\C-CAN.c     **** 
 144:.\C-CAN.c     **** void EncoderInit(Encoder * encoder){
 541              		.loc 1 144 0
 542              		.cfi_startproc
 543              		@ args = 0, pretend = 0, frame = 16
 544              		@ frame_needed = 1, uses_anonymous_args = 0
 545              		@ link register save eliminated.
 546 0000 80B4     		push	{r7}
 547              		.cfi_def_cfa_offset 4
 548              		.cfi_offset 7, -4
 549 0002 85B0     		sub	sp, sp, #20
 550              		.cfi_def_cfa_offset 24
 551 0004 00AF     		add	r7, sp, #0
 552              		.cfi_def_cfa_register 7
 553 0006 7860     		str	r0, [r7, #4]
 145:.\C-CAN.c     ****     
 146:.\C-CAN.c     ****     /* Same thing as the PotInit function, except Encoder objects have an accumulator that's a 
 147:.\C-CAN.c     ****     *  float rather than an integer, so the Encoder accumulator is not inherited from the Sensor
 148:.\C-CAN.c     ****     *  object.
 149:.\C-CAN.c     ****     */
 150:.\C-CAN.c     ****     int i = 0;
 554              		.loc 1 150 0
 555 0008 0023     		movs	r3, #0
 556 000a FB60     		str	r3, [r7, #12]
 151:.\C-CAN.c     ****     encoder->accumulator = 0;
 557              		.loc 1 151 0
 558 000c 7B68     		ldr	r3, [r7, #4]
 559 000e 4FF00002 		mov	r2, #0
 560 0012 C3F8A020 		str	r2, [r3, #160]	@ float
 152:.\C-CAN.c     ****     encoder->rpm = 0;
 561              		.loc 1 152 0
 562 0016 7B68     		ldr	r3, [r7, #4]
 563 0018 4FF00002 		mov	r2, #0
 564 001c C3F8A420 		str	r2, [r3, #164]	@ float
 153:.\C-CAN.c     ****     encoder->sensor.index = 0;
 565              		.loc 1 153 0
 566 0020 7B68     		ldr	r3, [r7, #4]
 567 0022 0022     		movs	r2, #0
 568 0024 83F89920 		strb	r2, [r3, #153]
 154:.\C-CAN.c     ****     encoder->sensor.flag = 0;
 569              		.loc 1 154 0
 570 0028 7B68     		ldr	r3, [r7, #4]
 571 002a 0022     		movs	r2, #0
 572 002c 83F89B20 		strb	r2, [r3, #155]
 155:.\C-CAN.c     ****     for(i=0;i<BUFF;i++){
 573              		.loc 1 155 0
 574 0030 0023     		movs	r3, #0
 575 0032 FB60     		str	r3, [r7, #12]
 576 0034 09E0     		b	.L16
 577              	.L17:
 156:.\C-CAN.c     ****         encoder->sensor.data[i]=0;
 578              		.loc 1 156 0 discriminator 3
 579 0036 7A68     		ldr	r2, [r7, #4]
 580 0038 FB68     		ldr	r3, [r7, #12]
 581 003a 0833     		adds	r3, r3, #8
 582 003c 5B00     		lsls	r3, r3, #1
ARM GAS  C:\Users\Patrick\AppData\Local\Temp\cc4ZZri1.s 			page 14


 583 003e 1344     		add	r3, r3, r2
 584 0040 0022     		movs	r2, #0
 585 0042 5A80     		strh	r2, [r3, #2]	@ movhi
 155:.\C-CAN.c     ****     for(i=0;i<BUFF;i++){
 586              		.loc 1 155 0 discriminator 3
 587 0044 FB68     		ldr	r3, [r7, #12]
 588 0046 0133     		adds	r3, r3, #1
 589 0048 FB60     		str	r3, [r7, #12]
 590              	.L16:
 155:.\C-CAN.c     ****     for(i=0;i<BUFF;i++){
 591              		.loc 1 155 0 is_stmt 0 discriminator 1
 592 004a FB68     		ldr	r3, [r7, #12]
 593 004c 3F2B     		cmp	r3, #63
 594 004e F2DD     		ble	.L17
 157:.\C-CAN.c     ****     }
 158:.\C-CAN.c     **** }
 595              		.loc 1 158 0 is_stmt 1
 596 0050 1437     		adds	r7, r7, #20
 597              		.cfi_def_cfa_offset 4
 598 0052 BD46     		mov	sp, r7
 599              		.cfi_def_cfa_register 13
 600              		@ sp needed
 601 0054 5DF8047B 		ldr	r7, [sp], #4
 602              		.cfi_restore 7
 603              		.cfi_def_cfa_offset 0
 604 0058 7047     		bx	lr
 605              		.cfi_endproc
 606              	.LFE67:
 607              		.size	EncoderInit, .-EncoderInit
 608 005a 00BF     		.section	.text.Config,"ax",%progbits
 609              		.align	2
 610              		.global	Config
 611              		.thumb
 612              		.thumb_func
 613              		.type	Config, %function
 614              	Config:
 615              	.LFB68:
 159:.\C-CAN.c     **** 
 160:.\C-CAN.c     **** void Config(void){
 616              		.loc 1 160 0
 617              		.cfi_startproc
 618              		@ args = 0, pretend = 0, frame = 0
 619              		@ frame_needed = 1, uses_anonymous_args = 0
 620              		@ link register save eliminated.
 621 0000 80B4     		push	{r7}
 622              		.cfi_def_cfa_offset 4
 623              		.cfi_offset 7, -4
 624 0002 00AF     		add	r7, sp, #0
 625              		.cfi_def_cfa_register 7
 161:.\C-CAN.c     ****     
 162:.\C-CAN.c     **** }
 626              		.loc 1 162 0
 627 0004 BD46     		mov	sp, r7
 628              		.cfi_def_cfa_register 13
 629              		@ sp needed
 630 0006 5DF8047B 		ldr	r7, [sp], #4
 631              		.cfi_restore 7
ARM GAS  C:\Users\Patrick\AppData\Local\Temp\cc4ZZri1.s 			page 15


 632              		.cfi_def_cfa_offset 0
 633 000a 7047     		bx	lr
 634              		.cfi_endproc
 635              	.LFE68:
 636              		.size	Config, .-Config
 637              		.section	.text.CAN_Send,"ax",%progbits
 638              		.align	2
 639              		.global	CAN_Send
 640              		.thumb
 641              		.thumb_func
 642              		.type	CAN_Send, %function
 643              	CAN_Send:
 644              	.LFB69:
 163:.\C-CAN.c     **** 
 164:.\C-CAN.c     **** void CAN_Send(uint8 zero, uint8 one, uint8 two, uint8 three, uint8 four, uint8 five, uint8 six, uin
 645              		.loc 1 164 0
 646              		.cfi_startproc
 647              		@ args = 16, pretend = 0, frame = 8
 648              		@ frame_needed = 1, uses_anonymous_args = 0
 649              		@ link register save eliminated.
 650 0000 90B4     		push	{r4, r7}
 651              		.cfi_def_cfa_offset 8
 652              		.cfi_offset 4, -8
 653              		.cfi_offset 7, -4
 654 0002 82B0     		sub	sp, sp, #8
 655              		.cfi_def_cfa_offset 16
 656 0004 00AF     		add	r7, sp, #0
 657              		.cfi_def_cfa_register 7
 658 0006 0446     		mov	r4, r0
 659 0008 0846     		mov	r0, r1
 660 000a 1146     		mov	r1, r2
 661 000c 1A46     		mov	r2, r3
 662 000e 2346     		mov	r3, r4
 663 0010 FB71     		strb	r3, [r7, #7]
 664 0012 0346     		mov	r3, r0
 665 0014 BB71     		strb	r3, [r7, #6]
 666 0016 0B46     		mov	r3, r1
 667 0018 7B71     		strb	r3, [r7, #5]
 668 001a 1346     		mov	r3, r2
 669 001c 3B71     		strb	r3, [r7, #4]
 165:.\C-CAN.c     ****     TxMessage1[0] = zero;
 670              		.loc 1 165 0
 671 001e 0E4A     		ldr	r2, .L20
 672 0020 FB79     		ldrb	r3, [r7, #7]
 673 0022 1370     		strb	r3, [r2]
 166:.\C-CAN.c     ****     TxMessage1[1] = one;
 674              		.loc 1 166 0
 675 0024 0C4A     		ldr	r2, .L20
 676 0026 BB79     		ldrb	r3, [r7, #6]
 677 0028 5370     		strb	r3, [r2, #1]
 167:.\C-CAN.c     ****     TxMessage1[2] = two;
 678              		.loc 1 167 0
 679 002a 0B4A     		ldr	r2, .L20
 680 002c 7B79     		ldrb	r3, [r7, #5]
 681 002e 9370     		strb	r3, [r2, #2]
 168:.\C-CAN.c     ****     TxMessage1[3] = three;
 682              		.loc 1 168 0
ARM GAS  C:\Users\Patrick\AppData\Local\Temp\cc4ZZri1.s 			page 16


 683 0030 094A     		ldr	r2, .L20
 684 0032 3B79     		ldrb	r3, [r7, #4]
 685 0034 D370     		strb	r3, [r2, #3]
 169:.\C-CAN.c     ****     TxMessage1[4] = four;
 686              		.loc 1 169 0
 687 0036 084A     		ldr	r2, .L20
 688 0038 3B7C     		ldrb	r3, [r7, #16]
 689 003a 1371     		strb	r3, [r2, #4]
 170:.\C-CAN.c     ****     TxMessage1[5] = five;
 690              		.loc 1 170 0
 691 003c 064A     		ldr	r2, .L20
 692 003e 3B7D     		ldrb	r3, [r7, #20]
 693 0040 5371     		strb	r3, [r2, #5]
 171:.\C-CAN.c     ****     TxMessage1[6] = six;
 694              		.loc 1 171 0
 695 0042 054A     		ldr	r2, .L20
 696 0044 3B7E     		ldrb	r3, [r7, #24]
 697 0046 9371     		strb	r3, [r2, #6]
 172:.\C-CAN.c     ****     TxMessage1[7] = seven;
 698              		.loc 1 172 0
 699 0048 034A     		ldr	r2, .L20
 700 004a 3B7F     		ldrb	r3, [r7, #28]
 701 004c D371     		strb	r3, [r2, #7]
 173:.\C-CAN.c     **** }
 702              		.loc 1 173 0
 703 004e 0837     		adds	r7, r7, #8
 704              		.cfi_def_cfa_offset 8
 705 0050 BD46     		mov	sp, r7
 706              		.cfi_def_cfa_register 13
 707              		@ sp needed
 708 0052 90BC     		pop	{r4, r7}
 709              		.cfi_restore 7
 710              		.cfi_restore 4
 711              		.cfi_def_cfa_offset 0
 712 0054 7047     		bx	lr
 713              	.L21:
 714 0056 00BF     		.align	2
 715              	.L20:
 716 0058 00000000 		.word	TxMessage1
 717              		.cfi_endproc
 718              	.LFE69:
 719              		.size	CAN_Send, .-CAN_Send
 720              		.section	.text.SetFlag,"ax",%progbits
 721              		.align	2
 722              		.global	SetFlag
 723              		.thumb
 724              		.thumb_func
 725              		.type	SetFlag, %function
 726              	SetFlag:
 727              	.LFB70:
 174:.\C-CAN.c     ****     
 175:.\C-CAN.c     **** void SetFlag(Sensor * sensor, bool flag_set){ //Sets the execution flag for sensor sampling
 728              		.loc 1 175 0
 729              		.cfi_startproc
 730              		@ args = 0, pretend = 0, frame = 8
 731              		@ frame_needed = 1, uses_anonymous_args = 0
 732              		@ link register save eliminated.
ARM GAS  C:\Users\Patrick\AppData\Local\Temp\cc4ZZri1.s 			page 17


 733 0000 80B4     		push	{r7}
 734              		.cfi_def_cfa_offset 4
 735              		.cfi_offset 7, -4
 736 0002 83B0     		sub	sp, sp, #12
 737              		.cfi_def_cfa_offset 16
 738 0004 00AF     		add	r7, sp, #0
 739              		.cfi_def_cfa_register 7
 740 0006 7860     		str	r0, [r7, #4]
 741 0008 0B46     		mov	r3, r1
 742 000a FB70     		strb	r3, [r7, #3]
 176:.\C-CAN.c     ****     sensor->flag = flag_set;
 743              		.loc 1 176 0
 744 000c 7B68     		ldr	r3, [r7, #4]
 745 000e FA78     		ldrb	r2, [r7, #3]
 746 0010 83F89B20 		strb	r2, [r3, #155]
 177:.\C-CAN.c     **** }
 747              		.loc 1 177 0
 748 0014 0C37     		adds	r7, r7, #12
 749              		.cfi_def_cfa_offset 4
 750 0016 BD46     		mov	sp, r7
 751              		.cfi_def_cfa_register 13
 752              		@ sp needed
 753 0018 5DF8047B 		ldr	r7, [sp], #4
 754              		.cfi_restore 7
 755              		.cfi_def_cfa_offset 0
 756 001c 7047     		bx	lr
 757              		.cfi_endproc
 758              	.LFE70:
 759              		.size	SetFlag, .-SetFlag
 760 001e 00BF     		.section	.text.GetRate,"ax",%progbits
 761              		.align	2
 762              		.global	GetRate
 763              		.thumb
 764              		.thumb_func
 765              		.type	GetRate, %function
 766              	GetRate:
 767              	.LFB71:
 178:.\C-CAN.c     **** 
 179:.\C-CAN.c     **** uint16 GetRate(Sensor * sensor){ //Gets the sampling rate for a sensor to determine when to set the
 768              		.loc 1 179 0
 769              		.cfi_startproc
 770              		@ args = 0, pretend = 0, frame = 8
 771              		@ frame_needed = 1, uses_anonymous_args = 0
 772              		@ link register save eliminated.
 773 0000 80B4     		push	{r7}
 774              		.cfi_def_cfa_offset 4
 775              		.cfi_offset 7, -4
 776 0002 83B0     		sub	sp, sp, #12
 777              		.cfi_def_cfa_offset 16
 778 0004 00AF     		add	r7, sp, #0
 779              		.cfi_def_cfa_register 7
 780 0006 7860     		str	r0, [r7, #4]
 180:.\C-CAN.c     ****     return INTERRUPT_FREQ/(sensor->rate);
 781              		.loc 1 180 0
 782 0008 7B68     		ldr	r3, [r7, #4]
 783 000a B3F89E30 		ldrh	r3, [r3, #158]
 784 000e 4CF25032 		movw	r2, #50000
ARM GAS  C:\Users\Patrick\AppData\Local\Temp\cc4ZZri1.s 			page 18


 785 0012 B2FBF3F3 		udiv	r3, r2, r3
 786 0016 9BB2     		uxth	r3, r3
 181:.\C-CAN.c     **** }
 787              		.loc 1 181 0
 788 0018 1846     		mov	r0, r3
 789 001a 0C37     		adds	r7, r7, #12
 790              		.cfi_def_cfa_offset 4
 791 001c BD46     		mov	sp, r7
 792              		.cfi_def_cfa_register 13
 793              		@ sp needed
 794 001e 5DF8047B 		ldr	r7, [sp], #4
 795              		.cfi_restore 7
 796              		.cfi_def_cfa_offset 0
 797 0022 7047     		bx	lr
 798              		.cfi_endproc
 799              	.LFE71:
 800              		.size	GetRate, .-GetRate
 801              		.section	.text.SensorEnable,"ax",%progbits
 802              		.align	2
 803              		.global	SensorEnable
 804              		.thumb
 805              		.thumb_func
 806              		.type	SensorEnable, %function
 807              	SensorEnable:
 808              	.LFB72:
 182:.\C-CAN.c     **** 
 183:.\C-CAN.c     **** void SensorEnable(Sensor * sensor, bool enable_set){ //Enables or disables a sensor
 809              		.loc 1 183 0
 810              		.cfi_startproc
 811              		@ args = 0, pretend = 0, frame = 8
 812              		@ frame_needed = 1, uses_anonymous_args = 0
 813              		@ link register save eliminated.
 814 0000 80B4     		push	{r7}
 815              		.cfi_def_cfa_offset 4
 816              		.cfi_offset 7, -4
 817 0002 83B0     		sub	sp, sp, #12
 818              		.cfi_def_cfa_offset 16
 819 0004 00AF     		add	r7, sp, #0
 820              		.cfi_def_cfa_register 7
 821 0006 7860     		str	r0, [r7, #4]
 822 0008 0B46     		mov	r3, r1
 823 000a FB70     		strb	r3, [r7, #3]
 184:.\C-CAN.c     ****     sensor->enable = enable_set;
 824              		.loc 1 184 0
 825 000c 7B68     		ldr	r3, [r7, #4]
 826 000e FA78     		ldrb	r2, [r7, #3]
 827 0010 83F89C20 		strb	r2, [r3, #156]
 185:.\C-CAN.c     **** }
 828              		.loc 1 185 0
 829 0014 0C37     		adds	r7, r7, #12
 830              		.cfi_def_cfa_offset 4
 831 0016 BD46     		mov	sp, r7
 832              		.cfi_def_cfa_register 13
 833              		@ sp needed
 834 0018 5DF8047B 		ldr	r7, [sp], #4
 835              		.cfi_restore 7
 836              		.cfi_def_cfa_offset 0
ARM GAS  C:\Users\Patrick\AppData\Local\Temp\cc4ZZri1.s 			page 19


 837 001c 7047     		bx	lr
 838              		.cfi_endproc
 839              	.LFE72:
 840              		.size	SensorEnable, .-SensorEnable
 841 001e 00BF     		.section	.text.EnableSave,"ax",%progbits
 842              		.align	2
 843              		.global	EnableSave
 844              		.thumb
 845              		.thumb_func
 846              		.type	EnableSave, %function
 847              	EnableSave:
 848              	.LFB73:
 186:.\C-CAN.c     **** 
 187:.\C-CAN.c     **** void EnableSave(Sensor * sensor){ //Saves the enable bit for a given sensor to temp_enable
 849              		.loc 1 187 0
 850              		.cfi_startproc
 851              		@ args = 0, pretend = 0, frame = 8
 852              		@ frame_needed = 1, uses_anonymous_args = 0
 853              		@ link register save eliminated.
 854 0000 80B4     		push	{r7}
 855              		.cfi_def_cfa_offset 4
 856              		.cfi_offset 7, -4
 857 0002 83B0     		sub	sp, sp, #12
 858              		.cfi_def_cfa_offset 16
 859 0004 00AF     		add	r7, sp, #0
 860              		.cfi_def_cfa_register 7
 861 0006 7860     		str	r0, [r7, #4]
 188:.\C-CAN.c     ****     temp_enable[sensor->number] = sensor->enable;
 862              		.loc 1 188 0
 863 0008 7B68     		ldr	r3, [r7, #4]
 864 000a 93F89830 		ldrb	r3, [r3, #152]	@ zero_extendqisi2
 865 000e 1A46     		mov	r2, r3
 866 0010 7B68     		ldr	r3, [r7, #4]
 867 0012 93F89C10 		ldrb	r1, [r3, #156]	@ zero_extendqisi2
 868 0016 034B     		ldr	r3, .L27
 869 0018 9954     		strb	r1, [r3, r2]
 189:.\C-CAN.c     **** }
 870              		.loc 1 189 0
 871 001a 0C37     		adds	r7, r7, #12
 872              		.cfi_def_cfa_offset 4
 873 001c BD46     		mov	sp, r7
 874              		.cfi_def_cfa_register 13
 875              		@ sp needed
 876 001e 5DF8047B 		ldr	r7, [sp], #4
 877              		.cfi_restore 7
 878              		.cfi_def_cfa_offset 0
 879 0022 7047     		bx	lr
 880              	.L28:
 881              		.align	2
 882              	.L27:
 883 0024 00000000 		.word	temp_enable
 884              		.cfi_endproc
 885              	.LFE73:
 886              		.size	EnableSave, .-EnableSave
 887              		.section	.text.EnableRestore,"ax",%progbits
 888              		.align	2
 889              		.global	EnableRestore
ARM GAS  C:\Users\Patrick\AppData\Local\Temp\cc4ZZri1.s 			page 20


 890              		.thumb
 891              		.thumb_func
 892              		.type	EnableRestore, %function
 893              	EnableRestore:
 894              	.LFB74:
 190:.\C-CAN.c     **** 
 191:.\C-CAN.c     **** void EnableRestore(Sensor * sensor){ //Restores the enable setting for a sensor
 895              		.loc 1 191 0
 896              		.cfi_startproc
 897              		@ args = 0, pretend = 0, frame = 8
 898              		@ frame_needed = 1, uses_anonymous_args = 0
 899              		@ link register save eliminated.
 900 0000 80B4     		push	{r7}
 901              		.cfi_def_cfa_offset 4
 902              		.cfi_offset 7, -4
 903 0002 83B0     		sub	sp, sp, #12
 904              		.cfi_def_cfa_offset 16
 905 0004 00AF     		add	r7, sp, #0
 906              		.cfi_def_cfa_register 7
 907 0006 7860     		str	r0, [r7, #4]
 192:.\C-CAN.c     ****     sensor->enable = temp_enable[sensor->number];
 908              		.loc 1 192 0
 909 0008 7B68     		ldr	r3, [r7, #4]
 910 000a 93F89830 		ldrb	r3, [r3, #152]	@ zero_extendqisi2
 911 000e 1A46     		mov	r2, r3
 912 0010 044B     		ldr	r3, .L30
 913 0012 9A5C     		ldrb	r2, [r3, r2]	@ zero_extendqisi2
 914 0014 7B68     		ldr	r3, [r7, #4]
 915 0016 83F89C20 		strb	r2, [r3, #156]
 193:.\C-CAN.c     **** }
 916              		.loc 1 193 0
 917 001a 0C37     		adds	r7, r7, #12
 918              		.cfi_def_cfa_offset 4
 919 001c BD46     		mov	sp, r7
 920              		.cfi_def_cfa_register 13
 921              		@ sp needed
 922 001e 5DF8047B 		ldr	r7, [sp], #4
 923              		.cfi_restore 7
 924              		.cfi_def_cfa_offset 0
 925 0022 7047     		bx	lr
 926              	.L31:
 927              		.align	2
 928              	.L30:
 929 0024 00000000 		.word	temp_enable
 930              		.cfi_endproc
 931              	.LFE74:
 932              		.size	EnableRestore, .-EnableRestore
 933              		.text
 934              	.Letext0:
 935              		.file 2 "c:\\program files (x86)\\cypress\\psoc creator\\3.3\\psoc creator\\import\\gnu\\arm\\4.9.
 936              		.file 3 "c:\\program files (x86)\\cypress\\psoc creator\\3.3\\psoc creator\\import\\gnu\\arm\\4.9.
 937              		.file 4 "Generated_Source\\PSoC5/cytypes.h"
 938              		.file 5 "./C-CAN.h"
 939              		.file 6 "Generated_Source\\PSoC5/core_cm3.h"