ARM GAS  C:\Users\Patrick\AppData\Local\Temp\ccwoLOMC.s 			page 1


   1              		.syntax unified
   2              		.cpu cortex-m3
   3              		.fpu softvfp
   4              		.eabi_attribute 20, 1
   5              		.eabi_attribute 21, 1
   6              		.eabi_attribute 23, 3
   7              		.eabi_attribute 24, 1
   8              		.eabi_attribute 25, 1
   9              		.eabi_attribute 26, 1
  10              		.eabi_attribute 30, 6
  11              		.eabi_attribute 34, 1
  12              		.eabi_attribute 18, 4
  13              		.thumb
  14              		.file	"CAN_1_TX_RX_func.c"
  15              		.text
  16              	.Ltext0:
  17              		.cfi_sections	.debug_frame
  18              		.comm	bIndex,1,1
  19              		.section	.text.CAN_1_SendMsg,"ax",%progbits
  20              		.align	2
  21              		.global	CAN_1_SendMsg
  22              		.thumb
  23              		.thumb_func
  24              		.type	CAN_1_SendMsg, %function
  25              	CAN_1_SendMsg:
  26              	.LFB0:
  27              		.file 1 ".\\Generated_Source\\PSoC5\\CAN_1_TX_RX_func.c"
   1:.\Generated_Source\PSoC5/CAN_1_TX_RX_func.c **** /*******************************************************************************
   2:.\Generated_Source\PSoC5/CAN_1_TX_RX_func.c **** * File Name: CAN_1_TX_RX_func.c
   3:.\Generated_Source\PSoC5/CAN_1_TX_RX_func.c **** * Version 3.0
   4:.\Generated_Source\PSoC5/CAN_1_TX_RX_func.c **** *
   5:.\Generated_Source\PSoC5/CAN_1_TX_RX_func.c **** * Description:
   6:.\Generated_Source\PSoC5/CAN_1_TX_RX_func.c **** *  There are functions process "Full" Receive and Transmit mailboxes:
   7:.\Generated_Source\PSoC5/CAN_1_TX_RX_func.c **** *     - CAN_1_SendMsg0-7();
   8:.\Generated_Source\PSoC5/CAN_1_TX_RX_func.c **** *     - CAN_1_ReceiveMsg0-15();
   9:.\Generated_Source\PSoC5/CAN_1_TX_RX_func.c **** *  Transmission of message, and receive routine for "Basic" mailboxes:
  10:.\Generated_Source\PSoC5/CAN_1_TX_RX_func.c **** *     - CAN_1_SendMsg();
  11:.\Generated_Source\PSoC5/CAN_1_TX_RX_func.c **** *     - CAN_1_TxCancel();
  12:.\Generated_Source\PSoC5/CAN_1_TX_RX_func.c **** *     - CAN_1_ReceiveMsg();
  13:.\Generated_Source\PSoC5/CAN_1_TX_RX_func.c **** *
  14:.\Generated_Source\PSoC5/CAN_1_TX_RX_func.c **** *  Note:
  15:.\Generated_Source\PSoC5/CAN_1_TX_RX_func.c **** *   None
  16:.\Generated_Source\PSoC5/CAN_1_TX_RX_func.c **** *
  17:.\Generated_Source\PSoC5/CAN_1_TX_RX_func.c **** ********************************************************************************
  18:.\Generated_Source\PSoC5/CAN_1_TX_RX_func.c **** * Copyright 2008-2015, Cypress Semiconductor Corporation.  All rights reserved.
  19:.\Generated_Source\PSoC5/CAN_1_TX_RX_func.c **** * You may use this file only in accordance with the license, terms, conditions,
  20:.\Generated_Source\PSoC5/CAN_1_TX_RX_func.c **** * disclaimers, and limitations in the end user license agreement accompanying
  21:.\Generated_Source\PSoC5/CAN_1_TX_RX_func.c **** * the software package with which this file was provided.
  22:.\Generated_Source\PSoC5/CAN_1_TX_RX_func.c **** *******************************************************************************/
  23:.\Generated_Source\PSoC5/CAN_1_TX_RX_func.c **** 
  24:.\Generated_Source\PSoC5/CAN_1_TX_RX_func.c **** #include "CAN_1.h"
  25:.\Generated_Source\PSoC5/CAN_1_TX_RX_func.c **** 
  26:.\Generated_Source\PSoC5/CAN_1_TX_RX_func.c **** 
  27:.\Generated_Source\PSoC5/CAN_1_TX_RX_func.c **** /* `#START TX_RX_FUNCTION` */
  28:.\Generated_Source\PSoC5/CAN_1_TX_RX_func.c **** 
  29:.\Generated_Source\PSoC5/CAN_1_TX_RX_func.c **** #define DATALENGTH1 0x08
  30:.\Generated_Source\PSoC5/CAN_1_TX_RX_func.c **** extern uint8 TxMessage1[8];
ARM GAS  C:\Users\Patrick\AppData\Local\Temp\ccwoLOMC.s 			page 2


  31:.\Generated_Source\PSoC5/CAN_1_TX_RX_func.c **** extern uint8 RxMessage1[8];
  32:.\Generated_Source\PSoC5/CAN_1_TX_RX_func.c **** extern uint8 RXDLC1;
  33:.\Generated_Source\PSoC5/CAN_1_TX_RX_func.c **** extern uint8 RxFlag1;
  34:.\Generated_Source\PSoC5/CAN_1_TX_RX_func.c **** uint8 bIndex;
  35:.\Generated_Source\PSoC5/CAN_1_TX_RX_func.c **** 
  36:.\Generated_Source\PSoC5/CAN_1_TX_RX_func.c **** /* `#END` */
  37:.\Generated_Source\PSoC5/CAN_1_TX_RX_func.c **** 
  38:.\Generated_Source\PSoC5/CAN_1_TX_RX_func.c **** 
  39:.\Generated_Source\PSoC5/CAN_1_TX_RX_func.c **** /*******************************************************************************
  40:.\Generated_Source\PSoC5/CAN_1_TX_RX_func.c **** * FUNCTION NAME:   CAN_1_SendMsg
  41:.\Generated_Source\PSoC5/CAN_1_TX_RX_func.c **** ********************************************************************************
  42:.\Generated_Source\PSoC5/CAN_1_TX_RX_func.c **** *
  43:.\Generated_Source\PSoC5/CAN_1_TX_RX_func.c **** * Summary:
  44:.\Generated_Source\PSoC5/CAN_1_TX_RX_func.c **** *  This function is Send Message from one of Basic mailboxes. The function loops
  45:.\Generated_Source\PSoC5/CAN_1_TX_RX_func.c **** *  through the transmit message buffer designed as Basic CAN mailboxes for the
  46:.\Generated_Source\PSoC5/CAN_1_TX_RX_func.c **** *  first free available and sends from it. The number of retries is limited.
  47:.\Generated_Source\PSoC5/CAN_1_TX_RX_func.c **** *
  48:.\Generated_Source\PSoC5/CAN_1_TX_RX_func.c **** * Parameters:
  49:.\Generated_Source\PSoC5/CAN_1_TX_RX_func.c **** *  message: The pointer to a structure that contains all required data to send
  50:.\Generated_Source\PSoC5/CAN_1_TX_RX_func.c **** *           messages.
  51:.\Generated_Source\PSoC5/CAN_1_TX_RX_func.c **** *
  52:.\Generated_Source\PSoC5/CAN_1_TX_RX_func.c **** * Return:
  53:.\Generated_Source\PSoC5/CAN_1_TX_RX_func.c **** *  Indication if message has been sent.
  54:.\Generated_Source\PSoC5/CAN_1_TX_RX_func.c **** *   Define                             Description
  55:.\Generated_Source\PSoC5/CAN_1_TX_RX_func.c **** *    CYRET_SUCCESS                      The function passed successfully
  56:.\Generated_Source\PSoC5/CAN_1_TX_RX_func.c **** *    CAN_1_FAIL              The function failed
  57:.\Generated_Source\PSoC5/CAN_1_TX_RX_func.c **** *
  58:.\Generated_Source\PSoC5/CAN_1_TX_RX_func.c **** *******************************************************************************/
  59:.\Generated_Source\PSoC5/CAN_1_TX_RX_func.c **** uint8 CAN_1_SendMsg(const CAN_1_TX_MSG *message) 
  60:.\Generated_Source\PSoC5/CAN_1_TX_RX_func.c **** {
  28              		.loc 1 60 0
  29              		.cfi_startproc
  30              		@ args = 0, pretend = 0, frame = 24
  31              		@ frame_needed = 1, uses_anonymous_args = 0
  32              		@ link register save eliminated.
  33 0000 80B4     		push	{r7}
  34              		.cfi_def_cfa_offset 4
  35              		.cfi_offset 7, -4
  36 0002 87B0     		sub	sp, sp, #28
  37              		.cfi_def_cfa_offset 32
  38 0004 00AF     		add	r7, sp, #0
  39              		.cfi_def_cfa_register 7
  40 0006 7860     		str	r0, [r7, #4]
  61:.\Generated_Source\PSoC5/CAN_1_TX_RX_func.c ****     uint8 i, j, shift;
  62:.\Generated_Source\PSoC5/CAN_1_TX_RX_func.c ****     uint8 retry = 0u;
  41              		.loc 1 62 0
  42 0008 0023     		movs	r3, #0
  43 000a 3B75     		strb	r3, [r7, #20]
  63:.\Generated_Source\PSoC5/CAN_1_TX_RX_func.c ****     uint8 result = CAN_1_FAIL;
  44              		.loc 1 63 0
  45 000c 0123     		movs	r3, #1
  46 000e FB74     		strb	r3, [r7, #19]
  64:.\Generated_Source\PSoC5/CAN_1_TX_RX_func.c ****     uint32 regTemp;
  65:.\Generated_Source\PSoC5/CAN_1_TX_RX_func.c **** 
  66:.\Generated_Source\PSoC5/CAN_1_TX_RX_func.c ****     while (retry < CAN_1_RETRY_NUMBER)
  47              		.loc 1 66 0
  48 0010 A2E0     		b	.L2
ARM GAS  C:\Users\Patrick\AppData\Local\Temp\ccwoLOMC.s 			page 3


  49              	.L21:
  67:.\Generated_Source\PSoC5/CAN_1_TX_RX_func.c ****     {
  68:.\Generated_Source\PSoC5/CAN_1_TX_RX_func.c ****         shift = 1u;    /* Start from first mailbox */
  50              		.loc 1 68 0
  51 0012 0123     		movs	r3, #1
  52 0014 7B75     		strb	r3, [r7, #21]
  69:.\Generated_Source\PSoC5/CAN_1_TX_RX_func.c ****         for (i = 0u; i < CAN_1_NUMBER_OF_TX_MAILBOXES; i++)
  53              		.loc 1 69 0
  54 0016 0023     		movs	r3, #0
  55 0018 FB75     		strb	r3, [r7, #23]
  56 001a 92E0     		b	.L3
  57              	.L18:
  70:.\Generated_Source\PSoC5/CAN_1_TX_RX_func.c ****         {
  71:.\Generated_Source\PSoC5/CAN_1_TX_RX_func.c ****             /* Find Basic TX mailboxes */
  72:.\Generated_Source\PSoC5/CAN_1_TX_RX_func.c ****             if ((CAN_1_TX_MAILBOX_TYPE & shift) == 0u)
  58              		.loc 1 72 0
  59 001c 7B7D     		ldrb	r3, [r7, #21]
  60 001e 03F00103 		and	r3, r3, #1
  61 0022 DBB2     		uxtb	r3, r3
  62 0024 002B     		cmp	r3, #0
  63 0026 40F08280 		bne	.L4
  73:.\Generated_Source\PSoC5/CAN_1_TX_RX_func.c ****             {
  74:.\Generated_Source\PSoC5/CAN_1_TX_RX_func.c ****                 /* Find free mailbox */
  75:.\Generated_Source\PSoC5/CAN_1_TX_RX_func.c ****                 #if (CY_PSOC3 || CY_PSOC5)
  76:.\Generated_Source\PSoC5/CAN_1_TX_RX_func.c ****                     if ((CAN_1_BUF_SR_REG.byte[2] & shift) == 0u)
  64              		.loc 1 76 0
  65 002a 514B     		ldr	r3, .L23
  66 002c 9B78     		ldrb	r3, [r3, #2]
  67 002e DAB2     		uxtb	r2, r3
  68 0030 7B7D     		ldrb	r3, [r7, #21]
  69 0032 1340     		ands	r3, r3, r2
  70 0034 DBB2     		uxtb	r3, r3
  71 0036 002B     		cmp	r3, #0
  72 0038 79D1     		bne	.L4
  77:.\Generated_Source\PSoC5/CAN_1_TX_RX_func.c ****                 #else  /* CY_PSOC4 */
  78:.\Generated_Source\PSoC5/CAN_1_TX_RX_func.c ****                     if ((CAN_1_BUF_SR_REG &
  79:.\Generated_Source\PSoC5/CAN_1_TX_RX_func.c ****                         (uint32) ((uint32) shift << CAN_1_TWO_BYTE_OFFSET)) == 0u)
  80:.\Generated_Source\PSoC5/CAN_1_TX_RX_func.c ****                 #endif /* CY_PSOC3 || CY_PSOC5 */
  81:.\Generated_Source\PSoC5/CAN_1_TX_RX_func.c ****                     {
  82:.\Generated_Source\PSoC5/CAN_1_TX_RX_func.c ****                         regTemp = 0u;
  73              		.loc 1 82 0
  74 003a 0023     		movs	r3, #0
  75 003c FB60     		str	r3, [r7, #12]
  83:.\Generated_Source\PSoC5/CAN_1_TX_RX_func.c **** 
  84:.\Generated_Source\PSoC5/CAN_1_TX_RX_func.c ****                         /* Set message parameters */
  85:.\Generated_Source\PSoC5/CAN_1_TX_RX_func.c ****                         if (message->rtr != CAN_1_STANDARD_MESSAGE)
  76              		.loc 1 85 0
  77 003e 7B68     		ldr	r3, [r7, #4]
  78 0040 1B79     		ldrb	r3, [r3, #4]	@ zero_extendqisi2
  79 0042 002B     		cmp	r3, #0
  80 0044 02D0     		beq	.L5
  86:.\Generated_Source\PSoC5/CAN_1_TX_RX_func.c ****                         {
  87:.\Generated_Source\PSoC5/CAN_1_TX_RX_func.c ****                             regTemp = CAN_1_TX_RTR_MASK;    /* RTR message Enable */
  81              		.loc 1 87 0
  82 0046 4FF40013 		mov	r3, #2097152
  83 004a FB60     		str	r3, [r7, #12]
  84              	.L5:
ARM GAS  C:\Users\Patrick\AppData\Local\Temp\ccwoLOMC.s 			page 4


  88:.\Generated_Source\PSoC5/CAN_1_TX_RX_func.c ****                         }
  89:.\Generated_Source\PSoC5/CAN_1_TX_RX_func.c **** 
  90:.\Generated_Source\PSoC5/CAN_1_TX_RX_func.c ****                         if (message->ide == CAN_1_STANDARD_MESSAGE)
  85              		.loc 1 90 0
  86 004c 7B68     		ldr	r3, [r7, #4]
  87 004e 5B79     		ldrb	r3, [r3, #5]	@ zero_extendqisi2
  88 0050 002B     		cmp	r3, #0
  89 0052 09D1     		bne	.L6
  91:.\Generated_Source\PSoC5/CAN_1_TX_RX_func.c ****                         {
  92:.\Generated_Source\PSoC5/CAN_1_TX_RX_func.c ****                             CAN_1_SET_TX_ID_STANDARD_MSG(i, message->id);
  90              		.loc 1 92 0
  91 0054 FB7D     		ldrb	r3, [r7, #23]	@ zero_extendqisi2
  92 0056 1A01     		lsls	r2, r3, #4
  93 0058 464B     		ldr	r3, .L23+4
  94 005a 1344     		add	r3, r3, r2
  95 005c 0433     		adds	r3, r3, #4
  96 005e 7A68     		ldr	r2, [r7, #4]
  97 0060 1268     		ldr	r2, [r2]
  98 0062 5205     		lsls	r2, r2, #21
  99 0064 1A60     		str	r2, [r3]
 100 0066 0CE0     		b	.L7
 101              	.L6:
  93:.\Generated_Source\PSoC5/CAN_1_TX_RX_func.c ****                         }
  94:.\Generated_Source\PSoC5/CAN_1_TX_RX_func.c ****                         else
  95:.\Generated_Source\PSoC5/CAN_1_TX_RX_func.c ****                         {
  96:.\Generated_Source\PSoC5/CAN_1_TX_RX_func.c ****                             regTemp |= CAN_1_TX_IDE_MASK;
 102              		.loc 1 96 0
 103 0068 FB68     		ldr	r3, [r7, #12]
 104 006a 43F48013 		orr	r3, r3, #1048576
 105 006e FB60     		str	r3, [r7, #12]
  97:.\Generated_Source\PSoC5/CAN_1_TX_RX_func.c ****                             CAN_1_SET_TX_ID_EXTENDED_MSG(i, message->id);
 106              		.loc 1 97 0
 107 0070 FB7D     		ldrb	r3, [r7, #23]	@ zero_extendqisi2
 108 0072 1A01     		lsls	r2, r3, #4
 109 0074 3F4B     		ldr	r3, .L23+4
 110 0076 1344     		add	r3, r3, r2
 111 0078 0433     		adds	r3, r3, #4
 112 007a 7A68     		ldr	r2, [r7, #4]
 113 007c 1268     		ldr	r2, [r2]
 114 007e D200     		lsls	r2, r2, #3
 115 0080 1A60     		str	r2, [r3]
 116              	.L7:
  98:.\Generated_Source\PSoC5/CAN_1_TX_RX_func.c ****                         }
  99:.\Generated_Source\PSoC5/CAN_1_TX_RX_func.c **** 
 100:.\Generated_Source\PSoC5/CAN_1_TX_RX_func.c ****                         if (message->dlc < CAN_1_TX_DLC_MAX_VALUE)
 117              		.loc 1 100 0
 118 0082 7B68     		ldr	r3, [r7, #4]
 119 0084 9B79     		ldrb	r3, [r3, #6]	@ zero_extendqisi2
 120 0086 072B     		cmp	r3, #7
 121 0088 06D8     		bhi	.L8
 101:.\Generated_Source\PSoC5/CAN_1_TX_RX_func.c ****                         {
 102:.\Generated_Source\PSoC5/CAN_1_TX_RX_func.c ****                             regTemp |= ((uint32) message->dlc) << CAN_1_TWO_BYTE_OFFSET;
 122              		.loc 1 102 0
 123 008a 7B68     		ldr	r3, [r7, #4]
 124 008c 9B79     		ldrb	r3, [r3, #6]	@ zero_extendqisi2
 125 008e 1B04     		lsls	r3, r3, #16
 126 0090 FA68     		ldr	r2, [r7, #12]
ARM GAS  C:\Users\Patrick\AppData\Local\Temp\ccwoLOMC.s 			page 5


 127 0092 1343     		orrs	r3, r3, r2
 128 0094 FB60     		str	r3, [r7, #12]
 129 0096 03E0     		b	.L9
 130              	.L8:
 103:.\Generated_Source\PSoC5/CAN_1_TX_RX_func.c ****                         }
 104:.\Generated_Source\PSoC5/CAN_1_TX_RX_func.c ****                         else
 105:.\Generated_Source\PSoC5/CAN_1_TX_RX_func.c ****                         {
 106:.\Generated_Source\PSoC5/CAN_1_TX_RX_func.c ****                             regTemp |= CAN_1_TX_DLC_UPPER_VALUE;
 131              		.loc 1 106 0
 132 0098 FB68     		ldr	r3, [r7, #12]
 133 009a 43F40023 		orr	r3, r3, #524288
 134 009e FB60     		str	r3, [r7, #12]
 135              	.L9:
 107:.\Generated_Source\PSoC5/CAN_1_TX_RX_func.c ****                         }
 108:.\Generated_Source\PSoC5/CAN_1_TX_RX_func.c **** 
 109:.\Generated_Source\PSoC5/CAN_1_TX_RX_func.c ****                         if (message->irq != CAN_1_TRANSMIT_INT_DISABLE)
 136              		.loc 1 109 0
 137 00a0 7B68     		ldr	r3, [r7, #4]
 138 00a2 DB79     		ldrb	r3, [r3, #7]	@ zero_extendqisi2
 139 00a4 002B     		cmp	r3, #0
 140 00a6 03D0     		beq	.L10
 110:.\Generated_Source\PSoC5/CAN_1_TX_RX_func.c ****                         {
 111:.\Generated_Source\PSoC5/CAN_1_TX_RX_func.c ****                             regTemp |= CAN_1_TX_INT_ENABLE_MASK;    /* Transmit Interrupt Enable */
 141              		.loc 1 111 0
 142 00a8 FB68     		ldr	r3, [r7, #12]
 143 00aa 43F00403 		orr	r3, r3, #4
 144 00ae FB60     		str	r3, [r7, #12]
 145              	.L10:
 112:.\Generated_Source\PSoC5/CAN_1_TX_RX_func.c ****                         }
 113:.\Generated_Source\PSoC5/CAN_1_TX_RX_func.c **** 
 114:.\Generated_Source\PSoC5/CAN_1_TX_RX_func.c ****                         for (j = 0u; (j < message->dlc) && (j < CAN_1_TX_DLC_MAX_VALUE); j++)
 146              		.loc 1 114 0
 147 00b0 0023     		movs	r3, #0
 148 00b2 BB75     		strb	r3, [r7, #22]
 149 00b4 17E0     		b	.L11
 150              	.L15:
 115:.\Generated_Source\PSoC5/CAN_1_TX_RX_func.c ****                         {
 116:.\Generated_Source\PSoC5/CAN_1_TX_RX_func.c ****                             #if (CY_PSOC3 || CY_PSOC5)
 117:.\Generated_Source\PSoC5/CAN_1_TX_RX_func.c ****                                 CAN_1_TX_DATA_BYTE(i, j) = message->msg->byte[j];
 151              		.loc 1 117 0
 152 00b6 FB7D     		ldrb	r3, [r7, #23]	@ zero_extendqisi2
 153 00b8 1A01     		lsls	r2, r3, #4
 154 00ba 2E4B     		ldr	r3, .L23+4
 155 00bc 1344     		add	r3, r3, r2
 156 00be BA7D     		ldrb	r2, [r7, #22]	@ zero_extendqisi2
 157 00c0 032A     		cmp	r2, #3
 158 00c2 03D9     		bls	.L12
 159              		.loc 1 117 0 is_stmt 0 discriminator 1
 160 00c4 BA7D     		ldrb	r2, [r7, #22]	@ zero_extendqisi2
 161 00c6 C2F10B02 		rsb	r2, r2, #11
 162 00ca 02E0     		b	.L13
 163              	.L12:
 164              		.loc 1 117 0 discriminator 2
 165 00cc BA7D     		ldrb	r2, [r7, #22]	@ zero_extendqisi2
 166 00ce C2F10302 		rsb	r2, r2, #3
 167              	.L13:
 168              		.loc 1 117 0 discriminator 4
ARM GAS  C:\Users\Patrick\AppData\Local\Temp\ccwoLOMC.s 			page 6


 169 00d2 7968     		ldr	r1, [r7, #4]
 170 00d4 8868     		ldr	r0, [r1, #8]
 171 00d6 B97D     		ldrb	r1, [r7, #22]	@ zero_extendqisi2
 172 00d8 415C     		ldrb	r1, [r0, r1]	@ zero_extendqisi2
 173 00da 1344     		add	r3, r3, r2
 174 00dc 0A46     		mov	r2, r1
 175 00de 1A72     		strb	r2, [r3, #8]
 114:.\Generated_Source\PSoC5/CAN_1_TX_RX_func.c ****                         {
 176              		.loc 1 114 0 is_stmt 1 discriminator 4
 177 00e0 BB7D     		ldrb	r3, [r7, #22]	@ zero_extendqisi2
 178 00e2 0133     		adds	r3, r3, #1
 179 00e4 BB75     		strb	r3, [r7, #22]
 180              	.L11:
 114:.\Generated_Source\PSoC5/CAN_1_TX_RX_func.c ****                         {
 181              		.loc 1 114 0 is_stmt 0 discriminator 2
 182 00e6 7B68     		ldr	r3, [r7, #4]
 183 00e8 9B79     		ldrb	r3, [r3, #6]	@ zero_extendqisi2
 184 00ea BA7D     		ldrb	r2, [r7, #22]	@ zero_extendqisi2
 185 00ec 9A42     		cmp	r2, r3
 186 00ee 02D2     		bcs	.L14
 114:.\Generated_Source\PSoC5/CAN_1_TX_RX_func.c ****                         {
 187              		.loc 1 114 0 discriminator 3
 188 00f0 BB7D     		ldrb	r3, [r7, #22]	@ zero_extendqisi2
 189 00f2 072B     		cmp	r3, #7
 190 00f4 DFD9     		bls	.L15
 191              	.L14:
 118:.\Generated_Source\PSoC5/CAN_1_TX_RX_func.c ****                             #else /* CY_PSOC4 */
 119:.\Generated_Source\PSoC5/CAN_1_TX_RX_func.c ****                                 CAN_1_TX_DATA_BYTE(i, j, message->msg->byte[j]);
 120:.\Generated_Source\PSoC5/CAN_1_TX_RX_func.c ****                             #endif /* CY_PSOC3 || CY_PSOC5 */
 121:.\Generated_Source\PSoC5/CAN_1_TX_RX_func.c ****                         }
 122:.\Generated_Source\PSoC5/CAN_1_TX_RX_func.c **** 
 123:.\Generated_Source\PSoC5/CAN_1_TX_RX_func.c ****                         /* Disable isr */
 124:.\Generated_Source\PSoC5/CAN_1_TX_RX_func.c ****     CyIntDisable(CAN_1_ISR_NUMBER);
 192              		.loc 1 124 0 is_stmt 1
 193 00f6 204B     		ldr	r3, .L23+8
 194 00f8 4FF48032 		mov	r2, #65536
 195 00fc 1A60     		str	r2, [r3]
 125:.\Generated_Source\PSoC5/CAN_1_TX_RX_func.c **** 
 126:.\Generated_Source\PSoC5/CAN_1_TX_RX_func.c ****                         /* WPN[23] and WPN[3] set to 1 for write to CAN Control reg */
 127:.\Generated_Source\PSoC5/CAN_1_TX_RX_func.c ****                         CY_SET_REG32(CAN_1_TX_CMD_PTR(i), (regTemp | CAN_1_TX_WPN_SET));
 196              		.loc 1 127 0
 197 00fe FB7D     		ldrb	r3, [r7, #23]	@ zero_extendqisi2
 198 0100 1A01     		lsls	r2, r3, #4
 199 0102 1C4B     		ldr	r3, .L23+4
 200 0104 1344     		add	r3, r3, r2
 201 0106 1A46     		mov	r2, r3
 202 0108 FB68     		ldr	r3, [r7, #12]
 203 010a 43F40003 		orr	r3, r3, #8388608
 204 010e 43F00803 		orr	r3, r3, #8
 205 0112 1360     		str	r3, [r2]
 128:.\Generated_Source\PSoC5/CAN_1_TX_RX_func.c **** 
 129:.\Generated_Source\PSoC5/CAN_1_TX_RX_func.c ****                         #if (CY_PSOC3 || CY_PSOC5)
 130:.\Generated_Source\PSoC5/CAN_1_TX_RX_func.c ****                             CY_SET_REG32(CAN_1_TX_CMD_PTR(i), CAN_1_SEND_MESSAGE);
 206              		.loc 1 130 0
 207 0114 FB7D     		ldrb	r3, [r7, #23]	@ zero_extendqisi2
 208 0116 1A01     		lsls	r2, r3, #4
 209 0118 164B     		ldr	r3, .L23+4
ARM GAS  C:\Users\Patrick\AppData\Local\Temp\ccwoLOMC.s 			page 7


 210 011a 1344     		add	r3, r3, r2
 211 011c 1A46     		mov	r2, r3
 212 011e 0123     		movs	r3, #1
 213 0120 1360     		str	r3, [r2]
 131:.\Generated_Source\PSoC5/CAN_1_TX_RX_func.c ****                         #else /* CY_PSOC4 */
 132:.\Generated_Source\PSoC5/CAN_1_TX_RX_func.c ****                             if (message->sst != CAN_1_STANDARD_MESSAGE)
 133:.\Generated_Source\PSoC5/CAN_1_TX_RX_func.c ****                             {
 134:.\Generated_Source\PSoC5/CAN_1_TX_RX_func.c ****                                 /* Single Shot Transmission */
 135:.\Generated_Source\PSoC5/CAN_1_TX_RX_func.c ****                                 CAN_1_TX_CMD_REG(i) |= CAN_1_SEND_MESSAGE |
 136:.\Generated_Source\PSoC5/CAN_1_TX_RX_func.c ****                                 CAN_1_TX_ABORT_MASK;
 137:.\Generated_Source\PSoC5/CAN_1_TX_RX_func.c ****                             }
 138:.\Generated_Source\PSoC5/CAN_1_TX_RX_func.c ****                             else
 139:.\Generated_Source\PSoC5/CAN_1_TX_RX_func.c ****                             {
 140:.\Generated_Source\PSoC5/CAN_1_TX_RX_func.c ****                                 CAN_1_TX_CMD_REG(i) |= CAN_1_SEND_MESSAGE;
 141:.\Generated_Source\PSoC5/CAN_1_TX_RX_func.c ****                             }
 142:.\Generated_Source\PSoC5/CAN_1_TX_RX_func.c ****                         #endif /* CY_PSOC3 || CY_PSOC5 */
 143:.\Generated_Source\PSoC5/CAN_1_TX_RX_func.c **** 
 144:.\Generated_Source\PSoC5/CAN_1_TX_RX_func.c ****                         /* Enable isr */
 145:.\Generated_Source\PSoC5/CAN_1_TX_RX_func.c ****     CyIntEnable(CAN_1_ISR_NUMBER);
 214              		.loc 1 145 0
 215 0122 164B     		ldr	r3, .L23+12
 216 0124 4FF48032 		mov	r2, #65536
 217 0128 1A60     		str	r2, [r3]
 146:.\Generated_Source\PSoC5/CAN_1_TX_RX_func.c **** 
 147:.\Generated_Source\PSoC5/CAN_1_TX_RX_func.c ****                         result = CYRET_SUCCESS;
 218              		.loc 1 147 0
 219 012a 0023     		movs	r3, #0
 220 012c FB74     		strb	r3, [r7, #19]
 221              	.L4:
 148:.\Generated_Source\PSoC5/CAN_1_TX_RX_func.c ****                     }
 149:.\Generated_Source\PSoC5/CAN_1_TX_RX_func.c ****             }
 150:.\Generated_Source\PSoC5/CAN_1_TX_RX_func.c ****             shift <<= 1u;
 222              		.loc 1 150 0
 223 012e 7B7D     		ldrb	r3, [r7, #21]
 224 0130 5B00     		lsls	r3, r3, #1
 225 0132 7B75     		strb	r3, [r7, #21]
 151:.\Generated_Source\PSoC5/CAN_1_TX_RX_func.c ****             if (result == CYRET_SUCCESS)
 226              		.loc 1 151 0
 227 0134 FB7C     		ldrb	r3, [r7, #19]	@ zero_extendqisi2
 228 0136 002B     		cmp	r3, #0
 229 0138 00D1     		bne	.L16
 152:.\Generated_Source\PSoC5/CAN_1_TX_RX_func.c ****             {
 153:.\Generated_Source\PSoC5/CAN_1_TX_RX_func.c ****                 break;
 230              		.loc 1 153 0
 231 013a 06E0     		b	.L17
 232              	.L16:
  69:.\Generated_Source\PSoC5/CAN_1_TX_RX_func.c ****         {
 233              		.loc 1 69 0 discriminator 2
 234 013c FB7D     		ldrb	r3, [r7, #23]	@ zero_extendqisi2
 235 013e 0133     		adds	r3, r3, #1
 236 0140 FB75     		strb	r3, [r7, #23]
 237              	.L3:
  69:.\Generated_Source\PSoC5/CAN_1_TX_RX_func.c ****         {
 238              		.loc 1 69 0 is_stmt 0 discriminator 1
 239 0142 FB7D     		ldrb	r3, [r7, #23]	@ zero_extendqisi2
 240 0144 072B     		cmp	r3, #7
 241 0146 7FF669AF 		bls	.L18
ARM GAS  C:\Users\Patrick\AppData\Local\Temp\ccwoLOMC.s 			page 8


 242              	.L17:
 154:.\Generated_Source\PSoC5/CAN_1_TX_RX_func.c ****             }
 155:.\Generated_Source\PSoC5/CAN_1_TX_RX_func.c ****         }
 156:.\Generated_Source\PSoC5/CAN_1_TX_RX_func.c ****         if (result == CYRET_SUCCESS)
 243              		.loc 1 156 0 is_stmt 1
 244 014a FB7C     		ldrb	r3, [r7, #19]	@ zero_extendqisi2
 245 014c 002B     		cmp	r3, #0
 246 014e 00D1     		bne	.L19
 157:.\Generated_Source\PSoC5/CAN_1_TX_RX_func.c ****         {
 158:.\Generated_Source\PSoC5/CAN_1_TX_RX_func.c ****             break;
 247              		.loc 1 158 0
 248 0150 06E0     		b	.L20
 249              	.L19:
 159:.\Generated_Source\PSoC5/CAN_1_TX_RX_func.c ****         }
 160:.\Generated_Source\PSoC5/CAN_1_TX_RX_func.c ****         else
 161:.\Generated_Source\PSoC5/CAN_1_TX_RX_func.c ****         {
 162:.\Generated_Source\PSoC5/CAN_1_TX_RX_func.c ****             retry++;
 250              		.loc 1 162 0
 251 0152 3B7D     		ldrb	r3, [r7, #20]	@ zero_extendqisi2
 252 0154 0133     		adds	r3, r3, #1
 253 0156 3B75     		strb	r3, [r7, #20]
 254              	.L2:
  66:.\Generated_Source\PSoC5/CAN_1_TX_RX_func.c ****     {
 255              		.loc 1 66 0
 256 0158 3B7D     		ldrb	r3, [r7, #20]	@ zero_extendqisi2
 257 015a 022B     		cmp	r3, #2
 258 015c 7FF659AF 		bls	.L21
 259              	.L20:
 163:.\Generated_Source\PSoC5/CAN_1_TX_RX_func.c ****         }
 164:.\Generated_Source\PSoC5/CAN_1_TX_RX_func.c ****     }
 165:.\Generated_Source\PSoC5/CAN_1_TX_RX_func.c **** 
 166:.\Generated_Source\PSoC5/CAN_1_TX_RX_func.c ****     return (result);
 260              		.loc 1 166 0
 261 0160 FB7C     		ldrb	r3, [r7, #19]	@ zero_extendqisi2
 167:.\Generated_Source\PSoC5/CAN_1_TX_RX_func.c **** }
 262              		.loc 1 167 0
 263 0162 1846     		mov	r0, r3
 264 0164 1C37     		adds	r7, r7, #28
 265              		.cfi_def_cfa_offset 4
 266 0166 BD46     		mov	sp, r7
 267              		.cfi_def_cfa_register 13
 268              		@ sp needed
 269 0168 5DF8047B 		ldr	r7, [sp], #4
 270              		.cfi_restore 7
 271              		.cfi_def_cfa_offset 0
 272 016c 7047     		bx	lr
 273              	.L24:
 274 016e 00BF     		.align	2
 275              	.L23:
 276 0170 08A00040 		.word	1073782792
 277 0174 20A00040 		.word	1073782816
 278 0178 80E100E0 		.word	-536813184
 279 017c 00E100E0 		.word	-536813312
 280              		.cfi_endproc
 281              	.LFE0:
 282              		.size	CAN_1_SendMsg, .-CAN_1_SendMsg
 283              		.section	.text.CAN_1_TxCancel,"ax",%progbits
ARM GAS  C:\Users\Patrick\AppData\Local\Temp\ccwoLOMC.s 			page 9


 284              		.align	2
 285              		.global	CAN_1_TxCancel
 286              		.thumb
 287              		.thumb_func
 288              		.type	CAN_1_TxCancel, %function
 289              	CAN_1_TxCancel:
 290              	.LFB1:
 168:.\Generated_Source\PSoC5/CAN_1_TX_RX_func.c **** 
 169:.\Generated_Source\PSoC5/CAN_1_TX_RX_func.c **** 
 170:.\Generated_Source\PSoC5/CAN_1_TX_RX_func.c **** /*******************************************************************************
 171:.\Generated_Source\PSoC5/CAN_1_TX_RX_func.c **** * FUNCTION NAME:   CAN_1_TxCancel
 172:.\Generated_Source\PSoC5/CAN_1_TX_RX_func.c **** ********************************************************************************
 173:.\Generated_Source\PSoC5/CAN_1_TX_RX_func.c **** *
 174:.\Generated_Source\PSoC5/CAN_1_TX_RX_func.c **** * Summary:
 175:.\Generated_Source\PSoC5/CAN_1_TX_RX_func.c **** *  This function cancels transmission of a message that has been queued to be
 176:.\Generated_Source\PSoC5/CAN_1_TX_RX_func.c **** *  transmitted. Values between 0 and 7 are valid.
 177:.\Generated_Source\PSoC5/CAN_1_TX_RX_func.c **** *
 178:.\Generated_Source\PSoC5/CAN_1_TX_RX_func.c **** * Parameters:
 179:.\Generated_Source\PSoC5/CAN_1_TX_RX_func.c **** *  bufferId: The mailbox number.
 180:.\Generated_Source\PSoC5/CAN_1_TX_RX_func.c **** *
 181:.\Generated_Source\PSoC5/CAN_1_TX_RX_func.c **** * Return:
 182:.\Generated_Source\PSoC5/CAN_1_TX_RX_func.c **** *  None.
 183:.\Generated_Source\PSoC5/CAN_1_TX_RX_func.c **** *
 184:.\Generated_Source\PSoC5/CAN_1_TX_RX_func.c **** *******************************************************************************/
 185:.\Generated_Source\PSoC5/CAN_1_TX_RX_func.c **** void CAN_1_TxCancel(uint8 bufferId) 
 186:.\Generated_Source\PSoC5/CAN_1_TX_RX_func.c **** {
 291              		.loc 1 186 0
 292              		.cfi_startproc
 293              		@ args = 0, pretend = 0, frame = 8
 294              		@ frame_needed = 1, uses_anonymous_args = 0
 295              		@ link register save eliminated.
 296 0000 80B4     		push	{r7}
 297              		.cfi_def_cfa_offset 4
 298              		.cfi_offset 7, -4
 299 0002 83B0     		sub	sp, sp, #12
 300              		.cfi_def_cfa_offset 16
 301 0004 00AF     		add	r7, sp, #0
 302              		.cfi_def_cfa_register 7
 303 0006 0346     		mov	r3, r0
 304 0008 FB71     		strb	r3, [r7, #7]
 187:.\Generated_Source\PSoC5/CAN_1_TX_RX_func.c ****     if (bufferId < CAN_1_NUMBER_OF_TX_MAILBOXES)
 305              		.loc 1 187 0
 306 000a FB79     		ldrb	r3, [r7, #7]	@ zero_extendqisi2
 307 000c 072B     		cmp	r3, #7
 308 000e 12D8     		bhi	.L25
 188:.\Generated_Source\PSoC5/CAN_1_TX_RX_func.c ****     {
 189:.\Generated_Source\PSoC5/CAN_1_TX_RX_func.c ****         CAN_1_TX_ABORT_MESSAGE(bufferId);
 309              		.loc 1 189 0
 310 0010 FB79     		ldrb	r3, [r7, #7]	@ zero_extendqisi2
 311 0012 1A01     		lsls	r2, r3, #4
 312 0014 0A4B     		ldr	r3, .L27
 313 0016 1344     		add	r3, r3, r2
 314 0018 FA79     		ldrb	r2, [r7, #7]	@ zero_extendqisi2
 315 001a 1101     		lsls	r1, r2, #4
 316 001c 084A     		ldr	r2, .L27
 317 001e 0A44     		add	r2, r2, r1
 318 0020 1278     		ldrb	r2, [r2]
ARM GAS  C:\Users\Patrick\AppData\Local\Temp\ccwoLOMC.s 			page 10


 319 0022 D2B2     		uxtb	r2, r2
 320 0024 D2B2     		uxtb	r2, r2
 321 0026 22F00302 		bic	r2, r2, #3
 322 002a D2B2     		uxtb	r2, r2
 323 002c 42F00202 		orr	r2, r2, #2
 324 0030 D2B2     		uxtb	r2, r2
 325 0032 D2B2     		uxtb	r2, r2
 326 0034 1A70     		strb	r2, [r3]
 327              	.L25:
 190:.\Generated_Source\PSoC5/CAN_1_TX_RX_func.c ****     }
 191:.\Generated_Source\PSoC5/CAN_1_TX_RX_func.c **** }
 328              		.loc 1 191 0
 329 0036 0C37     		adds	r7, r7, #12
 330              		.cfi_def_cfa_offset 4
 331 0038 BD46     		mov	sp, r7
 332              		.cfi_def_cfa_register 13
 333              		@ sp needed
 334 003a 5DF8047B 		ldr	r7, [sp], #4
 335              		.cfi_restore 7
 336              		.cfi_def_cfa_offset 0
 337 003e 7047     		bx	lr
 338              	.L28:
 339              		.align	2
 340              	.L27:
 341 0040 20A00040 		.word	1073782816
 342              		.cfi_endproc
 343              	.LFE1:
 344              		.size	CAN_1_TxCancel, .-CAN_1_TxCancel
 345              		.section	.text.CAN_1_SendMsg0,"ax",%progbits
 346              		.align	2
 347              		.global	CAN_1_SendMsg0
 348              		.thumb
 349              		.thumb_func
 350              		.type	CAN_1_SendMsg0, %function
 351              	CAN_1_SendMsg0:
 352              	.LFB2:
 192:.\Generated_Source\PSoC5/CAN_1_TX_RX_func.c **** 
 193:.\Generated_Source\PSoC5/CAN_1_TX_RX_func.c **** 
 194:.\Generated_Source\PSoC5/CAN_1_TX_RX_func.c **** #if (CAN_1_TX0_FUNC_ENABLE)
 195:.\Generated_Source\PSoC5/CAN_1_TX_RX_func.c ****     /*******************************************************************************
 196:.\Generated_Source\PSoC5/CAN_1_TX_RX_func.c ****     * FUNCTION NAME:   CAN_1_SendMsg0
 197:.\Generated_Source\PSoC5/CAN_1_TX_RX_func.c ****     ********************************************************************************
 198:.\Generated_Source\PSoC5/CAN_1_TX_RX_func.c ****     *
 199:.\Generated_Source\PSoC5/CAN_1_TX_RX_func.c ****     * Summary:
 200:.\Generated_Source\PSoC5/CAN_1_TX_RX_func.c ****     *  This function is the entry point to Transmit Message 0. The function checks
 201:.\Generated_Source\PSoC5/CAN_1_TX_RX_func.c ****     *  if mailbox 0 doesn't already have un-transmitted messages waiting for
 202:.\Generated_Source\PSoC5/CAN_1_TX_RX_func.c ****     *  arbitration. If not initiate transmission of the message.
 203:.\Generated_Source\PSoC5/CAN_1_TX_RX_func.c ****     *  Generated only for the Transmit mailbox designed as Full.
 204:.\Generated_Source\PSoC5/CAN_1_TX_RX_func.c ****     *
 205:.\Generated_Source\PSoC5/CAN_1_TX_RX_func.c ****     * Parameters:
 206:.\Generated_Source\PSoC5/CAN_1_TX_RX_func.c ****     *  None.
 207:.\Generated_Source\PSoC5/CAN_1_TX_RX_func.c ****     *
 208:.\Generated_Source\PSoC5/CAN_1_TX_RX_func.c ****     * Return:
 209:.\Generated_Source\PSoC5/CAN_1_TX_RX_func.c ****     *  Indication if Message has been sent.
 210:.\Generated_Source\PSoC5/CAN_1_TX_RX_func.c ****     *   Define                             Description
 211:.\Generated_Source\PSoC5/CAN_1_TX_RX_func.c ****     *    CYRET_SUCCESS                      The function passed successfully
 212:.\Generated_Source\PSoC5/CAN_1_TX_RX_func.c ****     *    CAN_1_FAIL              The function failed
ARM GAS  C:\Users\Patrick\AppData\Local\Temp\ccwoLOMC.s 			page 11


 213:.\Generated_Source\PSoC5/CAN_1_TX_RX_func.c ****     *
 214:.\Generated_Source\PSoC5/CAN_1_TX_RX_func.c ****     *******************************************************************************/
 215:.\Generated_Source\PSoC5/CAN_1_TX_RX_func.c ****     uint8 CAN_1_SendMsg0(void) 
 216:.\Generated_Source\PSoC5/CAN_1_TX_RX_func.c ****     {
 353              		.loc 1 216 0
 354              		.cfi_startproc
 355              		@ args = 0, pretend = 0, frame = 8
 356              		@ frame_needed = 1, uses_anonymous_args = 0
 357              		@ link register save eliminated.
 358 0000 80B4     		push	{r7}
 359              		.cfi_def_cfa_offset 4
 360              		.cfi_offset 7, -4
 361 0002 83B0     		sub	sp, sp, #12
 362              		.cfi_def_cfa_offset 16
 363 0004 00AF     		add	r7, sp, #0
 364              		.cfi_def_cfa_register 7
 217:.\Generated_Source\PSoC5/CAN_1_TX_RX_func.c ****         uint8 result = CYRET_SUCCESS;
 365              		.loc 1 217 0
 366 0006 0023     		movs	r3, #0
 367 0008 FB71     		strb	r3, [r7, #7]
 218:.\Generated_Source\PSoC5/CAN_1_TX_RX_func.c **** 
 219:.\Generated_Source\PSoC5/CAN_1_TX_RX_func.c ****         #if (CY_PSOC3 || CY_PSOC5)
 220:.\Generated_Source\PSoC5/CAN_1_TX_RX_func.c ****             if ((CAN_1_TX[0u].txcmd.byte[0u] & CAN_1_TX_REQUEST_PENDING) != 0u)
 368              		.loc 1 220 0
 369 000a 1D4B     		ldr	r3, .L37
 370 000c 1B78     		ldrb	r3, [r3]
 371 000e DBB2     		uxtb	r3, r3
 372 0010 03F00103 		and	r3, r3, #1
 373 0014 002B     		cmp	r3, #0
 374 0016 02D0     		beq	.L30
 221:.\Generated_Source\PSoC5/CAN_1_TX_RX_func.c ****         #else  /* CY_PSOC4 */
 222:.\Generated_Source\PSoC5/CAN_1_TX_RX_func.c ****             if ((CAN_1_TX_CMD_REG(0u) & CAN_1_TX_REQUEST_PENDING) != 0u)
 223:.\Generated_Source\PSoC5/CAN_1_TX_RX_func.c ****         #endif /* CY_PSOC3 || CY_PSOC5 */
 224:.\Generated_Source\PSoC5/CAN_1_TX_RX_func.c ****             {
 225:.\Generated_Source\PSoC5/CAN_1_TX_RX_func.c ****                 result = CAN_1_FAIL;
 375              		.loc 1 225 0
 376 0018 0123     		movs	r3, #1
 377 001a FB71     		strb	r3, [r7, #7]
 378 001c 29E0     		b	.L31
 379              	.L30:
 226:.\Generated_Source\PSoC5/CAN_1_TX_RX_func.c ****             }
 227:.\Generated_Source\PSoC5/CAN_1_TX_RX_func.c ****             else
 228:.\Generated_Source\PSoC5/CAN_1_TX_RX_func.c ****             {
 229:.\Generated_Source\PSoC5/CAN_1_TX_RX_func.c ****                 /* `#START MESSAGE_0_TRASMITTED` */
 230:.\Generated_Source\PSoC5/CAN_1_TX_RX_func.c ****                 for(bIndex=0;bIndex<DATALENGTH1;bIndex++){
 380              		.loc 1 230 0
 381 001e 194B     		ldr	r3, .L37+4
 382 0020 0022     		movs	r2, #0
 383 0022 1A70     		strb	r2, [r3]
 384 0024 1BE0     		b	.L32
 385              	.L35:
 231:.\Generated_Source\PSoC5/CAN_1_TX_RX_func.c ****                     CAN_1_TX_DATA_BYTE(0,bIndex) = TxMessage1[bIndex];
 386              		.loc 1 231 0
 387 0026 164A     		ldr	r2, .L37
 388 0028 164B     		ldr	r3, .L37+4
 389 002a 1B78     		ldrb	r3, [r3]	@ zero_extendqisi2
 390 002c 032B     		cmp	r3, #3
ARM GAS  C:\Users\Patrick\AppData\Local\Temp\ccwoLOMC.s 			page 12


 391 002e 04D9     		bls	.L33
 392              		.loc 1 231 0 is_stmt 0 discriminator 1
 393 0030 144B     		ldr	r3, .L37+4
 394 0032 1B78     		ldrb	r3, [r3]	@ zero_extendqisi2
 395 0034 C3F10B03 		rsb	r3, r3, #11
 396 0038 03E0     		b	.L34
 397              	.L33:
 398              		.loc 1 231 0 discriminator 2
 399 003a 124B     		ldr	r3, .L37+4
 400 003c 1B78     		ldrb	r3, [r3]	@ zero_extendqisi2
 401 003e C3F10303 		rsb	r3, r3, #3
 402              	.L34:
 403              		.loc 1 231 0 discriminator 4
 404 0042 1049     		ldr	r1, .L37+4
 405 0044 0978     		ldrb	r1, [r1]	@ zero_extendqisi2
 406 0046 0846     		mov	r0, r1
 407 0048 0F49     		ldr	r1, .L37+8
 408 004a 095C     		ldrb	r1, [r1, r0]	@ zero_extendqisi2
 409 004c 1344     		add	r3, r3, r2
 410 004e 0A46     		mov	r2, r1
 411 0050 1A72     		strb	r2, [r3, #8]
 230:.\Generated_Source\PSoC5/CAN_1_TX_RX_func.c ****                     CAN_1_TX_DATA_BYTE(0,bIndex) = TxMessage1[bIndex];
 412              		.loc 1 230 0 is_stmt 1 discriminator 4
 413 0052 0C4B     		ldr	r3, .L37+4
 414 0054 1B78     		ldrb	r3, [r3]	@ zero_extendqisi2
 415 0056 0133     		adds	r3, r3, #1
 416 0058 DAB2     		uxtb	r2, r3
 417 005a 0A4B     		ldr	r3, .L37+4
 418 005c 1A70     		strb	r2, [r3]
 419              	.L32:
 230:.\Generated_Source\PSoC5/CAN_1_TX_RX_func.c ****                     CAN_1_TX_DATA_BYTE(0,bIndex) = TxMessage1[bIndex];
 420              		.loc 1 230 0 is_stmt 0 discriminator 2
 421 005e 094B     		ldr	r3, .L37+4
 422 0060 1B78     		ldrb	r3, [r3]	@ zero_extendqisi2
 423 0062 072B     		cmp	r3, #7
 424 0064 DFD9     		bls	.L35
 232:.\Generated_Source\PSoC5/CAN_1_TX_RX_func.c ****                 }
 233:.\Generated_Source\PSoC5/CAN_1_TX_RX_func.c ****                 /* `#END` */
 234:.\Generated_Source\PSoC5/CAN_1_TX_RX_func.c **** 
 235:.\Generated_Source\PSoC5/CAN_1_TX_RX_func.c ****                 #ifdef CAN_1_SEND_MSG_0_CALLBACK
 236:.\Generated_Source\PSoC5/CAN_1_TX_RX_func.c ****                     CAN_1_SendMsg_0_Callback();
 237:.\Generated_Source\PSoC5/CAN_1_TX_RX_func.c ****                 #endif /* CAN_1_SEND_MSG_0_CALLBACK */
 238:.\Generated_Source\PSoC5/CAN_1_TX_RX_func.c **** 
 239:.\Generated_Source\PSoC5/CAN_1_TX_RX_func.c ****                 CY_SET_REG32(CAN_1_TX_CMD_PTR(0u),
 425              		.loc 1 239 0 is_stmt 1
 426 0066 064A     		ldr	r2, .L37
 427 0068 054B     		ldr	r3, .L37
 428 006a 1B68     		ldr	r3, [r3]
 429 006c 43F00103 		orr	r3, r3, #1
 430 0070 1360     		str	r3, [r2]
 431              	.L31:
 240:.\Generated_Source\PSoC5/CAN_1_TX_RX_func.c ****                 CY_GET_REG32(CAN_1_TX_CMD_PTR(0u)) | CAN_1_SEND_MESSAGE);
 241:.\Generated_Source\PSoC5/CAN_1_TX_RX_func.c ****             }
 242:.\Generated_Source\PSoC5/CAN_1_TX_RX_func.c **** 
 243:.\Generated_Source\PSoC5/CAN_1_TX_RX_func.c ****         return (result);
 432              		.loc 1 243 0
 433 0072 FB79     		ldrb	r3, [r7, #7]	@ zero_extendqisi2
ARM GAS  C:\Users\Patrick\AppData\Local\Temp\ccwoLOMC.s 			page 13


 244:.\Generated_Source\PSoC5/CAN_1_TX_RX_func.c ****     }
 434              		.loc 1 244 0
 435 0074 1846     		mov	r0, r3
 436 0076 0C37     		adds	r7, r7, #12
 437              		.cfi_def_cfa_offset 4
 438 0078 BD46     		mov	sp, r7
 439              		.cfi_def_cfa_register 13
 440              		@ sp needed
 441 007a 5DF8047B 		ldr	r7, [sp], #4
 442              		.cfi_restore 7
 443              		.cfi_def_cfa_offset 0
 444 007e 7047     		bx	lr
 445              	.L38:
 446              		.align	2
 447              	.L37:
 448 0080 20A00040 		.word	1073782816
 449 0084 00000000 		.word	bIndex
 450 0088 00000000 		.word	TxMessage1
 451              		.cfi_endproc
 452              	.LFE2:
 453              		.size	CAN_1_SendMsg0, .-CAN_1_SendMsg0
 454              		.section	.text.CAN_1_ReceiveMsg,"ax",%progbits
 455              		.align	2
 456              		.global	CAN_1_ReceiveMsg
 457              		.thumb
 458              		.thumb_func
 459              		.type	CAN_1_ReceiveMsg, %function
 460              	CAN_1_ReceiveMsg:
 461              	.LFB3:
 245:.\Generated_Source\PSoC5/CAN_1_TX_RX_func.c **** #endif /* CAN_1_TX0_FUNC_ENABLE */
 246:.\Generated_Source\PSoC5/CAN_1_TX_RX_func.c **** 
 247:.\Generated_Source\PSoC5/CAN_1_TX_RX_func.c **** 
 248:.\Generated_Source\PSoC5/CAN_1_TX_RX_func.c **** #if (CAN_1_TX1_FUNC_ENABLE)
 249:.\Generated_Source\PSoC5/CAN_1_TX_RX_func.c ****     /*******************************************************************************
 250:.\Generated_Source\PSoC5/CAN_1_TX_RX_func.c ****     * FUNCTION NAME:   CAN_1_SendMsg1
 251:.\Generated_Source\PSoC5/CAN_1_TX_RX_func.c ****     ********************************************************************************
 252:.\Generated_Source\PSoC5/CAN_1_TX_RX_func.c ****     *
 253:.\Generated_Source\PSoC5/CAN_1_TX_RX_func.c ****     * Summary:
 254:.\Generated_Source\PSoC5/CAN_1_TX_RX_func.c ****     *  This function is the entry point to Transmit Message 1. The function checks
 255:.\Generated_Source\PSoC5/CAN_1_TX_RX_func.c ****     *  if mailbox 1 doesn't already have un-transmitted messages waiting for
 256:.\Generated_Source\PSoC5/CAN_1_TX_RX_func.c ****     *  arbitration. If not initiate transmission of the message.
 257:.\Generated_Source\PSoC5/CAN_1_TX_RX_func.c ****     *  Generated only for the Transmit mailbox designed as Full.
 258:.\Generated_Source\PSoC5/CAN_1_TX_RX_func.c ****     *
 259:.\Generated_Source\PSoC5/CAN_1_TX_RX_func.c ****     * Parameters:
 260:.\Generated_Source\PSoC5/CAN_1_TX_RX_func.c ****     *  None.
 261:.\Generated_Source\PSoC5/CAN_1_TX_RX_func.c ****     *
 262:.\Generated_Source\PSoC5/CAN_1_TX_RX_func.c ****     * Return:
 263:.\Generated_Source\PSoC5/CAN_1_TX_RX_func.c ****     *  Indication if Message has been sent.
 264:.\Generated_Source\PSoC5/CAN_1_TX_RX_func.c ****     *   Define                             Description
 265:.\Generated_Source\PSoC5/CAN_1_TX_RX_func.c ****     *    CYRET_SUCCESS                      The function passed successfully
 266:.\Generated_Source\PSoC5/CAN_1_TX_RX_func.c ****     *    CAN_1_FAIL              The function failed
 267:.\Generated_Source\PSoC5/CAN_1_TX_RX_func.c ****     *
 268:.\Generated_Source\PSoC5/CAN_1_TX_RX_func.c ****     *******************************************************************************/
 269:.\Generated_Source\PSoC5/CAN_1_TX_RX_func.c ****     uint8 CAN_1_SendMsg1(void) 
 270:.\Generated_Source\PSoC5/CAN_1_TX_RX_func.c ****     {
 271:.\Generated_Source\PSoC5/CAN_1_TX_RX_func.c ****         uint8 result = CYRET_SUCCESS;
 272:.\Generated_Source\PSoC5/CAN_1_TX_RX_func.c **** 
ARM GAS  C:\Users\Patrick\AppData\Local\Temp\ccwoLOMC.s 			page 14


 273:.\Generated_Source\PSoC5/CAN_1_TX_RX_func.c ****         #if (CY_PSOC3 || CY_PSOC5)
 274:.\Generated_Source\PSoC5/CAN_1_TX_RX_func.c ****             if ((CAN_1_TX[1u].txcmd.byte[0u] & CAN_1_TX_REQUEST_PENDING) != 0u)
 275:.\Generated_Source\PSoC5/CAN_1_TX_RX_func.c ****         #else  /* CY_PSOC4 */
 276:.\Generated_Source\PSoC5/CAN_1_TX_RX_func.c ****             if ((CAN_1_TX_CMD_REG(1u) & CAN_1_TX_REQUEST_PENDING) != 0u)
 277:.\Generated_Source\PSoC5/CAN_1_TX_RX_func.c ****         #endif /* CY_PSOC3 || CY_PSOC5 */
 278:.\Generated_Source\PSoC5/CAN_1_TX_RX_func.c ****             {
 279:.\Generated_Source\PSoC5/CAN_1_TX_RX_func.c ****                 result = CAN_1_FAIL;
 280:.\Generated_Source\PSoC5/CAN_1_TX_RX_func.c ****             }
 281:.\Generated_Source\PSoC5/CAN_1_TX_RX_func.c ****             else
 282:.\Generated_Source\PSoC5/CAN_1_TX_RX_func.c ****             {
 283:.\Generated_Source\PSoC5/CAN_1_TX_RX_func.c ****                 /* `#START MESSAGE_1_TRASMITTED` */
 284:.\Generated_Source\PSoC5/CAN_1_TX_RX_func.c **** 
 285:.\Generated_Source\PSoC5/CAN_1_TX_RX_func.c ****                 /* `#END` */
 286:.\Generated_Source\PSoC5/CAN_1_TX_RX_func.c **** 
 287:.\Generated_Source\PSoC5/CAN_1_TX_RX_func.c ****                 #ifdef CAN_1_SEND_MSG_1_CALLBACK
 288:.\Generated_Source\PSoC5/CAN_1_TX_RX_func.c ****                     CAN_1_SendMsg_1_Callback();
 289:.\Generated_Source\PSoC5/CAN_1_TX_RX_func.c ****                 #endif /* CAN_1_SEND_MSG_1_CALLBACK */
 290:.\Generated_Source\PSoC5/CAN_1_TX_RX_func.c **** 
 291:.\Generated_Source\PSoC5/CAN_1_TX_RX_func.c ****                 CY_SET_REG32(CAN_1_TX_CMD_PTR(1u),
 292:.\Generated_Source\PSoC5/CAN_1_TX_RX_func.c ****                 CY_GET_REG32(CAN_1_TX_CMD_PTR(1u)) | CAN_1_SEND_MESSAGE);
 293:.\Generated_Source\PSoC5/CAN_1_TX_RX_func.c ****             }
 294:.\Generated_Source\PSoC5/CAN_1_TX_RX_func.c **** 
 295:.\Generated_Source\PSoC5/CAN_1_TX_RX_func.c ****         return (result);
 296:.\Generated_Source\PSoC5/CAN_1_TX_RX_func.c ****     }
 297:.\Generated_Source\PSoC5/CAN_1_TX_RX_func.c **** #endif /* CAN_1_TX1_FUNC_ENABLE */
 298:.\Generated_Source\PSoC5/CAN_1_TX_RX_func.c **** 
 299:.\Generated_Source\PSoC5/CAN_1_TX_RX_func.c **** 
 300:.\Generated_Source\PSoC5/CAN_1_TX_RX_func.c **** #if (CAN_1_TX2_FUNC_ENABLE)
 301:.\Generated_Source\PSoC5/CAN_1_TX_RX_func.c ****     /*******************************************************************************
 302:.\Generated_Source\PSoC5/CAN_1_TX_RX_func.c ****     * FUNCTION NAME:   CAN_1_SendMsg2
 303:.\Generated_Source\PSoC5/CAN_1_TX_RX_func.c ****     ********************************************************************************
 304:.\Generated_Source\PSoC5/CAN_1_TX_RX_func.c ****     *
 305:.\Generated_Source\PSoC5/CAN_1_TX_RX_func.c ****     * Summary:
 306:.\Generated_Source\PSoC5/CAN_1_TX_RX_func.c ****     *  This function is the entry point to Transmit Message 2. The function checks
 307:.\Generated_Source\PSoC5/CAN_1_TX_RX_func.c ****     *  if mailbox 2 doesn't already have un-transmitted messages waiting for
 308:.\Generated_Source\PSoC5/CAN_1_TX_RX_func.c ****     *  arbitration. If not initiate transmission of the message.
 309:.\Generated_Source\PSoC5/CAN_1_TX_RX_func.c ****     *  Generated only for the Transmit mailbox designed as Full.
 310:.\Generated_Source\PSoC5/CAN_1_TX_RX_func.c ****     *
 311:.\Generated_Source\PSoC5/CAN_1_TX_RX_func.c ****     * Parameters:
 312:.\Generated_Source\PSoC5/CAN_1_TX_RX_func.c ****     *  None.
 313:.\Generated_Source\PSoC5/CAN_1_TX_RX_func.c ****     *
 314:.\Generated_Source\PSoC5/CAN_1_TX_RX_func.c ****     * Return:
 315:.\Generated_Source\PSoC5/CAN_1_TX_RX_func.c ****     *  Indication if Message has been sent.
 316:.\Generated_Source\PSoC5/CAN_1_TX_RX_func.c ****     *   Define                             Description
 317:.\Generated_Source\PSoC5/CAN_1_TX_RX_func.c ****     *    CYRET_SUCCESS                      The function passed successfully
 318:.\Generated_Source\PSoC5/CAN_1_TX_RX_func.c ****     *    CAN_1_FAIL              The function failed
 319:.\Generated_Source\PSoC5/CAN_1_TX_RX_func.c ****     *
 320:.\Generated_Source\PSoC5/CAN_1_TX_RX_func.c ****     *******************************************************************************/
 321:.\Generated_Source\PSoC5/CAN_1_TX_RX_func.c ****     uint8 CAN_1_SendMsg2(void) 
 322:.\Generated_Source\PSoC5/CAN_1_TX_RX_func.c ****     {
 323:.\Generated_Source\PSoC5/CAN_1_TX_RX_func.c ****         uint8 result = CYRET_SUCCESS;
 324:.\Generated_Source\PSoC5/CAN_1_TX_RX_func.c **** 
 325:.\Generated_Source\PSoC5/CAN_1_TX_RX_func.c ****         #if (CY_PSOC3 || CY_PSOC5)
 326:.\Generated_Source\PSoC5/CAN_1_TX_RX_func.c ****             if ((CAN_1_TX[2u].txcmd.byte[0u] & CAN_1_TX_REQUEST_PENDING) != 0u)
 327:.\Generated_Source\PSoC5/CAN_1_TX_RX_func.c ****         #else  /* CY_PSOC4 */
 328:.\Generated_Source\PSoC5/CAN_1_TX_RX_func.c ****             if ((CAN_1_TX_CMD_REG(2u) & CAN_1_TX_REQUEST_PENDING) != 0u)
 329:.\Generated_Source\PSoC5/CAN_1_TX_RX_func.c ****         #endif /* CY_PSOC3 || CY_PSOC5 */
ARM GAS  C:\Users\Patrick\AppData\Local\Temp\ccwoLOMC.s 			page 15


 330:.\Generated_Source\PSoC5/CAN_1_TX_RX_func.c ****             {
 331:.\Generated_Source\PSoC5/CAN_1_TX_RX_func.c ****                 result = CAN_1_FAIL;
 332:.\Generated_Source\PSoC5/CAN_1_TX_RX_func.c ****             }
 333:.\Generated_Source\PSoC5/CAN_1_TX_RX_func.c ****             else
 334:.\Generated_Source\PSoC5/CAN_1_TX_RX_func.c ****             {
 335:.\Generated_Source\PSoC5/CAN_1_TX_RX_func.c ****                 /* `#START MESSAGE_2_TRASMITTED` */
 336:.\Generated_Source\PSoC5/CAN_1_TX_RX_func.c **** 
 337:.\Generated_Source\PSoC5/CAN_1_TX_RX_func.c ****                 /* `#END` */
 338:.\Generated_Source\PSoC5/CAN_1_TX_RX_func.c **** 
 339:.\Generated_Source\PSoC5/CAN_1_TX_RX_func.c ****                 #ifdef CAN_1_SEND_MSG_2_CALLBACK
 340:.\Generated_Source\PSoC5/CAN_1_TX_RX_func.c ****                     CAN_1_SendMsg_2_Callback();
 341:.\Generated_Source\PSoC5/CAN_1_TX_RX_func.c ****                 #endif /* CAN_1_SEND_MSG_2_CALLBACK */
 342:.\Generated_Source\PSoC5/CAN_1_TX_RX_func.c **** 
 343:.\Generated_Source\PSoC5/CAN_1_TX_RX_func.c ****                 CY_SET_REG32(CAN_1_TX_CMD_PTR(2u),
 344:.\Generated_Source\PSoC5/CAN_1_TX_RX_func.c ****                 CY_GET_REG32(CAN_1_TX_CMD_PTR(2u)) | CAN_1_SEND_MESSAGE);
 345:.\Generated_Source\PSoC5/CAN_1_TX_RX_func.c ****             }
 346:.\Generated_Source\PSoC5/CAN_1_TX_RX_func.c **** 
 347:.\Generated_Source\PSoC5/CAN_1_TX_RX_func.c ****         return (result);
 348:.\Generated_Source\PSoC5/CAN_1_TX_RX_func.c ****     }
 349:.\Generated_Source\PSoC5/CAN_1_TX_RX_func.c **** #endif /* CAN_1_TX2_FUNC_ENABLE */
 350:.\Generated_Source\PSoC5/CAN_1_TX_RX_func.c **** 
 351:.\Generated_Source\PSoC5/CAN_1_TX_RX_func.c **** 
 352:.\Generated_Source\PSoC5/CAN_1_TX_RX_func.c **** #if (CAN_1_TX3_FUNC_ENABLE)
 353:.\Generated_Source\PSoC5/CAN_1_TX_RX_func.c ****     /*******************************************************************************
 354:.\Generated_Source\PSoC5/CAN_1_TX_RX_func.c ****     * FUNCTION NAME:   CAN_1_SendMsg3
 355:.\Generated_Source\PSoC5/CAN_1_TX_RX_func.c ****     ********************************************************************************
 356:.\Generated_Source\PSoC5/CAN_1_TX_RX_func.c ****     *
 357:.\Generated_Source\PSoC5/CAN_1_TX_RX_func.c ****     * Summary:
 358:.\Generated_Source\PSoC5/CAN_1_TX_RX_func.c ****     *  This function is the entry point to Transmit Message 3. The function checks
 359:.\Generated_Source\PSoC5/CAN_1_TX_RX_func.c ****     *  if mailbox 3 doesn't already have un-transmitted messages waiting for
 360:.\Generated_Source\PSoC5/CAN_1_TX_RX_func.c ****     *  arbitration. If not initiate transmission of the message.
 361:.\Generated_Source\PSoC5/CAN_1_TX_RX_func.c ****     *  Generated only for the Transmit mailbox designed as Full.
 362:.\Generated_Source\PSoC5/CAN_1_TX_RX_func.c ****     *
 363:.\Generated_Source\PSoC5/CAN_1_TX_RX_func.c ****     * Parameters:
 364:.\Generated_Source\PSoC5/CAN_1_TX_RX_func.c ****     *  None.
 365:.\Generated_Source\PSoC5/CAN_1_TX_RX_func.c ****     *
 366:.\Generated_Source\PSoC5/CAN_1_TX_RX_func.c ****     * Return:
 367:.\Generated_Source\PSoC5/CAN_1_TX_RX_func.c ****     *  Indication if Message has been sent.
 368:.\Generated_Source\PSoC5/CAN_1_TX_RX_func.c ****     *   Define                             Description
 369:.\Generated_Source\PSoC5/CAN_1_TX_RX_func.c ****     *    CYRET_SUCCESS                      The function passed successfully
 370:.\Generated_Source\PSoC5/CAN_1_TX_RX_func.c ****     *    CAN_1_FAIL              The function failed
 371:.\Generated_Source\PSoC5/CAN_1_TX_RX_func.c ****     *
 372:.\Generated_Source\PSoC5/CAN_1_TX_RX_func.c ****     *******************************************************************************/
 373:.\Generated_Source\PSoC5/CAN_1_TX_RX_func.c ****     uint8 CAN_1_SendMsg3(void) 
 374:.\Generated_Source\PSoC5/CAN_1_TX_RX_func.c ****     {
 375:.\Generated_Source\PSoC5/CAN_1_TX_RX_func.c ****         uint8 result = CYRET_SUCCESS;
 376:.\Generated_Source\PSoC5/CAN_1_TX_RX_func.c **** 
 377:.\Generated_Source\PSoC5/CAN_1_TX_RX_func.c ****         #if (CY_PSOC3 || CY_PSOC5)
 378:.\Generated_Source\PSoC5/CAN_1_TX_RX_func.c ****             if ((CAN_1_TX[3u].txcmd.byte[0u] & CAN_1_TX_REQUEST_PENDING) != 0u)
 379:.\Generated_Source\PSoC5/CAN_1_TX_RX_func.c ****         #else  /* CY_PSOC4 */
 380:.\Generated_Source\PSoC5/CAN_1_TX_RX_func.c ****             if ((CAN_1_TX_CMD_REG(3u) & CAN_1_TX_REQUEST_PENDING) != 0u)
 381:.\Generated_Source\PSoC5/CAN_1_TX_RX_func.c ****         #endif /* CY_PSOC3 || CY_PSOC5 */
 382:.\Generated_Source\PSoC5/CAN_1_TX_RX_func.c ****             {
 383:.\Generated_Source\PSoC5/CAN_1_TX_RX_func.c ****                 result = CAN_1_FAIL;
 384:.\Generated_Source\PSoC5/CAN_1_TX_RX_func.c ****             }
 385:.\Generated_Source\PSoC5/CAN_1_TX_RX_func.c ****             else
 386:.\Generated_Source\PSoC5/CAN_1_TX_RX_func.c ****             {
ARM GAS  C:\Users\Patrick\AppData\Local\Temp\ccwoLOMC.s 			page 16


 387:.\Generated_Source\PSoC5/CAN_1_TX_RX_func.c ****                 /* `#START MESSAGE_3_TRASMITTED` */
 388:.\Generated_Source\PSoC5/CAN_1_TX_RX_func.c **** 
 389:.\Generated_Source\PSoC5/CAN_1_TX_RX_func.c ****                 /* `#END` */
 390:.\Generated_Source\PSoC5/CAN_1_TX_RX_func.c **** 
 391:.\Generated_Source\PSoC5/CAN_1_TX_RX_func.c ****                 #ifdef CAN_1_SEND_MSG_3_CALLBACK
 392:.\Generated_Source\PSoC5/CAN_1_TX_RX_func.c ****                     CAN_1_SendMsg_3_Callback();
 393:.\Generated_Source\PSoC5/CAN_1_TX_RX_func.c ****                 #endif /* CAN_1_SEND_MSG_3_CALLBACK */
 394:.\Generated_Source\PSoC5/CAN_1_TX_RX_func.c **** 
 395:.\Generated_Source\PSoC5/CAN_1_TX_RX_func.c ****                 CY_SET_REG32(CAN_1_TX_CMD_PTR(3u),
 396:.\Generated_Source\PSoC5/CAN_1_TX_RX_func.c ****                 CY_GET_REG32(CAN_1_TX_CMD_PTR(3u)) | CAN_1_SEND_MESSAGE);
 397:.\Generated_Source\PSoC5/CAN_1_TX_RX_func.c ****             }
 398:.\Generated_Source\PSoC5/CAN_1_TX_RX_func.c **** 
 399:.\Generated_Source\PSoC5/CAN_1_TX_RX_func.c ****         return (result);
 400:.\Generated_Source\PSoC5/CAN_1_TX_RX_func.c ****     }
 401:.\Generated_Source\PSoC5/CAN_1_TX_RX_func.c **** #endif /* CAN_1_TX3_FUNC_ENABLE */
 402:.\Generated_Source\PSoC5/CAN_1_TX_RX_func.c **** 
 403:.\Generated_Source\PSoC5/CAN_1_TX_RX_func.c **** 
 404:.\Generated_Source\PSoC5/CAN_1_TX_RX_func.c **** #if (CAN_1_TX4_FUNC_ENABLE)
 405:.\Generated_Source\PSoC5/CAN_1_TX_RX_func.c ****     /*******************************************************************************
 406:.\Generated_Source\PSoC5/CAN_1_TX_RX_func.c ****     * FUNCTION NAME:   CAN_1_SendMsg4
 407:.\Generated_Source\PSoC5/CAN_1_TX_RX_func.c ****     ********************************************************************************
 408:.\Generated_Source\PSoC5/CAN_1_TX_RX_func.c ****     *
 409:.\Generated_Source\PSoC5/CAN_1_TX_RX_func.c ****     * Summary:
 410:.\Generated_Source\PSoC5/CAN_1_TX_RX_func.c ****     *  This function is the entry point to Transmit Message 4. The function checks
 411:.\Generated_Source\PSoC5/CAN_1_TX_RX_func.c ****     *  if mailbox 4 doesn't already have un-transmitted messages waiting for
 412:.\Generated_Source\PSoC5/CAN_1_TX_RX_func.c ****     *  arbitration. If not initiate transmission of the message.
 413:.\Generated_Source\PSoC5/CAN_1_TX_RX_func.c ****     *  Generated only for the Transmit mailbox designed as Full.
 414:.\Generated_Source\PSoC5/CAN_1_TX_RX_func.c ****     *
 415:.\Generated_Source\PSoC5/CAN_1_TX_RX_func.c ****     * Parameters:
 416:.\Generated_Source\PSoC5/CAN_1_TX_RX_func.c ****     *  None.
 417:.\Generated_Source\PSoC5/CAN_1_TX_RX_func.c ****     *
 418:.\Generated_Source\PSoC5/CAN_1_TX_RX_func.c ****     * Return:
 419:.\Generated_Source\PSoC5/CAN_1_TX_RX_func.c ****     *  Indication if Message has been sent.
 420:.\Generated_Source\PSoC5/CAN_1_TX_RX_func.c ****     *   Define                             Description
 421:.\Generated_Source\PSoC5/CAN_1_TX_RX_func.c ****     *    CYRET_SUCCESS                      The function passed successfully
 422:.\Generated_Source\PSoC5/CAN_1_TX_RX_func.c ****     *    CAN_1_FAIL              The function failed
 423:.\Generated_Source\PSoC5/CAN_1_TX_RX_func.c ****     *
 424:.\Generated_Source\PSoC5/CAN_1_TX_RX_func.c ****     *******************************************************************************/
 425:.\Generated_Source\PSoC5/CAN_1_TX_RX_func.c ****     uint8 CAN_1_SendMsg4(void) 
 426:.\Generated_Source\PSoC5/CAN_1_TX_RX_func.c ****     {
 427:.\Generated_Source\PSoC5/CAN_1_TX_RX_func.c ****         uint8 result = CYRET_SUCCESS;
 428:.\Generated_Source\PSoC5/CAN_1_TX_RX_func.c **** 
 429:.\Generated_Source\PSoC5/CAN_1_TX_RX_func.c ****         #if (CY_PSOC3 || CY_PSOC5)
 430:.\Generated_Source\PSoC5/CAN_1_TX_RX_func.c ****             if ((CAN_1_TX[4u].txcmd.byte[0u] & CAN_1_TX_REQUEST_PENDING) != 0u)
 431:.\Generated_Source\PSoC5/CAN_1_TX_RX_func.c ****         #else  /* CY_PSOC4 */
 432:.\Generated_Source\PSoC5/CAN_1_TX_RX_func.c ****             if ((CAN_1_TX_CMD_REG(4u) & CAN_1_TX_REQUEST_PENDING) != 0u)
 433:.\Generated_Source\PSoC5/CAN_1_TX_RX_func.c ****         #endif /* CY_PSOC3 || CY_PSOC5 */
 434:.\Generated_Source\PSoC5/CAN_1_TX_RX_func.c ****             {
 435:.\Generated_Source\PSoC5/CAN_1_TX_RX_func.c ****                 result = CAN_1_FAIL;
 436:.\Generated_Source\PSoC5/CAN_1_TX_RX_func.c ****             }
 437:.\Generated_Source\PSoC5/CAN_1_TX_RX_func.c ****             else
 438:.\Generated_Source\PSoC5/CAN_1_TX_RX_func.c ****             {
 439:.\Generated_Source\PSoC5/CAN_1_TX_RX_func.c ****                 /* `#START MESSAGE_4_TRASMITTED` */
 440:.\Generated_Source\PSoC5/CAN_1_TX_RX_func.c **** 
 441:.\Generated_Source\PSoC5/CAN_1_TX_RX_func.c ****                 /* `#END` */
 442:.\Generated_Source\PSoC5/CAN_1_TX_RX_func.c **** 
 443:.\Generated_Source\PSoC5/CAN_1_TX_RX_func.c ****                 #ifdef CAN_1_SEND_MSG_4_CALLBACK
ARM GAS  C:\Users\Patrick\AppData\Local\Temp\ccwoLOMC.s 			page 17


 444:.\Generated_Source\PSoC5/CAN_1_TX_RX_func.c ****                     CAN_1_SendMsg_4_Callback();
 445:.\Generated_Source\PSoC5/CAN_1_TX_RX_func.c ****                 #endif /* CAN_1_SEND_MSG_4_CALLBACK */
 446:.\Generated_Source\PSoC5/CAN_1_TX_RX_func.c **** 
 447:.\Generated_Source\PSoC5/CAN_1_TX_RX_func.c ****                 CY_SET_REG32(CAN_1_TX_CMD_PTR(4u),
 448:.\Generated_Source\PSoC5/CAN_1_TX_RX_func.c ****                 CY_GET_REG32(CAN_1_TX_CMD_PTR(4u)) | CAN_1_SEND_MESSAGE);
 449:.\Generated_Source\PSoC5/CAN_1_TX_RX_func.c ****             }
 450:.\Generated_Source\PSoC5/CAN_1_TX_RX_func.c **** 
 451:.\Generated_Source\PSoC5/CAN_1_TX_RX_func.c ****         return (result);
 452:.\Generated_Source\PSoC5/CAN_1_TX_RX_func.c ****     }
 453:.\Generated_Source\PSoC5/CAN_1_TX_RX_func.c **** #endif /* CAN_1_TX4_FUNC_ENABLE */
 454:.\Generated_Source\PSoC5/CAN_1_TX_RX_func.c **** 
 455:.\Generated_Source\PSoC5/CAN_1_TX_RX_func.c **** 
 456:.\Generated_Source\PSoC5/CAN_1_TX_RX_func.c **** #if (CAN_1_TX5_FUNC_ENABLE)
 457:.\Generated_Source\PSoC5/CAN_1_TX_RX_func.c ****     /*******************************************************************************
 458:.\Generated_Source\PSoC5/CAN_1_TX_RX_func.c ****     * FUNCTION NAME:   CAN_1_SendMsg5
 459:.\Generated_Source\PSoC5/CAN_1_TX_RX_func.c ****     ********************************************************************************
 460:.\Generated_Source\PSoC5/CAN_1_TX_RX_func.c ****     *
 461:.\Generated_Source\PSoC5/CAN_1_TX_RX_func.c ****     * Summary:
 462:.\Generated_Source\PSoC5/CAN_1_TX_RX_func.c ****     *  This function is the entry point to Transmit Message 5. The function checks
 463:.\Generated_Source\PSoC5/CAN_1_TX_RX_func.c ****     *  if mailbox 5 doesn't already have un-transmitted messages waiting for
 464:.\Generated_Source\PSoC5/CAN_1_TX_RX_func.c ****     *  arbitration. If not initiate transmission of the message.
 465:.\Generated_Source\PSoC5/CAN_1_TX_RX_func.c ****     *  Generated only for the Transmit mailbox designed as Full.
 466:.\Generated_Source\PSoC5/CAN_1_TX_RX_func.c ****     *
 467:.\Generated_Source\PSoC5/CAN_1_TX_RX_func.c ****     * Parameters:
 468:.\Generated_Source\PSoC5/CAN_1_TX_RX_func.c ****     *  None.
 469:.\Generated_Source\PSoC5/CAN_1_TX_RX_func.c ****     *
 470:.\Generated_Source\PSoC5/CAN_1_TX_RX_func.c ****     * Return:
 471:.\Generated_Source\PSoC5/CAN_1_TX_RX_func.c ****     *  Indication if Message has been sent.
 472:.\Generated_Source\PSoC5/CAN_1_TX_RX_func.c ****     *   Define                             Description
 473:.\Generated_Source\PSoC5/CAN_1_TX_RX_func.c ****     *    CYRET_SUCCESS                      The function passed successfully
 474:.\Generated_Source\PSoC5/CAN_1_TX_RX_func.c ****     *    CAN_1_FAIL              The function failed
 475:.\Generated_Source\PSoC5/CAN_1_TX_RX_func.c ****     *
 476:.\Generated_Source\PSoC5/CAN_1_TX_RX_func.c ****     *******************************************************************************/
 477:.\Generated_Source\PSoC5/CAN_1_TX_RX_func.c ****     uint8 CAN_1_SendMsg5(void) 
 478:.\Generated_Source\PSoC5/CAN_1_TX_RX_func.c ****     {
 479:.\Generated_Source\PSoC5/CAN_1_TX_RX_func.c ****         uint8 result = CYRET_SUCCESS;
 480:.\Generated_Source\PSoC5/CAN_1_TX_RX_func.c **** 
 481:.\Generated_Source\PSoC5/CAN_1_TX_RX_func.c ****         #if (CY_PSOC3 || CY_PSOC5)
 482:.\Generated_Source\PSoC5/CAN_1_TX_RX_func.c ****             if ((CAN_1_TX[5u].txcmd.byte[0u] & CAN_1_TX_REQUEST_PENDING) != 0u)
 483:.\Generated_Source\PSoC5/CAN_1_TX_RX_func.c ****         #else  /* CY_PSOC4 */
 484:.\Generated_Source\PSoC5/CAN_1_TX_RX_func.c ****             if ((CAN_1_TX_CMD_REG(5u) & CAN_1_TX_REQUEST_PENDING) != 0u)
 485:.\Generated_Source\PSoC5/CAN_1_TX_RX_func.c ****         #endif /* CY_PSOC3 || CY_PSOC5 */
 486:.\Generated_Source\PSoC5/CAN_1_TX_RX_func.c ****             {
 487:.\Generated_Source\PSoC5/CAN_1_TX_RX_func.c ****                 result = CAN_1_FAIL;
 488:.\Generated_Source\PSoC5/CAN_1_TX_RX_func.c ****             }
 489:.\Generated_Source\PSoC5/CAN_1_TX_RX_func.c ****             else
 490:.\Generated_Source\PSoC5/CAN_1_TX_RX_func.c ****             {
 491:.\Generated_Source\PSoC5/CAN_1_TX_RX_func.c ****                 /* `#START MESSAGE_5_TRASMITTED` */
 492:.\Generated_Source\PSoC5/CAN_1_TX_RX_func.c **** 
 493:.\Generated_Source\PSoC5/CAN_1_TX_RX_func.c ****                 /* `#END` */
 494:.\Generated_Source\PSoC5/CAN_1_TX_RX_func.c **** 
 495:.\Generated_Source\PSoC5/CAN_1_TX_RX_func.c ****                 #ifdef CAN_1_SEND_MSG_5_CALLBACK
 496:.\Generated_Source\PSoC5/CAN_1_TX_RX_func.c ****                     CAN_1_SendMsg_5_Callback();
 497:.\Generated_Source\PSoC5/CAN_1_TX_RX_func.c ****                 #endif /* CAN_1_SEND_MSG_5_CALLBACK */
 498:.\Generated_Source\PSoC5/CAN_1_TX_RX_func.c **** 
 499:.\Generated_Source\PSoC5/CAN_1_TX_RX_func.c ****                 CY_SET_REG32(CAN_1_TX_CMD_PTR(5u),
 500:.\Generated_Source\PSoC5/CAN_1_TX_RX_func.c ****                 CY_GET_REG32(CAN_1_TX_CMD_PTR(5u)) | CAN_1_SEND_MESSAGE);
ARM GAS  C:\Users\Patrick\AppData\Local\Temp\ccwoLOMC.s 			page 18


 501:.\Generated_Source\PSoC5/CAN_1_TX_RX_func.c ****             }
 502:.\Generated_Source\PSoC5/CAN_1_TX_RX_func.c **** 
 503:.\Generated_Source\PSoC5/CAN_1_TX_RX_func.c ****         return (result);
 504:.\Generated_Source\PSoC5/CAN_1_TX_RX_func.c ****     }
 505:.\Generated_Source\PSoC5/CAN_1_TX_RX_func.c **** #endif /* CAN_1_TX5_FUNC_ENABLE */
 506:.\Generated_Source\PSoC5/CAN_1_TX_RX_func.c **** 
 507:.\Generated_Source\PSoC5/CAN_1_TX_RX_func.c **** 
 508:.\Generated_Source\PSoC5/CAN_1_TX_RX_func.c **** #if (CAN_1_TX6_FUNC_ENABLE)
 509:.\Generated_Source\PSoC5/CAN_1_TX_RX_func.c ****     /*******************************************************************************
 510:.\Generated_Source\PSoC5/CAN_1_TX_RX_func.c ****     * FUNCTION NAME:   CAN_1_SendMsg6
 511:.\Generated_Source\PSoC5/CAN_1_TX_RX_func.c ****     ********************************************************************************
 512:.\Generated_Source\PSoC5/CAN_1_TX_RX_func.c ****     *
 513:.\Generated_Source\PSoC5/CAN_1_TX_RX_func.c ****     * Summary:
 514:.\Generated_Source\PSoC5/CAN_1_TX_RX_func.c ****     *  This function is the entry point to Transmit Message 6. The function checks
 515:.\Generated_Source\PSoC5/CAN_1_TX_RX_func.c ****     *  if mailbox 6 doesn't already have un-transmitted messages waiting for
 516:.\Generated_Source\PSoC5/CAN_1_TX_RX_func.c ****     *  arbitration. If not initiate transmission of the message.
 517:.\Generated_Source\PSoC5/CAN_1_TX_RX_func.c ****     *  Generated only for the Transmit mailbox designed as Full.
 518:.\Generated_Source\PSoC5/CAN_1_TX_RX_func.c ****     *
 519:.\Generated_Source\PSoC5/CAN_1_TX_RX_func.c ****     * Parameters:
 520:.\Generated_Source\PSoC5/CAN_1_TX_RX_func.c ****     *  None.
 521:.\Generated_Source\PSoC5/CAN_1_TX_RX_func.c ****     *
 522:.\Generated_Source\PSoC5/CAN_1_TX_RX_func.c ****     * Return:
 523:.\Generated_Source\PSoC5/CAN_1_TX_RX_func.c ****     *  Indication if Message has been sent.
 524:.\Generated_Source\PSoC5/CAN_1_TX_RX_func.c ****     *   Define                             Description
 525:.\Generated_Source\PSoC5/CAN_1_TX_RX_func.c ****     *    CYRET_SUCCESS                      The function passed successfully
 526:.\Generated_Source\PSoC5/CAN_1_TX_RX_func.c ****     *    CAN_1_FAIL              The function failed
 527:.\Generated_Source\PSoC5/CAN_1_TX_RX_func.c ****     *
 528:.\Generated_Source\PSoC5/CAN_1_TX_RX_func.c ****     *******************************************************************************/
 529:.\Generated_Source\PSoC5/CAN_1_TX_RX_func.c ****     uint8 CAN_1_SendMsg6(void) 
 530:.\Generated_Source\PSoC5/CAN_1_TX_RX_func.c ****     {
 531:.\Generated_Source\PSoC5/CAN_1_TX_RX_func.c ****         uint8 result = CYRET_SUCCESS;
 532:.\Generated_Source\PSoC5/CAN_1_TX_RX_func.c **** 
 533:.\Generated_Source\PSoC5/CAN_1_TX_RX_func.c ****         #if (CY_PSOC3 || CY_PSOC5)
 534:.\Generated_Source\PSoC5/CAN_1_TX_RX_func.c ****             if ((CAN_1_TX[6u].txcmd.byte[0u] & CAN_1_TX_REQUEST_PENDING) != 0u)
 535:.\Generated_Source\PSoC5/CAN_1_TX_RX_func.c ****         #else  /* CY_PSOC4 */
 536:.\Generated_Source\PSoC5/CAN_1_TX_RX_func.c ****             if ((CAN_1_TX_CMD_REG(6u) & CAN_1_TX_REQUEST_PENDING) != 0u)
 537:.\Generated_Source\PSoC5/CAN_1_TX_RX_func.c ****         #endif /* CY_PSOC3 || CY_PSOC5 */
 538:.\Generated_Source\PSoC5/CAN_1_TX_RX_func.c ****             {
 539:.\Generated_Source\PSoC5/CAN_1_TX_RX_func.c ****                 result = CAN_1_FAIL;
 540:.\Generated_Source\PSoC5/CAN_1_TX_RX_func.c ****             }
 541:.\Generated_Source\PSoC5/CAN_1_TX_RX_func.c ****             else
 542:.\Generated_Source\PSoC5/CAN_1_TX_RX_func.c ****             {
 543:.\Generated_Source\PSoC5/CAN_1_TX_RX_func.c ****                 /* `#START MESSAGE_6_TRASMITTED` */
 544:.\Generated_Source\PSoC5/CAN_1_TX_RX_func.c **** 
 545:.\Generated_Source\PSoC5/CAN_1_TX_RX_func.c ****                 /* `#END` */
 546:.\Generated_Source\PSoC5/CAN_1_TX_RX_func.c **** 
 547:.\Generated_Source\PSoC5/CAN_1_TX_RX_func.c ****                 #ifdef CAN_1_SEND_MSG_6_CALLBACK
 548:.\Generated_Source\PSoC5/CAN_1_TX_RX_func.c ****                     CAN_1_SendMsg_6_Callback();
 549:.\Generated_Source\PSoC5/CAN_1_TX_RX_func.c ****                 #endif /* CAN_1_SEND_MSG_6_CALLBACK */
 550:.\Generated_Source\PSoC5/CAN_1_TX_RX_func.c **** 
 551:.\Generated_Source\PSoC5/CAN_1_TX_RX_func.c ****                 CY_SET_REG32(CAN_1_TX_CMD_PTR(6u),
 552:.\Generated_Source\PSoC5/CAN_1_TX_RX_func.c ****                 CY_GET_REG32(CAN_1_TX_CMD_PTR(6u)) | CAN_1_SEND_MESSAGE);
 553:.\Generated_Source\PSoC5/CAN_1_TX_RX_func.c ****             }
 554:.\Generated_Source\PSoC5/CAN_1_TX_RX_func.c **** 
 555:.\Generated_Source\PSoC5/CAN_1_TX_RX_func.c ****         return (result);
 556:.\Generated_Source\PSoC5/CAN_1_TX_RX_func.c ****     }
 557:.\Generated_Source\PSoC5/CAN_1_TX_RX_func.c **** #endif /* CAN_1_TX6_FUNC_ENABLE */
ARM GAS  C:\Users\Patrick\AppData\Local\Temp\ccwoLOMC.s 			page 19


 558:.\Generated_Source\PSoC5/CAN_1_TX_RX_func.c **** 
 559:.\Generated_Source\PSoC5/CAN_1_TX_RX_func.c **** 
 560:.\Generated_Source\PSoC5/CAN_1_TX_RX_func.c **** #if (CAN_1_TX7_FUNC_ENABLE)
 561:.\Generated_Source\PSoC5/CAN_1_TX_RX_func.c ****     /*******************************************************************************
 562:.\Generated_Source\PSoC5/CAN_1_TX_RX_func.c ****     * FUNCTION NAME:   CAN_1_SendMsg7)
 563:.\Generated_Source\PSoC5/CAN_1_TX_RX_func.c ****     ********************************************************************************
 564:.\Generated_Source\PSoC5/CAN_1_TX_RX_func.c ****     *
 565:.\Generated_Source\PSoC5/CAN_1_TX_RX_func.c ****     * Summary:
 566:.\Generated_Source\PSoC5/CAN_1_TX_RX_func.c ****     *  This function is the entry point to Transmit Message 7. The function checks
 567:.\Generated_Source\PSoC5/CAN_1_TX_RX_func.c ****     *  if mailbox 7 doesn't already have un-transmitted messages waiting for
 568:.\Generated_Source\PSoC5/CAN_1_TX_RX_func.c ****     *  arbitration. If not initiate transmission of the message.
 569:.\Generated_Source\PSoC5/CAN_1_TX_RX_func.c ****     *  Generated only for the Transmit mailbox designed as Full.
 570:.\Generated_Source\PSoC5/CAN_1_TX_RX_func.c ****     *
 571:.\Generated_Source\PSoC5/CAN_1_TX_RX_func.c ****     * Parameters:
 572:.\Generated_Source\PSoC5/CAN_1_TX_RX_func.c ****     *  None.
 573:.\Generated_Source\PSoC5/CAN_1_TX_RX_func.c ****     *
 574:.\Generated_Source\PSoC5/CAN_1_TX_RX_func.c ****     * Return:
 575:.\Generated_Source\PSoC5/CAN_1_TX_RX_func.c ****     *  Indication if Message has been sent.
 576:.\Generated_Source\PSoC5/CAN_1_TX_RX_func.c ****     *   Define                             Description
 577:.\Generated_Source\PSoC5/CAN_1_TX_RX_func.c ****     *    CYRET_SUCCESS                      The function passed successfully
 578:.\Generated_Source\PSoC5/CAN_1_TX_RX_func.c ****     *    CAN_1_FAIL              The function failed
 579:.\Generated_Source\PSoC5/CAN_1_TX_RX_func.c ****     *
 580:.\Generated_Source\PSoC5/CAN_1_TX_RX_func.c ****     *******************************************************************************/
 581:.\Generated_Source\PSoC5/CAN_1_TX_RX_func.c ****     uint8 CAN_1_SendMsg7(void) 
 582:.\Generated_Source\PSoC5/CAN_1_TX_RX_func.c ****     {
 583:.\Generated_Source\PSoC5/CAN_1_TX_RX_func.c ****         uint8 result = CYRET_SUCCESS;
 584:.\Generated_Source\PSoC5/CAN_1_TX_RX_func.c **** 
 585:.\Generated_Source\PSoC5/CAN_1_TX_RX_func.c ****         #if (CY_PSOC3 || CY_PSOC5)
 586:.\Generated_Source\PSoC5/CAN_1_TX_RX_func.c ****             if ((CAN_1_TX[7u].txcmd.byte[0u] & CAN_1_TX_REQUEST_PENDING) != 0u)
 587:.\Generated_Source\PSoC5/CAN_1_TX_RX_func.c ****         #else  /* CY_PSOC4 */
 588:.\Generated_Source\PSoC5/CAN_1_TX_RX_func.c ****             if ((CAN_1_TX_CMD_REG(7u) & CAN_1_TX_REQUEST_PENDING) != 0u)
 589:.\Generated_Source\PSoC5/CAN_1_TX_RX_func.c ****         #endif /* CY_PSOC3 || CY_PSOC5 */
 590:.\Generated_Source\PSoC5/CAN_1_TX_RX_func.c ****             {
 591:.\Generated_Source\PSoC5/CAN_1_TX_RX_func.c ****                 result = CAN_1_FAIL;
 592:.\Generated_Source\PSoC5/CAN_1_TX_RX_func.c ****             }
 593:.\Generated_Source\PSoC5/CAN_1_TX_RX_func.c ****             else
 594:.\Generated_Source\PSoC5/CAN_1_TX_RX_func.c ****             {
 595:.\Generated_Source\PSoC5/CAN_1_TX_RX_func.c ****                 /* `#START MESSAGE_7_TRASMITTED` */
 596:.\Generated_Source\PSoC5/CAN_1_TX_RX_func.c **** 
 597:.\Generated_Source\PSoC5/CAN_1_TX_RX_func.c ****                 /* `#END` */
 598:.\Generated_Source\PSoC5/CAN_1_TX_RX_func.c **** 
 599:.\Generated_Source\PSoC5/CAN_1_TX_RX_func.c ****                 #ifdef CAN_1_SEND_MSG_7_CALLBACK
 600:.\Generated_Source\PSoC5/CAN_1_TX_RX_func.c ****                     CAN_1_SendMsg_7_Callback();
 601:.\Generated_Source\PSoC5/CAN_1_TX_RX_func.c ****                 #endif /* CAN_1_SEND_MSG_7_CALLBACK */
 602:.\Generated_Source\PSoC5/CAN_1_TX_RX_func.c **** 
 603:.\Generated_Source\PSoC5/CAN_1_TX_RX_func.c ****                 CY_SET_REG32(CAN_1_TX_CMD_PTR(7u),
 604:.\Generated_Source\PSoC5/CAN_1_TX_RX_func.c ****                 CY_GET_REG32(CAN_1_TX_CMD_PTR(7u)) | CAN_1_SEND_MESSAGE);
 605:.\Generated_Source\PSoC5/CAN_1_TX_RX_func.c ****             }
 606:.\Generated_Source\PSoC5/CAN_1_TX_RX_func.c **** 
 607:.\Generated_Source\PSoC5/CAN_1_TX_RX_func.c ****         return (result);
 608:.\Generated_Source\PSoC5/CAN_1_TX_RX_func.c ****     }
 609:.\Generated_Source\PSoC5/CAN_1_TX_RX_func.c **** #endif /* CAN_1_TX7_FUNC_ENABLE */
 610:.\Generated_Source\PSoC5/CAN_1_TX_RX_func.c **** 
 611:.\Generated_Source\PSoC5/CAN_1_TX_RX_func.c **** 
 612:.\Generated_Source\PSoC5/CAN_1_TX_RX_func.c **** /*******************************************************************************
 613:.\Generated_Source\PSoC5/CAN_1_TX_RX_func.c **** * FUNCTION NAME:   CAN_1_ReceiveMsg
 614:.\Generated_Source\PSoC5/CAN_1_TX_RX_func.c **** ********************************************************************************
ARM GAS  C:\Users\Patrick\AppData\Local\Temp\ccwoLOMC.s 			page 20


 615:.\Generated_Source\PSoC5/CAN_1_TX_RX_func.c **** *
 616:.\Generated_Source\PSoC5/CAN_1_TX_RX_func.c **** * Summary:
 617:.\Generated_Source\PSoC5/CAN_1_TX_RX_func.c **** *  This function is the entry point to Receive Message Interrupt for Basic
 618:.\Generated_Source\PSoC5/CAN_1_TX_RX_func.c **** *  mailboxes. Clears the Receive particular Message interrupt flag. Generated
 619:.\Generated_Source\PSoC5/CAN_1_TX_RX_func.c **** *  only if one of the Receive mailboxes is designed as Basic.
 620:.\Generated_Source\PSoC5/CAN_1_TX_RX_func.c **** *
 621:.\Generated_Source\PSoC5/CAN_1_TX_RX_func.c **** * Parameters:
 622:.\Generated_Source\PSoC5/CAN_1_TX_RX_func.c **** *  rxMailbox: The mailbox number that trig Receive Message Interrupt.
 623:.\Generated_Source\PSoC5/CAN_1_TX_RX_func.c **** *
 624:.\Generated_Source\PSoC5/CAN_1_TX_RX_func.c **** * Return:
 625:.\Generated_Source\PSoC5/CAN_1_TX_RX_func.c **** *  None.
 626:.\Generated_Source\PSoC5/CAN_1_TX_RX_func.c **** *
 627:.\Generated_Source\PSoC5/CAN_1_TX_RX_func.c **** * Reentrant:
 628:.\Generated_Source\PSoC5/CAN_1_TX_RX_func.c **** *  Depends on the Customer code.
 629:.\Generated_Source\PSoC5/CAN_1_TX_RX_func.c **** *
 630:.\Generated_Source\PSoC5/CAN_1_TX_RX_func.c **** *******************************************************************************/
 631:.\Generated_Source\PSoC5/CAN_1_TX_RX_func.c **** void CAN_1_ReceiveMsg(uint8 rxMailbox) 
 632:.\Generated_Source\PSoC5/CAN_1_TX_RX_func.c **** {
 462              		.loc 1 632 0
 463              		.cfi_startproc
 464              		@ args = 0, pretend = 0, frame = 8
 465              		@ frame_needed = 1, uses_anonymous_args = 0
 466              		@ link register save eliminated.
 467 0000 80B4     		push	{r7}
 468              		.cfi_def_cfa_offset 4
 469              		.cfi_offset 7, -4
 470 0002 83B0     		sub	sp, sp, #12
 471              		.cfi_def_cfa_offset 16
 472 0004 00AF     		add	r7, sp, #0
 473              		.cfi_def_cfa_register 7
 474 0006 0346     		mov	r3, r0
 475 0008 FB71     		strb	r3, [r7, #7]
 633:.\Generated_Source\PSoC5/CAN_1_TX_RX_func.c ****     #if (CY_PSOC3 || CY_PSOC5)
 634:.\Generated_Source\PSoC5/CAN_1_TX_RX_func.c ****         if ((CAN_1_RX[rxMailbox].rxcmd.byte[0u] & CAN_1_RX_ACK_MSG) != 0u)
 476              		.loc 1 634 0
 477 000a FB79     		ldrb	r3, [r7, #7]	@ zero_extendqisi2
 478 000c 5A01     		lsls	r2, r3, #5
 479 000e 0D4B     		ldr	r3, .L41
 480 0010 1344     		add	r3, r3, r2
 481 0012 1B78     		ldrb	r3, [r3]
 482 0014 DBB2     		uxtb	r3, r3
 483 0016 03F00103 		and	r3, r3, #1
 484 001a 002B     		cmp	r3, #0
 485 001c 0DD0     		beq	.L39
 635:.\Generated_Source\PSoC5/CAN_1_TX_RX_func.c ****     #else  /* CY_PSOC4 */
 636:.\Generated_Source\PSoC5/CAN_1_TX_RX_func.c ****         if ((CAN_1_RX_CMD_REG(rxMailbox) & CAN_1_RX_ACK_MSG) != 0u)
 637:.\Generated_Source\PSoC5/CAN_1_TX_RX_func.c ****     #endif /* CY_PSOC3 || CY_PSOC5 */
 638:.\Generated_Source\PSoC5/CAN_1_TX_RX_func.c ****         {
 639:.\Generated_Source\PSoC5/CAN_1_TX_RX_func.c ****             /* `#START MESSAGE_BASIC_RECEIVED` */
 640:.\Generated_Source\PSoC5/CAN_1_TX_RX_func.c ****             
 641:.\Generated_Source\PSoC5/CAN_1_TX_RX_func.c ****             /* `#END` */
 642:.\Generated_Source\PSoC5/CAN_1_TX_RX_func.c **** 
 643:.\Generated_Source\PSoC5/CAN_1_TX_RX_func.c ****             #ifdef CAN_1_RECEIVE_MSG_CALLBACK
 644:.\Generated_Source\PSoC5/CAN_1_TX_RX_func.c ****                 CAN_1_ReceiveMsg_Callback();
 645:.\Generated_Source\PSoC5/CAN_1_TX_RX_func.c ****             #endif /* CAN_1_RECEIVE_MSG_CALLBACK */
 646:.\Generated_Source\PSoC5/CAN_1_TX_RX_func.c **** 
 647:.\Generated_Source\PSoC5/CAN_1_TX_RX_func.c ****             #if (CY_PSOC3 || CY_PSOC5)
ARM GAS  C:\Users\Patrick\AppData\Local\Temp\ccwoLOMC.s 			page 21


 648:.\Generated_Source\PSoC5/CAN_1_TX_RX_func.c ****                 CAN_1_RX[rxMailbox].rxcmd.byte[0u] |= CAN_1_RX_ACK_MSG;
 486              		.loc 1 648 0
 487 001e FB79     		ldrb	r3, [r7, #7]	@ zero_extendqisi2
 488 0020 5A01     		lsls	r2, r3, #5
 489 0022 084B     		ldr	r3, .L41
 490 0024 1344     		add	r3, r3, r2
 491 0026 FA79     		ldrb	r2, [r7, #7]	@ zero_extendqisi2
 492 0028 5101     		lsls	r1, r2, #5
 493 002a 064A     		ldr	r2, .L41
 494 002c 0A44     		add	r2, r2, r1
 495 002e 1278     		ldrb	r2, [r2]
 496 0030 D2B2     		uxtb	r2, r2
 497 0032 42F00102 		orr	r2, r2, #1
 498 0036 D2B2     		uxtb	r2, r2
 499 0038 1A70     		strb	r2, [r3]
 500              	.L39:
 649:.\Generated_Source\PSoC5/CAN_1_TX_RX_func.c ****             #else  /* CY_PSOC4 */
 650:.\Generated_Source\PSoC5/CAN_1_TX_RX_func.c ****                 CAN_1_RX_CMD_REG(rxMailbox) |= CAN_1_RX_ACK_MSG;
 651:.\Generated_Source\PSoC5/CAN_1_TX_RX_func.c ****             #endif /* CY_PSOC3 || CY_PSOC5 */
 652:.\Generated_Source\PSoC5/CAN_1_TX_RX_func.c ****         }
 653:.\Generated_Source\PSoC5/CAN_1_TX_RX_func.c **** }
 501              		.loc 1 653 0
 502 003a 0C37     		adds	r7, r7, #12
 503              		.cfi_def_cfa_offset 4
 504 003c BD46     		mov	sp, r7
 505              		.cfi_def_cfa_register 13
 506              		@ sp needed
 507 003e 5DF8047B 		ldr	r7, [sp], #4
 508              		.cfi_restore 7
 509              		.cfi_def_cfa_offset 0
 510 0042 7047     		bx	lr
 511              	.L42:
 512              		.align	2
 513              	.L41:
 514 0044 A0A00040 		.word	1073782944
 515              		.cfi_endproc
 516              	.LFE3:
 517              		.size	CAN_1_ReceiveMsg, .-CAN_1_ReceiveMsg
 518              		.text
 519              	.Letext0:
 520              		.file 2 ".\\Generated_Source\\PSoC5\\cytypes.h"
 521              		.file 3 ".\\Generated_Source\\PSoC5\\CAN_1.h"