ARM GAS  C:\Users\Patrick\AppData\Local\Temp\ccOS0ljf.s 			page 1


   1              		.syntax unified
   2              		.cpu cortex-m3
   3              		.fpu softvfp
   4              		.eabi_attribute 20, 1
   5              		.eabi_attribute 21, 1
   6              		.eabi_attribute 23, 3
   7              		.eabi_attribute 24, 1
   8              		.eabi_attribute 25, 1
   9              		.eabi_attribute 26, 1
  10              		.eabi_attribute 30, 2
  11              		.eabi_attribute 34, 1
  12              		.eabi_attribute 18, 4
  13              		.thumb
  14              		.file	"CAN_ISR.c"
  15              		.text
  16              	.Ltext0:
  17              		.cfi_sections	.debug_frame
  18              		.section	.text.CAN_ISR_Interrupt,"ax",%progbits
  19              		.align	2
  20              		.global	CAN_ISR_Interrupt
  21              		.thumb
  22              		.thumb_func
  23              		.type	CAN_ISR_Interrupt, %function
  24              	CAN_ISR_Interrupt:
  25              	.LFB3:
  26              		.file 1 ".\\Generated_Source\\PSoC5\\CAN_ISR.c"
   1:.\Generated_Source\PSoC5/CAN_ISR.c **** /*******************************************************************************
   2:.\Generated_Source\PSoC5/CAN_ISR.c **** * File Name: CAN_ISR.c  
   3:.\Generated_Source\PSoC5/CAN_ISR.c **** * Version 1.70
   4:.\Generated_Source\PSoC5/CAN_ISR.c **** *
   5:.\Generated_Source\PSoC5/CAN_ISR.c **** *  Description:
   6:.\Generated_Source\PSoC5/CAN_ISR.c **** *   API for controlling the state of an interrupt.
   7:.\Generated_Source\PSoC5/CAN_ISR.c **** *
   8:.\Generated_Source\PSoC5/CAN_ISR.c **** *
   9:.\Generated_Source\PSoC5/CAN_ISR.c **** *  Note:
  10:.\Generated_Source\PSoC5/CAN_ISR.c **** *
  11:.\Generated_Source\PSoC5/CAN_ISR.c **** ********************************************************************************
  12:.\Generated_Source\PSoC5/CAN_ISR.c **** * Copyright 2008-2015, Cypress Semiconductor Corporation.  All rights reserved.
  13:.\Generated_Source\PSoC5/CAN_ISR.c **** * You may use this file only in accordance with the license, terms, conditions, 
  14:.\Generated_Source\PSoC5/CAN_ISR.c **** * disclaimers, and limitations in the end user license agreement accompanying 
  15:.\Generated_Source\PSoC5/CAN_ISR.c **** * the software package with which this file was provided.
  16:.\Generated_Source\PSoC5/CAN_ISR.c **** *******************************************************************************/
  17:.\Generated_Source\PSoC5/CAN_ISR.c **** 
  18:.\Generated_Source\PSoC5/CAN_ISR.c **** 
  19:.\Generated_Source\PSoC5/CAN_ISR.c **** #include <cydevice_trm.h>
  20:.\Generated_Source\PSoC5/CAN_ISR.c **** #include <CyLib.h>
  21:.\Generated_Source\PSoC5/CAN_ISR.c **** #include <CAN_ISR.h>
  22:.\Generated_Source\PSoC5/CAN_ISR.c **** 
  23:.\Generated_Source\PSoC5/CAN_ISR.c **** 
  24:.\Generated_Source\PSoC5/CAN_ISR.c **** #if !defined(CAN_ISR__REMOVED) /* Check for removal by optimization */
  25:.\Generated_Source\PSoC5/CAN_ISR.c **** 
  26:.\Generated_Source\PSoC5/CAN_ISR.c **** /*******************************************************************************
  27:.\Generated_Source\PSoC5/CAN_ISR.c **** *  Place your includes, defines and code here 
  28:.\Generated_Source\PSoC5/CAN_ISR.c **** ********************************************************************************/
  29:.\Generated_Source\PSoC5/CAN_ISR.c **** /* `#START CAN_ISR_intc` */
  30:.\Generated_Source\PSoC5/CAN_ISR.c **** #include "CAN_TIMER.h"
  31:.\Generated_Source\PSoC5/CAN_ISR.c **** #include "CAN_1.h"
ARM GAS  C:\Users\Patrick\AppData\Local\Temp\ccOS0ljf.s 			page 2


  32:.\Generated_Source\PSoC5/CAN_ISR.c **** #include "ISR_PIN.h"
  33:.\Generated_Source\PSoC5/CAN_ISR.c **** /* `#END` */
  34:.\Generated_Source\PSoC5/CAN_ISR.c **** 
  35:.\Generated_Source\PSoC5/CAN_ISR.c **** #ifndef CYINT_IRQ_BASE
  36:.\Generated_Source\PSoC5/CAN_ISR.c **** #define CYINT_IRQ_BASE      16
  37:.\Generated_Source\PSoC5/CAN_ISR.c **** #endif /* CYINT_IRQ_BASE */
  38:.\Generated_Source\PSoC5/CAN_ISR.c **** #ifndef CYINT_VECT_TABLE
  39:.\Generated_Source\PSoC5/CAN_ISR.c **** #define CYINT_VECT_TABLE    ((cyisraddress **) CYREG_NVIC_VECT_OFFSET)
  40:.\Generated_Source\PSoC5/CAN_ISR.c **** #endif /* CYINT_VECT_TABLE */
  41:.\Generated_Source\PSoC5/CAN_ISR.c **** 
  42:.\Generated_Source\PSoC5/CAN_ISR.c **** /* Declared in startup, used to set unused interrupts to. */
  43:.\Generated_Source\PSoC5/CAN_ISR.c **** CY_ISR_PROTO(IntDefaultHandler);
  44:.\Generated_Source\PSoC5/CAN_ISR.c **** 
  45:.\Generated_Source\PSoC5/CAN_ISR.c **** 
  46:.\Generated_Source\PSoC5/CAN_ISR.c **** /*******************************************************************************
  47:.\Generated_Source\PSoC5/CAN_ISR.c **** * Function Name: CAN_ISR_Start
  48:.\Generated_Source\PSoC5/CAN_ISR.c **** ********************************************************************************
  49:.\Generated_Source\PSoC5/CAN_ISR.c **** *
  50:.\Generated_Source\PSoC5/CAN_ISR.c **** * Summary:
  51:.\Generated_Source\PSoC5/CAN_ISR.c **** *  Set up the interrupt and enable it. This function disables the interrupt, 
  52:.\Generated_Source\PSoC5/CAN_ISR.c **** *  sets the default interrupt vector, sets the priority from the value in the
  53:.\Generated_Source\PSoC5/CAN_ISR.c **** *  Design Wide Resources Interrupt Editor, then enables the interrupt to the 
  54:.\Generated_Source\PSoC5/CAN_ISR.c **** *  interrupt controller.
  55:.\Generated_Source\PSoC5/CAN_ISR.c **** *
  56:.\Generated_Source\PSoC5/CAN_ISR.c **** * Parameters:  
  57:.\Generated_Source\PSoC5/CAN_ISR.c **** *   None
  58:.\Generated_Source\PSoC5/CAN_ISR.c **** *
  59:.\Generated_Source\PSoC5/CAN_ISR.c **** * Return:
  60:.\Generated_Source\PSoC5/CAN_ISR.c **** *   None
  61:.\Generated_Source\PSoC5/CAN_ISR.c **** *
  62:.\Generated_Source\PSoC5/CAN_ISR.c **** *******************************************************************************/
  63:.\Generated_Source\PSoC5/CAN_ISR.c **** void CAN_ISR_Start(void)
  64:.\Generated_Source\PSoC5/CAN_ISR.c **** {
  65:.\Generated_Source\PSoC5/CAN_ISR.c ****     /* For all we know the interrupt is active. */
  66:.\Generated_Source\PSoC5/CAN_ISR.c ****     CAN_ISR_Disable();
  67:.\Generated_Source\PSoC5/CAN_ISR.c **** 
  68:.\Generated_Source\PSoC5/CAN_ISR.c ****     /* Set the ISR to point to the CAN_ISR Interrupt. */
  69:.\Generated_Source\PSoC5/CAN_ISR.c ****     CAN_ISR_SetVector(&CAN_ISR_Interrupt);
  70:.\Generated_Source\PSoC5/CAN_ISR.c **** 
  71:.\Generated_Source\PSoC5/CAN_ISR.c ****     /* Set the priority. */
  72:.\Generated_Source\PSoC5/CAN_ISR.c ****     CAN_ISR_SetPriority((uint8)CAN_ISR_INTC_PRIOR_NUMBER);
  73:.\Generated_Source\PSoC5/CAN_ISR.c **** 
  74:.\Generated_Source\PSoC5/CAN_ISR.c ****     /* Enable it. */
  75:.\Generated_Source\PSoC5/CAN_ISR.c ****     CAN_ISR_Enable();
  76:.\Generated_Source\PSoC5/CAN_ISR.c **** }
  77:.\Generated_Source\PSoC5/CAN_ISR.c **** 
  78:.\Generated_Source\PSoC5/CAN_ISR.c **** 
  79:.\Generated_Source\PSoC5/CAN_ISR.c **** /*******************************************************************************
  80:.\Generated_Source\PSoC5/CAN_ISR.c **** * Function Name: CAN_ISR_StartEx
  81:.\Generated_Source\PSoC5/CAN_ISR.c **** ********************************************************************************
  82:.\Generated_Source\PSoC5/CAN_ISR.c **** *
  83:.\Generated_Source\PSoC5/CAN_ISR.c **** * Summary:
  84:.\Generated_Source\PSoC5/CAN_ISR.c **** *  Sets up the interrupt and enables it. This function disables the interrupt,
  85:.\Generated_Source\PSoC5/CAN_ISR.c **** *  sets the interrupt vector based on the address passed in, sets the priority 
  86:.\Generated_Source\PSoC5/CAN_ISR.c **** *  from the value in the Design Wide Resources Interrupt Editor, then enables 
  87:.\Generated_Source\PSoC5/CAN_ISR.c **** *  the interrupt to the interrupt controller.
  88:.\Generated_Source\PSoC5/CAN_ISR.c **** *  
ARM GAS  C:\Users\Patrick\AppData\Local\Temp\ccOS0ljf.s 			page 3


  89:.\Generated_Source\PSoC5/CAN_ISR.c **** *  When defining ISR functions, the CY_ISR and CY_ISR_PROTO macros should be 
  90:.\Generated_Source\PSoC5/CAN_ISR.c **** *  used to provide consistent definition across compilers:
  91:.\Generated_Source\PSoC5/CAN_ISR.c **** *  
  92:.\Generated_Source\PSoC5/CAN_ISR.c **** *  Function definition example:
  93:.\Generated_Source\PSoC5/CAN_ISR.c **** *   CY_ISR(MyISR)
  94:.\Generated_Source\PSoC5/CAN_ISR.c **** *   {
  95:.\Generated_Source\PSoC5/CAN_ISR.c **** *   }
  96:.\Generated_Source\PSoC5/CAN_ISR.c **** *   Function prototype example:
  97:.\Generated_Source\PSoC5/CAN_ISR.c **** *   CY_ISR_PROTO(MyISR);
  98:.\Generated_Source\PSoC5/CAN_ISR.c **** *
  99:.\Generated_Source\PSoC5/CAN_ISR.c **** * Parameters:  
 100:.\Generated_Source\PSoC5/CAN_ISR.c **** *   address: Address of the ISR to set in the interrupt vector table.
 101:.\Generated_Source\PSoC5/CAN_ISR.c **** *
 102:.\Generated_Source\PSoC5/CAN_ISR.c **** * Return:
 103:.\Generated_Source\PSoC5/CAN_ISR.c **** *   None
 104:.\Generated_Source\PSoC5/CAN_ISR.c **** *
 105:.\Generated_Source\PSoC5/CAN_ISR.c **** *******************************************************************************/
 106:.\Generated_Source\PSoC5/CAN_ISR.c **** void CAN_ISR_StartEx(cyisraddress address)
 107:.\Generated_Source\PSoC5/CAN_ISR.c **** {
 108:.\Generated_Source\PSoC5/CAN_ISR.c ****     /* For all we know the interrupt is active. */
 109:.\Generated_Source\PSoC5/CAN_ISR.c ****     CAN_ISR_Disable();
 110:.\Generated_Source\PSoC5/CAN_ISR.c **** 
 111:.\Generated_Source\PSoC5/CAN_ISR.c ****     /* Set the ISR to point to the CAN_ISR Interrupt. */
 112:.\Generated_Source\PSoC5/CAN_ISR.c ****     CAN_ISR_SetVector(address);
 113:.\Generated_Source\PSoC5/CAN_ISR.c **** 
 114:.\Generated_Source\PSoC5/CAN_ISR.c ****     /* Set the priority. */
 115:.\Generated_Source\PSoC5/CAN_ISR.c ****     CAN_ISR_SetPriority((uint8)CAN_ISR_INTC_PRIOR_NUMBER);
 116:.\Generated_Source\PSoC5/CAN_ISR.c **** 
 117:.\Generated_Source\PSoC5/CAN_ISR.c ****     /* Enable it. */
 118:.\Generated_Source\PSoC5/CAN_ISR.c ****     CAN_ISR_Enable();
 119:.\Generated_Source\PSoC5/CAN_ISR.c **** }
 120:.\Generated_Source\PSoC5/CAN_ISR.c **** 
 121:.\Generated_Source\PSoC5/CAN_ISR.c **** 
 122:.\Generated_Source\PSoC5/CAN_ISR.c **** /*******************************************************************************
 123:.\Generated_Source\PSoC5/CAN_ISR.c **** * Function Name: CAN_ISR_Stop
 124:.\Generated_Source\PSoC5/CAN_ISR.c **** ********************************************************************************
 125:.\Generated_Source\PSoC5/CAN_ISR.c **** *
 126:.\Generated_Source\PSoC5/CAN_ISR.c **** * Summary:
 127:.\Generated_Source\PSoC5/CAN_ISR.c **** *   Disables and removes the interrupt.
 128:.\Generated_Source\PSoC5/CAN_ISR.c **** *
 129:.\Generated_Source\PSoC5/CAN_ISR.c **** * Parameters:  
 130:.\Generated_Source\PSoC5/CAN_ISR.c **** *   None
 131:.\Generated_Source\PSoC5/CAN_ISR.c **** *
 132:.\Generated_Source\PSoC5/CAN_ISR.c **** * Return:
 133:.\Generated_Source\PSoC5/CAN_ISR.c **** *   None
 134:.\Generated_Source\PSoC5/CAN_ISR.c **** *
 135:.\Generated_Source\PSoC5/CAN_ISR.c **** *******************************************************************************/
 136:.\Generated_Source\PSoC5/CAN_ISR.c **** void CAN_ISR_Stop(void)
 137:.\Generated_Source\PSoC5/CAN_ISR.c **** {
 138:.\Generated_Source\PSoC5/CAN_ISR.c ****     /* Disable this interrupt. */
 139:.\Generated_Source\PSoC5/CAN_ISR.c ****     CAN_ISR_Disable();
 140:.\Generated_Source\PSoC5/CAN_ISR.c **** 
 141:.\Generated_Source\PSoC5/CAN_ISR.c ****     /* Set the ISR to point to the passive one. */
 142:.\Generated_Source\PSoC5/CAN_ISR.c ****     CAN_ISR_SetVector(&IntDefaultHandler);
 143:.\Generated_Source\PSoC5/CAN_ISR.c **** }
 144:.\Generated_Source\PSoC5/CAN_ISR.c **** 
 145:.\Generated_Source\PSoC5/CAN_ISR.c **** 
ARM GAS  C:\Users\Patrick\AppData\Local\Temp\ccOS0ljf.s 			page 4


 146:.\Generated_Source\PSoC5/CAN_ISR.c **** /*******************************************************************************
 147:.\Generated_Source\PSoC5/CAN_ISR.c **** * Function Name: CAN_ISR_Interrupt
 148:.\Generated_Source\PSoC5/CAN_ISR.c **** ********************************************************************************
 149:.\Generated_Source\PSoC5/CAN_ISR.c **** *
 150:.\Generated_Source\PSoC5/CAN_ISR.c **** * Summary:
 151:.\Generated_Source\PSoC5/CAN_ISR.c **** *   The default Interrupt Service Routine for CAN_ISR.
 152:.\Generated_Source\PSoC5/CAN_ISR.c **** *
 153:.\Generated_Source\PSoC5/CAN_ISR.c **** *   Add custom code between the coments to keep the next version of this file
 154:.\Generated_Source\PSoC5/CAN_ISR.c **** *   from over writting your code.
 155:.\Generated_Source\PSoC5/CAN_ISR.c **** *
 156:.\Generated_Source\PSoC5/CAN_ISR.c **** * Parameters:  
 157:.\Generated_Source\PSoC5/CAN_ISR.c **** *
 158:.\Generated_Source\PSoC5/CAN_ISR.c **** * Return:
 159:.\Generated_Source\PSoC5/CAN_ISR.c **** *   None
 160:.\Generated_Source\PSoC5/CAN_ISR.c **** *
 161:.\Generated_Source\PSoC5/CAN_ISR.c **** *******************************************************************************/
 162:.\Generated_Source\PSoC5/CAN_ISR.c **** CY_ISR(CAN_ISR_Interrupt)
 163:.\Generated_Source\PSoC5/CAN_ISR.c **** {
  27              		.loc 1 163 0
  28              		.cfi_startproc
  29              		@ args = 0, pretend = 0, frame = 0
  30              		@ frame_needed = 0, uses_anonymous_args = 0
  31 0000 08B5     		push	{r3, lr}
  32              		.cfi_def_cfa_offset 8
  33              		.cfi_offset 3, -8
  34              		.cfi_offset 14, -4
 164:.\Generated_Source\PSoC5/CAN_ISR.c ****     #ifdef CAN_ISR_INTERRUPT_INTERRUPT_CALLBACK
 165:.\Generated_Source\PSoC5/CAN_ISR.c ****         CAN_ISR_Interrupt_InterruptCallback();
 166:.\Generated_Source\PSoC5/CAN_ISR.c ****     #endif /* CAN_ISR_INTERRUPT_INTERRUPT_CALLBACK */ 
 167:.\Generated_Source\PSoC5/CAN_ISR.c **** 
 168:.\Generated_Source\PSoC5/CAN_ISR.c ****     /*  Place your Interrupt code here. */
 169:.\Generated_Source\PSoC5/CAN_ISR.c ****     /* `#START CAN_ISR_Interrupt` */
 170:.\Generated_Source\PSoC5/CAN_ISR.c ****     
 171:.\Generated_Source\PSoC5/CAN_ISR.c **** 	/* Read Status register in order to clear the sticky Terminal Count (TC) bit 
 172:.\Generated_Source\PSoC5/CAN_ISR.c **** 	 * in the status register. Note that the function is not called, but rather 
 173:.\Generated_Source\PSoC5/CAN_ISR.c **** 	 * the status is read directly.
 174:.\Generated_Source\PSoC5/CAN_ISR.c **** 	 */
 175:.\Generated_Source\PSoC5/CAN_ISR.c ****     
 176:.\Generated_Source\PSoC5/CAN_ISR.c ****     CAN_1_SendMsg0();	
  35              		.loc 1 176 0
  36 0002 FFF7FEFF 		bl	CAN_1_SendMsg0
  37              	.LVL0:
 177:.\Generated_Source\PSoC5/CAN_ISR.c ****     CAN_TIMER_STATUS;
  38              		.loc 1 177 0
  39 0006 014B     		ldr	r3, .L3
  40 0008 1B78     		ldrb	r3, [r3]	@ zero_extendqisi2
  41 000a 08BD     		pop	{r3, pc}
  42              	.L4:
  43              		.align	2
  44              	.L3:
  45 000c 63640040 		.word	1073767523
  46              		.cfi_endproc
  47              	.LFE3:
  48              		.size	CAN_ISR_Interrupt, .-CAN_ISR_Interrupt
  49              		.section	.text.CAN_ISR_Start,"ax",%progbits
  50              		.align	2
  51              		.global	CAN_ISR_Start
ARM GAS  C:\Users\Patrick\AppData\Local\Temp\ccOS0ljf.s 			page 5


  52              		.thumb
  53              		.thumb_func
  54              		.type	CAN_ISR_Start, %function
  55              	CAN_ISR_Start:
  56              	.LFB0:
  64:.\Generated_Source\PSoC5/CAN_ISR.c ****     /* For all we know the interrupt is active. */
  57              		.loc 1 64 0
  58              		.cfi_startproc
  59              		@ args = 0, pretend = 0, frame = 0
  60              		@ frame_needed = 0, uses_anonymous_args = 0
  61              		@ link register save eliminated.
  62 0000 70B4     		push	{r4, r5, r6}
  63              		.cfi_def_cfa_offset 12
  64              		.cfi_offset 4, -12
  65              		.cfi_offset 5, -8
  66              		.cfi_offset 6, -4
  67              	.LBB22:
  68              	.LBB23:
 178:.\Generated_Source\PSoC5/CAN_ISR.c **** 
 179:.\Generated_Source\PSoC5/CAN_ISR.c ****     /* `#END` */
 180:.\Generated_Source\PSoC5/CAN_ISR.c **** }
 181:.\Generated_Source\PSoC5/CAN_ISR.c **** 
 182:.\Generated_Source\PSoC5/CAN_ISR.c **** 
 183:.\Generated_Source\PSoC5/CAN_ISR.c **** /*******************************************************************************
 184:.\Generated_Source\PSoC5/CAN_ISR.c **** * Function Name: CAN_ISR_SetVector
 185:.\Generated_Source\PSoC5/CAN_ISR.c **** ********************************************************************************
 186:.\Generated_Source\PSoC5/CAN_ISR.c **** *
 187:.\Generated_Source\PSoC5/CAN_ISR.c **** * Summary:
 188:.\Generated_Source\PSoC5/CAN_ISR.c **** *   Change the ISR vector for the Interrupt. Note calling CAN_ISR_Start
 189:.\Generated_Source\PSoC5/CAN_ISR.c **** *   will override any effect this method would have had. To set the vector 
 190:.\Generated_Source\PSoC5/CAN_ISR.c **** *   before the component has been started use CAN_ISR_StartEx instead.
 191:.\Generated_Source\PSoC5/CAN_ISR.c **** * 
 192:.\Generated_Source\PSoC5/CAN_ISR.c **** *   When defining ISR functions, the CY_ISR and CY_ISR_PROTO macros should be 
 193:.\Generated_Source\PSoC5/CAN_ISR.c **** *   used to provide consistent definition across compilers:
 194:.\Generated_Source\PSoC5/CAN_ISR.c **** *
 195:.\Generated_Source\PSoC5/CAN_ISR.c **** *   Function definition example:
 196:.\Generated_Source\PSoC5/CAN_ISR.c **** *   CY_ISR(MyISR)
 197:.\Generated_Source\PSoC5/CAN_ISR.c **** *   {
 198:.\Generated_Source\PSoC5/CAN_ISR.c **** *   }
 199:.\Generated_Source\PSoC5/CAN_ISR.c **** *
 200:.\Generated_Source\PSoC5/CAN_ISR.c **** *   Function prototype example:
 201:.\Generated_Source\PSoC5/CAN_ISR.c **** *     CY_ISR_PROTO(MyISR);
 202:.\Generated_Source\PSoC5/CAN_ISR.c **** *
 203:.\Generated_Source\PSoC5/CAN_ISR.c **** * Parameters:
 204:.\Generated_Source\PSoC5/CAN_ISR.c **** *   address: Address of the ISR to set in the interrupt vector table.
 205:.\Generated_Source\PSoC5/CAN_ISR.c **** *
 206:.\Generated_Source\PSoC5/CAN_ISR.c **** * Return:
 207:.\Generated_Source\PSoC5/CAN_ISR.c **** *   None
 208:.\Generated_Source\PSoC5/CAN_ISR.c **** *
 209:.\Generated_Source\PSoC5/CAN_ISR.c **** *******************************************************************************/
 210:.\Generated_Source\PSoC5/CAN_ISR.c **** void CAN_ISR_SetVector(cyisraddress address)
 211:.\Generated_Source\PSoC5/CAN_ISR.c **** {
 212:.\Generated_Source\PSoC5/CAN_ISR.c ****     cyisraddress * ramVectorTable;
 213:.\Generated_Source\PSoC5/CAN_ISR.c **** 
 214:.\Generated_Source\PSoC5/CAN_ISR.c ****     ramVectorTable = (cyisraddress *) *CYINT_VECT_TABLE;
  69              		.loc 1 214 0
  70 0002 074B     		ldr	r3, .L7
ARM GAS  C:\Users\Patrick\AppData\Local\Temp\ccOS0ljf.s 			page 6


  71              	.LBE23:
  72              	.LBE22:
  73              	.LBB26:
  74              	.LBB27:
 215:.\Generated_Source\PSoC5/CAN_ISR.c **** 
 216:.\Generated_Source\PSoC5/CAN_ISR.c ****     ramVectorTable[CYINT_IRQ_BASE + (uint32)CAN_ISR__INTC_NUMBER] = address;
 217:.\Generated_Source\PSoC5/CAN_ISR.c **** }
 218:.\Generated_Source\PSoC5/CAN_ISR.c **** 
 219:.\Generated_Source\PSoC5/CAN_ISR.c **** 
 220:.\Generated_Source\PSoC5/CAN_ISR.c **** /*******************************************************************************
 221:.\Generated_Source\PSoC5/CAN_ISR.c **** * Function Name: CAN_ISR_GetVector
 222:.\Generated_Source\PSoC5/CAN_ISR.c **** ********************************************************************************
 223:.\Generated_Source\PSoC5/CAN_ISR.c **** *
 224:.\Generated_Source\PSoC5/CAN_ISR.c **** * Summary:
 225:.\Generated_Source\PSoC5/CAN_ISR.c **** *   Gets the "address" of the current ISR vector for the Interrupt.
 226:.\Generated_Source\PSoC5/CAN_ISR.c **** *
 227:.\Generated_Source\PSoC5/CAN_ISR.c **** * Parameters:
 228:.\Generated_Source\PSoC5/CAN_ISR.c **** *   None
 229:.\Generated_Source\PSoC5/CAN_ISR.c **** *
 230:.\Generated_Source\PSoC5/CAN_ISR.c **** * Return:
 231:.\Generated_Source\PSoC5/CAN_ISR.c **** *   Address of the ISR in the interrupt vector table.
 232:.\Generated_Source\PSoC5/CAN_ISR.c **** *
 233:.\Generated_Source\PSoC5/CAN_ISR.c **** *******************************************************************************/
 234:.\Generated_Source\PSoC5/CAN_ISR.c **** cyisraddress CAN_ISR_GetVector(void)
 235:.\Generated_Source\PSoC5/CAN_ISR.c **** {
 236:.\Generated_Source\PSoC5/CAN_ISR.c ****     cyisraddress * ramVectorTable;
 237:.\Generated_Source\PSoC5/CAN_ISR.c **** 
 238:.\Generated_Source\PSoC5/CAN_ISR.c ****     ramVectorTable = (cyisraddress *) *CYINT_VECT_TABLE;
 239:.\Generated_Source\PSoC5/CAN_ISR.c **** 
 240:.\Generated_Source\PSoC5/CAN_ISR.c ****     return ramVectorTable[CYINT_IRQ_BASE + (uint32)CAN_ISR__INTC_NUMBER];
 241:.\Generated_Source\PSoC5/CAN_ISR.c **** }
 242:.\Generated_Source\PSoC5/CAN_ISR.c **** 
 243:.\Generated_Source\PSoC5/CAN_ISR.c **** 
 244:.\Generated_Source\PSoC5/CAN_ISR.c **** /*******************************************************************************
 245:.\Generated_Source\PSoC5/CAN_ISR.c **** * Function Name: CAN_ISR_SetPriority
 246:.\Generated_Source\PSoC5/CAN_ISR.c **** ********************************************************************************
 247:.\Generated_Source\PSoC5/CAN_ISR.c **** *
 248:.\Generated_Source\PSoC5/CAN_ISR.c **** * Summary:
 249:.\Generated_Source\PSoC5/CAN_ISR.c **** *   Sets the Priority of the Interrupt. 
 250:.\Generated_Source\PSoC5/CAN_ISR.c **** *
 251:.\Generated_Source\PSoC5/CAN_ISR.c **** *   Note calling CAN_ISR_Start or CAN_ISR_StartEx will 
 252:.\Generated_Source\PSoC5/CAN_ISR.c **** *   override any effect this API would have had. This API should only be called
 253:.\Generated_Source\PSoC5/CAN_ISR.c **** *   after CAN_ISR_Start or CAN_ISR_StartEx has been called. 
 254:.\Generated_Source\PSoC5/CAN_ISR.c **** *   To set the initial priority for the component, use the Design-Wide Resources
 255:.\Generated_Source\PSoC5/CAN_ISR.c **** *   Interrupt Editor.
 256:.\Generated_Source\PSoC5/CAN_ISR.c **** *
 257:.\Generated_Source\PSoC5/CAN_ISR.c **** *   Note This API has no effect on Non-maskable interrupt NMI).
 258:.\Generated_Source\PSoC5/CAN_ISR.c **** *
 259:.\Generated_Source\PSoC5/CAN_ISR.c **** * Parameters:
 260:.\Generated_Source\PSoC5/CAN_ISR.c **** *   priority: Priority of the interrupt, 0 being the highest priority
 261:.\Generated_Source\PSoC5/CAN_ISR.c **** *             PSoC 3 and PSoC 5LP: Priority is from 0 to 7.
 262:.\Generated_Source\PSoC5/CAN_ISR.c **** *             PSoC 4: Priority is from 0 to 3.
 263:.\Generated_Source\PSoC5/CAN_ISR.c **** *
 264:.\Generated_Source\PSoC5/CAN_ISR.c **** * Return:
 265:.\Generated_Source\PSoC5/CAN_ISR.c **** *   None
 266:.\Generated_Source\PSoC5/CAN_ISR.c **** *
 267:.\Generated_Source\PSoC5/CAN_ISR.c **** *******************************************************************************/
ARM GAS  C:\Users\Patrick\AppData\Local\Temp\ccOS0ljf.s 			page 7


 268:.\Generated_Source\PSoC5/CAN_ISR.c **** void CAN_ISR_SetPriority(uint8 priority)
 269:.\Generated_Source\PSoC5/CAN_ISR.c **** {
 270:.\Generated_Source\PSoC5/CAN_ISR.c ****     *CAN_ISR_INTC_PRIOR = priority << 5;
 271:.\Generated_Source\PSoC5/CAN_ISR.c **** }
 272:.\Generated_Source\PSoC5/CAN_ISR.c **** 
 273:.\Generated_Source\PSoC5/CAN_ISR.c **** 
 274:.\Generated_Source\PSoC5/CAN_ISR.c **** /*******************************************************************************
 275:.\Generated_Source\PSoC5/CAN_ISR.c **** * Function Name: CAN_ISR_GetPriority
 276:.\Generated_Source\PSoC5/CAN_ISR.c **** ********************************************************************************
 277:.\Generated_Source\PSoC5/CAN_ISR.c **** *
 278:.\Generated_Source\PSoC5/CAN_ISR.c **** * Summary:
 279:.\Generated_Source\PSoC5/CAN_ISR.c **** *   Gets the Priority of the Interrupt.
 280:.\Generated_Source\PSoC5/CAN_ISR.c **** *
 281:.\Generated_Source\PSoC5/CAN_ISR.c **** * Parameters:
 282:.\Generated_Source\PSoC5/CAN_ISR.c **** *   None
 283:.\Generated_Source\PSoC5/CAN_ISR.c **** *
 284:.\Generated_Source\PSoC5/CAN_ISR.c **** * Return:
 285:.\Generated_Source\PSoC5/CAN_ISR.c **** *   Priority of the interrupt, 0 being the highest priority
 286:.\Generated_Source\PSoC5/CAN_ISR.c **** *    PSoC 3 and PSoC 5LP: Priority is from 0 to 7.
 287:.\Generated_Source\PSoC5/CAN_ISR.c **** *    PSoC 4: Priority is from 0 to 3.
 288:.\Generated_Source\PSoC5/CAN_ISR.c **** *
 289:.\Generated_Source\PSoC5/CAN_ISR.c **** *******************************************************************************/
 290:.\Generated_Source\PSoC5/CAN_ISR.c **** uint8 CAN_ISR_GetPriority(void)
 291:.\Generated_Source\PSoC5/CAN_ISR.c **** {
 292:.\Generated_Source\PSoC5/CAN_ISR.c ****     uint8 priority;
 293:.\Generated_Source\PSoC5/CAN_ISR.c **** 
 294:.\Generated_Source\PSoC5/CAN_ISR.c **** 
 295:.\Generated_Source\PSoC5/CAN_ISR.c ****     priority = *CAN_ISR_INTC_PRIOR >> 5;
 296:.\Generated_Source\PSoC5/CAN_ISR.c **** 
 297:.\Generated_Source\PSoC5/CAN_ISR.c ****     return priority;
 298:.\Generated_Source\PSoC5/CAN_ISR.c **** }
 299:.\Generated_Source\PSoC5/CAN_ISR.c **** 
 300:.\Generated_Source\PSoC5/CAN_ISR.c **** 
 301:.\Generated_Source\PSoC5/CAN_ISR.c **** /*******************************************************************************
 302:.\Generated_Source\PSoC5/CAN_ISR.c **** * Function Name: CAN_ISR_Enable
 303:.\Generated_Source\PSoC5/CAN_ISR.c **** ********************************************************************************
 304:.\Generated_Source\PSoC5/CAN_ISR.c **** *
 305:.\Generated_Source\PSoC5/CAN_ISR.c **** * Summary:
 306:.\Generated_Source\PSoC5/CAN_ISR.c **** *   Enables the interrupt to the interrupt controller. Do not call this function
 307:.\Generated_Source\PSoC5/CAN_ISR.c **** *   unless ISR_Start() has been called or the functionality of the ISR_Start() 
 308:.\Generated_Source\PSoC5/CAN_ISR.c **** *   function, which sets the vector and the priority, has been called.
 309:.\Generated_Source\PSoC5/CAN_ISR.c **** *
 310:.\Generated_Source\PSoC5/CAN_ISR.c **** * Parameters:
 311:.\Generated_Source\PSoC5/CAN_ISR.c **** *   None
 312:.\Generated_Source\PSoC5/CAN_ISR.c **** *
 313:.\Generated_Source\PSoC5/CAN_ISR.c **** * Return:
 314:.\Generated_Source\PSoC5/CAN_ISR.c **** *   None
 315:.\Generated_Source\PSoC5/CAN_ISR.c **** *
 316:.\Generated_Source\PSoC5/CAN_ISR.c **** *******************************************************************************/
 317:.\Generated_Source\PSoC5/CAN_ISR.c **** void CAN_ISR_Enable(void)
 318:.\Generated_Source\PSoC5/CAN_ISR.c **** {
 319:.\Generated_Source\PSoC5/CAN_ISR.c ****     /* Enable the general interrupt. */
 320:.\Generated_Source\PSoC5/CAN_ISR.c ****     *CAN_ISR_INTC_SET_EN = CAN_ISR__INTC_MASK;
 321:.\Generated_Source\PSoC5/CAN_ISR.c **** }
 322:.\Generated_Source\PSoC5/CAN_ISR.c **** 
 323:.\Generated_Source\PSoC5/CAN_ISR.c **** 
 324:.\Generated_Source\PSoC5/CAN_ISR.c **** /*******************************************************************************
ARM GAS  C:\Users\Patrick\AppData\Local\Temp\ccOS0ljf.s 			page 8


 325:.\Generated_Source\PSoC5/CAN_ISR.c **** * Function Name: CAN_ISR_GetState
 326:.\Generated_Source\PSoC5/CAN_ISR.c **** ********************************************************************************
 327:.\Generated_Source\PSoC5/CAN_ISR.c **** *
 328:.\Generated_Source\PSoC5/CAN_ISR.c **** * Summary:
 329:.\Generated_Source\PSoC5/CAN_ISR.c **** *   Gets the state (enabled, disabled) of the Interrupt.
 330:.\Generated_Source\PSoC5/CAN_ISR.c **** *
 331:.\Generated_Source\PSoC5/CAN_ISR.c **** * Parameters:
 332:.\Generated_Source\PSoC5/CAN_ISR.c **** *   None
 333:.\Generated_Source\PSoC5/CAN_ISR.c **** *
 334:.\Generated_Source\PSoC5/CAN_ISR.c **** * Return:
 335:.\Generated_Source\PSoC5/CAN_ISR.c **** *   1 if enabled, 0 if disabled.
 336:.\Generated_Source\PSoC5/CAN_ISR.c **** *
 337:.\Generated_Source\PSoC5/CAN_ISR.c **** *******************************************************************************/
 338:.\Generated_Source\PSoC5/CAN_ISR.c **** uint8 CAN_ISR_GetState(void)
 339:.\Generated_Source\PSoC5/CAN_ISR.c **** {
 340:.\Generated_Source\PSoC5/CAN_ISR.c ****     /* Get the state of the general interrupt. */
 341:.\Generated_Source\PSoC5/CAN_ISR.c ****     return ((*CAN_ISR_INTC_SET_EN & (uint32)CAN_ISR__INTC_MASK) != 0u) ? 1u:0u;
 342:.\Generated_Source\PSoC5/CAN_ISR.c **** }
 343:.\Generated_Source\PSoC5/CAN_ISR.c **** 
 344:.\Generated_Source\PSoC5/CAN_ISR.c **** 
 345:.\Generated_Source\PSoC5/CAN_ISR.c **** /*******************************************************************************
 346:.\Generated_Source\PSoC5/CAN_ISR.c **** * Function Name: CAN_ISR_Disable
 347:.\Generated_Source\PSoC5/CAN_ISR.c **** ********************************************************************************
 348:.\Generated_Source\PSoC5/CAN_ISR.c **** *
 349:.\Generated_Source\PSoC5/CAN_ISR.c **** * Summary:
 350:.\Generated_Source\PSoC5/CAN_ISR.c **** *   Disables the Interrupt in the interrupt controller.
 351:.\Generated_Source\PSoC5/CAN_ISR.c **** *
 352:.\Generated_Source\PSoC5/CAN_ISR.c **** * Parameters:
 353:.\Generated_Source\PSoC5/CAN_ISR.c **** *   None
 354:.\Generated_Source\PSoC5/CAN_ISR.c **** *
 355:.\Generated_Source\PSoC5/CAN_ISR.c **** * Return:
 356:.\Generated_Source\PSoC5/CAN_ISR.c **** *   None
 357:.\Generated_Source\PSoC5/CAN_ISR.c **** *
 358:.\Generated_Source\PSoC5/CAN_ISR.c **** *******************************************************************************/
 359:.\Generated_Source\PSoC5/CAN_ISR.c **** void CAN_ISR_Disable(void)
 360:.\Generated_Source\PSoC5/CAN_ISR.c **** {
 361:.\Generated_Source\PSoC5/CAN_ISR.c ****     /* Disable the general interrupt. */
 362:.\Generated_Source\PSoC5/CAN_ISR.c ****     *CAN_ISR_INTC_CLR_EN = CAN_ISR__INTC_MASK;
  75              		.loc 1 362 0
  76 0004 074E     		ldr	r6, .L7+4
  77              	.LBE27:
  78              	.LBE26:
  79              	.LBB30:
  80              	.LBB24:
 214:.\Generated_Source\PSoC5/CAN_ISR.c **** 
  81              		.loc 1 214 0
  82 0006 1C68     		ldr	r4, [r3]
 216:.\Generated_Source\PSoC5/CAN_ISR.c **** }
  83              		.loc 1 216 0
  84 0008 074D     		ldr	r5, .L7+8
  85              	.LBE24:
  86              	.LBE30:
  87              	.LBB31:
  88              	.LBB32:
 270:.\Generated_Source\PSoC5/CAN_ISR.c **** }
  89              		.loc 1 270 0
  90 000a 0849     		ldr	r1, .L7+12
ARM GAS  C:\Users\Patrick\AppData\Local\Temp\ccOS0ljf.s 			page 9


  91              	.LBE32:
  92              	.LBE31:
  93              	.LBB35:
  94              	.LBB28:
  95              		.loc 1 362 0
  96 000c 0123     		movs	r3, #1
  97              	.LBE28:
  98              	.LBE35:
  99              	.LBB36:
 100              	.LBB37:
 320:.\Generated_Source\PSoC5/CAN_ISR.c **** }
 101              		.loc 1 320 0
 102 000e 084A     		ldr	r2, .L7+16
 103              	.LBE37:
 104              	.LBE36:
 105              	.LBB39:
 106              	.LBB33:
 270:.\Generated_Source\PSoC5/CAN_ISR.c **** }
 107              		.loc 1 270 0
 108 0010 E020     		movs	r0, #224
 109              	.LBE33:
 110              	.LBE39:
 111              	.LBB40:
 112              	.LBB29:
 113              		.loc 1 362 0
 114 0012 3360     		str	r3, [r6]
 115              	.LVL1:
 116              	.LBE29:
 117              	.LBE40:
 118              	.LBB41:
 119              	.LBB25:
 216:.\Generated_Source\PSoC5/CAN_ISR.c **** }
 120              		.loc 1 216 0
 121 0014 2564     		str	r5, [r4, #64]
 122              	.LVL2:
 123              	.LBE25:
 124              	.LBE41:
 125              	.LBB42:
 126              	.LBB34:
 270:.\Generated_Source\PSoC5/CAN_ISR.c **** }
 127              		.loc 1 270 0
 128 0016 0870     		strb	r0, [r1]
 129              	.LBE34:
 130              	.LBE42:
  76:.\Generated_Source\PSoC5/CAN_ISR.c **** 
 131              		.loc 1 76 0
 132 0018 70BC     		pop	{r4, r5, r6}
 133              		.cfi_restore 6
 134              		.cfi_restore 5
 135              		.cfi_restore 4
 136              		.cfi_def_cfa_offset 0
 137              	.LVL3:
 138              	.LBB43:
 139              	.LBB38:
 320:.\Generated_Source\PSoC5/CAN_ISR.c **** }
 140              		.loc 1 320 0
 141 001a 1360     		str	r3, [r2]
ARM GAS  C:\Users\Patrick\AppData\Local\Temp\ccOS0ljf.s 			page 10


 142              	.LBE38:
 143              	.LBE43:
  76:.\Generated_Source\PSoC5/CAN_ISR.c **** 
 144              		.loc 1 76 0
 145 001c 7047     		bx	lr
 146              	.L8:
 147 001e 00BF     		.align	2
 148              	.L7:
 149 0020 08ED00E0 		.word	-536810232
 150 0024 80E100E0 		.word	-536813184
 151 0028 00000000 		.word	CAN_ISR_Interrupt
 152 002c 00E400E0 		.word	-536812544
 153 0030 00E100E0 		.word	-536813312
 154              		.cfi_endproc
 155              	.LFE0:
 156              		.size	CAN_ISR_Start, .-CAN_ISR_Start
 157              		.section	.text.CAN_ISR_StartEx,"ax",%progbits
 158              		.align	2
 159              		.global	CAN_ISR_StartEx
 160              		.thumb
 161              		.thumb_func
 162              		.type	CAN_ISR_StartEx, %function
 163              	CAN_ISR_StartEx:
 164              	.LFB1:
 107:.\Generated_Source\PSoC5/CAN_ISR.c ****     /* For all we know the interrupt is active. */
 165              		.loc 1 107 0
 166              		.cfi_startproc
 167              		@ args = 0, pretend = 0, frame = 0
 168              		@ frame_needed = 0, uses_anonymous_args = 0
 169              		@ link register save eliminated.
 170              	.LVL4:
 171 0000 70B4     		push	{r4, r5, r6}
 172              		.cfi_def_cfa_offset 12
 173              		.cfi_offset 4, -12
 174              		.cfi_offset 5, -8
 175              		.cfi_offset 6, -4
 176              	.LBB44:
 177              	.LBB45:
 214:.\Generated_Source\PSoC5/CAN_ISR.c **** 
 178              		.loc 1 214 0
 179 0002 064B     		ldr	r3, .L11
 180              	.LBE45:
 181              	.LBE44:
 182              	.LBB48:
 183              	.LBB49:
 184              		.loc 1 362 0
 185 0004 064E     		ldr	r6, .L11+4
 186              	.LBE49:
 187              	.LBE48:
 188              	.LBB52:
 189              	.LBB46:
 214:.\Generated_Source\PSoC5/CAN_ISR.c **** 
 190              		.loc 1 214 0
 191 0006 1D68     		ldr	r5, [r3]
 192              	.LBE46:
 193              	.LBE52:
 194              	.LBB53:
ARM GAS  C:\Users\Patrick\AppData\Local\Temp\ccOS0ljf.s 			page 11


 195              	.LBB54:
 270:.\Generated_Source\PSoC5/CAN_ISR.c **** }
 196              		.loc 1 270 0
 197 0008 0649     		ldr	r1, .L11+8
 198              	.LBE54:
 199              	.LBE53:
 200              	.LBB57:
 201              	.LBB50:
 202              		.loc 1 362 0
 203 000a 0123     		movs	r3, #1
 204              	.LBE50:
 205              	.LBE57:
 206              	.LBB58:
 207              	.LBB55:
 270:.\Generated_Source\PSoC5/CAN_ISR.c **** }
 208              		.loc 1 270 0
 209 000c E024     		movs	r4, #224
 210              	.LBE55:
 211              	.LBE58:
 212              	.LBB59:
 213              	.LBB60:
 320:.\Generated_Source\PSoC5/CAN_ISR.c **** }
 214              		.loc 1 320 0
 215 000e 064A     		ldr	r2, .L11+12
 216              	.LBE60:
 217              	.LBE59:
 218              	.LBB62:
 219              	.LBB51:
 220              		.loc 1 362 0
 221 0010 3360     		str	r3, [r6]
 222              	.LVL5:
 223              	.LBE51:
 224              	.LBE62:
 225              	.LBB63:
 226              	.LBB47:
 216:.\Generated_Source\PSoC5/CAN_ISR.c **** }
 227              		.loc 1 216 0
 228 0012 2864     		str	r0, [r5, #64]
 229              	.LVL6:
 230              	.LBE47:
 231              	.LBE63:
 232              	.LBB64:
 233              	.LBB56:
 270:.\Generated_Source\PSoC5/CAN_ISR.c **** }
 234              		.loc 1 270 0
 235 0014 0C70     		strb	r4, [r1]
 236              	.LBE56:
 237              	.LBE64:
 119:.\Generated_Source\PSoC5/CAN_ISR.c **** 
 238              		.loc 1 119 0
 239 0016 70BC     		pop	{r4, r5, r6}
 240              		.cfi_restore 6
 241              		.cfi_restore 5
 242              		.cfi_restore 4
 243              		.cfi_def_cfa_offset 0
 244              	.LVL7:
 245              	.LBB65:
ARM GAS  C:\Users\Patrick\AppData\Local\Temp\ccOS0ljf.s 			page 12


 246              	.LBB61:
 320:.\Generated_Source\PSoC5/CAN_ISR.c **** }
 247              		.loc 1 320 0
 248 0018 1360     		str	r3, [r2]
 249              	.LBE61:
 250              	.LBE65:
 119:.\Generated_Source\PSoC5/CAN_ISR.c **** 
 251              		.loc 1 119 0
 252 001a 7047     		bx	lr
 253              	.L12:
 254              		.align	2
 255              	.L11:
 256 001c 08ED00E0 		.word	-536810232
 257 0020 80E100E0 		.word	-536813184
 258 0024 00E400E0 		.word	-536812544
 259 0028 00E100E0 		.word	-536813312
 260              		.cfi_endproc
 261              	.LFE1:
 262              		.size	CAN_ISR_StartEx, .-CAN_ISR_StartEx
 263              		.section	.text.CAN_ISR_Stop,"ax",%progbits
 264              		.align	2
 265              		.global	CAN_ISR_Stop
 266              		.thumb
 267              		.thumb_func
 268              		.type	CAN_ISR_Stop, %function
 269              	CAN_ISR_Stop:
 270              	.LFB2:
 137:.\Generated_Source\PSoC5/CAN_ISR.c ****     /* Disable this interrupt. */
 271              		.loc 1 137 0
 272              		.cfi_startproc
 273              		@ args = 0, pretend = 0, frame = 0
 274              		@ frame_needed = 0, uses_anonymous_args = 0
 275              		@ link register save eliminated.
 276              	.LBB66:
 277              	.LBB67:
 214:.\Generated_Source\PSoC5/CAN_ISR.c **** 
 278              		.loc 1 214 0
 279 0000 034B     		ldr	r3, .L14
 280              	.LBE67:
 281              	.LBE66:
 282              	.LBB70:
 283              	.LBB71:
 284              		.loc 1 362 0
 285 0002 0449     		ldr	r1, .L14+4
 286              	.LBE71:
 287              	.LBE70:
 288              	.LBB73:
 289              	.LBB68:
 214:.\Generated_Source\PSoC5/CAN_ISR.c **** 
 290              		.loc 1 214 0
 291 0004 1B68     		ldr	r3, [r3]
 216:.\Generated_Source\PSoC5/CAN_ISR.c **** }
 292              		.loc 1 216 0
 293 0006 044A     		ldr	r2, .L14+8
 294              	.LBE68:
 295              	.LBE73:
 296              	.LBB74:
ARM GAS  C:\Users\Patrick\AppData\Local\Temp\ccOS0ljf.s 			page 13


 297              	.LBB72:
 298              		.loc 1 362 0
 299 0008 0120     		movs	r0, #1
 300 000a 0860     		str	r0, [r1]
 301              	.LVL8:
 302              	.LBE72:
 303              	.LBE74:
 304              	.LBB75:
 305              	.LBB69:
 216:.\Generated_Source\PSoC5/CAN_ISR.c **** }
 306              		.loc 1 216 0
 307 000c 1A64     		str	r2, [r3, #64]
 308 000e 7047     		bx	lr
 309              	.L15:
 310              		.align	2
 311              	.L14:
 312 0010 08ED00E0 		.word	-536810232
 313 0014 80E100E0 		.word	-536813184
 314 0018 00000000 		.word	IntDefaultHandler
 315              	.LBE69:
 316              	.LBE75:
 317              		.cfi_endproc
 318              	.LFE2:
 319              		.size	CAN_ISR_Stop, .-CAN_ISR_Stop
 320              		.section	.text.CAN_ISR_SetVector,"ax",%progbits
 321              		.align	2
 322              		.global	CAN_ISR_SetVector
 323              		.thumb
 324              		.thumb_func
 325              		.type	CAN_ISR_SetVector, %function
 326              	CAN_ISR_SetVector:
 327              	.LFB4:
 211:.\Generated_Source\PSoC5/CAN_ISR.c ****     cyisraddress * ramVectorTable;
 328              		.loc 1 211 0
 329              		.cfi_startproc
 330              		@ args = 0, pretend = 0, frame = 0
 331              		@ frame_needed = 0, uses_anonymous_args = 0
 332              		@ link register save eliminated.
 333              	.LVL9:
 214:.\Generated_Source\PSoC5/CAN_ISR.c **** 
 334              		.loc 1 214 0
 335 0000 014B     		ldr	r3, .L17
 336 0002 1B68     		ldr	r3, [r3]
 337              	.LVL10:
 216:.\Generated_Source\PSoC5/CAN_ISR.c **** }
 338              		.loc 1 216 0
 339 0004 1864     		str	r0, [r3, #64]
 340 0006 7047     		bx	lr
 341              	.L18:
 342              		.align	2
 343              	.L17:
 344 0008 08ED00E0 		.word	-536810232
 345              		.cfi_endproc
 346              	.LFE4:
 347              		.size	CAN_ISR_SetVector, .-CAN_ISR_SetVector
 348              		.section	.text.CAN_ISR_GetVector,"ax",%progbits
 349              		.align	2
ARM GAS  C:\Users\Patrick\AppData\Local\Temp\ccOS0ljf.s 			page 14


 350              		.global	CAN_ISR_GetVector
 351              		.thumb
 352              		.thumb_func
 353              		.type	CAN_ISR_GetVector, %function
 354              	CAN_ISR_GetVector:
 355              	.LFB5:
 235:.\Generated_Source\PSoC5/CAN_ISR.c ****     cyisraddress * ramVectorTable;
 356              		.loc 1 235 0
 357              		.cfi_startproc
 358              		@ args = 0, pretend = 0, frame = 0
 359              		@ frame_needed = 0, uses_anonymous_args = 0
 360              		@ link register save eliminated.
 361              	.LVL11:
 238:.\Generated_Source\PSoC5/CAN_ISR.c **** 
 362              		.loc 1 238 0
 363 0000 014B     		ldr	r3, .L20
 364              	.LVL12:
 240:.\Generated_Source\PSoC5/CAN_ISR.c **** }
 365              		.loc 1 240 0
 366 0002 1B68     		ldr	r3, [r3]
 367              	.LVL13:
 241:.\Generated_Source\PSoC5/CAN_ISR.c **** 
 368              		.loc 1 241 0
 369 0004 186C     		ldr	r0, [r3, #64]
 370 0006 7047     		bx	lr
 371              	.L21:
 372              		.align	2
 373              	.L20:
 374 0008 08ED00E0 		.word	-536810232
 375              		.cfi_endproc
 376              	.LFE5:
 377              		.size	CAN_ISR_GetVector, .-CAN_ISR_GetVector
 378              		.section	.text.CAN_ISR_SetPriority,"ax",%progbits
 379              		.align	2
 380              		.global	CAN_ISR_SetPriority
 381              		.thumb
 382              		.thumb_func
 383              		.type	CAN_ISR_SetPriority, %function
 384              	CAN_ISR_SetPriority:
 385              	.LFB6:
 269:.\Generated_Source\PSoC5/CAN_ISR.c ****     *CAN_ISR_INTC_PRIOR = priority << 5;
 386              		.loc 1 269 0
 387              		.cfi_startproc
 388              		@ args = 0, pretend = 0, frame = 0
 389              		@ frame_needed = 0, uses_anonymous_args = 0
 390              		@ link register save eliminated.
 391              	.LVL14:
 270:.\Generated_Source\PSoC5/CAN_ISR.c **** }
 392              		.loc 1 270 0
 393 0000 4001     		lsls	r0, r0, #5
 394              	.LVL15:
 395 0002 024B     		ldr	r3, .L23
 396 0004 C0B2     		uxtb	r0, r0
 397 0006 1870     		strb	r0, [r3]
 398 0008 7047     		bx	lr
 399              	.L24:
 400 000a 00BF     		.align	2
ARM GAS  C:\Users\Patrick\AppData\Local\Temp\ccOS0ljf.s 			page 15


 401              	.L23:
 402 000c 00E400E0 		.word	-536812544
 403              		.cfi_endproc
 404              	.LFE6:
 405              		.size	CAN_ISR_SetPriority, .-CAN_ISR_SetPriority
 406              		.section	.text.CAN_ISR_GetPriority,"ax",%progbits
 407              		.align	2
 408              		.global	CAN_ISR_GetPriority
 409              		.thumb
 410              		.thumb_func
 411              		.type	CAN_ISR_GetPriority, %function
 412              	CAN_ISR_GetPriority:
 413              	.LFB7:
 291:.\Generated_Source\PSoC5/CAN_ISR.c ****     uint8 priority;
 414              		.loc 1 291 0
 415              		.cfi_startproc
 416              		@ args = 0, pretend = 0, frame = 0
 417              		@ frame_needed = 0, uses_anonymous_args = 0
 418              		@ link register save eliminated.
 295:.\Generated_Source\PSoC5/CAN_ISR.c **** 
 419              		.loc 1 295 0
 420 0000 014B     		ldr	r3, .L26
 421 0002 1878     		ldrb	r0, [r3]	@ zero_extendqisi2
 422              	.LVL16:
 298:.\Generated_Source\PSoC5/CAN_ISR.c **** 
 423              		.loc 1 298 0
 424 0004 4009     		lsrs	r0, r0, #5
 425              	.LVL17:
 426 0006 7047     		bx	lr
 427              	.L27:
 428              		.align	2
 429              	.L26:
 430 0008 00E400E0 		.word	-536812544
 431              		.cfi_endproc
 432              	.LFE7:
 433              		.size	CAN_ISR_GetPriority, .-CAN_ISR_GetPriority
 434              		.section	.text.CAN_ISR_Enable,"ax",%progbits
 435              		.align	2
 436              		.global	CAN_ISR_Enable
 437              		.thumb
 438              		.thumb_func
 439              		.type	CAN_ISR_Enable, %function
 440              	CAN_ISR_Enable:
 441              	.LFB8:
 318:.\Generated_Source\PSoC5/CAN_ISR.c ****     /* Enable the general interrupt. */
 442              		.loc 1 318 0
 443              		.cfi_startproc
 444              		@ args = 0, pretend = 0, frame = 0
 445              		@ frame_needed = 0, uses_anonymous_args = 0
 446              		@ link register save eliminated.
 320:.\Generated_Source\PSoC5/CAN_ISR.c **** }
 447              		.loc 1 320 0
 448 0000 014B     		ldr	r3, .L29
 449 0002 0122     		movs	r2, #1
 450 0004 1A60     		str	r2, [r3]
 451 0006 7047     		bx	lr
 452              	.L30:
ARM GAS  C:\Users\Patrick\AppData\Local\Temp\ccOS0ljf.s 			page 16


 453              		.align	2
 454              	.L29:
 455 0008 00E100E0 		.word	-536813312
 456              		.cfi_endproc
 457              	.LFE8:
 458              		.size	CAN_ISR_Enable, .-CAN_ISR_Enable
 459              		.section	.text.CAN_ISR_GetState,"ax",%progbits
 460              		.align	2
 461              		.global	CAN_ISR_GetState
 462              		.thumb
 463              		.thumb_func
 464              		.type	CAN_ISR_GetState, %function
 465              	CAN_ISR_GetState:
 466              	.LFB9:
 339:.\Generated_Source\PSoC5/CAN_ISR.c ****     /* Get the state of the general interrupt. */
 467              		.loc 1 339 0
 468              		.cfi_startproc
 469              		@ args = 0, pretend = 0, frame = 0
 470              		@ frame_needed = 0, uses_anonymous_args = 0
 471              		@ link register save eliminated.
 341:.\Generated_Source\PSoC5/CAN_ISR.c **** }
 472              		.loc 1 341 0
 473 0000 024B     		ldr	r3, .L32
 474 0002 1868     		ldr	r0, [r3]
 342:.\Generated_Source\PSoC5/CAN_ISR.c **** 
 475              		.loc 1 342 0
 476 0004 00F00100 		and	r0, r0, #1
 477 0008 7047     		bx	lr
 478              	.L33:
 479 000a 00BF     		.align	2
 480              	.L32:
 481 000c 00E100E0 		.word	-536813312
 482              		.cfi_endproc
 483              	.LFE9:
 484              		.size	CAN_ISR_GetState, .-CAN_ISR_GetState
 485              		.section	.text.CAN_ISR_Disable,"ax",%progbits
 486              		.align	2
 487              		.global	CAN_ISR_Disable
 488              		.thumb
 489              		.thumb_func
 490              		.type	CAN_ISR_Disable, %function
 491              	CAN_ISR_Disable:
 492              	.LFB10:
 360:.\Generated_Source\PSoC5/CAN_ISR.c ****     /* Disable the general interrupt. */
 493              		.loc 1 360 0
 494              		.cfi_startproc
 495              		@ args = 0, pretend = 0, frame = 0
 496              		@ frame_needed = 0, uses_anonymous_args = 0
 497              		@ link register save eliminated.
 498              		.loc 1 362 0
 499 0000 014B     		ldr	r3, .L35
 500 0002 0122     		movs	r2, #1
 501 0004 1A60     		str	r2, [r3]
 502 0006 7047     		bx	lr
 503              	.L36:
 504              		.align	2
 505              	.L35:
ARM GAS  C:\Users\Patrick\AppData\Local\Temp\ccOS0ljf.s 			page 17


 506 0008 80E100E0 		.word	-536813184
 507              		.cfi_endproc
 508              	.LFE10:
 509              		.size	CAN_ISR_Disable, .-CAN_ISR_Disable
 510              		.section	.text.CAN_ISR_SetPending,"ax",%progbits
 511              		.align	2
 512              		.global	CAN_ISR_SetPending
 513              		.thumb
 514              		.thumb_func
 515              		.type	CAN_ISR_SetPending, %function
 516              	CAN_ISR_SetPending:
 517              	.LFB11:
 363:.\Generated_Source\PSoC5/CAN_ISR.c **** }
 364:.\Generated_Source\PSoC5/CAN_ISR.c **** 
 365:.\Generated_Source\PSoC5/CAN_ISR.c **** 
 366:.\Generated_Source\PSoC5/CAN_ISR.c **** /*******************************************************************************
 367:.\Generated_Source\PSoC5/CAN_ISR.c **** * Function Name: CAN_ISR_SetPending
 368:.\Generated_Source\PSoC5/CAN_ISR.c **** ********************************************************************************
 369:.\Generated_Source\PSoC5/CAN_ISR.c **** *
 370:.\Generated_Source\PSoC5/CAN_ISR.c **** * Summary:
 371:.\Generated_Source\PSoC5/CAN_ISR.c **** *   Causes the Interrupt to enter the pending state, a software method of
 372:.\Generated_Source\PSoC5/CAN_ISR.c **** *   generating the interrupt.
 373:.\Generated_Source\PSoC5/CAN_ISR.c **** *
 374:.\Generated_Source\PSoC5/CAN_ISR.c **** * Parameters:
 375:.\Generated_Source\PSoC5/CAN_ISR.c **** *   None
 376:.\Generated_Source\PSoC5/CAN_ISR.c **** *
 377:.\Generated_Source\PSoC5/CAN_ISR.c **** * Return:
 378:.\Generated_Source\PSoC5/CAN_ISR.c **** *   None
 379:.\Generated_Source\PSoC5/CAN_ISR.c **** *
 380:.\Generated_Source\PSoC5/CAN_ISR.c **** * Side Effects:
 381:.\Generated_Source\PSoC5/CAN_ISR.c **** *   If interrupts are enabled and the interrupt is set up properly, the ISR is
 382:.\Generated_Source\PSoC5/CAN_ISR.c **** *   entered (depending on the priority of this interrupt and other pending 
 383:.\Generated_Source\PSoC5/CAN_ISR.c **** *   interrupts).
 384:.\Generated_Source\PSoC5/CAN_ISR.c **** *
 385:.\Generated_Source\PSoC5/CAN_ISR.c **** *******************************************************************************/
 386:.\Generated_Source\PSoC5/CAN_ISR.c **** void CAN_ISR_SetPending(void)
 387:.\Generated_Source\PSoC5/CAN_ISR.c **** {
 518              		.loc 1 387 0
 519              		.cfi_startproc
 520              		@ args = 0, pretend = 0, frame = 0
 521              		@ frame_needed = 0, uses_anonymous_args = 0
 522              		@ link register save eliminated.
 388:.\Generated_Source\PSoC5/CAN_ISR.c ****     *CAN_ISR_INTC_SET_PD = CAN_ISR__INTC_MASK;
 523              		.loc 1 388 0
 524 0000 014B     		ldr	r3, .L38
 525 0002 0122     		movs	r2, #1
 526 0004 1A60     		str	r2, [r3]
 527 0006 7047     		bx	lr
 528              	.L39:
 529              		.align	2
 530              	.L38:
 531 0008 00E200E0 		.word	-536813056
 532              		.cfi_endproc
 533              	.LFE11:
 534              		.size	CAN_ISR_SetPending, .-CAN_ISR_SetPending
 535              		.section	.text.CAN_ISR_ClearPending,"ax",%progbits
 536              		.align	2
ARM GAS  C:\Users\Patrick\AppData\Local\Temp\ccOS0ljf.s 			page 18


 537              		.global	CAN_ISR_ClearPending
 538              		.thumb
 539              		.thumb_func
 540              		.type	CAN_ISR_ClearPending, %function
 541              	CAN_ISR_ClearPending:
 542              	.LFB12:
 389:.\Generated_Source\PSoC5/CAN_ISR.c **** }
 390:.\Generated_Source\PSoC5/CAN_ISR.c **** 
 391:.\Generated_Source\PSoC5/CAN_ISR.c **** 
 392:.\Generated_Source\PSoC5/CAN_ISR.c **** /*******************************************************************************
 393:.\Generated_Source\PSoC5/CAN_ISR.c **** * Function Name: CAN_ISR_ClearPending
 394:.\Generated_Source\PSoC5/CAN_ISR.c **** ********************************************************************************
 395:.\Generated_Source\PSoC5/CAN_ISR.c **** *
 396:.\Generated_Source\PSoC5/CAN_ISR.c **** * Summary:
 397:.\Generated_Source\PSoC5/CAN_ISR.c **** *   Clears a pending interrupt in the interrupt controller.
 398:.\Generated_Source\PSoC5/CAN_ISR.c **** *
 399:.\Generated_Source\PSoC5/CAN_ISR.c **** *   Note Some interrupt sources are clear-on-read and require the block 
 400:.\Generated_Source\PSoC5/CAN_ISR.c **** *   interrupt/status register to be read/cleared with the appropriate block API 
 401:.\Generated_Source\PSoC5/CAN_ISR.c **** *   (GPIO, UART, and so on). Otherwise the ISR will continue to remain in 
 402:.\Generated_Source\PSoC5/CAN_ISR.c **** *   pending state even though the interrupt itself is cleared using this API.
 403:.\Generated_Source\PSoC5/CAN_ISR.c **** *
 404:.\Generated_Source\PSoC5/CAN_ISR.c **** * Parameters:
 405:.\Generated_Source\PSoC5/CAN_ISR.c **** *   None
 406:.\Generated_Source\PSoC5/CAN_ISR.c **** *
 407:.\Generated_Source\PSoC5/CAN_ISR.c **** * Return:
 408:.\Generated_Source\PSoC5/CAN_ISR.c **** *   None
 409:.\Generated_Source\PSoC5/CAN_ISR.c **** *
 410:.\Generated_Source\PSoC5/CAN_ISR.c **** *******************************************************************************/
 411:.\Generated_Source\PSoC5/CAN_ISR.c **** void CAN_ISR_ClearPending(void)
 412:.\Generated_Source\PSoC5/CAN_ISR.c **** {
 543              		.loc 1 412 0
 544              		.cfi_startproc
 545              		@ args = 0, pretend = 0, frame = 0
 546              		@ frame_needed = 0, uses_anonymous_args = 0
 547              		@ link register save eliminated.
 413:.\Generated_Source\PSoC5/CAN_ISR.c ****     *CAN_ISR_INTC_CLR_PD = CAN_ISR__INTC_MASK;
 548              		.loc 1 413 0
 549 0000 014B     		ldr	r3, .L41
 550 0002 0122     		movs	r2, #1
 551 0004 1A60     		str	r2, [r3]
 552 0006 7047     		bx	lr
 553              	.L42:
 554              		.align	2
 555              	.L41:
 556 0008 80E200E0 		.word	-536812928
 557              		.cfi_endproc
 558              	.LFE12:
 559              		.size	CAN_ISR_ClearPending, .-CAN_ISR_ClearPending
 560              		.text
 561              	.Letext0:
 562              		.file 2 "Generated_Source\\PSoC5/cytypes.h"
 563              		.file 3 ".\\Generated_Source\\PSoC5\\CAN_1.h"