ARM GAS  C:\Users\Patrick\AppData\Local\Temp\cc3Vmx0B.s 			page 1


   1              		.syntax unified
   2              		.cpu cortex-m3
   3              		.fpu softvfp
   4              		.eabi_attribute 20, 1
   5              		.eabi_attribute 21, 1
   6              		.eabi_attribute 23, 3
   7              		.eabi_attribute 24, 1
   8              		.eabi_attribute 25, 1
   9              		.eabi_attribute 26, 1
  10              		.eabi_attribute 30, 2
  11              		.eabi_attribute 34, 1
  12              		.eabi_attribute 18, 4
  13              		.thumb
  14              		.file	"CAN_1.c"
  15              		.text
  16              	.Ltext0:
  17              		.cfi_sections	.debug_frame
  18              		.section	.text.CAN_1_RxTxBuffersConfig,"ax",%progbits
  19              		.align	2
  20              		.global	CAN_1_RxTxBuffersConfig
  21              		.thumb
  22              		.thumb_func
  23              		.type	CAN_1_RxTxBuffersConfig, %function
  24              	CAN_1_RxTxBuffersConfig:
  25              	.LFB0:
  26              		.file 1 ".\\Generated_Source\\PSoC5\\CAN_1.c"
   1:.\Generated_Source\PSoC5/CAN_1.c **** /*******************************************************************************
   2:.\Generated_Source\PSoC5/CAN_1.c **** * File Name: CAN_1.c
   3:.\Generated_Source\PSoC5/CAN_1.c **** * Version 3.0
   4:.\Generated_Source\PSoC5/CAN_1.c **** *
   5:.\Generated_Source\PSoC5/CAN_1.c **** * Description:
   6:.\Generated_Source\PSoC5/CAN_1.c **** *  The CAN Component provides functionality of Control Area Network.
   7:.\Generated_Source\PSoC5/CAN_1.c **** *  The two types of mailbox configuration available are "Full" and "Basic".
   8:.\Generated_Source\PSoC5/CAN_1.c **** *
   9:.\Generated_Source\PSoC5/CAN_1.c **** * Note:
  10:.\Generated_Source\PSoC5/CAN_1.c **** *  The CAN configuration is put as constant to ROM and can be changed
  11:.\Generated_Source\PSoC5/CAN_1.c **** *  only directly by the registers written by the user.
  12:.\Generated_Source\PSoC5/CAN_1.c **** *
  13:.\Generated_Source\PSoC5/CAN_1.c **** ********************************************************************************
  14:.\Generated_Source\PSoC5/CAN_1.c **** * Copyright 2008-2015, Cypress Semiconductor Corporation.  All rights reserved.
  15:.\Generated_Source\PSoC5/CAN_1.c **** * You may use this file only in accordance with the license, terms, conditions,
  16:.\Generated_Source\PSoC5/CAN_1.c **** * disclaimers, and limitations in the end user license agreement accompanying
  17:.\Generated_Source\PSoC5/CAN_1.c **** * the software package with which this file was provided.
  18:.\Generated_Source\PSoC5/CAN_1.c **** *******************************************************************************/
  19:.\Generated_Source\PSoC5/CAN_1.c **** 
  20:.\Generated_Source\PSoC5/CAN_1.c **** #include "CAN_1.h"
  21:.\Generated_Source\PSoC5/CAN_1.c **** 
  22:.\Generated_Source\PSoC5/CAN_1.c **** uint8 CAN_1_initVar = 0u;
  23:.\Generated_Source\PSoC5/CAN_1.c **** 
  24:.\Generated_Source\PSoC5/CAN_1.c **** 
  25:.\Generated_Source\PSoC5/CAN_1.c **** /*******************************************************************************
  26:.\Generated_Source\PSoC5/CAN_1.c **** * FUNCTION NAME:   CAN_1_RxTxBuffersConfig
  27:.\Generated_Source\PSoC5/CAN_1.c **** ********************************************************************************
  28:.\Generated_Source\PSoC5/CAN_1.c **** *
  29:.\Generated_Source\PSoC5/CAN_1.c **** * Summary:
  30:.\Generated_Source\PSoC5/CAN_1.c **** *  Inits/Restores default CAN Rx and Tx Buffers control registers configuration
  31:.\Generated_Source\PSoC5/CAN_1.c **** *  provided by the customizer.
ARM GAS  C:\Users\Patrick\AppData\Local\Temp\cc3Vmx0B.s 			page 2


  32:.\Generated_Source\PSoC5/CAN_1.c **** *
  33:.\Generated_Source\PSoC5/CAN_1.c **** * Parameters:
  34:.\Generated_Source\PSoC5/CAN_1.c **** *  None.
  35:.\Generated_Source\PSoC5/CAN_1.c **** *
  36:.\Generated_Source\PSoC5/CAN_1.c **** * Return:
  37:.\Generated_Source\PSoC5/CAN_1.c **** *  The indication whether the configuration has been accepted or rejected.
  38:.\Generated_Source\PSoC5/CAN_1.c **** *   Define                             Description
  39:.\Generated_Source\PSoC5/CAN_1.c **** *    CYRET_SUCCESS                      The function passed successfully
  40:.\Generated_Source\PSoC5/CAN_1.c **** *    CAN_1_FAIL              The function failed
  41:.\Generated_Source\PSoC5/CAN_1.c **** *
  42:.\Generated_Source\PSoC5/CAN_1.c **** * Side Effects:
  43:.\Generated_Source\PSoC5/CAN_1.c **** *  All the Rx and Tx Buffers control registers will be reset to their initial
  44:.\Generated_Source\PSoC5/CAN_1.c **** *  values.
  45:.\Generated_Source\PSoC5/CAN_1.c **** *
  46:.\Generated_Source\PSoC5/CAN_1.c **** *******************************************************************************/
  47:.\Generated_Source\PSoC5/CAN_1.c **** uint8 CAN_1_RxTxBuffersConfig(void) 
  48:.\Generated_Source\PSoC5/CAN_1.c **** {
  27              		.loc 1 48 0
  28              		.cfi_startproc
  29              		@ args = 0, pretend = 0, frame = 0
  30              		@ frame_needed = 0, uses_anonymous_args = 0
  31              		@ link register save eliminated.
  32              	.LVL0:
  33              	.LBB16:
  34              	.LBB17:
  49:.\Generated_Source\PSoC5/CAN_1.c ****     /* Initial values of CAN RX and TX registers */
  50:.\Generated_Source\PSoC5/CAN_1.c ****     static const CAN_1_RX_CFG CYCODE CAN_1_RXConfigStruct[] =
  51:.\Generated_Source\PSoC5/CAN_1.c ****     {
  52:.\Generated_Source\PSoC5/CAN_1.c ****         { 0u, 0x0u, 0x0u, 0x0u },
  53:.\Generated_Source\PSoC5/CAN_1.c ****         { 1u, 0x0u, 0x0u, 0x0u },
  54:.\Generated_Source\PSoC5/CAN_1.c ****         { 2u, 0x0u, 0x0u, 0x0u },
  55:.\Generated_Source\PSoC5/CAN_1.c ****         { 3u, 0x0u, 0x0u, 0x0u },
  56:.\Generated_Source\PSoC5/CAN_1.c ****         { 4u, 0x0u, 0x0u, 0x0u },
  57:.\Generated_Source\PSoC5/CAN_1.c ****         { 5u, 0x0u, 0x0u, 0x0u },
  58:.\Generated_Source\PSoC5/CAN_1.c ****         { 6u, 0x0u, 0x0u, 0x0u },
  59:.\Generated_Source\PSoC5/CAN_1.c ****         { 7u, 0x0u, 0x0u, 0x0u },
  60:.\Generated_Source\PSoC5/CAN_1.c ****         { 8u, 0x0u, 0x0u, 0x0u },
  61:.\Generated_Source\PSoC5/CAN_1.c ****         { 9u, 0x0u, 0x0u, 0x0u },
  62:.\Generated_Source\PSoC5/CAN_1.c ****         { 10u, 0x0u, 0x0u, 0x0u },
  63:.\Generated_Source\PSoC5/CAN_1.c ****         { 11u, 0x0u, 0x0u, 0x0u },
  64:.\Generated_Source\PSoC5/CAN_1.c ****         { 12u, 0x0u, 0x0u, 0x0u },
  65:.\Generated_Source\PSoC5/CAN_1.c ****         { 13u, 0x0u, 0x0u, 0x0u },
  66:.\Generated_Source\PSoC5/CAN_1.c ****         { 14u, 0x0u, 0x0u, 0x0u },
  67:.\Generated_Source\PSoC5/CAN_1.c ****         { 15u, 0x0u, 0x0u, 0x0u }
  68:.\Generated_Source\PSoC5/CAN_1.c ****     };
  69:.\Generated_Source\PSoC5/CAN_1.c **** 
  70:.\Generated_Source\PSoC5/CAN_1.c ****     static const CAN_1_TX_CFG CYCODE CAN_1_TXConfigStruct[] =
  71:.\Generated_Source\PSoC5/CAN_1.c ****     {
  72:.\Generated_Source\PSoC5/CAN_1.c ****         { 0u, 0x80000u, 0x200000u },
  73:.\Generated_Source\PSoC5/CAN_1.c ****         { 1u, 0x0u, 0x0u },
  74:.\Generated_Source\PSoC5/CAN_1.c ****         { 2u, 0x0u, 0x0u },
  75:.\Generated_Source\PSoC5/CAN_1.c ****         { 3u, 0x0u, 0x0u },
  76:.\Generated_Source\PSoC5/CAN_1.c ****         { 4u, 0x0u, 0x0u },
  77:.\Generated_Source\PSoC5/CAN_1.c ****         { 5u, 0x0u, 0x0u },
  78:.\Generated_Source\PSoC5/CAN_1.c ****         { 6u, 0x0u, 0x0u },
  79:.\Generated_Source\PSoC5/CAN_1.c ****         { 7u, 0x0u, 0x0u }
  80:.\Generated_Source\PSoC5/CAN_1.c ****     };
ARM GAS  C:\Users\Patrick\AppData\Local\Temp\cc3Vmx0B.s 			page 3


  81:.\Generated_Source\PSoC5/CAN_1.c **** 
  82:.\Generated_Source\PSoC5/CAN_1.c ****     uint8 result = CYRET_SUCCESS;
  83:.\Generated_Source\PSoC5/CAN_1.c ****     uint8 i;
  84:.\Generated_Source\PSoC5/CAN_1.c **** 
  85:.\Generated_Source\PSoC5/CAN_1.c ****     /* Initialize TX mailboxes */
  86:.\Generated_Source\PSoC5/CAN_1.c ****     for (i = 0u; i < CAN_1_NUMBER_OF_TX_MAILBOXES; i++)
  87:.\Generated_Source\PSoC5/CAN_1.c ****     {
  88:.\Generated_Source\PSoC5/CAN_1.c ****         if (CAN_1_TxBufConfig((const CAN_1_TX_CFG *)
  89:.\Generated_Source\PSoC5/CAN_1.c ****             (&CAN_1_TXConfigStruct[i])) != CYRET_SUCCESS)
  90:.\Generated_Source\PSoC5/CAN_1.c ****         {
  91:.\Generated_Source\PSoC5/CAN_1.c ****             result = CAN_1_FAIL;
  92:.\Generated_Source\PSoC5/CAN_1.c ****             break;
  93:.\Generated_Source\PSoC5/CAN_1.c ****         }
  94:.\Generated_Source\PSoC5/CAN_1.c ****     }
  95:.\Generated_Source\PSoC5/CAN_1.c **** 
  96:.\Generated_Source\PSoC5/CAN_1.c ****     if (result == CYRET_SUCCESS)
  97:.\Generated_Source\PSoC5/CAN_1.c ****     {
  98:.\Generated_Source\PSoC5/CAN_1.c ****         /* Initialize RX mailboxes */
  99:.\Generated_Source\PSoC5/CAN_1.c ****         for (i = 0u; i < CAN_1_NUMBER_OF_RX_MAILBOXES; i++)
 100:.\Generated_Source\PSoC5/CAN_1.c ****         {
 101:.\Generated_Source\PSoC5/CAN_1.c ****             if (CAN_1_RxBufConfig((const CAN_1_RX_CFG *)
 102:.\Generated_Source\PSoC5/CAN_1.c ****                 (&CAN_1_RXConfigStruct[i])) != CYRET_SUCCESS)
 103:.\Generated_Source\PSoC5/CAN_1.c ****             {
 104:.\Generated_Source\PSoC5/CAN_1.c ****                 result = CAN_1_FAIL;
 105:.\Generated_Source\PSoC5/CAN_1.c ****                 break;
 106:.\Generated_Source\PSoC5/CAN_1.c ****             }
 107:.\Generated_Source\PSoC5/CAN_1.c ****         }
 108:.\Generated_Source\PSoC5/CAN_1.c ****     }
 109:.\Generated_Source\PSoC5/CAN_1.c **** 
 110:.\Generated_Source\PSoC5/CAN_1.c ****     return (result);
 111:.\Generated_Source\PSoC5/CAN_1.c **** }
 112:.\Generated_Source\PSoC5/CAN_1.c **** 
 113:.\Generated_Source\PSoC5/CAN_1.c **** 
 114:.\Generated_Source\PSoC5/CAN_1.c **** /*******************************************************************************
 115:.\Generated_Source\PSoC5/CAN_1.c **** * FUNCTION NAME:   CAN_1_Init
 116:.\Generated_Source\PSoC5/CAN_1.c **** ********************************************************************************
 117:.\Generated_Source\PSoC5/CAN_1.c **** *
 118:.\Generated_Source\PSoC5/CAN_1.c **** * Summary:
 119:.\Generated_Source\PSoC5/CAN_1.c **** *  Inits/Restores default CAN configuration provided by the customizer.
 120:.\Generated_Source\PSoC5/CAN_1.c **** *
 121:.\Generated_Source\PSoC5/CAN_1.c **** * Parameters:
 122:.\Generated_Source\PSoC5/CAN_1.c **** *  None.
 123:.\Generated_Source\PSoC5/CAN_1.c **** *
 124:.\Generated_Source\PSoC5/CAN_1.c **** * Return:
 125:.\Generated_Source\PSoC5/CAN_1.c **** *  The indication whether the configuration has been accepted or rejected.
 126:.\Generated_Source\PSoC5/CAN_1.c **** *   Define                             Description
 127:.\Generated_Source\PSoC5/CAN_1.c **** *    CYRET_SUCCESS                      The function passed successfully
 128:.\Generated_Source\PSoC5/CAN_1.c **** *    CAN_1_FAIL              The function failed
 129:.\Generated_Source\PSoC5/CAN_1.c **** *
 130:.\Generated_Source\PSoC5/CAN_1.c **** * Side Effects:
 131:.\Generated_Source\PSoC5/CAN_1.c **** *  All the registers will be reset to their initial values. This will
 132:.\Generated_Source\PSoC5/CAN_1.c **** *  re-initialize the component with the following exceptions - it will not clear
 133:.\Generated_Source\PSoC5/CAN_1.c **** *  data from the mailboxes.
 134:.\Generated_Source\PSoC5/CAN_1.c **** *  Enable power to the CAN Core.
 135:.\Generated_Source\PSoC5/CAN_1.c **** *
 136:.\Generated_Source\PSoC5/CAN_1.c **** *******************************************************************************/
 137:.\Generated_Source\PSoC5/CAN_1.c **** uint8 CAN_1_Init(void) 
ARM GAS  C:\Users\Patrick\AppData\Local\Temp\cc3Vmx0B.s 			page 4


 138:.\Generated_Source\PSoC5/CAN_1.c **** {
 139:.\Generated_Source\PSoC5/CAN_1.c ****     uint32 timeout = CAN_1_MODE_STATE_STOP_TIMEOUT;
 140:.\Generated_Source\PSoC5/CAN_1.c ****     uint8 result = CAN_1_FAIL;
 141:.\Generated_Source\PSoC5/CAN_1.c ****     uint8 localResult = CAN_1_FAIL;
 142:.\Generated_Source\PSoC5/CAN_1.c **** 
 143:.\Generated_Source\PSoC5/CAN_1.c ****     #if (CY_PSOC3 || CY_PSOC5)
 144:.\Generated_Source\PSoC5/CAN_1.c ****         uint8 enableInterrupts;
 145:.\Generated_Source\PSoC5/CAN_1.c **** 
 146:.\Generated_Source\PSoC5/CAN_1.c ****         enableInterrupts = CyEnterCriticalSection();
 147:.\Generated_Source\PSoC5/CAN_1.c ****         /* Enable CAN block in Active mode */
 148:.\Generated_Source\PSoC5/CAN_1.c ****         CAN_1_PM_ACT_CFG_REG |= CAN_1_ACT_PWR_EN;
 149:.\Generated_Source\PSoC5/CAN_1.c ****         /* Enable CAN block in Alternate Active (Standby) mode */
 150:.\Generated_Source\PSoC5/CAN_1.c ****         CAN_1_PM_STBY_CFG_REG |= CAN_1_STBY_PWR_EN;
 151:.\Generated_Source\PSoC5/CAN_1.c ****         CyExitCriticalSection(enableInterrupts);
 152:.\Generated_Source\PSoC5/CAN_1.c **** 
 153:.\Generated_Source\PSoC5/CAN_1.c ****         /* Sets CAN controller to stop mode */
 154:.\Generated_Source\PSoC5/CAN_1.c ****         CAN_1_CMD_REG.byte[0u] &= (uint8) (~CAN_1_MODE_MASK);
 155:.\Generated_Source\PSoC5/CAN_1.c **** 
 156:.\Generated_Source\PSoC5/CAN_1.c ****         /* Timeout for CAN state machine to switch mode to Stop */
 157:.\Generated_Source\PSoC5/CAN_1.c ****         while ((timeout != 0u) && ((CAN_1_CMD_REG.byte[0u] & CAN_1_MODE_MASK) != 0u))
 158:.\Generated_Source\PSoC5/CAN_1.c ****         {
 159:.\Generated_Source\PSoC5/CAN_1.c ****             timeout--;
 160:.\Generated_Source\PSoC5/CAN_1.c ****         }
 161:.\Generated_Source\PSoC5/CAN_1.c ****     #else  /* CY_PSOC4 */
 162:.\Generated_Source\PSoC5/CAN_1.c ****         /* Enable CAN IP Block */
 163:.\Generated_Source\PSoC5/CAN_1.c ****         CAN_1_CNTL_REG = CAN_1_IP_ENABLE;
 164:.\Generated_Source\PSoC5/CAN_1.c **** 
 165:.\Generated_Source\PSoC5/CAN_1.c ****         /* Sets CAN controller to stop mode */
 166:.\Generated_Source\PSoC5/CAN_1.c ****         CAN_1_CMD_REG &= (uint32) (~((uint32) CAN_1_MODE_MASK));
 167:.\Generated_Source\PSoC5/CAN_1.c **** 
 168:.\Generated_Source\PSoC5/CAN_1.c ****         /* Timeout for CAN state machine to switch mode to Stop */
 169:.\Generated_Source\PSoC5/CAN_1.c ****         while ((timeout != 0u) && ((CAN_1_CMD_REG & CAN_1_MODE_MASK) != 0u))
 170:.\Generated_Source\PSoC5/CAN_1.c ****         {
 171:.\Generated_Source\PSoC5/CAN_1.c ****             timeout--;
 172:.\Generated_Source\PSoC5/CAN_1.c ****         }
 173:.\Generated_Source\PSoC5/CAN_1.c ****     #endif /* CY_PSOC3 || CY_PSOC5 */
 174:.\Generated_Source\PSoC5/CAN_1.c ****         if (timeout != 0u)
 175:.\Generated_Source\PSoC5/CAN_1.c ****         {
 176:.\Generated_Source\PSoC5/CAN_1.c ****             /* Disable Interrupt. */
 177:.\Generated_Source\PSoC5/CAN_1.c ****         CyIntDisable(CAN_1_ISR_NUMBER);
 178:.\Generated_Source\PSoC5/CAN_1.c **** 
 179:.\Generated_Source\PSoC5/CAN_1.c ****         /* Set the ISR to point to the CAN_1_ISR Interrupt. */
 180:.\Generated_Source\PSoC5/CAN_1.c ****         (void) CyIntSetVector(CAN_1_ISR_NUMBER, & CAN_1_ISR);
 181:.\Generated_Source\PSoC5/CAN_1.c **** 
 182:.\Generated_Source\PSoC5/CAN_1.c ****         /* Set the priority. */
 183:.\Generated_Source\PSoC5/CAN_1.c ****         CyIntSetPriority(CAN_1_ISR_NUMBER, CAN_1_ISR_PRIORITY);
 184:.\Generated_Source\PSoC5/CAN_1.c **** 
 185:.\Generated_Source\PSoC5/CAN_1.c ****             if (CAN_1_SetPreScaler(CAN_1_BITRATE) == CYRET_SUCCESS)
 186:.\Generated_Source\PSoC5/CAN_1.c ****             {
 187:.\Generated_Source\PSoC5/CAN_1.c ****                 if (CAN_1_SetArbiter(CAN_1_ARBITER) == CYRET_SUCCESS)
 188:.\Generated_Source\PSoC5/CAN_1.c ****                 {
 189:.\Generated_Source\PSoC5/CAN_1.c ****                     #if (!(CY_PSOC3 || CY_PSOC5))
 190:.\Generated_Source\PSoC5/CAN_1.c ****                         if (CAN_1_SetSwapDataEndianness(CAN_1_SWAP_DATA_END) == CYRET_SUCCESS)
 191:.\Generated_Source\PSoC5/CAN_1.c ****                     #endif /* (!(CY_PSOC3 || CY_PSOC5)) */
 192:.\Generated_Source\PSoC5/CAN_1.c ****                         {
 193:.\Generated_Source\PSoC5/CAN_1.c ****                             if (CAN_1_SetTsegSample(CAN_1_CFG_REG_TSEG1,
 194:.\Generated_Source\PSoC5/CAN_1.c ****                                 CAN_1_CFG_REG_TSEG2, CAN_1_CFG_REG_SJW,
ARM GAS  C:\Users\Patrick\AppData\Local\Temp\cc3Vmx0B.s 			page 5


 195:.\Generated_Source\PSoC5/CAN_1.c ****                                 CAN_1_SAMPLING_MODE) == CYRET_SUCCESS)
 196:.\Generated_Source\PSoC5/CAN_1.c ****                             {
 197:.\Generated_Source\PSoC5/CAN_1.c ****                                 if (CAN_1_SetRestartType(CAN_1_RESET_TYPE) == CYRET_SUCCESS)
 198:.\Generated_Source\PSoC5/CAN_1.c ****                                 {
 199:.\Generated_Source\PSoC5/CAN_1.c ****                                     if (CAN_1_SetEdgeMode(CAN_1_SYNC_EDGE) == CYRET_SUCCESS)
 200:.\Generated_Source\PSoC5/CAN_1.c ****                                     {
 201:.\Generated_Source\PSoC5/CAN_1.c ****                                         localResult = CYRET_SUCCESS;
 202:.\Generated_Source\PSoC5/CAN_1.c ****                                     }
 203:.\Generated_Source\PSoC5/CAN_1.c ****                                 }
 204:.\Generated_Source\PSoC5/CAN_1.c ****                             }
 205:.\Generated_Source\PSoC5/CAN_1.c ****                         }
 206:.\Generated_Source\PSoC5/CAN_1.c ****                 }
 207:.\Generated_Source\PSoC5/CAN_1.c ****             }
 208:.\Generated_Source\PSoC5/CAN_1.c **** 
 209:.\Generated_Source\PSoC5/CAN_1.c ****             if (localResult == CYRET_SUCCESS)
 210:.\Generated_Source\PSoC5/CAN_1.c ****             {
 211:.\Generated_Source\PSoC5/CAN_1.c ****                 if (CAN_1_RxTxBuffersConfig() == CYRET_SUCCESS)
 212:.\Generated_Source\PSoC5/CAN_1.c ****                 {
 213:.\Generated_Source\PSoC5/CAN_1.c ****                     /* Write IRQ Mask */
 214:.\Generated_Source\PSoC5/CAN_1.c ****                     if (CAN_1_SetIrqMask(CAN_1_INIT_INTERRUPT_MASK) ==
 215:.\Generated_Source\PSoC5/CAN_1.c ****                         CYRET_SUCCESS)
 216:.\Generated_Source\PSoC5/CAN_1.c ****                     {
 217:.\Generated_Source\PSoC5/CAN_1.c ****                         /* Set CAN Operation Mode to Active mode always */
 218:.\Generated_Source\PSoC5/CAN_1.c ****                         #if (CY_PSOC3 || CY_PSOC5)
 219:.\Generated_Source\PSoC5/CAN_1.c ****                             CAN_1_CMD_REG.byte[0u] = CAN_1_INITIAL_MODE;
 220:.\Generated_Source\PSoC5/CAN_1.c ****                             if ((CAN_1_CMD_REG.byte[0u] & CAN_1_MODE_MASK) == 0u)
 221:.\Generated_Source\PSoC5/CAN_1.c ****                         #else  /* CY_PSOC4 */
 222:.\Generated_Source\PSoC5/CAN_1.c ****                             CAN_1_CMD_REG &= (uint32) (~((uint32) CAN_1_OPMODE_FIELD_MASK));
 223:.\Generated_Source\PSoC5/CAN_1.c ****                             if ((CAN_1_CMD_REG & CAN_1_OPMODE_FIELD_MASK) == 0u)
 224:.\Generated_Source\PSoC5/CAN_1.c ****                         #endif /* CY_PSOC3 || CY_PSOC5 */
 225:.\Generated_Source\PSoC5/CAN_1.c ****                             {
 226:.\Generated_Source\PSoC5/CAN_1.c ****                                 result = CYRET_SUCCESS;
 227:.\Generated_Source\PSoC5/CAN_1.c ****                             }
 228:.\Generated_Source\PSoC5/CAN_1.c ****                     }
 229:.\Generated_Source\PSoC5/CAN_1.c ****                 }
 230:.\Generated_Source\PSoC5/CAN_1.c ****             }
 231:.\Generated_Source\PSoC5/CAN_1.c ****         }
 232:.\Generated_Source\PSoC5/CAN_1.c **** 
 233:.\Generated_Source\PSoC5/CAN_1.c ****     return (result);
 234:.\Generated_Source\PSoC5/CAN_1.c **** }
 235:.\Generated_Source\PSoC5/CAN_1.c **** 
 236:.\Generated_Source\PSoC5/CAN_1.c **** 
 237:.\Generated_Source\PSoC5/CAN_1.c **** /*******************************************************************************
 238:.\Generated_Source\PSoC5/CAN_1.c **** * Function Name: CAN_1_Enable
 239:.\Generated_Source\PSoC5/CAN_1.c **** ********************************************************************************
 240:.\Generated_Source\PSoC5/CAN_1.c **** *
 241:.\Generated_Source\PSoC5/CAN_1.c **** * Summary:
 242:.\Generated_Source\PSoC5/CAN_1.c **** *  This function enables the CAN Component and ISR of CAN Component.
 243:.\Generated_Source\PSoC5/CAN_1.c **** *
 244:.\Generated_Source\PSoC5/CAN_1.c **** * Parameters:
 245:.\Generated_Source\PSoC5/CAN_1.c **** *  None.
 246:.\Generated_Source\PSoC5/CAN_1.c **** *
 247:.\Generated_Source\PSoC5/CAN_1.c **** * Return:
 248:.\Generated_Source\PSoC5/CAN_1.c **** *  The indication whether the register is written and verified.
 249:.\Generated_Source\PSoC5/CAN_1.c **** *   Define                             Description
 250:.\Generated_Source\PSoC5/CAN_1.c **** *    CYRET_SUCCESS                      The function passed successfully
 251:.\Generated_Source\PSoC5/CAN_1.c **** *    CAN_1_FAIL              The function failed
ARM GAS  C:\Users\Patrick\AppData\Local\Temp\cc3Vmx0B.s 			page 6


 252:.\Generated_Source\PSoC5/CAN_1.c **** *
 253:.\Generated_Source\PSoC5/CAN_1.c **** *******************************************************************************/
 254:.\Generated_Source\PSoC5/CAN_1.c **** uint8 CAN_1_Enable(void) 
 255:.\Generated_Source\PSoC5/CAN_1.c **** {
 256:.\Generated_Source\PSoC5/CAN_1.c ****     uint32 timeout = CAN_1_MODE_STATE_RUN_TIMEOUT;
 257:.\Generated_Source\PSoC5/CAN_1.c ****     uint8 result = CAN_1_FAIL;
 258:.\Generated_Source\PSoC5/CAN_1.c **** 
 259:.\Generated_Source\PSoC5/CAN_1.c ****     #if (CY_PSOC3 || CY_PSOC5)
 260:.\Generated_Source\PSoC5/CAN_1.c ****         uint8 enableInterrupts;
 261:.\Generated_Source\PSoC5/CAN_1.c **** 
 262:.\Generated_Source\PSoC5/CAN_1.c ****         enableInterrupts = CyEnterCriticalSection();
 263:.\Generated_Source\PSoC5/CAN_1.c **** 
 264:.\Generated_Source\PSoC5/CAN_1.c ****         /* Enable CAN block in Active mode */
 265:.\Generated_Source\PSoC5/CAN_1.c ****         CAN_1_PM_ACT_CFG_REG |= CAN_1_ACT_PWR_EN;
 266:.\Generated_Source\PSoC5/CAN_1.c **** 
 267:.\Generated_Source\PSoC5/CAN_1.c ****         /* Enable CAN block in Alternate Active (Standby) mode */
 268:.\Generated_Source\PSoC5/CAN_1.c ****         CAN_1_PM_STBY_CFG_REG |= CAN_1_STBY_PWR_EN;
 269:.\Generated_Source\PSoC5/CAN_1.c **** 
 270:.\Generated_Source\PSoC5/CAN_1.c ****         CyExitCriticalSection(enableInterrupts);
 271:.\Generated_Source\PSoC5/CAN_1.c ****     #endif /* CY_PSOC3 || CY_PSOC5 */
 272:.\Generated_Source\PSoC5/CAN_1.c **** 
 273:.\Generated_Source\PSoC5/CAN_1.c ****     /* Clear interrupts status */
 274:.\Generated_Source\PSoC5/CAN_1.c ****     CY_SET_REG32(CAN_1_INT_SR_PTR, CAN_1_INIT_INTERRUPT_MASK);
 275:.\Generated_Source\PSoC5/CAN_1.c ****     (void) CAN_1_GlobalIntEnable();
 276:.\Generated_Source\PSoC5/CAN_1.c **** 
 277:.\Generated_Source\PSoC5/CAN_1.c ****     /* Enable isr */
 278:.\Generated_Source\PSoC5/CAN_1.c ****     CyIntEnable(CAN_1_ISR_NUMBER);
 279:.\Generated_Source\PSoC5/CAN_1.c **** 
 280:.\Generated_Source\PSoC5/CAN_1.c ****     /* Sets CAN controller to run mode */
 281:.\Generated_Source\PSoC5/CAN_1.c ****     CY_SET_REG32(CAN_1_CMD_PTR, CY_GET_REG32(CAN_1_CMD_PTR) | CAN_1_MODE_MASK);
 282:.\Generated_Source\PSoC5/CAN_1.c **** 
 283:.\Generated_Source\PSoC5/CAN_1.c ****     /* Timeout for CAN state machine to switch mode to Run */
 284:.\Generated_Source\PSoC5/CAN_1.c ****     while ((timeout != 0u) && ((CY_GET_REG32(CAN_1_CMD_PTR) & CAN_1_MODE_MASK) == 0u))
 285:.\Generated_Source\PSoC5/CAN_1.c ****     {
 286:.\Generated_Source\PSoC5/CAN_1.c ****         timeout--;
 287:.\Generated_Source\PSoC5/CAN_1.c ****     }
 288:.\Generated_Source\PSoC5/CAN_1.c **** 
 289:.\Generated_Source\PSoC5/CAN_1.c ****     if (timeout != 0u)
 290:.\Generated_Source\PSoC5/CAN_1.c ****     {
 291:.\Generated_Source\PSoC5/CAN_1.c ****         result = CYRET_SUCCESS;
 292:.\Generated_Source\PSoC5/CAN_1.c ****     }
 293:.\Generated_Source\PSoC5/CAN_1.c **** 
 294:.\Generated_Source\PSoC5/CAN_1.c ****     return (result);
 295:.\Generated_Source\PSoC5/CAN_1.c **** }
 296:.\Generated_Source\PSoC5/CAN_1.c **** 
 297:.\Generated_Source\PSoC5/CAN_1.c **** 
 298:.\Generated_Source\PSoC5/CAN_1.c **** /*******************************************************************************
 299:.\Generated_Source\PSoC5/CAN_1.c **** * FUNCTION NAME:   CAN_1_Start
 300:.\Generated_Source\PSoC5/CAN_1.c **** ********************************************************************************
 301:.\Generated_Source\PSoC5/CAN_1.c **** *
 302:.\Generated_Source\PSoC5/CAN_1.c **** * Summary:
 303:.\Generated_Source\PSoC5/CAN_1.c **** *  This function sets CAN Component into the Run mode. Starts Rate Counter if
 304:.\Generated_Source\PSoC5/CAN_1.c **** *  polling mailboxes are available.
 305:.\Generated_Source\PSoC5/CAN_1.c **** *
 306:.\Generated_Source\PSoC5/CAN_1.c **** * Parameters:
 307:.\Generated_Source\PSoC5/CAN_1.c **** *  None.
 308:.\Generated_Source\PSoC5/CAN_1.c **** *
ARM GAS  C:\Users\Patrick\AppData\Local\Temp\cc3Vmx0B.s 			page 7


 309:.\Generated_Source\PSoC5/CAN_1.c **** * Return:
 310:.\Generated_Source\PSoC5/CAN_1.c **** *  The indication whether the register is written and verified.
 311:.\Generated_Source\PSoC5/CAN_1.c **** *   Define                             Description
 312:.\Generated_Source\PSoC5/CAN_1.c **** *    CYRET_SUCCESS                      The function passed successfully
 313:.\Generated_Source\PSoC5/CAN_1.c **** *    CAN_1_FAIL              The function failed
 314:.\Generated_Source\PSoC5/CAN_1.c **** *
 315:.\Generated_Source\PSoC5/CAN_1.c **** * Global variables:
 316:.\Generated_Source\PSoC5/CAN_1.c **** *  CAN_1_initVar - used to check the initial configuration, modified
 317:.\Generated_Source\PSoC5/CAN_1.c **** *  on the first function call.
 318:.\Generated_Source\PSoC5/CAN_1.c **** *
 319:.\Generated_Source\PSoC5/CAN_1.c **** * Reentrant:
 320:.\Generated_Source\PSoC5/CAN_1.c **** *  No.
 321:.\Generated_Source\PSoC5/CAN_1.c **** *
 322:.\Generated_Source\PSoC5/CAN_1.c **** *******************************************************************************/
 323:.\Generated_Source\PSoC5/CAN_1.c **** uint8 CAN_1_Start(void) 
 324:.\Generated_Source\PSoC5/CAN_1.c **** {
 325:.\Generated_Source\PSoC5/CAN_1.c ****     uint8 result = CYRET_SUCCESS;
 326:.\Generated_Source\PSoC5/CAN_1.c **** 
 327:.\Generated_Source\PSoC5/CAN_1.c ****     if (CAN_1_initVar == 0u)
 328:.\Generated_Source\PSoC5/CAN_1.c ****     {
 329:.\Generated_Source\PSoC5/CAN_1.c ****         result = CAN_1_Init();
 330:.\Generated_Source\PSoC5/CAN_1.c ****     }
 331:.\Generated_Source\PSoC5/CAN_1.c **** 
 332:.\Generated_Source\PSoC5/CAN_1.c ****     if (result == CYRET_SUCCESS)
 333:.\Generated_Source\PSoC5/CAN_1.c ****     {
 334:.\Generated_Source\PSoC5/CAN_1.c ****         CAN_1_initVar = 1u;
 335:.\Generated_Source\PSoC5/CAN_1.c ****         result = CAN_1_Enable();
 336:.\Generated_Source\PSoC5/CAN_1.c ****     }
 337:.\Generated_Source\PSoC5/CAN_1.c **** 
 338:.\Generated_Source\PSoC5/CAN_1.c ****     return (result);
 339:.\Generated_Source\PSoC5/CAN_1.c **** }
 340:.\Generated_Source\PSoC5/CAN_1.c **** 
 341:.\Generated_Source\PSoC5/CAN_1.c **** 
 342:.\Generated_Source\PSoC5/CAN_1.c **** /*******************************************************************************
 343:.\Generated_Source\PSoC5/CAN_1.c **** * FUNCTION NAME:   CAN_1_Stop
 344:.\Generated_Source\PSoC5/CAN_1.c **** ********************************************************************************
 345:.\Generated_Source\PSoC5/CAN_1.c **** *
 346:.\Generated_Source\PSoC5/CAN_1.c **** * Summary:
 347:.\Generated_Source\PSoC5/CAN_1.c **** *  This function sets CAN Component into the Stop mode.
 348:.\Generated_Source\PSoC5/CAN_1.c **** *
 349:.\Generated_Source\PSoC5/CAN_1.c **** * Parameters:
 350:.\Generated_Source\PSoC5/CAN_1.c **** *  None.
 351:.\Generated_Source\PSoC5/CAN_1.c **** *
 352:.\Generated_Source\PSoC5/CAN_1.c **** * Return:
 353:.\Generated_Source\PSoC5/CAN_1.c **** *  The indication whether the register is written and verified.
 354:.\Generated_Source\PSoC5/CAN_1.c **** *   Define                             Description
 355:.\Generated_Source\PSoC5/CAN_1.c **** *    CYRET_SUCCESS                      The function passed successfully
 356:.\Generated_Source\PSoC5/CAN_1.c **** *    CAN_1_FAIL              The function failed
 357:.\Generated_Source\PSoC5/CAN_1.c **** *
 358:.\Generated_Source\PSoC5/CAN_1.c **** * Side Effects:
 359:.\Generated_Source\PSoC5/CAN_1.c **** *  Disable power to CAN Core in case of PSoC 3/5.
 360:.\Generated_Source\PSoC5/CAN_1.c **** *  Pending message in the Tx buffer of PSoC 3/5 will not be aborted on calling
 361:.\Generated_Source\PSoC5/CAN_1.c **** *  the CAN_1_Stop() API. User has to abort all pending messages
 362:.\Generated_Source\PSoC5/CAN_1.c **** *  before calling the CAN_1_Stop() function to make sure that the
 363:.\Generated_Source\PSoC5/CAN_1.c **** *  block stops all the message transmission immediately.
 364:.\Generated_Source\PSoC5/CAN_1.c **** *
 365:.\Generated_Source\PSoC5/CAN_1.c **** *******************************************************************************/
ARM GAS  C:\Users\Patrick\AppData\Local\Temp\cc3Vmx0B.s 			page 8


 366:.\Generated_Source\PSoC5/CAN_1.c **** uint8 CAN_1_Stop(void) 
 367:.\Generated_Source\PSoC5/CAN_1.c **** {
 368:.\Generated_Source\PSoC5/CAN_1.c ****     uint32 timeout = CAN_1_MODE_STATE_STOP_TIMEOUT;
 369:.\Generated_Source\PSoC5/CAN_1.c ****     uint8 result = CAN_1_FAIL;
 370:.\Generated_Source\PSoC5/CAN_1.c **** 
 371:.\Generated_Source\PSoC5/CAN_1.c ****     #if (CY_PSOC3 || CY_PSOC5)
 372:.\Generated_Source\PSoC5/CAN_1.c ****         uint8 enableInterrupts;
 373:.\Generated_Source\PSoC5/CAN_1.c ****     #endif /* CY_PSOC3 || CY_PSOC5 */
 374:.\Generated_Source\PSoC5/CAN_1.c **** 
 375:.\Generated_Source\PSoC5/CAN_1.c ****     /* Set CAN controller to stop mode */
 376:.\Generated_Source\PSoC5/CAN_1.c ****     CY_SET_REG32(CAN_1_CMD_PTR, (CY_GET_REG32(CAN_1_CMD_PTR) &
 377:.\Generated_Source\PSoC5/CAN_1.c ****                                             ((uint32) (~((uint32)CAN_1_MODE_MASK)))));
 378:.\Generated_Source\PSoC5/CAN_1.c **** 
 379:.\Generated_Source\PSoC5/CAN_1.c ****     /* Timeout for CAN state machine to switch mode to Stop */
 380:.\Generated_Source\PSoC5/CAN_1.c ****     while ((timeout != 0u) && ((CY_GET_REG32(CAN_1_CMD_PTR) & CAN_1_MODE_MASK) != 0u))
 381:.\Generated_Source\PSoC5/CAN_1.c ****     {
 382:.\Generated_Source\PSoC5/CAN_1.c ****         timeout--;
 383:.\Generated_Source\PSoC5/CAN_1.c ****     }
 384:.\Generated_Source\PSoC5/CAN_1.c **** 
 385:.\Generated_Source\PSoC5/CAN_1.c ****     /* Verify that bit is cleared */
 386:.\Generated_Source\PSoC5/CAN_1.c ****     if (timeout != 0u)
 387:.\Generated_Source\PSoC5/CAN_1.c ****     {
 388:.\Generated_Source\PSoC5/CAN_1.c ****         result = CYRET_SUCCESS;
 389:.\Generated_Source\PSoC5/CAN_1.c **** 
 390:.\Generated_Source\PSoC5/CAN_1.c ****         /* Disable isr */
 391:.\Generated_Source\PSoC5/CAN_1.c ****     CyIntDisable(CAN_1_ISR_NUMBER);
 392:.\Generated_Source\PSoC5/CAN_1.c **** 
 393:.\Generated_Source\PSoC5/CAN_1.c ****         #if (CY_PSOC3 || CY_PSOC5)
 394:.\Generated_Source\PSoC5/CAN_1.c ****             enableInterrupts = CyEnterCriticalSection();
 395:.\Generated_Source\PSoC5/CAN_1.c **** 
 396:.\Generated_Source\PSoC5/CAN_1.c ****             /* Disable CAN block in Active mode */
 397:.\Generated_Source\PSoC5/CAN_1.c ****             CAN_1_PM_ACT_CFG_REG &= (uint8) (~CAN_1_ACT_PWR_EN);
 398:.\Generated_Source\PSoC5/CAN_1.c **** 
 399:.\Generated_Source\PSoC5/CAN_1.c ****             /* Disable CAN block in Alternate Active (Standby) mode template */
 400:.\Generated_Source\PSoC5/CAN_1.c ****             CAN_1_PM_STBY_CFG_REG &= (uint8) (~CAN_1_STBY_PWR_EN);
 401:.\Generated_Source\PSoC5/CAN_1.c **** 
 402:.\Generated_Source\PSoC5/CAN_1.c ****             CyExitCriticalSection(enableInterrupts);
 403:.\Generated_Source\PSoC5/CAN_1.c ****         #endif /* CY_PSOC3 || CY_PSOC5 */
 404:.\Generated_Source\PSoC5/CAN_1.c ****     }
 405:.\Generated_Source\PSoC5/CAN_1.c **** 
 406:.\Generated_Source\PSoC5/CAN_1.c ****     return (result);
 407:.\Generated_Source\PSoC5/CAN_1.c **** }
 408:.\Generated_Source\PSoC5/CAN_1.c **** 
 409:.\Generated_Source\PSoC5/CAN_1.c **** 
 410:.\Generated_Source\PSoC5/CAN_1.c **** /*******************************************************************************
 411:.\Generated_Source\PSoC5/CAN_1.c **** * FUNCTION NAME:   CAN_1_GlobalIntEnable
 412:.\Generated_Source\PSoC5/CAN_1.c **** ********************************************************************************
 413:.\Generated_Source\PSoC5/CAN_1.c **** *
 414:.\Generated_Source\PSoC5/CAN_1.c **** * Summary:
 415:.\Generated_Source\PSoC5/CAN_1.c **** *  This function enables Global Interrupts from CAN Core.
 416:.\Generated_Source\PSoC5/CAN_1.c **** *
 417:.\Generated_Source\PSoC5/CAN_1.c **** * Parameters:
 418:.\Generated_Source\PSoC5/CAN_1.c **** *  None.
 419:.\Generated_Source\PSoC5/CAN_1.c **** *
 420:.\Generated_Source\PSoC5/CAN_1.c **** * Return:
 421:.\Generated_Source\PSoC5/CAN_1.c **** *  The indication whether the register is written and verified.
 422:.\Generated_Source\PSoC5/CAN_1.c **** *   Define                             Description
ARM GAS  C:\Users\Patrick\AppData\Local\Temp\cc3Vmx0B.s 			page 9


 423:.\Generated_Source\PSoC5/CAN_1.c **** *    CYRET_SUCCESS                      The function passed successfully
 424:.\Generated_Source\PSoC5/CAN_1.c **** *    CAN_1_FAIL              The function failed
 425:.\Generated_Source\PSoC5/CAN_1.c **** *
 426:.\Generated_Source\PSoC5/CAN_1.c **** *******************************************************************************/
 427:.\Generated_Source\PSoC5/CAN_1.c **** uint8 CAN_1_GlobalIntEnable(void) 
 428:.\Generated_Source\PSoC5/CAN_1.c **** {
 429:.\Generated_Source\PSoC5/CAN_1.c ****     uint8 result = CAN_1_FAIL;
 430:.\Generated_Source\PSoC5/CAN_1.c **** 
 431:.\Generated_Source\PSoC5/CAN_1.c ****     #if (CY_PSOC3 || CY_PSOC5)
 432:.\Generated_Source\PSoC5/CAN_1.c ****         CAN_1_INT_EN_REG.byte[0u] |= CAN_1_GLOBAL_INT_MASK;
 433:.\Generated_Source\PSoC5/CAN_1.c **** 
 434:.\Generated_Source\PSoC5/CAN_1.c ****         /* Verify that bit is set */
 435:.\Generated_Source\PSoC5/CAN_1.c ****         if ((CAN_1_INT_EN_REG.byte[0u] & CAN_1_GLOBAL_INT_MASK) != 0u)
 436:.\Generated_Source\PSoC5/CAN_1.c ****         {
 437:.\Generated_Source\PSoC5/CAN_1.c ****             result = CYRET_SUCCESS;
 438:.\Generated_Source\PSoC5/CAN_1.c ****         }
 439:.\Generated_Source\PSoC5/CAN_1.c ****     #else  /* CY_PSOC4 */
 440:.\Generated_Source\PSoC5/CAN_1.c ****         CAN_1_INT_EN_REG |= CAN_1_GLOBAL_INT_MASK;
 441:.\Generated_Source\PSoC5/CAN_1.c ****         /* Verify that bit is set */
 442:.\Generated_Source\PSoC5/CAN_1.c ****         if ((CAN_1_INT_EN_REG & CAN_1_GLOBAL_INT_MASK) != 0u)
 443:.\Generated_Source\PSoC5/CAN_1.c ****         {
 444:.\Generated_Source\PSoC5/CAN_1.c ****             result = CYRET_SUCCESS;
 445:.\Generated_Source\PSoC5/CAN_1.c ****         }
 446:.\Generated_Source\PSoC5/CAN_1.c ****     #endif /* CY_PSOC3 || CY_PSOC5 */
 447:.\Generated_Source\PSoC5/CAN_1.c **** 
 448:.\Generated_Source\PSoC5/CAN_1.c ****     return (result);
 449:.\Generated_Source\PSoC5/CAN_1.c **** }
 450:.\Generated_Source\PSoC5/CAN_1.c **** 
 451:.\Generated_Source\PSoC5/CAN_1.c **** 
 452:.\Generated_Source\PSoC5/CAN_1.c **** /*******************************************************************************
 453:.\Generated_Source\PSoC5/CAN_1.c **** * FUNCTION NAME:   CAN_1_GlobalIntDisable
 454:.\Generated_Source\PSoC5/CAN_1.c **** ********************************************************************************
 455:.\Generated_Source\PSoC5/CAN_1.c **** *
 456:.\Generated_Source\PSoC5/CAN_1.c **** * Summary:
 457:.\Generated_Source\PSoC5/CAN_1.c **** *  This function disables Global Interrupts from CAN Core.
 458:.\Generated_Source\PSoC5/CAN_1.c **** *
 459:.\Generated_Source\PSoC5/CAN_1.c **** * Parameters:
 460:.\Generated_Source\PSoC5/CAN_1.c **** *  None.
 461:.\Generated_Source\PSoC5/CAN_1.c **** *
 462:.\Generated_Source\PSoC5/CAN_1.c **** * Return:
 463:.\Generated_Source\PSoC5/CAN_1.c **** *  The indication whether the register is written and verified.
 464:.\Generated_Source\PSoC5/CAN_1.c **** *   Define                             Description
 465:.\Generated_Source\PSoC5/CAN_1.c **** *    CYRET_SUCCESS                      The function passed successfully
 466:.\Generated_Source\PSoC5/CAN_1.c **** *    CAN_1_FAIL              The function failed
 467:.\Generated_Source\PSoC5/CAN_1.c **** *
 468:.\Generated_Source\PSoC5/CAN_1.c **** *******************************************************************************/
 469:.\Generated_Source\PSoC5/CAN_1.c **** uint8 CAN_1_GlobalIntDisable(void) 
 470:.\Generated_Source\PSoC5/CAN_1.c **** {
 471:.\Generated_Source\PSoC5/CAN_1.c ****     uint8 result = CAN_1_FAIL;
 472:.\Generated_Source\PSoC5/CAN_1.c **** 
 473:.\Generated_Source\PSoC5/CAN_1.c ****     #if (CY_PSOC3 || CY_PSOC5)
 474:.\Generated_Source\PSoC5/CAN_1.c ****         CAN_1_INT_EN_REG.byte[0u] &= (uint8) (~CAN_1_GLOBAL_INT_MASK);
 475:.\Generated_Source\PSoC5/CAN_1.c **** 
 476:.\Generated_Source\PSoC5/CAN_1.c ****         /* Verify that bit is cleared */
 477:.\Generated_Source\PSoC5/CAN_1.c ****         if ((CAN_1_INT_EN_REG.byte[0u] & CAN_1_GLOBAL_INT_MASK) == 0u)
 478:.\Generated_Source\PSoC5/CAN_1.c ****         {
 479:.\Generated_Source\PSoC5/CAN_1.c ****             result = CYRET_SUCCESS;
ARM GAS  C:\Users\Patrick\AppData\Local\Temp\cc3Vmx0B.s 			page 10


 480:.\Generated_Source\PSoC5/CAN_1.c ****         }
 481:.\Generated_Source\PSoC5/CAN_1.c ****     #else  /* CY_PSOC4 */
 482:.\Generated_Source\PSoC5/CAN_1.c ****         CAN_1_INT_EN_REG &= (uint32) (~((uint32) CAN_1_GLOBAL_INT_MASK));
 483:.\Generated_Source\PSoC5/CAN_1.c **** 
 484:.\Generated_Source\PSoC5/CAN_1.c ****         /* Verify that bit is cleared */
 485:.\Generated_Source\PSoC5/CAN_1.c ****         if ((CAN_1_INT_EN_REG & CAN_1_GLOBAL_INT_MASK) == 0u)
 486:.\Generated_Source\PSoC5/CAN_1.c ****         {
 487:.\Generated_Source\PSoC5/CAN_1.c ****             result = CYRET_SUCCESS;
 488:.\Generated_Source\PSoC5/CAN_1.c ****         }
 489:.\Generated_Source\PSoC5/CAN_1.c ****     #endif /* CY_PSOC3 || CY_PSOC5 */
 490:.\Generated_Source\PSoC5/CAN_1.c **** 
 491:.\Generated_Source\PSoC5/CAN_1.c ****     return (result);
 492:.\Generated_Source\PSoC5/CAN_1.c **** }
 493:.\Generated_Source\PSoC5/CAN_1.c **** 
 494:.\Generated_Source\PSoC5/CAN_1.c **** 
 495:.\Generated_Source\PSoC5/CAN_1.c **** /*******************************************************************************
 496:.\Generated_Source\PSoC5/CAN_1.c **** * FUNCTION NAME:   CAN_1_SetPreScaler
 497:.\Generated_Source\PSoC5/CAN_1.c **** ********************************************************************************
 498:.\Generated_Source\PSoC5/CAN_1.c **** *
 499:.\Generated_Source\PSoC5/CAN_1.c **** * Summary:
 500:.\Generated_Source\PSoC5/CAN_1.c **** *  This function sets PreScaler for generating the time quantum which defines
 501:.\Generated_Source\PSoC5/CAN_1.c **** *  the time quanta. The values between 0x0 and 0x7FFF are valid.
 502:.\Generated_Source\PSoC5/CAN_1.c **** *
 503:.\Generated_Source\PSoC5/CAN_1.c **** * Parameters:
 504:.\Generated_Source\PSoC5/CAN_1.c **** *  bitrate: PreScaler value.
 505:.\Generated_Source\PSoC5/CAN_1.c **** *   Value           Description
 506:.\Generated_Source\PSoC5/CAN_1.c **** *    0               One time quantum equals 1 clock cycle
 507:.\Generated_Source\PSoC5/CAN_1.c **** *    1               One time quantum equals 2 clock cycles
 508:.\Generated_Source\PSoC5/CAN_1.c **** *    ...             ...
 509:.\Generated_Source\PSoC5/CAN_1.c **** *    32767           One time quantum equals 32768 clock cycles
 510:.\Generated_Source\PSoC5/CAN_1.c **** *
 511:.\Generated_Source\PSoC5/CAN_1.c **** * Return:
 512:.\Generated_Source\PSoC5/CAN_1.c **** *  The indication whether the register is written and verified.
 513:.\Generated_Source\PSoC5/CAN_1.c **** *   Define                             Description
 514:.\Generated_Source\PSoC5/CAN_1.c **** *    CYRET_SUCCESS                      The function passed successfully
 515:.\Generated_Source\PSoC5/CAN_1.c **** *    CAN_1_FAIL              The function failed
 516:.\Generated_Source\PSoC5/CAN_1.c **** *    CAN_1_OUT_OF_RANGE      The function parameter is out of range
 517:.\Generated_Source\PSoC5/CAN_1.c **** *
 518:.\Generated_Source\PSoC5/CAN_1.c **** *******************************************************************************/
 519:.\Generated_Source\PSoC5/CAN_1.c **** uint8 CAN_1_SetPreScaler(uint16 bitrate) 
 520:.\Generated_Source\PSoC5/CAN_1.c **** {
 521:.\Generated_Source\PSoC5/CAN_1.c ****     uint8 result = CAN_1_OUT_OF_RANGE;
 522:.\Generated_Source\PSoC5/CAN_1.c **** 
 523:.\Generated_Source\PSoC5/CAN_1.c ****     if (bitrate <= CAN_1_BITRATE_MASK)
 524:.\Generated_Source\PSoC5/CAN_1.c ****     {
 525:.\Generated_Source\PSoC5/CAN_1.c ****         result = CAN_1_FAIL;
 526:.\Generated_Source\PSoC5/CAN_1.c **** 
 527:.\Generated_Source\PSoC5/CAN_1.c ****         #if (CY_PSOC3 || CY_PSOC5)
 528:.\Generated_Source\PSoC5/CAN_1.c ****             /* Set prescaler */
 529:.\Generated_Source\PSoC5/CAN_1.c ****             CY_SET_REG16((reg16 *) (&CAN_1_CFG_REG.byte[2u]), bitrate);
 530:.\Generated_Source\PSoC5/CAN_1.c **** 
 531:.\Generated_Source\PSoC5/CAN_1.c ****             /* Verify that prescaler is set */
 532:.\Generated_Source\PSoC5/CAN_1.c ****             if (CY_GET_REG16((reg16 *) (&CAN_1_CFG_REG.byte[2u])) == bitrate)
 533:.\Generated_Source\PSoC5/CAN_1.c ****             {
 534:.\Generated_Source\PSoC5/CAN_1.c ****                 result = CYRET_SUCCESS;
 535:.\Generated_Source\PSoC5/CAN_1.c ****             }
 536:.\Generated_Source\PSoC5/CAN_1.c ****         #else  /* CY_PSOC4 */
ARM GAS  C:\Users\Patrick\AppData\Local\Temp\cc3Vmx0B.s 			page 11


 537:.\Generated_Source\PSoC5/CAN_1.c ****             /* Set prescaler */
 538:.\Generated_Source\PSoC5/CAN_1.c ****             CAN_1_CFG_REG = (CAN_1_CFG_REG & (uint32) (~CAN_1_BITRATE_MASK_SHIFTED)) |
 539:.\Generated_Source\PSoC5/CAN_1.c ****             (uint32) ((uint32) bitrate << CAN_1_BITRATE_SHIFT);
 540:.\Generated_Source\PSoC5/CAN_1.c **** 
 541:.\Generated_Source\PSoC5/CAN_1.c ****             /* Verify that prescaler is set */
 542:.\Generated_Source\PSoC5/CAN_1.c ****             if ((CAN_1_CFG_REG & CAN_1_BITRATE_MASK_SHIFTED) ==
 543:.\Generated_Source\PSoC5/CAN_1.c ****                ((uint32) ((uint32) bitrate << CAN_1_BITRATE_SHIFT)))
 544:.\Generated_Source\PSoC5/CAN_1.c ****             {
 545:.\Generated_Source\PSoC5/CAN_1.c ****                 result = CYRET_SUCCESS;
 546:.\Generated_Source\PSoC5/CAN_1.c ****             }
 547:.\Generated_Source\PSoC5/CAN_1.c ****         #endif /* CY_PSOC3 || CY_PSOC5 */
 548:.\Generated_Source\PSoC5/CAN_1.c ****     }
 549:.\Generated_Source\PSoC5/CAN_1.c **** 
 550:.\Generated_Source\PSoC5/CAN_1.c ****     return (result);
 551:.\Generated_Source\PSoC5/CAN_1.c **** }
 552:.\Generated_Source\PSoC5/CAN_1.c **** 
 553:.\Generated_Source\PSoC5/CAN_1.c **** 
 554:.\Generated_Source\PSoC5/CAN_1.c **** /*******************************************************************************
 555:.\Generated_Source\PSoC5/CAN_1.c **** * FUNCTION NAME:   CAN_1_SetArbiter
 556:.\Generated_Source\PSoC5/CAN_1.c **** ********************************************************************************
 557:.\Generated_Source\PSoC5/CAN_1.c **** *
 558:.\Generated_Source\PSoC5/CAN_1.c **** * Summary:
 559:.\Generated_Source\PSoC5/CAN_1.c **** *  This function sets the arbitration type for transmit mailboxes. The types of
 560:.\Generated_Source\PSoC5/CAN_1.c **** *  the arbiters are Round Robin and Fixed Priority. Values 0 and 1 are valid.
 561:.\Generated_Source\PSoC5/CAN_1.c **** *
 562:.\Generated_Source\PSoC5/CAN_1.c **** * Parameters:
 563:.\Generated_Source\PSoC5/CAN_1.c **** *  arbiter: The arbitration type for transmit mailboxes.
 564:.\Generated_Source\PSoC5/CAN_1.c **** *   Value                              Description
 565:.\Generated_Source\PSoC5/CAN_1.c **** *    CAN_1_ROUND_ROBIN       The Round Robin arbitration
 566:.\Generated_Source\PSoC5/CAN_1.c **** *    CAN_1_FIXED_PRIORITY    The Fixed Priority arbitration.
 567:.\Generated_Source\PSoC5/CAN_1.c **** *
 568:.\Generated_Source\PSoC5/CAN_1.c **** * Return:
 569:.\Generated_Source\PSoC5/CAN_1.c **** *  The indication whether the register is written and verified.
 570:.\Generated_Source\PSoC5/CAN_1.c **** *   Define                             Description
 571:.\Generated_Source\PSoC5/CAN_1.c **** *    CYRET_SUCCESS                      The function passed successfully
 572:.\Generated_Source\PSoC5/CAN_1.c **** *    CAN_1_FAIL              The function failed
 573:.\Generated_Source\PSoC5/CAN_1.c **** *
 574:.\Generated_Source\PSoC5/CAN_1.c **** *******************************************************************************/
 575:.\Generated_Source\PSoC5/CAN_1.c **** uint8 CAN_1_SetArbiter(uint8 arbiter) 
 576:.\Generated_Source\PSoC5/CAN_1.c **** {
 577:.\Generated_Source\PSoC5/CAN_1.c ****     uint8 result = CAN_1_FAIL;
 578:.\Generated_Source\PSoC5/CAN_1.c **** 
 579:.\Generated_Source\PSoC5/CAN_1.c ****     #if (CY_PSOC3 || CY_PSOC5)
 580:.\Generated_Source\PSoC5/CAN_1.c ****         if (arbiter == CAN_1_ROUND_ROBIN)
 581:.\Generated_Source\PSoC5/CAN_1.c ****         {
 582:.\Generated_Source\PSoC5/CAN_1.c ****             CAN_1_CFG_REG.byte[1u] &= (uint8) (~CAN_1_ARBITRATION_MASK);
 583:.\Generated_Source\PSoC5/CAN_1.c **** 
 584:.\Generated_Source\PSoC5/CAN_1.c ****             /* Verify that bit is cleared */
 585:.\Generated_Source\PSoC5/CAN_1.c ****             if ((CAN_1_CFG_REG.byte[1u] & CAN_1_ARBITRATION_MASK) == 0u)
 586:.\Generated_Source\PSoC5/CAN_1.c ****             {
 587:.\Generated_Source\PSoC5/CAN_1.c ****                 result = CYRET_SUCCESS;
 588:.\Generated_Source\PSoC5/CAN_1.c ****             }
 589:.\Generated_Source\PSoC5/CAN_1.c ****         }
 590:.\Generated_Source\PSoC5/CAN_1.c ****         else    /* Fixed Priority */
 591:.\Generated_Source\PSoC5/CAN_1.c ****         {
 592:.\Generated_Source\PSoC5/CAN_1.c ****             CAN_1_CFG_REG.byte[1u] |= CAN_1_ARBITRATION_MASK;
 593:.\Generated_Source\PSoC5/CAN_1.c **** 
ARM GAS  C:\Users\Patrick\AppData\Local\Temp\cc3Vmx0B.s 			page 12


 594:.\Generated_Source\PSoC5/CAN_1.c ****             /* Verify that bit is set */
 595:.\Generated_Source\PSoC5/CAN_1.c ****             if ((CAN_1_CFG_REG.byte[1u] & CAN_1_ARBITRATION_MASK) != 0u)
 596:.\Generated_Source\PSoC5/CAN_1.c ****             {
 597:.\Generated_Source\PSoC5/CAN_1.c ****                 result = CYRET_SUCCESS;
 598:.\Generated_Source\PSoC5/CAN_1.c ****             }
 599:.\Generated_Source\PSoC5/CAN_1.c ****         }
 600:.\Generated_Source\PSoC5/CAN_1.c ****     #else  /* CY_PSOC4 */
 601:.\Generated_Source\PSoC5/CAN_1.c ****         if (arbiter == CAN_1_ROUND_ROBIN)
 602:.\Generated_Source\PSoC5/CAN_1.c ****         {
 603:.\Generated_Source\PSoC5/CAN_1.c ****             CAN_1_CFG_REG &= (uint32) (~CAN_1_ARBITRATION_MASK);
 604:.\Generated_Source\PSoC5/CAN_1.c **** 
 605:.\Generated_Source\PSoC5/CAN_1.c ****             /* Verify that bit is cleared */
 606:.\Generated_Source\PSoC5/CAN_1.c ****             if ((CAN_1_CFG_REG & CAN_1_ARBITRATION_MASK) == 0u)
 607:.\Generated_Source\PSoC5/CAN_1.c ****             {
 608:.\Generated_Source\PSoC5/CAN_1.c ****                 result = CYRET_SUCCESS;
 609:.\Generated_Source\PSoC5/CAN_1.c ****             }
 610:.\Generated_Source\PSoC5/CAN_1.c ****         }
 611:.\Generated_Source\PSoC5/CAN_1.c ****         else    /* Fixed priority */
 612:.\Generated_Source\PSoC5/CAN_1.c ****         {
 613:.\Generated_Source\PSoC5/CAN_1.c ****             CAN_1_CFG_REG |= CAN_1_ARBITRATION_MASK;
 614:.\Generated_Source\PSoC5/CAN_1.c **** 
 615:.\Generated_Source\PSoC5/CAN_1.c ****             /* Verify that bit is set */
 616:.\Generated_Source\PSoC5/CAN_1.c ****             if ((CAN_1_CFG_REG & CAN_1_ARBITRATION_MASK) != 0u)
 617:.\Generated_Source\PSoC5/CAN_1.c ****             {
 618:.\Generated_Source\PSoC5/CAN_1.c ****                 result = CYRET_SUCCESS;
 619:.\Generated_Source\PSoC5/CAN_1.c ****             }
 620:.\Generated_Source\PSoC5/CAN_1.c ****         }
 621:.\Generated_Source\PSoC5/CAN_1.c ****     #endif /* CY_PSOC3 || CY_PSOC5 */
 622:.\Generated_Source\PSoC5/CAN_1.c **** 
 623:.\Generated_Source\PSoC5/CAN_1.c ****     return (result);
 624:.\Generated_Source\PSoC5/CAN_1.c **** }
 625:.\Generated_Source\PSoC5/CAN_1.c **** 
 626:.\Generated_Source\PSoC5/CAN_1.c **** 
 627:.\Generated_Source\PSoC5/CAN_1.c **** /*******************************************************************************
 628:.\Generated_Source\PSoC5/CAN_1.c **** * FUNCTION NAME: CAN_1_SetTsegSample
 629:.\Generated_Source\PSoC5/CAN_1.c **** ********************************************************************************
 630:.\Generated_Source\PSoC5/CAN_1.c **** *
 631:.\Generated_Source\PSoC5/CAN_1.c **** * Summary:
 632:.\Generated_Source\PSoC5/CAN_1.c **** *  This function configures: Time segment 1, Time segment 2, Sampling Mode
 633:.\Generated_Source\PSoC5/CAN_1.c **** *  and Synchronization Jump Width.
 634:.\Generated_Source\PSoC5/CAN_1.c **** *
 635:.\Generated_Source\PSoC5/CAN_1.c **** * Parameters:
 636:.\Generated_Source\PSoC5/CAN_1.c **** *  cfgTseg1: The length of time segment 1, values between 0x2 and 0xF are valid;
 637:.\Generated_Source\PSoC5/CAN_1.c **** *  cfgTseg2: The length of time segment 2, values between 0x1 and 0x7 are valid;
 638:.\Generated_Source\PSoC5/CAN_1.c **** *  sjw: Synchronization Jump Width, value between 0x0 and 0x3 are valid;
 639:.\Generated_Source\PSoC5/CAN_1.c **** *  sm: Sampling Mode.
 640:.\Generated_Source\PSoC5/CAN_1.c **** *   Define                               Description
 641:.\Generated_Source\PSoC5/CAN_1.c **** *   CAN_1_ONE_SAMPLE_POINT     One sampling point is used
 642:.\Generated_Source\PSoC5/CAN_1.c **** *   CAN_1_THREE_SAMPLE_POINTS  Three sampling points are used
 643:.\Generated_Source\PSoC5/CAN_1.c **** *
 644:.\Generated_Source\PSoC5/CAN_1.c **** * Return:
 645:.\Generated_Source\PSoC5/CAN_1.c **** *  The indication whether the register is written and verified.
 646:.\Generated_Source\PSoC5/CAN_1.c **** *   Define                             Description
 647:.\Generated_Source\PSoC5/CAN_1.c **** *    CYRET_SUCCESS                      The function passed successfully
 648:.\Generated_Source\PSoC5/CAN_1.c **** *    CAN_1_FAIL              The function failed
 649:.\Generated_Source\PSoC5/CAN_1.c **** *    CAN_1_OUT_OF_RANGE      The function parameter is out of range
 650:.\Generated_Source\PSoC5/CAN_1.c **** *
ARM GAS  C:\Users\Patrick\AppData\Local\Temp\cc3Vmx0B.s 			page 13


 651:.\Generated_Source\PSoC5/CAN_1.c **** *******************************************************************************/
 652:.\Generated_Source\PSoC5/CAN_1.c **** uint8 CAN_1_SetTsegSample(uint8 cfgTseg1, uint8 cfgTseg2, uint8 sjw, uint8 sm)
 653:.\Generated_Source\PSoC5/CAN_1.c ****                                      
 654:.\Generated_Source\PSoC5/CAN_1.c **** {
 655:.\Generated_Source\PSoC5/CAN_1.c ****     uint8 result = CAN_1_OUT_OF_RANGE;
 656:.\Generated_Source\PSoC5/CAN_1.c ****     uint8 cfgTemp;
 657:.\Generated_Source\PSoC5/CAN_1.c **** 
 658:.\Generated_Source\PSoC5/CAN_1.c ****     if ((cfgTseg1 >= CAN_1_CFG_REG_TSEG1_LOWER_LIMIT) && (cfgTseg1 <=
 659:.\Generated_Source\PSoC5/CAN_1.c ****          CAN_1_CFG_REG_TSEG1_UPPER_LIMIT))
 660:.\Generated_Source\PSoC5/CAN_1.c ****     {
 661:.\Generated_Source\PSoC5/CAN_1.c ****         if (((cfgTseg2 >= CAN_1_CFG_REG_TSEG2_LOWER_LIMIT) &&
 662:.\Generated_Source\PSoC5/CAN_1.c ****              (cfgTseg2 <= CAN_1_CFG_REG_TSEG2_UPPER_LIMIT)) || ((sm == CAN_1_ONE_SAMPLE_POINT) &&
 663:.\Generated_Source\PSoC5/CAN_1.c ****              (cfgTseg2 == CAN_1_CFG_REG_TSEG2_EXCEPTION)))
 664:.\Generated_Source\PSoC5/CAN_1.c ****         {
 665:.\Generated_Source\PSoC5/CAN_1.c ****             if ((sjw <= CAN_1_CFG_REG_SJW_LOWER_LIMIT) && (sjw <= cfgTseg1) && (sjw <= cfgTseg2))
 666:.\Generated_Source\PSoC5/CAN_1.c ****             {
 667:.\Generated_Source\PSoC5/CAN_1.c ****                 result = CAN_1_FAIL;
 668:.\Generated_Source\PSoC5/CAN_1.c **** 
 669:.\Generated_Source\PSoC5/CAN_1.c ****                 #if (CY_PSOC3 || CY_PSOC5)
 670:.\Generated_Source\PSoC5/CAN_1.c ****                     cfgTemp = CAN_1_CFG_REG.byte[1];
 671:.\Generated_Source\PSoC5/CAN_1.c ****                     cfgTemp &= (uint8) (~CAN_1_CFG_REG_TSEG1_MASK);
 672:.\Generated_Source\PSoC5/CAN_1.c ****                     cfgTemp |= cfgTseg1;
 673:.\Generated_Source\PSoC5/CAN_1.c **** 
 674:.\Generated_Source\PSoC5/CAN_1.c ****                     /* Write register byte 1 */
 675:.\Generated_Source\PSoC5/CAN_1.c ****                     CAN_1_CFG_REG.byte[1u] = cfgTemp;
 676:.\Generated_Source\PSoC5/CAN_1.c **** 
 677:.\Generated_Source\PSoC5/CAN_1.c ****                     /* Verify 1st byte of CAN_1_CFG_REG register */
 678:.\Generated_Source\PSoC5/CAN_1.c ****                     if (CAN_1_CFG_REG.byte[1u] == cfgTemp)
 679:.\Generated_Source\PSoC5/CAN_1.c ****                     {
 680:.\Generated_Source\PSoC5/CAN_1.c ****                         cfgTemp = 0u;
 681:.\Generated_Source\PSoC5/CAN_1.c ****                         /* Set appropriate bits */
 682:.\Generated_Source\PSoC5/CAN_1.c ****                         if (sm != CAN_1_ONE_SAMPLE_POINT)
 683:.\Generated_Source\PSoC5/CAN_1.c ****                         {
 684:.\Generated_Source\PSoC5/CAN_1.c ****                             cfgTemp = CAN_1_SAMPLE_MODE_MASK;
 685:.\Generated_Source\PSoC5/CAN_1.c ****                         }
 686:.\Generated_Source\PSoC5/CAN_1.c ****                         cfgTemp |= ((uint8) (cfgTseg2 << CAN_1_CFG_REG_TSEG2_SHIFT)) |
 687:.\Generated_Source\PSoC5/CAN_1.c ****                                    ((uint8) (sjw << CAN_1_CFG_REG_SJW_SHIFT));
 688:.\Generated_Source\PSoC5/CAN_1.c **** 
 689:.\Generated_Source\PSoC5/CAN_1.c ****                         /* Write register byte 0 */
 690:.\Generated_Source\PSoC5/CAN_1.c ****                         CAN_1_CFG_REG.byte[0u] = cfgTemp;
 691:.\Generated_Source\PSoC5/CAN_1.c **** 
 692:.\Generated_Source\PSoC5/CAN_1.c ****                         /* Verify 1st byte of CAN_1_CFG_REG register */
 693:.\Generated_Source\PSoC5/CAN_1.c ****                         if (CAN_1_CFG_REG.byte[0u] == cfgTemp)
 694:.\Generated_Source\PSoC5/CAN_1.c ****                         {
 695:.\Generated_Source\PSoC5/CAN_1.c ****                             result = CYRET_SUCCESS;
 696:.\Generated_Source\PSoC5/CAN_1.c ****                         }
 697:.\Generated_Source\PSoC5/CAN_1.c ****                     }
 698:.\Generated_Source\PSoC5/CAN_1.c ****                 #else  /* CY_PSOC4 */
 699:.\Generated_Source\PSoC5/CAN_1.c ****                     cfgTemp = (uint8) (CAN_1_CFG_REG >> CAN_1_CFG_REG_TSEG1_SHIFT);
 700:.\Generated_Source\PSoC5/CAN_1.c ****                     cfgTemp &= (uint8) (~CAN_1_CFG_REG_TSEG1_MASK);
 701:.\Generated_Source\PSoC5/CAN_1.c ****                     cfgTemp |= cfgTseg1;
 702:.\Generated_Source\PSoC5/CAN_1.c **** 
 703:.\Generated_Source\PSoC5/CAN_1.c ****                     /* Write register byte 1 */
 704:.\Generated_Source\PSoC5/CAN_1.c ****                     CAN_1_CFG_REG =
 705:.\Generated_Source\PSoC5/CAN_1.c ****                     (CAN_1_CFG_REG & (uint32) (~((uint32) ((uint32) CAN_1_CFG_REG_TSEG1_MASK <<
 706:.\Generated_Source\PSoC5/CAN_1.c ****                     CAN_1_CFG_REG_TSEG1_SHIFT)))) |
 707:.\Generated_Source\PSoC5/CAN_1.c ****                     (uint32) ((uint32) cfgTemp << CAN_1_CFG_REG_TSEG1_SHIFT);
ARM GAS  C:\Users\Patrick\AppData\Local\Temp\cc3Vmx0B.s 			page 14


 708:.\Generated_Source\PSoC5/CAN_1.c **** 
 709:.\Generated_Source\PSoC5/CAN_1.c ****                     /* Verify 1st byte of CAN_1_CFG_REG register */
 710:.\Generated_Source\PSoC5/CAN_1.c ****                     if ((CAN_1_CFG_REG & (uint32) ((uint32) CAN_1_CFG_REG_TSEG1_MASK <<
 711:.\Generated_Source\PSoC5/CAN_1.c ****                        CAN_1_CFG_REG_TSEG1_SHIFT)) == (uint32) ((uint32) ((uint32) cfgTemp &
 712:.\Generated_Source\PSoC5/CAN_1.c ****                        CAN_1_CFG_REG_TSEG1_MASK) << CAN_1_CFG_REG_TSEG1_SHIFT))
 713:.\Generated_Source\PSoC5/CAN_1.c ****                     {
 714:.\Generated_Source\PSoC5/CAN_1.c ****                         cfgTemp = 0u;
 715:.\Generated_Source\PSoC5/CAN_1.c ****                         /* Set appropriate bits */
 716:.\Generated_Source\PSoC5/CAN_1.c ****                         if (sm != CAN_1_ONE_SAMPLE_POINT)
 717:.\Generated_Source\PSoC5/CAN_1.c ****                         {
 718:.\Generated_Source\PSoC5/CAN_1.c ****                             cfgTemp = CAN_1_SAMPLE_MODE_MASK;
 719:.\Generated_Source\PSoC5/CAN_1.c ****                         }
 720:.\Generated_Source\PSoC5/CAN_1.c ****                         cfgTemp |= ((uint8) (cfgTseg2 << CAN_1_CFG_REG_TSEG2_SHIFT)) |
 721:.\Generated_Source\PSoC5/CAN_1.c ****                                    ((uint8) (sjw << CAN_1_CFG_REG_SJW_SHIFT));
 722:.\Generated_Source\PSoC5/CAN_1.c **** 
 723:.\Generated_Source\PSoC5/CAN_1.c ****                         /* Write register byte 0 */
 724:.\Generated_Source\PSoC5/CAN_1.c ****                         CAN_1_CFG_REG = (CAN_1_CFG_REG &
 725:.\Generated_Source\PSoC5/CAN_1.c ****                         (uint32) (~((uint32) (CAN_1_CFG_REG_TSEG2_MASK | CAN_1_CFG_REG_SJW_MASK |
 726:.\Generated_Source\PSoC5/CAN_1.c ****                         CAN_1_SAMPLE_MODE_MASK)))) | cfgTemp;
 727:.\Generated_Source\PSoC5/CAN_1.c **** 
 728:.\Generated_Source\PSoC5/CAN_1.c ****                         /* Verify 1st byte of CAN_1_CFG_REG register */
 729:.\Generated_Source\PSoC5/CAN_1.c ****                         if ((CAN_1_CFG_REG & (CAN_1_CFG_REG_TSEG2_MASK |
 730:.\Generated_Source\PSoC5/CAN_1.c ****                            CAN_1_CFG_REG_SJW_MASK | CAN_1_SAMPLE_MODE_MASK)) == cfgTemp)
 731:.\Generated_Source\PSoC5/CAN_1.c ****                         {
 732:.\Generated_Source\PSoC5/CAN_1.c ****                             result = CYRET_SUCCESS;
 733:.\Generated_Source\PSoC5/CAN_1.c ****                         }
 734:.\Generated_Source\PSoC5/CAN_1.c ****                     }
 735:.\Generated_Source\PSoC5/CAN_1.c ****                 #endif /* CY_PSOC3 || CY_PSOC5 */
 736:.\Generated_Source\PSoC5/CAN_1.c ****             }
 737:.\Generated_Source\PSoC5/CAN_1.c ****         }
 738:.\Generated_Source\PSoC5/CAN_1.c ****     }
 739:.\Generated_Source\PSoC5/CAN_1.c **** 
 740:.\Generated_Source\PSoC5/CAN_1.c ****     return (result);
 741:.\Generated_Source\PSoC5/CAN_1.c **** }
 742:.\Generated_Source\PSoC5/CAN_1.c **** 
 743:.\Generated_Source\PSoC5/CAN_1.c **** 
 744:.\Generated_Source\PSoC5/CAN_1.c **** /*******************************************************************************
 745:.\Generated_Source\PSoC5/CAN_1.c **** * FUNCTION NAME:   CAN_1_SetRestartType
 746:.\Generated_Source\PSoC5/CAN_1.c **** ********************************************************************************
 747:.\Generated_Source\PSoC5/CAN_1.c **** *
 748:.\Generated_Source\PSoC5/CAN_1.c **** * Summary:
 749:.\Generated_Source\PSoC5/CAN_1.c **** *  This function sets the Reset type. The types of Reset are Automatic and
 750:.\Generated_Source\PSoC5/CAN_1.c **** *  Manual. Manual Reset is the recommended setting.
 751:.\Generated_Source\PSoC5/CAN_1.c **** *
 752:.\Generated_Source\PSoC5/CAN_1.c **** * Parameters:
 753:.\Generated_Source\PSoC5/CAN_1.c **** *  reset: Reset Type.
 754:.\Generated_Source\PSoC5/CAN_1.c **** *   Define                             Description
 755:.\Generated_Source\PSoC5/CAN_1.c **** *    CAN_1_MANUAL_RESTART    After Bus-Off, CAN must be restarted
 756:.\Generated_Source\PSoC5/CAN_1.c **** *                                       manually. This is the recommended
 757:.\Generated_Source\PSoC5/CAN_1.c **** *                                       setting.
 758:.\Generated_Source\PSoC5/CAN_1.c **** *    CAN_1_AUTO_RESTART      After Bus-Off, CAN restarts
 759:.\Generated_Source\PSoC5/CAN_1.c **** *                                       automatically after 128 groups of 11
 760:.\Generated_Source\PSoC5/CAN_1.c **** *                                       recessive bits.
 761:.\Generated_Source\PSoC5/CAN_1.c **** *
 762:.\Generated_Source\PSoC5/CAN_1.c **** * Return:
 763:.\Generated_Source\PSoC5/CAN_1.c **** *  The indication whether the register is written and verified.
 764:.\Generated_Source\PSoC5/CAN_1.c **** *   Define                             Description
ARM GAS  C:\Users\Patrick\AppData\Local\Temp\cc3Vmx0B.s 			page 15


 765:.\Generated_Source\PSoC5/CAN_1.c **** *    CYRET_SUCCESS                      The function passed successfully
 766:.\Generated_Source\PSoC5/CAN_1.c **** *    CAN_1_FAIL              The function failed
 767:.\Generated_Source\PSoC5/CAN_1.c **** *
 768:.\Generated_Source\PSoC5/CAN_1.c **** *******************************************************************************/
 769:.\Generated_Source\PSoC5/CAN_1.c **** uint8 CAN_1_SetRestartType(uint8 reset) 
 770:.\Generated_Source\PSoC5/CAN_1.c **** {
 771:.\Generated_Source\PSoC5/CAN_1.c ****     uint8 result = CAN_1_FAIL;
 772:.\Generated_Source\PSoC5/CAN_1.c **** 
 773:.\Generated_Source\PSoC5/CAN_1.c ****     #if (CY_PSOC3 || CY_PSOC5)
 774:.\Generated_Source\PSoC5/CAN_1.c ****         if (reset == CAN_1_MANUAL_RESTART)
 775:.\Generated_Source\PSoC5/CAN_1.c ****         {
 776:.\Generated_Source\PSoC5/CAN_1.c ****             CAN_1_CFG_REG.byte[0u] &= (uint8) (~CAN_1_RESET_MASK);
 777:.\Generated_Source\PSoC5/CAN_1.c **** 
 778:.\Generated_Source\PSoC5/CAN_1.c ****             /* Verify that bit is cleared */
 779:.\Generated_Source\PSoC5/CAN_1.c ****             if ((CAN_1_CFG_REG.byte[0u] & CAN_1_RESET_MASK) == 0u)
 780:.\Generated_Source\PSoC5/CAN_1.c ****             {
 781:.\Generated_Source\PSoC5/CAN_1.c ****                 result = CYRET_SUCCESS;
 782:.\Generated_Source\PSoC5/CAN_1.c ****             }
 783:.\Generated_Source\PSoC5/CAN_1.c ****         }
 784:.\Generated_Source\PSoC5/CAN_1.c ****         else    /* Automatic restart */
 785:.\Generated_Source\PSoC5/CAN_1.c ****         {
 786:.\Generated_Source\PSoC5/CAN_1.c ****             CAN_1_CFG_REG.byte[0u] |= CAN_1_RESET_MASK;
 787:.\Generated_Source\PSoC5/CAN_1.c **** 
 788:.\Generated_Source\PSoC5/CAN_1.c ****             /* Verify that bit is set */
 789:.\Generated_Source\PSoC5/CAN_1.c ****             if ((CAN_1_CFG_REG.byte[0u] & CAN_1_RESET_MASK) != 0u)
 790:.\Generated_Source\PSoC5/CAN_1.c ****             {
 791:.\Generated_Source\PSoC5/CAN_1.c ****                 result = CYRET_SUCCESS;
 792:.\Generated_Source\PSoC5/CAN_1.c ****             }
 793:.\Generated_Source\PSoC5/CAN_1.c ****         }
 794:.\Generated_Source\PSoC5/CAN_1.c ****     #else  /* CY_PSOC4 */
 795:.\Generated_Source\PSoC5/CAN_1.c ****         if (reset == CAN_1_MANUAL_RESTART)
 796:.\Generated_Source\PSoC5/CAN_1.c ****         {
 797:.\Generated_Source\PSoC5/CAN_1.c ****             CAN_1_CFG_REG &= (uint32) (~((uint32) CAN_1_RESET_MASK));
 798:.\Generated_Source\PSoC5/CAN_1.c **** 
 799:.\Generated_Source\PSoC5/CAN_1.c ****             /* Verify that bit is cleared */
 800:.\Generated_Source\PSoC5/CAN_1.c ****             if ((CAN_1_CFG_REG & CAN_1_RESET_MASK) == 0u)
 801:.\Generated_Source\PSoC5/CAN_1.c ****             {
 802:.\Generated_Source\PSoC5/CAN_1.c ****                 result = CYRET_SUCCESS;
 803:.\Generated_Source\PSoC5/CAN_1.c ****             }
 804:.\Generated_Source\PSoC5/CAN_1.c ****         }
 805:.\Generated_Source\PSoC5/CAN_1.c ****         else    /* Automatic restart */
 806:.\Generated_Source\PSoC5/CAN_1.c ****         {
 807:.\Generated_Source\PSoC5/CAN_1.c ****             CAN_1_CFG_REG |= CAN_1_RESET_MASK;
 808:.\Generated_Source\PSoC5/CAN_1.c **** 
 809:.\Generated_Source\PSoC5/CAN_1.c ****             /* Verify that bit is set */
 810:.\Generated_Source\PSoC5/CAN_1.c ****             if ((CAN_1_CFG_REG & CAN_1_RESET_MASK) != 0u)
 811:.\Generated_Source\PSoC5/CAN_1.c ****             {
 812:.\Generated_Source\PSoC5/CAN_1.c ****                 result = CYRET_SUCCESS;
 813:.\Generated_Source\PSoC5/CAN_1.c ****             }
 814:.\Generated_Source\PSoC5/CAN_1.c ****         }
 815:.\Generated_Source\PSoC5/CAN_1.c ****     #endif /* CY_PSOC3 || CY_PSOC5 */
 816:.\Generated_Source\PSoC5/CAN_1.c **** 
 817:.\Generated_Source\PSoC5/CAN_1.c ****     return (result);
 818:.\Generated_Source\PSoC5/CAN_1.c **** }
 819:.\Generated_Source\PSoC5/CAN_1.c **** 
 820:.\Generated_Source\PSoC5/CAN_1.c **** 
 821:.\Generated_Source\PSoC5/CAN_1.c **** /*******************************************************************************
ARM GAS  C:\Users\Patrick\AppData\Local\Temp\cc3Vmx0B.s 			page 16


 822:.\Generated_Source\PSoC5/CAN_1.c **** * FUNCTION NAME:   CAN_1_SetEdgeMode
 823:.\Generated_Source\PSoC5/CAN_1.c **** ********************************************************************************
 824:.\Generated_Source\PSoC5/CAN_1.c **** *
 825:.\Generated_Source\PSoC5/CAN_1.c **** * Summary:
 826:.\Generated_Source\PSoC5/CAN_1.c **** *  This function sets Edge Mode. The modes are 'R' to 'D'(Recessive to Dominant)
 827:.\Generated_Source\PSoC5/CAN_1.c **** *  and Both edges are used.
 828:.\Generated_Source\PSoC5/CAN_1.c **** *
 829:.\Generated_Source\PSoC5/CAN_1.c **** * Parameters:
 830:.\Generated_Source\PSoC5/CAN_1.c **** *  edge: Edge Mode.
 831:.\Generated_Source\PSoC5/CAN_1.c **** *   Define                             Description
 832:.\Generated_Source\PSoC5/CAN_1.c **** *    CAN_1_EDGE_R_TO_D       The edge from R to D is used for
 833:.\Generated_Source\PSoC5/CAN_1.c **** *                                       synchronization
 834:.\Generated_Source\PSoC5/CAN_1.c **** *    CAN_1_BOTH_EDGES        Both edges are used
 835:.\Generated_Source\PSoC5/CAN_1.c **** *
 836:.\Generated_Source\PSoC5/CAN_1.c **** * Return:
 837:.\Generated_Source\PSoC5/CAN_1.c **** *  The indication whether the register is written and verified.
 838:.\Generated_Source\PSoC5/CAN_1.c **** *   Define                             Description
 839:.\Generated_Source\PSoC5/CAN_1.c **** *    CYRET_SUCCESS                      The function passed successfully
 840:.\Generated_Source\PSoC5/CAN_1.c **** *    CAN_1_FAIL              The function failed
 841:.\Generated_Source\PSoC5/CAN_1.c **** *
 842:.\Generated_Source\PSoC5/CAN_1.c **** *******************************************************************************/
 843:.\Generated_Source\PSoC5/CAN_1.c **** uint8 CAN_1_SetEdgeMode(uint8 edge) 
 844:.\Generated_Source\PSoC5/CAN_1.c **** {
 845:.\Generated_Source\PSoC5/CAN_1.c ****     uint8 result = CAN_1_FAIL;
 846:.\Generated_Source\PSoC5/CAN_1.c **** 
 847:.\Generated_Source\PSoC5/CAN_1.c ****     #if (CY_PSOC3 || CY_PSOC5)
 848:.\Generated_Source\PSoC5/CAN_1.c ****         if (edge == CAN_1_EDGE_R_TO_D)
 849:.\Generated_Source\PSoC5/CAN_1.c ****         {
 850:.\Generated_Source\PSoC5/CAN_1.c ****             /* Recessive to Dominant is used for synchronization */
 851:.\Generated_Source\PSoC5/CAN_1.c ****             CAN_1_CFG_REG.byte[0u] &= (uint8) (~CAN_1_EDGE_MODE_MASK);
 852:.\Generated_Source\PSoC5/CAN_1.c **** 
 853:.\Generated_Source\PSoC5/CAN_1.c ****             /* Verify that bit is cleared */
 854:.\Generated_Source\PSoC5/CAN_1.c ****             if ((CAN_1_CFG_REG.byte[0u] & CAN_1_EDGE_MODE_MASK) == 0u)
 855:.\Generated_Source\PSoC5/CAN_1.c ****             {
 856:.\Generated_Source\PSoC5/CAN_1.c ****                 result = CYRET_SUCCESS;
 857:.\Generated_Source\PSoC5/CAN_1.c ****             }
 858:.\Generated_Source\PSoC5/CAN_1.c ****         }
 859:.\Generated_Source\PSoC5/CAN_1.c ****         else
 860:.\Generated_Source\PSoC5/CAN_1.c ****         {
 861:.\Generated_Source\PSoC5/CAN_1.c ****             /* Both edges to be used */
 862:.\Generated_Source\PSoC5/CAN_1.c ****             CAN_1_CFG_REG.byte[0u] |= CAN_1_EDGE_MODE_MASK;
 863:.\Generated_Source\PSoC5/CAN_1.c **** 
 864:.\Generated_Source\PSoC5/CAN_1.c ****             /* Verify that bit is set */
 865:.\Generated_Source\PSoC5/CAN_1.c ****             if ((CAN_1_CFG_REG.byte[0u] & CAN_1_EDGE_MODE_MASK) != 0u)
 866:.\Generated_Source\PSoC5/CAN_1.c ****             {
 867:.\Generated_Source\PSoC5/CAN_1.c ****                 result = CYRET_SUCCESS;
 868:.\Generated_Source\PSoC5/CAN_1.c ****             }
 869:.\Generated_Source\PSoC5/CAN_1.c ****         }
 870:.\Generated_Source\PSoC5/CAN_1.c ****     #else  /* CY_PSOC4 */
 871:.\Generated_Source\PSoC5/CAN_1.c ****         if (edge == CAN_1_EDGE_R_TO_D)
 872:.\Generated_Source\PSoC5/CAN_1.c ****         {
 873:.\Generated_Source\PSoC5/CAN_1.c ****             /* Recessive to Dominant is used for synchronization */
 874:.\Generated_Source\PSoC5/CAN_1.c ****             CAN_1_CFG_REG &= (uint32) (~((uint32) CAN_1_EDGE_MODE_MASK));
 875:.\Generated_Source\PSoC5/CAN_1.c **** 
 876:.\Generated_Source\PSoC5/CAN_1.c ****             /* Verify that bit is cleared */
 877:.\Generated_Source\PSoC5/CAN_1.c ****             if ((CAN_1_CFG_REG & CAN_1_EDGE_MODE_MASK) == 0u)
 878:.\Generated_Source\PSoC5/CAN_1.c ****             {
ARM GAS  C:\Users\Patrick\AppData\Local\Temp\cc3Vmx0B.s 			page 17


 879:.\Generated_Source\PSoC5/CAN_1.c ****                 result = CYRET_SUCCESS;
 880:.\Generated_Source\PSoC5/CAN_1.c ****             }
 881:.\Generated_Source\PSoC5/CAN_1.c ****         }
 882:.\Generated_Source\PSoC5/CAN_1.c ****         else
 883:.\Generated_Source\PSoC5/CAN_1.c ****         {
 884:.\Generated_Source\PSoC5/CAN_1.c ****             /* Both edges to be used */
 885:.\Generated_Source\PSoC5/CAN_1.c ****             CAN_1_CFG_REG |= CAN_1_EDGE_MODE_MASK;
 886:.\Generated_Source\PSoC5/CAN_1.c **** 
 887:.\Generated_Source\PSoC5/CAN_1.c ****             /* Verify that bit is set */
 888:.\Generated_Source\PSoC5/CAN_1.c ****             if ((CAN_1_CFG_REG & CAN_1_EDGE_MODE_MASK) != 0u)
 889:.\Generated_Source\PSoC5/CAN_1.c ****             {
 890:.\Generated_Source\PSoC5/CAN_1.c ****                 result = CYRET_SUCCESS;
 891:.\Generated_Source\PSoC5/CAN_1.c ****             }
 892:.\Generated_Source\PSoC5/CAN_1.c ****         }
 893:.\Generated_Source\PSoC5/CAN_1.c ****     #endif /* CY_PSOC3 || CY_PSOC5 */
 894:.\Generated_Source\PSoC5/CAN_1.c **** 
 895:.\Generated_Source\PSoC5/CAN_1.c ****     return (result);
 896:.\Generated_Source\PSoC5/CAN_1.c **** }
 897:.\Generated_Source\PSoC5/CAN_1.c **** 
 898:.\Generated_Source\PSoC5/CAN_1.c **** 
 899:.\Generated_Source\PSoC5/CAN_1.c **** /*******************************************************************************
 900:.\Generated_Source\PSoC5/CAN_1.c **** * FUNCTION NAME:   CAN_1_SetOpMode
 901:.\Generated_Source\PSoC5/CAN_1.c **** ********************************************************************************
 902:.\Generated_Source\PSoC5/CAN_1.c **** *
 903:.\Generated_Source\PSoC5/CAN_1.c **** * Summary:
 904:.\Generated_Source\PSoC5/CAN_1.c **** *  This function sets Operation Mode.
 905:.\Generated_Source\PSoC5/CAN_1.c **** *
 906:.\Generated_Source\PSoC5/CAN_1.c **** * Parameters:
 907:.\Generated_Source\PSoC5/CAN_1.c **** *  opMode: Operation Mode value.
 908:.\Generated_Source\PSoC5/CAN_1.c **** *   Define                              Description
 909:.\Generated_Source\PSoC5/CAN_1.c **** *    CAN_1_STOP_MODE          The CAN controller is in the Stop mode
 910:.\Generated_Source\PSoC5/CAN_1.c **** *    CAN_1_ACTIVE_RUN_MODE    The CAN controller is in the Active
 911:.\Generated_Source\PSoC5/CAN_1.c **** *                                        mode
 912:.\Generated_Source\PSoC5/CAN_1.c **** *    CAN_1_LISTEN_ONLY_MODE   The CAN controller is in the Listen
 913:.\Generated_Source\PSoC5/CAN_1.c **** *                                        Only mode: The output is held at the
 914:.\Generated_Source\PSoC5/CAN_1.c **** *                                        'R' level.
 915:.\Generated_Source\PSoC5/CAN_1.c **** *    CAN_1_INTERNAL_LOOP_BACK The CAN controller is in the Internal
 916:.\Generated_Source\PSoC5/CAN_1.c **** *                                        Loopback mode. This mode is used for
 917:.\Generated_Source\PSoC5/CAN_1.c **** *                                        the testing purpose and the transmitted
 918:.\Generated_Source\PSoC5/CAN_1.c **** *                                        transactions are internally routed
 919:.\Generated_Source\PSoC5/CAN_1.c **** *                                        back to the receiver logic and
 920:.\Generated_Source\PSoC5/CAN_1.c **** *                                        processed by the controller in this
 921:.\Generated_Source\PSoC5/CAN_1.c **** *                                        mode. Not available for PSoC3/5.
 922:.\Generated_Source\PSoC5/CAN_1.c **** *    CAN_1_EXTERNAL_LOOP_BACK This mode is used for the testing
 923:.\Generated_Source\PSoC5/CAN_1.c **** *                                        purpose by connecting Tx and Rx lines
 924:.\Generated_Source\PSoC5/CAN_1.c **** *                                        externally. The transmitted messages
 925:.\Generated_Source\PSoC5/CAN_1.c **** *                                        are received back and processed by the
 926:.\Generated_Source\PSoC5/CAN_1.c **** *                                        CAN controller in this mode.
 927:.\Generated_Source\PSoC5/CAN_1.c **** *                                        Not available for PSoC3/5.
 928:.\Generated_Source\PSoC5/CAN_1.c **** * Return:
 929:.\Generated_Source\PSoC5/CAN_1.c **** *  The indication whether the register is written and verified.
 930:.\Generated_Source\PSoC5/CAN_1.c **** *   Define                             Description
 931:.\Generated_Source\PSoC5/CAN_1.c **** *    CYRET_SUCCESS                      The function passed successfully
 932:.\Generated_Source\PSoC5/CAN_1.c **** *    CAN_1_FAIL              The function failed
 933:.\Generated_Source\PSoC5/CAN_1.c **** *
 934:.\Generated_Source\PSoC5/CAN_1.c **** * Side Effects:
 935:.\Generated_Source\PSoC5/CAN_1.c **** *  For PSoC 4 device family the function re-initializes the CAN registers.
ARM GAS  C:\Users\Patrick\AppData\Local\Temp\cc3Vmx0B.s 			page 18


 936:.\Generated_Source\PSoC5/CAN_1.c **** *
 937:.\Generated_Source\PSoC5/CAN_1.c **** *******************************************************************************/
 938:.\Generated_Source\PSoC5/CAN_1.c **** uint8 CAN_1_SetOpMode(uint8 opMode) 
 939:.\Generated_Source\PSoC5/CAN_1.c **** {
 940:.\Generated_Source\PSoC5/CAN_1.c ****     #if (CY_PSOC3 || CY_PSOC5)
 941:.\Generated_Source\PSoC5/CAN_1.c ****         uint32 timeout;
 942:.\Generated_Source\PSoC5/CAN_1.c ****     #endif /* CY_PSOC3 || CY_PSOC5 */
 943:.\Generated_Source\PSoC5/CAN_1.c ****     uint8 result = CAN_1_FAIL;
 944:.\Generated_Source\PSoC5/CAN_1.c ****     uint8 runState = CAN_1_STOP_MODE;
 945:.\Generated_Source\PSoC5/CAN_1.c **** 
 946:.\Generated_Source\PSoC5/CAN_1.c ****     #if (CY_PSOC3 || CY_PSOC5)
 947:.\Generated_Source\PSoC5/CAN_1.c ****         if (((CAN_1_CMD_REG.byte[0u] & CAN_1_ACTIVE_RUN_MODE) != 0u) ||
 948:.\Generated_Source\PSoC5/CAN_1.c ****             (opMode == CAN_1_ACTIVE_RUN_MODE))
 949:.\Generated_Source\PSoC5/CAN_1.c ****         {
 950:.\Generated_Source\PSoC5/CAN_1.c ****             runState = CAN_1_ACTIVE_RUN_MODE;
 951:.\Generated_Source\PSoC5/CAN_1.c ****         }
 952:.\Generated_Source\PSoC5/CAN_1.c **** 
 953:.\Generated_Source\PSoC5/CAN_1.c ****         /* Set CAN to the Stop Mode */
 954:.\Generated_Source\PSoC5/CAN_1.c ****         CAN_1_CMD_REG.byte[0u] = CAN_1_STOP_MODE;
 955:.\Generated_Source\PSoC5/CAN_1.c **** 
 956:.\Generated_Source\PSoC5/CAN_1.c ****         /* Timeout for CAN state machine to switch mode to Stop */
 957:.\Generated_Source\PSoC5/CAN_1.c ****         for (timeout = CAN_1_MODE_STATE_STOP_TIMEOUT;
 958:.\Generated_Source\PSoC5/CAN_1.c ****             (timeout != 0u) && ((CAN_1_CMD_REG.byte[0u] & CAN_1_ACTIVE_RUN_MODE) != 0u);
 959:.\Generated_Source\PSoC5/CAN_1.c ****              timeout--)
 960:.\Generated_Source\PSoC5/CAN_1.c ****         {
 961:.\Generated_Source\PSoC5/CAN_1.c ****         }
 962:.\Generated_Source\PSoC5/CAN_1.c **** 
 963:.\Generated_Source\PSoC5/CAN_1.c ****         if (timeout != 0u)
 964:.\Generated_Source\PSoC5/CAN_1.c ****         {
 965:.\Generated_Source\PSoC5/CAN_1.c ****             result = CYRET_SUCCESS;
 966:.\Generated_Source\PSoC5/CAN_1.c ****         }
 967:.\Generated_Source\PSoC5/CAN_1.c **** 
 968:.\Generated_Source\PSoC5/CAN_1.c ****         if ((result == CYRET_SUCCESS) && (opMode != CAN_1_STOP_MODE))
 969:.\Generated_Source\PSoC5/CAN_1.c ****         {
 970:.\Generated_Source\PSoC5/CAN_1.c ****             if (opMode == CAN_1_LISTEN_ONLY_MODE)
 971:.\Generated_Source\PSoC5/CAN_1.c ****             {
 972:.\Generated_Source\PSoC5/CAN_1.c ****                 CAN_1_CMD_REG.byte[0u] = CAN_1_LISTEN_ONLY_MODE;
 973:.\Generated_Source\PSoC5/CAN_1.c ****             }
 974:.\Generated_Source\PSoC5/CAN_1.c **** 
 975:.\Generated_Source\PSoC5/CAN_1.c ****             if (runState == CAN_1_ACTIVE_RUN_MODE)
 976:.\Generated_Source\PSoC5/CAN_1.c ****             {
 977:.\Generated_Source\PSoC5/CAN_1.c ****                 CAN_1_CMD_REG.byte[0u] |= CAN_1_ACTIVE_RUN_MODE;
 978:.\Generated_Source\PSoC5/CAN_1.c **** 
 979:.\Generated_Source\PSoC5/CAN_1.c ****                 /* Timeout for CAN state machine to switch mode to Run */
 980:.\Generated_Source\PSoC5/CAN_1.c ****                 for (timeout = CAN_1_MODE_STATE_RUN_TIMEOUT;
 981:.\Generated_Source\PSoC5/CAN_1.c ****                     (timeout != 0u) && ((CAN_1_CMD_REG.byte[0u] & CAN_1_MODE_MASK) == 0u);
 982:.\Generated_Source\PSoC5/CAN_1.c ****                      timeout--)
 983:.\Generated_Source\PSoC5/CAN_1.c ****                 {
 984:.\Generated_Source\PSoC5/CAN_1.c ****                 }
 985:.\Generated_Source\PSoC5/CAN_1.c **** 
 986:.\Generated_Source\PSoC5/CAN_1.c ****                 if (timeout == 0u)
 987:.\Generated_Source\PSoC5/CAN_1.c ****                 {
 988:.\Generated_Source\PSoC5/CAN_1.c ****                     result = CAN_1_FAIL;
 989:.\Generated_Source\PSoC5/CAN_1.c ****                 }
 990:.\Generated_Source\PSoC5/CAN_1.c ****             }
 991:.\Generated_Source\PSoC5/CAN_1.c ****         }
 992:.\Generated_Source\PSoC5/CAN_1.c ****     #else  /* CY_PSOC4 */
ARM GAS  C:\Users\Patrick\AppData\Local\Temp\cc3Vmx0B.s 			page 19


 993:.\Generated_Source\PSoC5/CAN_1.c ****         if (((CAN_1_CMD_REG & CAN_1_MODE_MASK) != 0u) ||
 994:.\Generated_Source\PSoC5/CAN_1.c ****             (opMode == CAN_1_ACTIVE_RUN_MODE))
 995:.\Generated_Source\PSoC5/CAN_1.c ****         {
 996:.\Generated_Source\PSoC5/CAN_1.c ****             runState = CAN_1_ACTIVE_RUN_MODE;
 997:.\Generated_Source\PSoC5/CAN_1.c ****         }
 998:.\Generated_Source\PSoC5/CAN_1.c **** 
 999:.\Generated_Source\PSoC5/CAN_1.c ****         /* Sets CAN Component into the Stop mode */
1000:.\Generated_Source\PSoC5/CAN_1.c ****         if (CAN_1_Stop() == CYRET_SUCCESS)
1001:.\Generated_Source\PSoC5/CAN_1.c ****         {
1002:.\Generated_Source\PSoC5/CAN_1.c ****             /* Disable CAN IP Block to reset configuration before sets Operation Mode */
1003:.\Generated_Source\PSoC5/CAN_1.c ****             CAN_1_CNTL_REG = (uint32) (~CAN_1_IP_ENABLE);
1004:.\Generated_Source\PSoC5/CAN_1.c **** 
1005:.\Generated_Source\PSoC5/CAN_1.c ****             /* Enable CAN IP Block */
1006:.\Generated_Source\PSoC5/CAN_1.c ****             CAN_1_CNTL_REG = CAN_1_IP_ENABLE;
1007:.\Generated_Source\PSoC5/CAN_1.c **** 
1008:.\Generated_Source\PSoC5/CAN_1.c ****             result = CAN_1_Init();
1009:.\Generated_Source\PSoC5/CAN_1.c **** 
1010:.\Generated_Source\PSoC5/CAN_1.c ****             if ((result == CYRET_SUCCESS) && (opMode != CAN_1_STOP_MODE))
1011:.\Generated_Source\PSoC5/CAN_1.c ****             {
1012:.\Generated_Source\PSoC5/CAN_1.c ****                 if (opMode != CAN_1_ACTIVE_RUN_MODE)
1013:.\Generated_Source\PSoC5/CAN_1.c ****                 {
1014:.\Generated_Source\PSoC5/CAN_1.c ****                     /* Set CAN Operation Mode */
1015:.\Generated_Source\PSoC5/CAN_1.c ****                     CAN_1_CMD_REG |= opMode;
1016:.\Generated_Source\PSoC5/CAN_1.c ****                 }
1017:.\Generated_Source\PSoC5/CAN_1.c **** 
1018:.\Generated_Source\PSoC5/CAN_1.c ****                 if (runState == CAN_1_ACTIVE_RUN_MODE)
1019:.\Generated_Source\PSoC5/CAN_1.c ****                 {
1020:.\Generated_Source\PSoC5/CAN_1.c ****                     /* Enable component's operation */
1021:.\Generated_Source\PSoC5/CAN_1.c ****                     result = CAN_1_Enable();
1022:.\Generated_Source\PSoC5/CAN_1.c ****                 }
1023:.\Generated_Source\PSoC5/CAN_1.c ****             }
1024:.\Generated_Source\PSoC5/CAN_1.c ****         }
1025:.\Generated_Source\PSoC5/CAN_1.c ****     #endif /* CY_PSOC3 || CY_PSOC5 */
1026:.\Generated_Source\PSoC5/CAN_1.c **** 
1027:.\Generated_Source\PSoC5/CAN_1.c ****     return (result);
1028:.\Generated_Source\PSoC5/CAN_1.c **** }
1029:.\Generated_Source\PSoC5/CAN_1.c **** 
1030:.\Generated_Source\PSoC5/CAN_1.c **** 
1031:.\Generated_Source\PSoC5/CAN_1.c **** /*******************************************************************************
1032:.\Generated_Source\PSoC5/CAN_1.c **** * FUNCTION NAME:   CAN_1_RXRegisterInit
1033:.\Generated_Source\PSoC5/CAN_1.c **** ********************************************************************************
1034:.\Generated_Source\PSoC5/CAN_1.c **** *
1035:.\Generated_Source\PSoC5/CAN_1.c **** * Summary:
1036:.\Generated_Source\PSoC5/CAN_1.c **** *  This function writes only receive CAN registers.
1037:.\Generated_Source\PSoC5/CAN_1.c **** *
1038:.\Generated_Source\PSoC5/CAN_1.c **** * Parameters:
1039:.\Generated_Source\PSoC5/CAN_1.c **** *  regAddr: The pointer to a CAN receive register;
1040:.\Generated_Source\PSoC5/CAN_1.c **** *  config:  The value that will be written in the register.
1041:.\Generated_Source\PSoC5/CAN_1.c **** *
1042:.\Generated_Source\PSoC5/CAN_1.c **** * Return:
1043:.\Generated_Source\PSoC5/CAN_1.c **** *  The indication whether the register is written and verified.
1044:.\Generated_Source\PSoC5/CAN_1.c **** *   Define                             Description
1045:.\Generated_Source\PSoC5/CAN_1.c **** *    CYRET_SUCCESS                      The function passed successfully
1046:.\Generated_Source\PSoC5/CAN_1.c **** *    CAN_1_FAIL              The function failed
1047:.\Generated_Source\PSoC5/CAN_1.c **** *    CAN_1_OUT_OF_RANGE      The function parameter is out of range
1048:.\Generated_Source\PSoC5/CAN_1.c **** *
1049:.\Generated_Source\PSoC5/CAN_1.c **** *******************************************************************************/
ARM GAS  C:\Users\Patrick\AppData\Local\Temp\cc3Vmx0B.s 			page 20


1050:.\Generated_Source\PSoC5/CAN_1.c **** uint8 CAN_1_RXRegisterInit(reg32 *regAddr, uint32 config)
1051:.\Generated_Source\PSoC5/CAN_1.c ****                                       
1052:.\Generated_Source\PSoC5/CAN_1.c **** {
1053:.\Generated_Source\PSoC5/CAN_1.c ****     uint8 result = CAN_1_OUT_OF_RANGE;
1054:.\Generated_Source\PSoC5/CAN_1.c **** 
1055:.\Generated_Source\PSoC5/CAN_1.c ****     if ((((uint32) regAddr & CAN_1_REG_ADDR_MASK) >=
1056:.\Generated_Source\PSoC5/CAN_1.c ****         ((uint32) CAN_1_RX_FIRST_REGISTER_PTR & CAN_1_REG_ADDR_MASK)) &&
1057:.\Generated_Source\PSoC5/CAN_1.c ****         ((((uint32) regAddr & CAN_1_REG_ADDR_MASK)) <=
1058:.\Generated_Source\PSoC5/CAN_1.c ****         ((uint32) CAN_1_RX_LAST_REGISTER_PTR & CAN_1_REG_ADDR_MASK)))
1059:.\Generated_Source\PSoC5/CAN_1.c ****     {
1060:.\Generated_Source\PSoC5/CAN_1.c ****         result = CAN_1_FAIL;
1061:.\Generated_Source\PSoC5/CAN_1.c **** 
1062:.\Generated_Source\PSoC5/CAN_1.c ****         if ((((uint32) regAddr & CAN_1_REG_ADDR_MASK) % CAN_1_RX_CMD_REG_WIDTH) == 0u)
1063:.\Generated_Source\PSoC5/CAN_1.c ****         {
1064:.\Generated_Source\PSoC5/CAN_1.c ****             config |= CAN_1_RX_WPN_SET;
1065:.\Generated_Source\PSoC5/CAN_1.c **** 
1066:.\Generated_Source\PSoC5/CAN_1.c ****     /* Disable isr */
1067:.\Generated_Source\PSoC5/CAN_1.c ****     CyIntDisable(CAN_1_ISR_NUMBER);
1068:.\Generated_Source\PSoC5/CAN_1.c **** 
1069:.\Generated_Source\PSoC5/CAN_1.c ****             /* Write defined RX CMD registers */
1070:.\Generated_Source\PSoC5/CAN_1.c ****             CY_SET_REG32(regAddr, config);
1071:.\Generated_Source\PSoC5/CAN_1.c **** 
1072:.\Generated_Source\PSoC5/CAN_1.c ****     /* Enable isr */
1073:.\Generated_Source\PSoC5/CAN_1.c ****     CyIntEnable(CAN_1_ISR_NUMBER);
1074:.\Generated_Source\PSoC5/CAN_1.c **** 
1075:.\Generated_Source\PSoC5/CAN_1.c ****             /* Verify register */
1076:.\Generated_Source\PSoC5/CAN_1.c ****             if ((CY_GET_REG32(regAddr) & CAN_1_RX_READ_BACK_MASK) ==
1077:.\Generated_Source\PSoC5/CAN_1.c ****                 (config & CAN_1_RX_READ_BACK_MASK))
1078:.\Generated_Source\PSoC5/CAN_1.c ****             {
1079:.\Generated_Source\PSoC5/CAN_1.c ****                 result = CYRET_SUCCESS;
1080:.\Generated_Source\PSoC5/CAN_1.c ****             }
1081:.\Generated_Source\PSoC5/CAN_1.c ****         }
1082:.\Generated_Source\PSoC5/CAN_1.c ****         /* All registers except RX CMD*/
1083:.\Generated_Source\PSoC5/CAN_1.c ****         else
1084:.\Generated_Source\PSoC5/CAN_1.c ****         {
1085:.\Generated_Source\PSoC5/CAN_1.c ****     /* Disable isr */
1086:.\Generated_Source\PSoC5/CAN_1.c ****     CyIntDisable(CAN_1_ISR_NUMBER);
1087:.\Generated_Source\PSoC5/CAN_1.c **** 
1088:.\Generated_Source\PSoC5/CAN_1.c ****             /* Write defined CAN receive register */
1089:.\Generated_Source\PSoC5/CAN_1.c ****             CY_SET_REG32(regAddr, config);
1090:.\Generated_Source\PSoC5/CAN_1.c **** 
1091:.\Generated_Source\PSoC5/CAN_1.c ****     /* Enable isr */
1092:.\Generated_Source\PSoC5/CAN_1.c ****     CyIntEnable(CAN_1_ISR_NUMBER);
1093:.\Generated_Source\PSoC5/CAN_1.c **** 
1094:.\Generated_Source\PSoC5/CAN_1.c ****             /* Verify register */
1095:.\Generated_Source\PSoC5/CAN_1.c ****             if (CY_GET_REG32(regAddr) == config)
1096:.\Generated_Source\PSoC5/CAN_1.c ****             {
1097:.\Generated_Source\PSoC5/CAN_1.c ****                 result = CYRET_SUCCESS;
1098:.\Generated_Source\PSoC5/CAN_1.c ****             }
1099:.\Generated_Source\PSoC5/CAN_1.c ****         }
1100:.\Generated_Source\PSoC5/CAN_1.c ****     }
1101:.\Generated_Source\PSoC5/CAN_1.c **** 
1102:.\Generated_Source\PSoC5/CAN_1.c ****     return (result);
1103:.\Generated_Source\PSoC5/CAN_1.c **** }
1104:.\Generated_Source\PSoC5/CAN_1.c **** 
1105:.\Generated_Source\PSoC5/CAN_1.c **** 
1106:.\Generated_Source\PSoC5/CAN_1.c **** /*******************************************************************************
ARM GAS  C:\Users\Patrick\AppData\Local\Temp\cc3Vmx0B.s 			page 21


1107:.\Generated_Source\PSoC5/CAN_1.c **** * FUNCTION NAME:   CAN_1_SetIrqMask
1108:.\Generated_Source\PSoC5/CAN_1.c **** ********************************************************************************
1109:.\Generated_Source\PSoC5/CAN_1.c **** *
1110:.\Generated_Source\PSoC5/CAN_1.c **** * Summary:
1111:.\Generated_Source\PSoC5/CAN_1.c **** *  This function sets to enable/disable particular interrupt sources. Interrupt
1112:.\Generated_Source\PSoC5/CAN_1.c **** *  Mask directly write to the CAN Interrupt Enable register. A particular
1113:.\Generated_Source\PSoC5/CAN_1.c **** *  interrupt source is enabled by setting its respective flag to 1.
1114:.\Generated_Source\PSoC5/CAN_1.c **** *
1115:.\Generated_Source\PSoC5/CAN_1.c **** * Parameters:
1116:.\Generated_Source\PSoC5/CAN_1.c **** *  mask: Interrupt enable/disable request. 1 bit per interrupt source.
1117:.\Generated_Source\PSoC5/CAN_1.c **** *   Define                                    Description
1118:.\Generated_Source\PSoC5/CAN_1.c **** *    CAN_1_GLOBAL_INT_ENABLE        Global Interrupt Enable Flag
1119:.\Generated_Source\PSoC5/CAN_1.c **** *    CAN_1_ARBITRATION_LOST_ENABLE  Arbitration Loss Interrupt Enable
1120:.\Generated_Source\PSoC5/CAN_1.c **** *    CAN_1_OVERLOAD_ERROR_ENABLE    Overload Interrupt Enable
1121:.\Generated_Source\PSoC5/CAN_1.c **** *    CAN_1_BIT_ERROR_ENABLE         Bit Error Interrupt Enable
1122:.\Generated_Source\PSoC5/CAN_1.c **** *    CAN_1_STUFF_ERROR_ENABLE       Stuff Error Interrupt Enable
1123:.\Generated_Source\PSoC5/CAN_1.c **** *    CAN_1_ACK_ERROR_ENABLE         Ack Error Interrupt Enable
1124:.\Generated_Source\PSoC5/CAN_1.c **** *    CAN_1_FORM_ERROR_ENABLE        Form Error Interrupt Enable
1125:.\Generated_Source\PSoC5/CAN_1.c **** *    CAN_1_CRC_ERROR_ENABLE         CRC Error Interrupt Enable
1126:.\Generated_Source\PSoC5/CAN_1.c **** *    CAN_1_BUS_OFF_ENABLE           Bus-Off State Interrupt Enable
1127:.\Generated_Source\PSoC5/CAN_1.c **** *    CAN_1_RX_MSG_LOST_ENABLE       Rx Msg Loss Interrupt Enable
1128:.\Generated_Source\PSoC5/CAN_1.c **** *    CAN_1_TX_MESSAGE_ENABLE        Tx Msg Sent Interrupt Enable
1129:.\Generated_Source\PSoC5/CAN_1.c **** *    CAN_1_RX_MESSAGE_ENABLE        Msg Received Interrupt Enable
1130:.\Generated_Source\PSoC5/CAN_1.c **** *    CAN_1_RTR_MESSAGE_ENABLE       RTR Auto-reply Interrupt Enable
1131:.\Generated_Source\PSoC5/CAN_1.c **** *    CAN_1_STUCK_AT_ZERO_ENABLE     Stuck at dominant error Interrupt
1132:.\Generated_Source\PSoC5/CAN_1.c **** *                                              Enable
1133:.\Generated_Source\PSoC5/CAN_1.c **** *    CAN_1_SST_FAILURE_ENABLE       SST failure Interrupt Enable
1134:.\Generated_Source\PSoC5/CAN_1.c **** *
1135:.\Generated_Source\PSoC5/CAN_1.c **** * Return:
1136:.\Generated_Source\PSoC5/CAN_1.c **** *  The indication whether the register is written and verified.
1137:.\Generated_Source\PSoC5/CAN_1.c **** *   Define                             Description
1138:.\Generated_Source\PSoC5/CAN_1.c **** *    CYRET_SUCCESS                      The function passed successfully
1139:.\Generated_Source\PSoC5/CAN_1.c **** *    CAN_1_FAIL              The function failed
1140:.\Generated_Source\PSoC5/CAN_1.c **** *
1141:.\Generated_Source\PSoC5/CAN_1.c **** *******************************************************************************/
1142:.\Generated_Source\PSoC5/CAN_1.c **** uint8 CAN_1_SetIrqMask(uint16 mask) 
1143:.\Generated_Source\PSoC5/CAN_1.c **** {
1144:.\Generated_Source\PSoC5/CAN_1.c ****     uint8 result = CAN_1_FAIL;
1145:.\Generated_Source\PSoC5/CAN_1.c **** 
1146:.\Generated_Source\PSoC5/CAN_1.c ****     #if (CY_PSOC3 || CY_PSOC5)
1147:.\Generated_Source\PSoC5/CAN_1.c ****         /* Write byte 0 and 1 of CAN_1_INT_EN_REG register */
1148:.\Generated_Source\PSoC5/CAN_1.c ****         CY_SET_REG16((reg16 *) (&CAN_1_INT_EN_REG), mask);
1149:.\Generated_Source\PSoC5/CAN_1.c **** 
1150:.\Generated_Source\PSoC5/CAN_1.c ****         /* Verify CAN_1_INT_EN_REG register */
1151:.\Generated_Source\PSoC5/CAN_1.c ****         if (CY_GET_REG16((reg16 *) (&CAN_1_INT_EN_REG)) == mask)
1152:.\Generated_Source\PSoC5/CAN_1.c ****         {
1153:.\Generated_Source\PSoC5/CAN_1.c ****             result = CYRET_SUCCESS;
1154:.\Generated_Source\PSoC5/CAN_1.c ****         }
1155:.\Generated_Source\PSoC5/CAN_1.c ****     #else  /* CY_PSOC4 */
1156:.\Generated_Source\PSoC5/CAN_1.c ****         /* Write byte 0 and 1 of CAN_1_INT_EN_REG register */
1157:.\Generated_Source\PSoC5/CAN_1.c ****         CAN_1_INT_EN_REG = mask;
1158:.\Generated_Source\PSoC5/CAN_1.c **** 
1159:.\Generated_Source\PSoC5/CAN_1.c ****         /* Verify CAN_1_INT_EN_REG register */
1160:.\Generated_Source\PSoC5/CAN_1.c ****         if ((CAN_1_INT_EN_REG & CAN_1_REG_ADDR_MASK) == mask)
1161:.\Generated_Source\PSoC5/CAN_1.c ****         {
1162:.\Generated_Source\PSoC5/CAN_1.c ****             result = CYRET_SUCCESS;
1163:.\Generated_Source\PSoC5/CAN_1.c ****         }
ARM GAS  C:\Users\Patrick\AppData\Local\Temp\cc3Vmx0B.s 			page 22


1164:.\Generated_Source\PSoC5/CAN_1.c ****     #endif /* CY_PSOC3 || CY_PSOC5 */
1165:.\Generated_Source\PSoC5/CAN_1.c **** 
1166:.\Generated_Source\PSoC5/CAN_1.c ****     return (result);
1167:.\Generated_Source\PSoC5/CAN_1.c **** }
1168:.\Generated_Source\PSoC5/CAN_1.c **** 
1169:.\Generated_Source\PSoC5/CAN_1.c **** 
1170:.\Generated_Source\PSoC5/CAN_1.c **** /*******************************************************************************
1171:.\Generated_Source\PSoC5/CAN_1.c **** * FUNCTION NAME:   CAN_1_GetTXErrorFlag
1172:.\Generated_Source\PSoC5/CAN_1.c **** ********************************************************************************
1173:.\Generated_Source\PSoC5/CAN_1.c **** *
1174:.\Generated_Source\PSoC5/CAN_1.c **** * Summary:
1175:.\Generated_Source\PSoC5/CAN_1.c **** *  This function returns the bit that indicates if the number of TX errors
1176:.\Generated_Source\PSoC5/CAN_1.c **** *  exceeds 0x60.
1177:.\Generated_Source\PSoC5/CAN_1.c **** *
1178:.\Generated_Source\PSoC5/CAN_1.c **** * Parameters:
1179:.\Generated_Source\PSoC5/CAN_1.c **** *  None.
1180:.\Generated_Source\PSoC5/CAN_1.c **** *
1181:.\Generated_Source\PSoC5/CAN_1.c **** * Return:
1182:.\Generated_Source\PSoC5/CAN_1.c **** *  The indication whether the number of TX errors exceeds 0x60.
1183:.\Generated_Source\PSoC5/CAN_1.c **** *
1184:.\Generated_Source\PSoC5/CAN_1.c **** *******************************************************************************/
1185:.\Generated_Source\PSoC5/CAN_1.c **** uint8 CAN_1_GetTXErrorFlag(void) 
1186:.\Generated_Source\PSoC5/CAN_1.c **** {
1187:.\Generated_Source\PSoC5/CAN_1.c ****     #if (CY_PSOC3 || CY_PSOC5)
1188:.\Generated_Source\PSoC5/CAN_1.c ****         /* Get state of transmit error flag */
1189:.\Generated_Source\PSoC5/CAN_1.c ****         return (((CAN_1_ERR_SR_REG.byte[2u] & CAN_1_TX_ERROR_FLAG_MASK) ==
1190:.\Generated_Source\PSoC5/CAN_1.c ****                   CAN_1_TX_ERROR_FLAG_MASK) ? 1u : 0u);
1191:.\Generated_Source\PSoC5/CAN_1.c ****     #else  /* CY_PSOC4 */
1192:.\Generated_Source\PSoC5/CAN_1.c ****         /* Get state of transmit error flag */
1193:.\Generated_Source\PSoC5/CAN_1.c ****         return (((CAN_1_ERR_SR_REG & CAN_1_TX_ERROR_FLAG_MASK) ==
1194:.\Generated_Source\PSoC5/CAN_1.c ****                   CAN_1_TX_ERROR_FLAG_MASK) ? 1u : 0u);
1195:.\Generated_Source\PSoC5/CAN_1.c ****     #endif /* CY_PSOC3 || CY_PSOC5 */
1196:.\Generated_Source\PSoC5/CAN_1.c **** 
1197:.\Generated_Source\PSoC5/CAN_1.c **** }
1198:.\Generated_Source\PSoC5/CAN_1.c **** 
1199:.\Generated_Source\PSoC5/CAN_1.c **** 
1200:.\Generated_Source\PSoC5/CAN_1.c **** /*******************************************************************************
1201:.\Generated_Source\PSoC5/CAN_1.c **** * FUNCTION NAME:   CAN_1_GetRXErrorFlag
1202:.\Generated_Source\PSoC5/CAN_1.c **** ********************************************************************************
1203:.\Generated_Source\PSoC5/CAN_1.c **** *
1204:.\Generated_Source\PSoC5/CAN_1.c **** * Summary:
1205:.\Generated_Source\PSoC5/CAN_1.c **** *  This function returns the bit that indicates if the number of RX errors
1206:.\Generated_Source\PSoC5/CAN_1.c **** *  exceeds 0x60.
1207:.\Generated_Source\PSoC5/CAN_1.c **** *
1208:.\Generated_Source\PSoC5/CAN_1.c **** * Parameters:
1209:.\Generated_Source\PSoC5/CAN_1.c **** *  None.
1210:.\Generated_Source\PSoC5/CAN_1.c **** *
1211:.\Generated_Source\PSoC5/CAN_1.c **** * Return:
1212:.\Generated_Source\PSoC5/CAN_1.c **** *  The indication whether the number of TX errors exceeds 0x60.
1213:.\Generated_Source\PSoC5/CAN_1.c **** *
1214:.\Generated_Source\PSoC5/CAN_1.c **** *******************************************************************************/
1215:.\Generated_Source\PSoC5/CAN_1.c **** uint8 CAN_1_GetRXErrorFlag(void) 
1216:.\Generated_Source\PSoC5/CAN_1.c **** {
1217:.\Generated_Source\PSoC5/CAN_1.c ****     #if (CY_PSOC3 || CY_PSOC5)
1218:.\Generated_Source\PSoC5/CAN_1.c ****         /* Get state of receive error flag */
1219:.\Generated_Source\PSoC5/CAN_1.c ****         return (((CAN_1_ERR_SR_REG.byte[2u] & CAN_1_RX_ERROR_FLAG_MASK) ==
1220:.\Generated_Source\PSoC5/CAN_1.c ****                   CAN_1_RX_ERROR_FLAG_MASK) ? 1u : 0u);
ARM GAS  C:\Users\Patrick\AppData\Local\Temp\cc3Vmx0B.s 			page 23


1221:.\Generated_Source\PSoC5/CAN_1.c ****     #else  /* CY_PSOC4 */
1222:.\Generated_Source\PSoC5/CAN_1.c ****         /* Get state of receive error flag */
1223:.\Generated_Source\PSoC5/CAN_1.c ****         return (((CAN_1_ERR_SR_REG & CAN_1_RX_ERROR_FLAG_MASK) ==
1224:.\Generated_Source\PSoC5/CAN_1.c ****                   CAN_1_RX_ERROR_FLAG_MASK) ? 1u : 0u);
1225:.\Generated_Source\PSoC5/CAN_1.c ****     #endif /* CY_PSOC3 || CY_PSOC5 */
1226:.\Generated_Source\PSoC5/CAN_1.c **** 
1227:.\Generated_Source\PSoC5/CAN_1.c **** }
1228:.\Generated_Source\PSoC5/CAN_1.c **** 
1229:.\Generated_Source\PSoC5/CAN_1.c **** 
1230:.\Generated_Source\PSoC5/CAN_1.c **** /*******************************************************************************
1231:.\Generated_Source\PSoC5/CAN_1.c **** * FUNCTION NAME:   CAN_1_GetTXErrorCount
1232:.\Generated_Source\PSoC5/CAN_1.c **** ********************************************************************************
1233:.\Generated_Source\PSoC5/CAN_1.c **** *
1234:.\Generated_Source\PSoC5/CAN_1.c **** * Summary:
1235:.\Generated_Source\PSoC5/CAN_1.c **** *  This function returns the number of Transmit Errors.
1236:.\Generated_Source\PSoC5/CAN_1.c **** *
1237:.\Generated_Source\PSoC5/CAN_1.c **** * Parameters:
1238:.\Generated_Source\PSoC5/CAN_1.c **** *  None.
1239:.\Generated_Source\PSoC5/CAN_1.c **** *
1240:.\Generated_Source\PSoC5/CAN_1.c **** * Return:
1241:.\Generated_Source\PSoC5/CAN_1.c **** *  The number of Transmit Errors.
1242:.\Generated_Source\PSoC5/CAN_1.c **** *
1243:.\Generated_Source\PSoC5/CAN_1.c **** *******************************************************************************/
1244:.\Generated_Source\PSoC5/CAN_1.c **** uint8 CAN_1_GetTXErrorCount(void) 
1245:.\Generated_Source\PSoC5/CAN_1.c **** {
1246:.\Generated_Source\PSoC5/CAN_1.c ****     #if (CY_PSOC3 || CY_PSOC5)
1247:.\Generated_Source\PSoC5/CAN_1.c ****         /* Get state of transmit error count */
1248:.\Generated_Source\PSoC5/CAN_1.c ****         return (CAN_1_ERR_SR_REG.byte[0u]);    /* bits 7-0 */
1249:.\Generated_Source\PSoC5/CAN_1.c ****     #else  /* CY_PSOC4 */
1250:.\Generated_Source\PSoC5/CAN_1.c ****         /* Get state of transmit error count */
1251:.\Generated_Source\PSoC5/CAN_1.c ****         return ((uint8) CAN_1_ERR_SR_REG);    /* bits 7-0 */
1252:.\Generated_Source\PSoC5/CAN_1.c ****     #endif /* CY_PSOC3 || CY_PSOC5 */
1253:.\Generated_Source\PSoC5/CAN_1.c **** }
1254:.\Generated_Source\PSoC5/CAN_1.c **** 
1255:.\Generated_Source\PSoC5/CAN_1.c **** 
1256:.\Generated_Source\PSoC5/CAN_1.c **** /*******************************************************************************
1257:.\Generated_Source\PSoC5/CAN_1.c **** * FUNCTION NAME:   CAN_1_GetRXErrorCount
1258:.\Generated_Source\PSoC5/CAN_1.c **** ********************************************************************************
1259:.\Generated_Source\PSoC5/CAN_1.c **** *
1260:.\Generated_Source\PSoC5/CAN_1.c **** * Summary:
1261:.\Generated_Source\PSoC5/CAN_1.c **** *  This function returns the number of Receive Errors.
1262:.\Generated_Source\PSoC5/CAN_1.c **** *
1263:.\Generated_Source\PSoC5/CAN_1.c **** * Parameters:
1264:.\Generated_Source\PSoC5/CAN_1.c **** *  None.
1265:.\Generated_Source\PSoC5/CAN_1.c **** *
1266:.\Generated_Source\PSoC5/CAN_1.c **** * Return:
1267:.\Generated_Source\PSoC5/CAN_1.c **** *  The number of Receive Errors.
1268:.\Generated_Source\PSoC5/CAN_1.c **** *
1269:.\Generated_Source\PSoC5/CAN_1.c **** *******************************************************************************/
1270:.\Generated_Source\PSoC5/CAN_1.c **** uint8 CAN_1_GetRXErrorCount(void) 
1271:.\Generated_Source\PSoC5/CAN_1.c **** {
1272:.\Generated_Source\PSoC5/CAN_1.c ****     #if (CY_PSOC3 || CY_PSOC5)
1273:.\Generated_Source\PSoC5/CAN_1.c ****         /* Get state of receive error count */
1274:.\Generated_Source\PSoC5/CAN_1.c ****         return (CAN_1_ERR_SR_REG.byte[1u]);    /* bits 15-8 */
1275:.\Generated_Source\PSoC5/CAN_1.c ****     #else  /* CY_PSOC4 */
1276:.\Generated_Source\PSoC5/CAN_1.c ****         /* Get state of receive error count (bits 15-8) */
1277:.\Generated_Source\PSoC5/CAN_1.c ****         return ((uint8) (CAN_1_ERR_SR_REG >> CAN_1_ONE_BYTE_OFFSET));
ARM GAS  C:\Users\Patrick\AppData\Local\Temp\cc3Vmx0B.s 			page 24


1278:.\Generated_Source\PSoC5/CAN_1.c ****     #endif /* CY_PSOC3 || CY_PSOC5 */
1279:.\Generated_Source\PSoC5/CAN_1.c **** 
1280:.\Generated_Source\PSoC5/CAN_1.c **** }
1281:.\Generated_Source\PSoC5/CAN_1.c **** 
1282:.\Generated_Source\PSoC5/CAN_1.c **** 
1283:.\Generated_Source\PSoC5/CAN_1.c **** /*******************************************************************************
1284:.\Generated_Source\PSoC5/CAN_1.c **** * FUNCTION NAME:   CAN_1_GetErrorState
1285:.\Generated_Source\PSoC5/CAN_1.c **** ********************************************************************************
1286:.\Generated_Source\PSoC5/CAN_1.c **** *
1287:.\Generated_Source\PSoC5/CAN_1.c **** * Summary:
1288:.\Generated_Source\PSoC5/CAN_1.c **** *  This function returns the error status of CAN Component.
1289:.\Generated_Source\PSoC5/CAN_1.c **** *
1290:.\Generated_Source\PSoC5/CAN_1.c **** * Parameters:
1291:.\Generated_Source\PSoC5/CAN_1.c **** *  None.
1292:.\Generated_Source\PSoC5/CAN_1.c **** *
1293:.\Generated_Source\PSoC5/CAN_1.c **** * Return:
1294:.\Generated_Source\PSoC5/CAN_1.c **** *  The error status.
1295:.\Generated_Source\PSoC5/CAN_1.c **** *
1296:.\Generated_Source\PSoC5/CAN_1.c **** *******************************************************************************/
1297:.\Generated_Source\PSoC5/CAN_1.c **** uint8 CAN_1_GetErrorState(void) 
1298:.\Generated_Source\PSoC5/CAN_1.c **** {
1299:.\Generated_Source\PSoC5/CAN_1.c ****     #if (CY_PSOC3 || CY_PSOC5)
1300:.\Generated_Source\PSoC5/CAN_1.c ****         /* Get error state of receiver */
1301:.\Generated_Source\PSoC5/CAN_1.c ****         return (CAN_1_ERR_SR_REG.byte[2u] & CAN_1_ERROR_STATE_MASK);
1302:.\Generated_Source\PSoC5/CAN_1.c ****     #else  /* CY_PSOC4 */
1303:.\Generated_Source\PSoC5/CAN_1.c ****         /* Get error state of receiver */
1304:.\Generated_Source\PSoC5/CAN_1.c ****         return ((uint8) ((CAN_1_ERR_SR_REG >> CAN_1_TWO_BYTE_OFFSET) &
1305:.\Generated_Source\PSoC5/CAN_1.c ****                 CAN_1_ERROR_STATE_MASK));
1306:.\Generated_Source\PSoC5/CAN_1.c ****     #endif /* CY_PSOC3 || CY_PSOC5 */
1307:.\Generated_Source\PSoC5/CAN_1.c **** }
1308:.\Generated_Source\PSoC5/CAN_1.c **** 
1309:.\Generated_Source\PSoC5/CAN_1.c **** 
1310:.\Generated_Source\PSoC5/CAN_1.c **** /*******************************************************************************
1311:.\Generated_Source\PSoC5/CAN_1.c **** * FUNCTION NAME:   CAN_1_RxBufConfig
1312:.\Generated_Source\PSoC5/CAN_1.c **** ********************************************************************************
1313:.\Generated_Source\PSoC5/CAN_1.c **** *
1314:.\Generated_Source\PSoC5/CAN_1.c **** * Summary:
1315:.\Generated_Source\PSoC5/CAN_1.c **** *  This function configures all receive registers for a particular mailbox.
1316:.\Generated_Source\PSoC5/CAN_1.c **** *
1317:.\Generated_Source\PSoC5/CAN_1.c **** * Parameters:
1318:.\Generated_Source\PSoC5/CAN_1.c **** *  rxConfig: The pointer to a structure that contain all required values to
1319:.\Generated_Source\PSoC5/CAN_1.c **** *  configure all receive registers for a particular mailbox.
1320:.\Generated_Source\PSoC5/CAN_1.c **** *
1321:.\Generated_Source\PSoC5/CAN_1.c **** * Return:
1322:.\Generated_Source\PSoC5/CAN_1.c **** *  The indication if particular configuration has been accepted or rejected.
1323:.\Generated_Source\PSoC5/CAN_1.c **** *   Define                             Description
1324:.\Generated_Source\PSoC5/CAN_1.c **** *    CYRET_SUCCESS                      The function passed successfully
1325:.\Generated_Source\PSoC5/CAN_1.c **** *    CAN_1_FAIL              The function failed
1326:.\Generated_Source\PSoC5/CAN_1.c **** *
1327:.\Generated_Source\PSoC5/CAN_1.c **** *******************************************************************************/
1328:.\Generated_Source\PSoC5/CAN_1.c **** uint8 CAN_1_RxBufConfig(const CAN_1_RX_CFG *rxConfig)
1329:.\Generated_Source\PSoC5/CAN_1.c ****                                    
1330:.\Generated_Source\PSoC5/CAN_1.c **** {
1331:.\Generated_Source\PSoC5/CAN_1.c ****     uint8 result = CAN_1_FAIL;
1332:.\Generated_Source\PSoC5/CAN_1.c **** 
1333:.\Generated_Source\PSoC5/CAN_1.c ****     /* Write RX CMD Register */
1334:.\Generated_Source\PSoC5/CAN_1.c ****     CY_SET_REG32((reg32 *) (&CAN_1_RX[rxConfig->rxmailbox].rxcmd), (rxConfig->rxcmd |
ARM GAS  C:\Users\Patrick\AppData\Local\Temp\cc3Vmx0B.s 			page 25


1335:.\Generated_Source\PSoC5/CAN_1.c ****                  CAN_1_RX_WPN_SET));
1336:.\Generated_Source\PSoC5/CAN_1.c ****     if ((CY_GET_REG32((reg32 *) (&CAN_1_RX[rxConfig->rxmailbox].rxcmd)) &
1337:.\Generated_Source\PSoC5/CAN_1.c ****          CAN_1_RX_READ_BACK_MASK) == (rxConfig->rxcmd & CAN_1_RX_WPN_CLEAR))
1338:.\Generated_Source\PSoC5/CAN_1.c ****     {
1339:.\Generated_Source\PSoC5/CAN_1.c ****         /* Write RX AMR Register */
1340:.\Generated_Source\PSoC5/CAN_1.c ****         CY_SET_REG32((reg32 *) (&CAN_1_RX[rxConfig->rxmailbox].rxamr), rxConfig->rxamr);
1341:.\Generated_Source\PSoC5/CAN_1.c ****         if (CY_GET_REG32((reg32 *) (&CAN_1_RX[rxConfig->rxmailbox].rxamr)) == rxConfig->rxamr)
1342:.\Generated_Source\PSoC5/CAN_1.c ****         {
1343:.\Generated_Source\PSoC5/CAN_1.c ****             /* Write RX ACR Register */
1344:.\Generated_Source\PSoC5/CAN_1.c ****             CY_SET_REG32((reg32 *) (&CAN_1_RX[rxConfig->rxmailbox].rxacr), rxConfig->rxacr);
1345:.\Generated_Source\PSoC5/CAN_1.c ****             if (CY_GET_REG32((reg32 *) (&CAN_1_RX[rxConfig->rxmailbox].rxacr)) == rxConfig->rxacr)
1346:.\Generated_Source\PSoC5/CAN_1.c ****             {
1347:.\Generated_Source\PSoC5/CAN_1.c ****                 /* Write RX AMRD Register */
1348:.\Generated_Source\PSoC5/CAN_1.c ****                 CY_SET_REG32((reg32 *) (&CAN_1_RX[rxConfig->rxmailbox].rxamrd), 0xFFFFFFFFu);
1349:.\Generated_Source\PSoC5/CAN_1.c ****                 if (CY_GET_REG32((reg32 *) (&CAN_1_RX[rxConfig->rxmailbox].rxamrd)) == 0xFFFFFFFFu)
1350:.\Generated_Source\PSoC5/CAN_1.c ****                 {
1351:.\Generated_Source\PSoC5/CAN_1.c ****                     /* Write RX ACRD Register */
1352:.\Generated_Source\PSoC5/CAN_1.c ****                     CY_SET_REG32((reg32 *) (&CAN_1_RX[rxConfig->rxmailbox].rxacrd), 0x00000000u);
1353:.\Generated_Source\PSoC5/CAN_1.c ****                     if (CY_GET_REG32((reg32 *) (&CAN_1_RX[rxConfig->rxmailbox].rxacrd)) == 0x000000
1354:.\Generated_Source\PSoC5/CAN_1.c ****                     {
1355:.\Generated_Source\PSoC5/CAN_1.c ****                         result = CYRET_SUCCESS;
1356:.\Generated_Source\PSoC5/CAN_1.c ****                     }
1357:.\Generated_Source\PSoC5/CAN_1.c ****                 }
1358:.\Generated_Source\PSoC5/CAN_1.c ****             }
1359:.\Generated_Source\PSoC5/CAN_1.c ****         }
1360:.\Generated_Source\PSoC5/CAN_1.c ****     }
1361:.\Generated_Source\PSoC5/CAN_1.c **** 
1362:.\Generated_Source\PSoC5/CAN_1.c ****     return (result);
1363:.\Generated_Source\PSoC5/CAN_1.c **** }
1364:.\Generated_Source\PSoC5/CAN_1.c **** 
1365:.\Generated_Source\PSoC5/CAN_1.c **** 
1366:.\Generated_Source\PSoC5/CAN_1.c **** /*******************************************************************************
1367:.\Generated_Source\PSoC5/CAN_1.c **** * FUNCTION NAME:   CAN_1_TxBufConfig
1368:.\Generated_Source\PSoC5/CAN_1.c **** ********************************************************************************
1369:.\Generated_Source\PSoC5/CAN_1.c **** *
1370:.\Generated_Source\PSoC5/CAN_1.c **** * Summary:
1371:.\Generated_Source\PSoC5/CAN_1.c **** *  This function configures all transmit registers for a particular mailbox.
1372:.\Generated_Source\PSoC5/CAN_1.c **** *  Mailbox number contains CAN_1_TX_CFG structure.
1373:.\Generated_Source\PSoC5/CAN_1.c **** *
1374:.\Generated_Source\PSoC5/CAN_1.c **** * Parameters:
1375:.\Generated_Source\PSoC5/CAN_1.c **** *  txConfig: The pointer to structure that contain all required values to
1376:.\Generated_Source\PSoC5/CAN_1.c **** *  configure all transmit registers for a particular mailbox.
1377:.\Generated_Source\PSoC5/CAN_1.c **** *
1378:.\Generated_Source\PSoC5/CAN_1.c **** * Return:
1379:.\Generated_Source\PSoC5/CAN_1.c **** *  The indication if particular configuration has been accepted or rejected.
1380:.\Generated_Source\PSoC5/CAN_1.c **** *   Define                             Description
1381:.\Generated_Source\PSoC5/CAN_1.c **** *    CYRET_SUCCESS                      The function passed successfully
1382:.\Generated_Source\PSoC5/CAN_1.c **** *    CAN_1_FAIL              The function failed
1383:.\Generated_Source\PSoC5/CAN_1.c **** *
1384:.\Generated_Source\PSoC5/CAN_1.c **** *******************************************************************************/
1385:.\Generated_Source\PSoC5/CAN_1.c **** uint8 CAN_1_TxBufConfig(const CAN_1_TX_CFG *txConfig)
1386:.\Generated_Source\PSoC5/CAN_1.c ****                                    
1387:.\Generated_Source\PSoC5/CAN_1.c **** {
1388:.\Generated_Source\PSoC5/CAN_1.c ****     uint8 result = CAN_1_FAIL;
1389:.\Generated_Source\PSoC5/CAN_1.c **** 
1390:.\Generated_Source\PSoC5/CAN_1.c ****     /* Write TX CMD Register */
1391:.\Generated_Source\PSoC5/CAN_1.c ****     CY_SET_REG32(CAN_1_TX_CMD_PTR(txConfig->txmailbox), (txConfig->txcmd | CAN_1_TX_WPN_SET));
ARM GAS  C:\Users\Patrick\AppData\Local\Temp\cc3Vmx0B.s 			page 26


  35              		.loc 1 1391 0
  36 0000 474A     		ldr	r2, .L15
  37 0002 4849     		ldr	r1, .L15+4
1392:.\Generated_Source\PSoC5/CAN_1.c ****     if ((CY_GET_REG32(CAN_1_TX_CMD_PTR(txConfig->txmailbox)) &
  38              		.loc 1 1392 0
  39 0004 484B     		ldr	r3, .L15+8
1391:.\Generated_Source\PSoC5/CAN_1.c ****     if ((CY_GET_REG32(CAN_1_TX_CMD_PTR(txConfig->txmailbox)) &
  40              		.loc 1 1391 0
  41 0006 1160     		str	r1, [r2]
  42              		.loc 1 1392 0
  43 0008 1168     		ldr	r1, [r2]
  44 000a 0B40     		ands	r3, r3, r1
  45 000c B3F5002F 		cmp	r3, #524288
  46 0010 01D0     		beq	.L13
  47              	.LVL1:
  48              	.L10:
  49              	.LBE17:
  50              	.LBE16:
  51 0012 0120     		movs	r0, #1
 111:.\Generated_Source\PSoC5/CAN_1.c **** 
  52              		.loc 1 111 0
  53 0014 7047     		bx	lr
  54              	.LVL2:
  55              	.L13:
  56              	.LBB20:
  57              	.LBB18:
1393:.\Generated_Source\PSoC5/CAN_1.c ****         CAN_1_TX_READ_BACK_MASK) == (txConfig->txcmd & CAN_1_TX_WPN_CLEAR))
1394:.\Generated_Source\PSoC5/CAN_1.c ****     {
1395:.\Generated_Source\PSoC5/CAN_1.c ****         /* Write TX ID Register */
1396:.\Generated_Source\PSoC5/CAN_1.c ****         CY_SET_REG32(CAN_1_TX_ID_PTR(txConfig->txmailbox), txConfig->txid);
  58              		.loc 1 1396 0
  59 0016 4FF40013 		mov	r3, #2097152
  60 001a 5360     		str	r3, [r2, #4]
1397:.\Generated_Source\PSoC5/CAN_1.c ****         if (CY_GET_REG32(CAN_1_TX_ID_PTR(txConfig->txmailbox)) == txConfig->txid)
  61              		.loc 1 1397 0
  62 001c 5368     		ldr	r3, [r2, #4]
  63 001e B3F5001F 		cmp	r3, #2097152
  64 0022 F6D1     		bne	.L10
  65              	.LVL3:
1391:.\Generated_Source\PSoC5/CAN_1.c ****     if ((CY_GET_REG32(CAN_1_TX_CMD_PTR(txConfig->txmailbox)) &
  66              		.loc 1 1391 0
  67 0024 4149     		ldr	r1, .L15+12
1392:.\Generated_Source\PSoC5/CAN_1.c ****         CAN_1_TX_READ_BACK_MASK) == (txConfig->txcmd & CAN_1_TX_WPN_CLEAR))
  68              		.loc 1 1392 0
  69 0026 404B     		ldr	r3, .L15+8
1391:.\Generated_Source\PSoC5/CAN_1.c ****     if ((CY_GET_REG32(CAN_1_TX_CMD_PTR(txConfig->txmailbox)) &
  70              		.loc 1 1391 0
  71 0028 1161     		str	r1, [r2, #16]
1392:.\Generated_Source\PSoC5/CAN_1.c ****         CAN_1_TX_READ_BACK_MASK) == (txConfig->txcmd & CAN_1_TX_WPN_CLEAR))
  72              		.loc 1 1392 0
  73 002a 1069     		ldr	r0, [r2, #16]
1391:.\Generated_Source\PSoC5/CAN_1.c ****     if ((CY_GET_REG32(CAN_1_TX_CMD_PTR(txConfig->txmailbox)) &
  74              		.loc 1 1391 0
  75 002c 1032     		adds	r2, r2, #16
1392:.\Generated_Source\PSoC5/CAN_1.c ****         CAN_1_TX_READ_BACK_MASK) == (txConfig->txcmd & CAN_1_TX_WPN_CLEAR))
  76              		.loc 1 1392 0
  77 002e 0340     		ands	r3, r3, r0
ARM GAS  C:\Users\Patrick\AppData\Local\Temp\cc3Vmx0B.s 			page 27


  78 0030 002B     		cmp	r3, #0
  79 0032 EED1     		bne	.L10
1396:.\Generated_Source\PSoC5/CAN_1.c ****         if (CY_GET_REG32(CAN_1_TX_ID_PTR(txConfig->txmailbox)) == txConfig->txid)
  80              		.loc 1 1396 0
  81 0034 5360     		str	r3, [r2, #4]
  82              		.loc 1 1397 0
  83 0036 5368     		ldr	r3, [r2, #4]
  84 0038 002B     		cmp	r3, #0
  85 003a EAD1     		bne	.L10
  86              	.LVL4:
1391:.\Generated_Source\PSoC5/CAN_1.c ****     if ((CY_GET_REG32(CAN_1_TX_CMD_PTR(txConfig->txmailbox)) &
  87              		.loc 1 1391 0
  88 003c 1161     		str	r1, [r2, #16]
1392:.\Generated_Source\PSoC5/CAN_1.c ****         CAN_1_TX_READ_BACK_MASK) == (txConfig->txcmd & CAN_1_TX_WPN_CLEAR))
  89              		.loc 1 1392 0
  90 003e 1069     		ldr	r0, [r2, #16]
  91 0040 394B     		ldr	r3, .L15+8
1391:.\Generated_Source\PSoC5/CAN_1.c ****     if ((CY_GET_REG32(CAN_1_TX_CMD_PTR(txConfig->txmailbox)) &
  92              		.loc 1 1391 0
  93 0042 1032     		adds	r2, r2, #16
1392:.\Generated_Source\PSoC5/CAN_1.c ****         CAN_1_TX_READ_BACK_MASK) == (txConfig->txcmd & CAN_1_TX_WPN_CLEAR))
  94              		.loc 1 1392 0
  95 0044 0340     		ands	r3, r3, r0
  96 0046 002B     		cmp	r3, #0
  97 0048 E3D1     		bne	.L10
1396:.\Generated_Source\PSoC5/CAN_1.c ****         if (CY_GET_REG32(CAN_1_TX_ID_PTR(txConfig->txmailbox)) == txConfig->txid)
  98              		.loc 1 1396 0
  99 004a 5360     		str	r3, [r2, #4]
 100              		.loc 1 1397 0
 101 004c 5368     		ldr	r3, [r2, #4]
 102 004e 002B     		cmp	r3, #0
 103 0050 DFD1     		bne	.L10
 104              	.LVL5:
1391:.\Generated_Source\PSoC5/CAN_1.c ****     if ((CY_GET_REG32(CAN_1_TX_CMD_PTR(txConfig->txmailbox)) &
 105              		.loc 1 1391 0
 106 0052 374B     		ldr	r3, .L15+16
1392:.\Generated_Source\PSoC5/CAN_1.c ****         CAN_1_TX_READ_BACK_MASK) == (txConfig->txcmd & CAN_1_TX_WPN_CLEAR))
 107              		.loc 1 1392 0
 108 0054 344A     		ldr	r2, .L15+8
1391:.\Generated_Source\PSoC5/CAN_1.c ****     if ((CY_GET_REG32(CAN_1_TX_CMD_PTR(txConfig->txmailbox)) &
 109              		.loc 1 1391 0
 110 0056 1960     		str	r1, [r3]
1392:.\Generated_Source\PSoC5/CAN_1.c ****         CAN_1_TX_READ_BACK_MASK) == (txConfig->txcmd & CAN_1_TX_WPN_CLEAR))
 111              		.loc 1 1392 0
 112 0058 1868     		ldr	r0, [r3]
 113 005a 0240     		ands	r2, r2, r0
 114 005c 002A     		cmp	r2, #0
 115 005e D8D1     		bne	.L10
1396:.\Generated_Source\PSoC5/CAN_1.c ****         if (CY_GET_REG32(CAN_1_TX_ID_PTR(txConfig->txmailbox)) == txConfig->txid)
 116              		.loc 1 1396 0
 117 0060 5A60     		str	r2, [r3, #4]
 118              		.loc 1 1397 0
 119 0062 5B68     		ldr	r3, [r3, #4]
 120 0064 002B     		cmp	r3, #0
 121 0066 D4D1     		bne	.L10
 122              	.LVL6:
1391:.\Generated_Source\PSoC5/CAN_1.c ****     if ((CY_GET_REG32(CAN_1_TX_CMD_PTR(txConfig->txmailbox)) &
ARM GAS  C:\Users\Patrick\AppData\Local\Temp\cc3Vmx0B.s 			page 28


 123              		.loc 1 1391 0
 124 0068 324B     		ldr	r3, .L15+20
1392:.\Generated_Source\PSoC5/CAN_1.c ****         CAN_1_TX_READ_BACK_MASK) == (txConfig->txcmd & CAN_1_TX_WPN_CLEAR))
 125              		.loc 1 1392 0
 126 006a 2F4A     		ldr	r2, .L15+8
1391:.\Generated_Source\PSoC5/CAN_1.c ****     if ((CY_GET_REG32(CAN_1_TX_CMD_PTR(txConfig->txmailbox)) &
 127              		.loc 1 1391 0
 128 006c 1960     		str	r1, [r3]
1392:.\Generated_Source\PSoC5/CAN_1.c ****         CAN_1_TX_READ_BACK_MASK) == (txConfig->txcmd & CAN_1_TX_WPN_CLEAR))
 129              		.loc 1 1392 0
 130 006e 1968     		ldr	r1, [r3]
 131 0070 0A40     		ands	r2, r2, r1
 132 0072 002A     		cmp	r2, #0
 133 0074 CDD1     		bne	.L10
1396:.\Generated_Source\PSoC5/CAN_1.c ****         if (CY_GET_REG32(CAN_1_TX_ID_PTR(txConfig->txmailbox)) == txConfig->txid)
 134              		.loc 1 1396 0
 135 0076 5A60     		str	r2, [r3, #4]
 136              		.loc 1 1397 0
 137 0078 5B68     		ldr	r3, [r3, #4]
 138 007a 002B     		cmp	r3, #0
 139 007c C9D1     		bne	.L10
 140              	.LVL7:
1391:.\Generated_Source\PSoC5/CAN_1.c ****     if ((CY_GET_REG32(CAN_1_TX_CMD_PTR(txConfig->txmailbox)) &
 141              		.loc 1 1391 0
 142 007e 2E4B     		ldr	r3, .L15+24
 143 0080 2A49     		ldr	r1, .L15+12
1392:.\Generated_Source\PSoC5/CAN_1.c ****         CAN_1_TX_READ_BACK_MASK) == (txConfig->txcmd & CAN_1_TX_WPN_CLEAR))
 144              		.loc 1 1392 0
 145 0082 294A     		ldr	r2, .L15+8
1391:.\Generated_Source\PSoC5/CAN_1.c ****     if ((CY_GET_REG32(CAN_1_TX_CMD_PTR(txConfig->txmailbox)) &
 146              		.loc 1 1391 0
 147 0084 1960     		str	r1, [r3]
1392:.\Generated_Source\PSoC5/CAN_1.c ****         CAN_1_TX_READ_BACK_MASK) == (txConfig->txcmd & CAN_1_TX_WPN_CLEAR))
 148              		.loc 1 1392 0
 149 0086 1868     		ldr	r0, [r3]
 150 0088 0240     		ands	r2, r2, r0
 151 008a 002A     		cmp	r2, #0
 152 008c C1D1     		bne	.L10
1396:.\Generated_Source\PSoC5/CAN_1.c ****         if (CY_GET_REG32(CAN_1_TX_ID_PTR(txConfig->txmailbox)) == txConfig->txid)
 153              		.loc 1 1396 0
 154 008e 5A60     		str	r2, [r3, #4]
 155              		.loc 1 1397 0
 156 0090 5B68     		ldr	r3, [r3, #4]
 157 0092 002B     		cmp	r3, #0
 158 0094 BDD1     		bne	.L10
 159              	.LVL8:
1391:.\Generated_Source\PSoC5/CAN_1.c ****     if ((CY_GET_REG32(CAN_1_TX_CMD_PTR(txConfig->txmailbox)) &
 160              		.loc 1 1391 0
 161 0096 294B     		ldr	r3, .L15+28
1392:.\Generated_Source\PSoC5/CAN_1.c ****         CAN_1_TX_READ_BACK_MASK) == (txConfig->txcmd & CAN_1_TX_WPN_CLEAR))
 162              		.loc 1 1392 0
 163 0098 234A     		ldr	r2, .L15+8
1391:.\Generated_Source\PSoC5/CAN_1.c ****     if ((CY_GET_REG32(CAN_1_TX_CMD_PTR(txConfig->txmailbox)) &
 164              		.loc 1 1391 0
 165 009a 1960     		str	r1, [r3]
1392:.\Generated_Source\PSoC5/CAN_1.c ****         CAN_1_TX_READ_BACK_MASK) == (txConfig->txcmd & CAN_1_TX_WPN_CLEAR))
 166              		.loc 1 1392 0
ARM GAS  C:\Users\Patrick\AppData\Local\Temp\cc3Vmx0B.s 			page 29


 167 009c 1868     		ldr	r0, [r3]
 168 009e 0240     		ands	r2, r2, r0
 169 00a0 002A     		cmp	r2, #0
 170 00a2 B6D1     		bne	.L10
1396:.\Generated_Source\PSoC5/CAN_1.c ****         if (CY_GET_REG32(CAN_1_TX_ID_PTR(txConfig->txmailbox)) == txConfig->txid)
 171              		.loc 1 1396 0
 172 00a4 5A60     		str	r2, [r3, #4]
 173              		.loc 1 1397 0
 174 00a6 5B68     		ldr	r3, [r3, #4]
 175 00a8 002B     		cmp	r3, #0
 176 00aa B2D1     		bne	.L10
 177              	.LVL9:
1391:.\Generated_Source\PSoC5/CAN_1.c ****     if ((CY_GET_REG32(CAN_1_TX_CMD_PTR(txConfig->txmailbox)) &
 178              		.loc 1 1391 0
 179 00ac 244B     		ldr	r3, .L15+32
1392:.\Generated_Source\PSoC5/CAN_1.c ****         CAN_1_TX_READ_BACK_MASK) == (txConfig->txcmd & CAN_1_TX_WPN_CLEAR))
 180              		.loc 1 1392 0
 181 00ae 1E4A     		ldr	r2, .L15+8
1391:.\Generated_Source\PSoC5/CAN_1.c ****     if ((CY_GET_REG32(CAN_1_TX_CMD_PTR(txConfig->txmailbox)) &
 182              		.loc 1 1391 0
 183 00b0 1960     		str	r1, [r3]
1392:.\Generated_Source\PSoC5/CAN_1.c ****         CAN_1_TX_READ_BACK_MASK) == (txConfig->txcmd & CAN_1_TX_WPN_CLEAR))
 184              		.loc 1 1392 0
 185 00b2 1968     		ldr	r1, [r3]
 186 00b4 0A40     		ands	r2, r2, r1
 187 00b6 002A     		cmp	r2, #0
 188 00b8 ABD1     		bne	.L10
 189              	.LBE18:
 190              	.LBE20:
  48:.\Generated_Source\PSoC5/CAN_1.c ****     /* Initial values of CAN RX and TX registers */
 191              		.loc 1 48 0
 192 00ba 70B4     		push	{r4, r5, r6}
 193              		.cfi_def_cfa_offset 12
 194              		.cfi_offset 4, -12
 195              		.cfi_offset 5, -8
 196              		.cfi_offset 6, -4
 197              	.LBB21:
 198              	.LBB19:
1396:.\Generated_Source\PSoC5/CAN_1.c ****         if (CY_GET_REG32(CAN_1_TX_ID_PTR(txConfig->txmailbox)) == txConfig->txid)
 199              		.loc 1 1396 0
 200 00bc 5A60     		str	r2, [r3, #4]
 201              		.loc 1 1397 0
 202 00be 5D68     		ldr	r5, [r3, #4]
 203 00c0 15B1     		cbz	r5, .L14
 204              	.LVL10:
 205              	.L2:
 206              	.LBE19:
 207              	.LBE21:
 208 00c2 0120     		movs	r0, #1
 209              	.LVL11:
 210              	.L8:
 111:.\Generated_Source\PSoC5/CAN_1.c **** 
 211              		.loc 1 111 0
 212 00c4 70BC     		pop	{r4, r5, r6}
 213              		.cfi_remember_state
 214              		.cfi_restore 6
 215              		.cfi_restore 5
ARM GAS  C:\Users\Patrick\AppData\Local\Temp\cc3Vmx0B.s 			page 30


 216              		.cfi_restore 4
 217              		.cfi_def_cfa_offset 0
 218 00c6 7047     		bx	lr
 219              	.LVL12:
 220              	.L14:
 221              		.cfi_restore_state
 222 00c8 1E48     		ldr	r0, .L15+36
 223              	.LBB22:
 224              	.LBB23:
1348:.\Generated_Source\PSoC5/CAN_1.c ****                 if (CY_GET_REG32((reg32 *) (&CAN_1_RX[rxConfig->rxmailbox].rxamrd)) == 0xFFFFFFFFu)
 225              		.loc 1 1348 0
 226 00ca 4FF0FF34 		mov	r4, #-1
 227 00ce 00F58076 		add	r6, r0, #256
 228              	.LVL13:
 229              	.L5:
1334:.\Generated_Source\PSoC5/CAN_1.c ****                  CAN_1_RX_WPN_SET));
 230              		.loc 1 1334 0
 231 00d2 0178     		ldrb	r1, [r0]	@ zero_extendqisi2
 232 00d4 4268     		ldr	r2, [r0, #4]
 233 00d6 1C4B     		ldr	r3, .L15+40
 234 00d8 4901     		lsls	r1, r1, #5
 235 00da 0B44     		add	r3, r3, r1
 236 00dc 42F08011 		orr	r1, r2, #8388736
 237 00e0 1960     		str	r1, [r3]
1336:.\Generated_Source\PSoC5/CAN_1.c ****          CAN_1_RX_READ_BACK_MASK) == (rxConfig->rxcmd & CAN_1_RX_WPN_CLEAR))
 238              		.loc 1 1336 0
 239 00e2 1968     		ldr	r1, [r3]
1337:.\Generated_Source\PSoC5/CAN_1.c ****     {
 240              		.loc 1 1337 0
 241 00e4 22F08012 		bic	r2, r2, #8388736
1336:.\Generated_Source\PSoC5/CAN_1.c ****          CAN_1_RX_READ_BACK_MASK) == (rxConfig->rxcmd & CAN_1_RX_WPN_CLEAR))
 242              		.loc 1 1336 0
 243 00e8 01F07F11 		and	r1, r1, #8323199
 244 00ec 9142     		cmp	r1, r2
 245 00ee E8D1     		bne	.L2
1340:.\Generated_Source\PSoC5/CAN_1.c ****         if (CY_GET_REG32((reg32 *) (&CAN_1_RX[rxConfig->rxmailbox].rxamr)) == rxConfig->rxamr)
 246              		.loc 1 1340 0
 247 00f0 8268     		ldr	r2, [r0, #8]
 248 00f2 1A61     		str	r2, [r3, #16]
1341:.\Generated_Source\PSoC5/CAN_1.c ****         {
 249              		.loc 1 1341 0
 250 00f4 1969     		ldr	r1, [r3, #16]
 251 00f6 8A42     		cmp	r2, r1
 252 00f8 E3D1     		bne	.L2
1344:.\Generated_Source\PSoC5/CAN_1.c ****             if (CY_GET_REG32((reg32 *) (&CAN_1_RX[rxConfig->rxmailbox].rxacr)) == rxConfig->rxacr)
 253              		.loc 1 1344 0
 254 00fa C268     		ldr	r2, [r0, #12]
 255 00fc 5A61     		str	r2, [r3, #20]
1345:.\Generated_Source\PSoC5/CAN_1.c ****             {
 256              		.loc 1 1345 0
 257 00fe 5969     		ldr	r1, [r3, #20]
 258 0100 8A42     		cmp	r2, r1
 259 0102 DED1     		bne	.L2
1348:.\Generated_Source\PSoC5/CAN_1.c ****                 if (CY_GET_REG32((reg32 *) (&CAN_1_RX[rxConfig->rxmailbox].rxamrd)) == 0xFFFFFFFFu)
 260              		.loc 1 1348 0
 261 0104 9C61     		str	r4, [r3, #24]
1349:.\Generated_Source\PSoC5/CAN_1.c ****                 {
ARM GAS  C:\Users\Patrick\AppData\Local\Temp\cc3Vmx0B.s 			page 31


 262              		.loc 1 1349 0
 263 0106 9A69     		ldr	r2, [r3, #24]
 264 0108 0132     		adds	r2, r2, #1
 265 010a DAD1     		bne	.L2
 266              	.LVL14:
1352:.\Generated_Source\PSoC5/CAN_1.c ****                     if (CY_GET_REG32((reg32 *) (&CAN_1_RX[rxConfig->rxmailbox].rxacrd)) == 0x000000
 267              		.loc 1 1352 0
 268 010c DD61     		str	r5, [r3, #28]
1353:.\Generated_Source\PSoC5/CAN_1.c ****                     {
 269              		.loc 1 1353 0
 270 010e DB69     		ldr	r3, [r3, #28]
 271 0110 1030     		adds	r0, r0, #16
 272 0112 002B     		cmp	r3, #0
 273 0114 D5D1     		bne	.L2
 274              	.LBE23:
 275              	.LBE22:
  99:.\Generated_Source\PSoC5/CAN_1.c ****         {
 276              		.loc 1 99 0
 277 0116 B042     		cmp	r0, r6
 278 0118 DBD1     		bne	.L5
 279 011a 1846     		mov	r0, r3
 280              	.LVL15:
 281 011c D2E7     		b	.L8
 282              	.L16:
 283 011e 00BF     		.align	2
 284              	.L15:
 285 0120 20A00040 		.word	1073782816
 286 0124 08008800 		.word	8912904
 287 0128 F7007F00 		.word	8323319
 288 012c 08008000 		.word	8388616
 289 0130 50A00040 		.word	1073782864
 290 0134 60A00040 		.word	1073782880
 291 0138 70A00040 		.word	1073782896
 292 013c 80A00040 		.word	1073782912
 293 0140 90A00040 		.word	1073782928
 294 0144 00000000 		.word	.LANCHOR0
 295 0148 A0A00040 		.word	1073782944
 296              		.cfi_endproc
 297              	.LFE0:
 298              		.size	CAN_1_RxTxBuffersConfig, .-CAN_1_RxTxBuffersConfig
 299              		.section	.text.CAN_1_Init,"ax",%progbits
 300              		.align	2
 301              		.global	CAN_1_Init
 302              		.thumb
 303              		.thumb_func
 304              		.type	CAN_1_Init, %function
 305              	CAN_1_Init:
 306              	.LFB1:
 138:.\Generated_Source\PSoC5/CAN_1.c ****     uint32 timeout = CAN_1_MODE_STATE_STOP_TIMEOUT;
 307              		.loc 1 138 0
 308              		.cfi_startproc
 309              		@ args = 0, pretend = 0, frame = 0
 310              		@ frame_needed = 0, uses_anonymous_args = 0
 311              	.LVL16:
 312 0000 10B5     		push	{r4, lr}
 313              		.cfi_def_cfa_offset 8
 314              		.cfi_offset 4, -8
ARM GAS  C:\Users\Patrick\AppData\Local\Temp\cc3Vmx0B.s 			page 32


 315              		.cfi_offset 14, -4
 146:.\Generated_Source\PSoC5/CAN_1.c ****         /* Enable CAN block in Active mode */
 316              		.loc 1 146 0
 317 0002 FFF7FEFF 		bl	CyEnterCriticalSection
 318              	.LVL17:
 148:.\Generated_Source\PSoC5/CAN_1.c ****         /* Enable CAN block in Alternate Active (Standby) mode */
 319              		.loc 1 148 0
 320 0006 3249     		ldr	r1, .L43
 150:.\Generated_Source\PSoC5/CAN_1.c ****         CyExitCriticalSection(enableInterrupts);
 321              		.loc 1 150 0
 322 0008 324A     		ldr	r2, .L43+4
 148:.\Generated_Source\PSoC5/CAN_1.c ****         /* Enable CAN block in Alternate Active (Standby) mode */
 323              		.loc 1 148 0
 324 000a 0B78     		ldrb	r3, [r1]	@ zero_extendqisi2
 325 000c 43F00103 		orr	r3, r3, #1
 326 0010 0B70     		strb	r3, [r1]
 150:.\Generated_Source\PSoC5/CAN_1.c ****         CyExitCriticalSection(enableInterrupts);
 327              		.loc 1 150 0
 328 0012 1378     		ldrb	r3, [r2]	@ zero_extendqisi2
 329 0014 43F00103 		orr	r3, r3, #1
 330 0018 1370     		strb	r3, [r2]
 151:.\Generated_Source\PSoC5/CAN_1.c **** 
 331              		.loc 1 151 0
 332 001a FFF7FEFF 		bl	CyExitCriticalSection
 333              	.LVL18:
 154:.\Generated_Source\PSoC5/CAN_1.c **** 
 334              		.loc 1 154 0
 335 001e 2E4A     		ldr	r2, .L43+8
 336 0020 4FF4B433 		mov	r3, #92160
 337 0024 1078     		ldrb	r0, [r2]	@ zero_extendqisi2
 157:.\Generated_Source\PSoC5/CAN_1.c ****         {
 338              		.loc 1 157 0
 339 0026 1146     		mov	r1, r2
 154:.\Generated_Source\PSoC5/CAN_1.c **** 
 340              		.loc 1 154 0
 341 0028 00F0FE00 		and	r0, r0, #254
 342 002c 1070     		strb	r0, [r2]
 343 002e 01E0     		b	.L18
 344              	.LVL19:
 345              	.L20:
 157:.\Generated_Source\PSoC5/CAN_1.c ****         {
 346              		.loc 1 157 0
 347 0030 013B     		subs	r3, r3, #1
 348 0032 16D0     		beq	.L29
 349              	.L18:
 157:.\Generated_Source\PSoC5/CAN_1.c ****         {
 350              		.loc 1 157 0 is_stmt 0 discriminator 1
 351 0034 0A78     		ldrb	r2, [r1]	@ zero_extendqisi2
 352 0036 284C     		ldr	r4, .L43+8
 353 0038 D007     		lsls	r0, r2, #31
 354 003a F9D4     		bmi	.L20
 355              	.LBB48:
 356              	.LBB49:
 177:.\Generated_Source\PSoC5/CAN_1.c **** 
 357              		.loc 1 177 0 is_stmt 1
 358 003c 274B     		ldr	r3, .L43+12
 359 003e 4FF48032 		mov	r2, #65536
ARM GAS  C:\Users\Patrick\AppData\Local\Temp\cc3Vmx0B.s 			page 33


 360 0042 1A60     		str	r2, [r3]
 180:.\Generated_Source\PSoC5/CAN_1.c **** 
 361              		.loc 1 180 0
 362 0044 2649     		ldr	r1, .L43+16
 363 0046 1020     		movs	r0, #16
 364 0048 FFF7FEFF 		bl	CyIntSetVector
 365              	.LVL20:
 183:.\Generated_Source\PSoC5/CAN_1.c **** 
 366              		.loc 1 183 0
 367 004c 1020     		movs	r0, #16
 368 004e 0721     		movs	r1, #7
 369 0050 FFF7FEFF 		bl	CyIntSetPriority
 370              	.LVL21:
 371              	.LBB50:
 372              	.LBB51:
 373              	.LBB52:
 374              	.LBB53:
 529:.\Generated_Source\PSoC5/CAN_1.c **** 
 375              		.loc 1 529 0
 376 0054 234B     		ldr	r3, .L43+20
 377 0056 4722     		movs	r2, #71
 378 0058 1A80     		strh	r2, [r3]	@ movhi
 532:.\Generated_Source\PSoC5/CAN_1.c ****             {
 379              		.loc 1 532 0
 380 005a 1B88     		ldrh	r3, [r3]
 381 005c 9BB2     		uxth	r3, r3
 382 005e 9342     		cmp	r3, r2
 383 0060 01D0     		beq	.L42
 384              	.LVL22:
 385              	.L29:
 386              	.LBE53:
 387              	.LBE52:
 388              	.LBE51:
 389              	.LBE50:
 140:.\Generated_Source\PSoC5/CAN_1.c ****     uint8 localResult = CAN_1_FAIL;
 390              		.loc 1 140 0
 391 0062 0120     		movs	r0, #1
 392              	.LVL23:
 393              	.LBE49:
 394              	.LBE48:
 234:.\Generated_Source\PSoC5/CAN_1.c **** 
 395              		.loc 1 234 0
 396 0064 10BD     		pop	{r4, pc}
 397              	.LVL24:
 398              	.L42:
 399              	.LBB71:
 400              	.LBB70:
 401              	.LBB54:
 402              	.LBB55:
 592:.\Generated_Source\PSoC5/CAN_1.c **** 
 403              		.loc 1 592 0
 404 0066 204B     		ldr	r3, .L43+24
 405 0068 5A78     		ldrb	r2, [r3, #1]	@ zero_extendqisi2
 406 006a 42F01002 		orr	r2, r2, #16
 407 006e 5A70     		strb	r2, [r3, #1]
 595:.\Generated_Source\PSoC5/CAN_1.c ****             {
 408              		.loc 1 595 0
ARM GAS  C:\Users\Patrick\AppData\Local\Temp\cc3Vmx0B.s 			page 34


 409 0070 5A78     		ldrb	r2, [r3, #1]	@ zero_extendqisi2
 410 0072 D106     		lsls	r1, r2, #27
 411 0074 F5D5     		bpl	.L29
 412              	.LVL25:
 413              	.LBE55:
 414              	.LBE54:
 415              	.LBB56:
 416              	.LBB57:
 670:.\Generated_Source\PSoC5/CAN_1.c ****                     cfgTemp &= (uint8) (~CAN_1_CFG_REG_TSEG1_MASK);
 417              		.loc 1 670 0
 418 0076 5A78     		ldrb	r2, [r3, #1]	@ zero_extendqisi2
 419              	.LVL26:
 671:.\Generated_Source\PSoC5/CAN_1.c ****                     cfgTemp |= cfgTseg1;
 420              		.loc 1 671 0
 421 0078 02F0F002 		and	r2, r2, #240
 422              	.LVL27:
 672:.\Generated_Source\PSoC5/CAN_1.c **** 
 423              		.loc 1 672 0
 424 007c 42F00302 		orr	r2, r2, #3
 425              	.LVL28:
 675:.\Generated_Source\PSoC5/CAN_1.c **** 
 426              		.loc 1 675 0
 427 0080 5A70     		strb	r2, [r3, #1]
 678:.\Generated_Source\PSoC5/CAN_1.c ****                     {
 428              		.loc 1 678 0
 429 0082 5978     		ldrb	r1, [r3, #1]	@ zero_extendqisi2
 430 0084 8A42     		cmp	r2, r1
 431 0086 ECD1     		bne	.L29
 432              	.LVL29:
 433              	.LBB58:
 434              	.LBB59:
 690:.\Generated_Source\PSoC5/CAN_1.c **** 
 435              		.loc 1 690 0
 436 0088 4822     		movs	r2, #72
 437              	.LVL30:
 438 008a 1A70     		strb	r2, [r3]
 439              	.LVL31:
 693:.\Generated_Source\PSoC5/CAN_1.c ****                         {
 440              		.loc 1 693 0
 441 008c 1A78     		ldrb	r2, [r3]	@ zero_extendqisi2
 442 008e 482A     		cmp	r2, #72
 443 0090 E7D1     		bne	.L29
 444              	.LVL32:
 445              	.LBE59:
 446              	.LBE58:
 447              	.LBE57:
 448              	.LBE56:
 449              	.LBB60:
 450              	.LBB61:
 451              	.LBB62:
 452              	.LBB63:
 776:.\Generated_Source\PSoC5/CAN_1.c **** 
 453              		.loc 1 776 0
 454 0092 1A78     		ldrb	r2, [r3]	@ zero_extendqisi2
 455 0094 02F0EF02 		and	r2, r2, #239
 456 0098 1A70     		strb	r2, [r3]
 779:.\Generated_Source\PSoC5/CAN_1.c ****             {
ARM GAS  C:\Users\Patrick\AppData\Local\Temp\cc3Vmx0B.s 			page 35


 457              		.loc 1 779 0
 458 009a 1A78     		ldrb	r2, [r3]	@ zero_extendqisi2
 459 009c D206     		lsls	r2, r2, #27
 460 009e E0D4     		bmi	.L29
 461              	.LVL33:
 462              	.LBE63:
 463              	.LBE62:
 464              	.LBE61:
 465              	.LBE60:
 466              	.LBB64:
 467              	.LBB65:
 468              	.LBB66:
 469              	.LBB67:
 851:.\Generated_Source\PSoC5/CAN_1.c **** 
 470              		.loc 1 851 0
 471 00a0 1A78     		ldrb	r2, [r3]	@ zero_extendqisi2
 472 00a2 02F0FE02 		and	r2, r2, #254
 473 00a6 1A70     		strb	r2, [r3]
 854:.\Generated_Source\PSoC5/CAN_1.c ****             {
 474              		.loc 1 854 0
 475 00a8 1B78     		ldrb	r3, [r3]	@ zero_extendqisi2
 476              	.LVL34:
 477              	.LBE67:
 478              	.LBE66:
 479              	.LBE65:
 480              	.LBE64:
 209:.\Generated_Source\PSoC5/CAN_1.c ****             {
 481              		.loc 1 209 0
 482 00aa DB07     		lsls	r3, r3, #31
 483              	.LVL35:
 484 00ac D9D4     		bmi	.L29
 485              	.LVL36:
 211:.\Generated_Source\PSoC5/CAN_1.c ****                 {
 486              		.loc 1 211 0
 487 00ae FFF7FEFF 		bl	CAN_1_RxTxBuffersConfig
 488              	.LVL37:
 489 00b2 0028     		cmp	r0, #0
 490 00b4 D5D1     		bne	.L29
 491              	.LVL38:
 492              	.LBB68:
 493              	.LBB69:
1148:.\Generated_Source\PSoC5/CAN_1.c **** 
 494              		.loc 1 1148 0
 495 00b6 0D4B     		ldr	r3, .L43+28
 496 00b8 4FF49052 		mov	r2, #4608
 497 00bc 1A80     		strh	r2, [r3]	@ movhi
1151:.\Generated_Source\PSoC5/CAN_1.c ****         {
 498              		.loc 1 1151 0
 499 00be 1B88     		ldrh	r3, [r3]
 500 00c0 9BB2     		uxth	r3, r3
 501 00c2 9342     		cmp	r3, r2
 502 00c4 CDD1     		bne	.L29
 503              	.LVL39:
 504              	.LBE69:
 505              	.LBE68:
 219:.\Generated_Source\PSoC5/CAN_1.c ****                             if ((CAN_1_CMD_REG.byte[0u] & CAN_1_MODE_MASK) == 0u)
 506              		.loc 1 219 0
ARM GAS  C:\Users\Patrick\AppData\Local\Temp\cc3Vmx0B.s 			page 36


 507 00c6 2070     		strb	r0, [r4]
 220:.\Generated_Source\PSoC5/CAN_1.c ****                         #else  /* CY_PSOC4 */
 508              		.loc 1 220 0
 509 00c8 2078     		ldrb	r0, [r4]	@ zero_extendqisi2
 510 00ca 00F00100 		and	r0, r0, #1
 511 00ce 10BD     		pop	{r4, pc}
 512              	.L44:
 513              		.align	2
 514              	.L43:
 515 00d0 A6430040 		.word	1073759142
 516 00d4 B6430040 		.word	1073759158
 517 00d8 10A00040 		.word	1073782800
 518 00dc 80E100E0 		.word	-536813184
 519 00e0 00000000 		.word	CAN_1_ISR
 520 00e4 16A00040 		.word	1073782806
 521 00e8 14A00040 		.word	1073782804
 522 00ec 04A00040 		.word	1073782788
 523              	.LBE70:
 524              	.LBE71:
 525              		.cfi_endproc
 526              	.LFE1:
 527              		.size	CAN_1_Init, .-CAN_1_Init
 528              		.section	.text.CAN_1_Enable,"ax",%progbits
 529              		.align	2
 530              		.global	CAN_1_Enable
 531              		.thumb
 532              		.thumb_func
 533              		.type	CAN_1_Enable, %function
 534              	CAN_1_Enable:
 535              	.LFB2:
 255:.\Generated_Source\PSoC5/CAN_1.c ****     uint32 timeout = CAN_1_MODE_STATE_RUN_TIMEOUT;
 536              		.loc 1 255 0
 537              		.cfi_startproc
 538              		@ args = 0, pretend = 0, frame = 0
 539              		@ frame_needed = 0, uses_anonymous_args = 0
 540              	.LVL40:
 541 0000 08B5     		push	{r3, lr}
 542              		.cfi_def_cfa_offset 8
 543              		.cfi_offset 3, -8
 544              		.cfi_offset 14, -4
 262:.\Generated_Source\PSoC5/CAN_1.c **** 
 545              		.loc 1 262 0
 546 0002 FFF7FEFF 		bl	CyEnterCriticalSection
 547              	.LVL41:
 265:.\Generated_Source\PSoC5/CAN_1.c **** 
 548              		.loc 1 265 0
 549 0006 1649     		ldr	r1, .L52
 268:.\Generated_Source\PSoC5/CAN_1.c **** 
 550              		.loc 1 268 0
 551 0008 164A     		ldr	r2, .L52+4
 265:.\Generated_Source\PSoC5/CAN_1.c **** 
 552              		.loc 1 265 0
 553 000a 0B78     		ldrb	r3, [r1]	@ zero_extendqisi2
 554 000c 43F00103 		orr	r3, r3, #1
 555 0010 0B70     		strb	r3, [r1]
 268:.\Generated_Source\PSoC5/CAN_1.c **** 
 556              		.loc 1 268 0
ARM GAS  C:\Users\Patrick\AppData\Local\Temp\cc3Vmx0B.s 			page 37


 557 0012 1378     		ldrb	r3, [r2]	@ zero_extendqisi2
 558 0014 43F00103 		orr	r3, r3, #1
 559 0018 1370     		strb	r3, [r2]
 270:.\Generated_Source\PSoC5/CAN_1.c ****     #endif /* CY_PSOC3 || CY_PSOC5 */
 560              		.loc 1 270 0
 561 001a FFF7FEFF 		bl	CyExitCriticalSection
 562              	.LVL42:
 274:.\Generated_Source\PSoC5/CAN_1.c ****     (void) CAN_1_GlobalIntEnable();
 563              		.loc 1 274 0
 564 001e 124B     		ldr	r3, .L52+8
 565              	.LBB74:
 566              	.LBB75:
 432:.\Generated_Source\PSoC5/CAN_1.c **** 
 567              		.loc 1 432 0
 568 0020 124A     		ldr	r2, .L52+12
 569              	.LBE75:
 570              	.LBE74:
 274:.\Generated_Source\PSoC5/CAN_1.c ****     (void) CAN_1_GlobalIntEnable();
 571              		.loc 1 274 0
 572 0022 4FF49051 		mov	r1, #4608
 573 0026 1960     		str	r1, [r3]
 574              	.LVL43:
 575              	.LBB79:
 576              	.LBB76:
 432:.\Generated_Source\PSoC5/CAN_1.c **** 
 577              		.loc 1 432 0
 578 0028 1378     		ldrb	r3, [r2]	@ zero_extendqisi2
 579              	.LBE76:
 580              	.LBE79:
 278:.\Generated_Source\PSoC5/CAN_1.c **** 
 581              		.loc 1 278 0
 582 002a 1149     		ldr	r1, .L52+16
 583              	.LBB80:
 584              	.LBB77:
 432:.\Generated_Source\PSoC5/CAN_1.c **** 
 585              		.loc 1 432 0
 586 002c 43F00103 		orr	r3, r3, #1
 587 0030 1370     		strb	r3, [r2]
 588              	.LBE77:
 589              	.LBE80:
 278:.\Generated_Source\PSoC5/CAN_1.c **** 
 590              		.loc 1 278 0
 591 0032 4FF48030 		mov	r0, #65536
 281:.\Generated_Source\PSoC5/CAN_1.c **** 
 592              		.loc 1 281 0
 593 0036 0F4B     		ldr	r3, .L52+20
 594              	.LBB81:
 595              	.LBB78:
 435:.\Generated_Source\PSoC5/CAN_1.c ****         {
 596              		.loc 1 435 0
 597 0038 1278     		ldrb	r2, [r2]	@ zero_extendqisi2
 598              	.LBE78:
 599              	.LBE81:
 278:.\Generated_Source\PSoC5/CAN_1.c **** 
 600              		.loc 1 278 0
 601 003a 0860     		str	r0, [r1]
 281:.\Generated_Source\PSoC5/CAN_1.c **** 
ARM GAS  C:\Users\Patrick\AppData\Local\Temp\cc3Vmx0B.s 			page 38


 602              		.loc 1 281 0
 603 003c 1A68     		ldr	r2, [r3]
 284:.\Generated_Source\PSoC5/CAN_1.c ****     {
 604              		.loc 1 284 0
 605 003e 1946     		mov	r1, r3
 281:.\Generated_Source\PSoC5/CAN_1.c **** 
 606              		.loc 1 281 0
 607 0040 42F00102 		orr	r2, r2, #1
 608 0044 1A60     		str	r2, [r3]
 609 0046 4FF4D853 		mov	r3, #6912
 610 004a 01E0     		b	.L46
 611              	.LVL44:
 612              	.L48:
 284:.\Generated_Source\PSoC5/CAN_1.c ****     {
 613              		.loc 1 284 0
 614 004c 013B     		subs	r3, r3, #1
 615 004e 04D0     		beq	.L49
 616              	.L46:
 284:.\Generated_Source\PSoC5/CAN_1.c ****     {
 617              		.loc 1 284 0 is_stmt 0 discriminator 1
 618 0050 0A68     		ldr	r2, [r1]
 619 0052 D207     		lsls	r2, r2, #31
 620 0054 FAD5     		bpl	.L48
 291:.\Generated_Source\PSoC5/CAN_1.c ****     }
 621              		.loc 1 291 0 is_stmt 1
 622 0056 0020     		movs	r0, #0
 623 0058 08BD     		pop	{r3, pc}
 624              	.L49:
 257:.\Generated_Source\PSoC5/CAN_1.c **** 
 625              		.loc 1 257 0
 626 005a 0120     		movs	r0, #1
 627              	.LVL45:
 295:.\Generated_Source\PSoC5/CAN_1.c **** 
 628              		.loc 1 295 0
 629 005c 08BD     		pop	{r3, pc}
 630              	.L53:
 631 005e 00BF     		.align	2
 632              	.L52:
 633 0060 A6430040 		.word	1073759142
 634 0064 B6430040 		.word	1073759158
 635 0068 00A00040 		.word	1073782784
 636 006c 04A00040 		.word	1073782788
 637 0070 00E100E0 		.word	-536813312
 638 0074 10A00040 		.word	1073782800
 639              		.cfi_endproc
 640              	.LFE2:
 641              		.size	CAN_1_Enable, .-CAN_1_Enable
 642              		.section	.text.CAN_1_Start,"ax",%progbits
 643              		.align	2
 644              		.global	CAN_1_Start
 645              		.thumb
 646              		.thumb_func
 647              		.type	CAN_1_Start, %function
 648              	CAN_1_Start:
 649              	.LFB3:
 324:.\Generated_Source\PSoC5/CAN_1.c ****     uint8 result = CYRET_SUCCESS;
 650              		.loc 1 324 0
ARM GAS  C:\Users\Patrick\AppData\Local\Temp\cc3Vmx0B.s 			page 39


 651              		.cfi_startproc
 652              		@ args = 0, pretend = 0, frame = 0
 653              		@ frame_needed = 0, uses_anonymous_args = 0
 654              	.LVL46:
 655 0000 10B5     		push	{r4, lr}
 656              		.cfi_def_cfa_offset 8
 657              		.cfi_offset 4, -8
 658              		.cfi_offset 14, -4
 327:.\Generated_Source\PSoC5/CAN_1.c ****     {
 659              		.loc 1 327 0
 660 0002 1C4C     		ldr	r4, .L66
 661 0004 2378     		ldrb	r3, [r4]	@ zero_extendqisi2
 662 0006 6BB3     		cbz	r3, .L55
 663              	.LVL47:
 664              	.L57:
 334:.\Generated_Source\PSoC5/CAN_1.c ****         result = CAN_1_Enable();
 665              		.loc 1 334 0
 666 0008 0123     		movs	r3, #1
 667 000a 2370     		strb	r3, [r4]
 668              	.LVL48:
 669              	.LBB86:
 670              	.LBB87:
 262:.\Generated_Source\PSoC5/CAN_1.c **** 
 671              		.loc 1 262 0
 672 000c FFF7FEFF 		bl	CyEnterCriticalSection
 673              	.LVL49:
 265:.\Generated_Source\PSoC5/CAN_1.c **** 
 674              		.loc 1 265 0
 675 0010 1949     		ldr	r1, .L66+4
 268:.\Generated_Source\PSoC5/CAN_1.c **** 
 676              		.loc 1 268 0
 677 0012 1A4A     		ldr	r2, .L66+8
 265:.\Generated_Source\PSoC5/CAN_1.c **** 
 678              		.loc 1 265 0
 679 0014 0B78     		ldrb	r3, [r1]	@ zero_extendqisi2
 680 0016 43F00103 		orr	r3, r3, #1
 681 001a 0B70     		strb	r3, [r1]
 268:.\Generated_Source\PSoC5/CAN_1.c **** 
 682              		.loc 1 268 0
 683 001c 1378     		ldrb	r3, [r2]	@ zero_extendqisi2
 684 001e 43F00103 		orr	r3, r3, #1
 685 0022 1370     		strb	r3, [r2]
 270:.\Generated_Source\PSoC5/CAN_1.c ****     #endif /* CY_PSOC3 || CY_PSOC5 */
 686              		.loc 1 270 0
 687 0024 FFF7FEFF 		bl	CyExitCriticalSection
 688              	.LVL50:
 274:.\Generated_Source\PSoC5/CAN_1.c ****     (void) CAN_1_GlobalIntEnable();
 689              		.loc 1 274 0
 690 0028 154B     		ldr	r3, .L66+12
 691              	.LBB88:
 692              	.LBB89:
 432:.\Generated_Source\PSoC5/CAN_1.c **** 
 693              		.loc 1 432 0
 694 002a 164A     		ldr	r2, .L66+16
 695              	.LBE89:
 696              	.LBE88:
 274:.\Generated_Source\PSoC5/CAN_1.c ****     (void) CAN_1_GlobalIntEnable();
ARM GAS  C:\Users\Patrick\AppData\Local\Temp\cc3Vmx0B.s 			page 40


 697              		.loc 1 274 0
 698 002c 4FF49051 		mov	r1, #4608
 699 0030 1960     		str	r1, [r3]
 700              	.LVL51:
 701              	.LBB93:
 702              	.LBB90:
 432:.\Generated_Source\PSoC5/CAN_1.c **** 
 703              		.loc 1 432 0
 704 0032 1378     		ldrb	r3, [r2]	@ zero_extendqisi2
 705              	.LBE90:
 706              	.LBE93:
 278:.\Generated_Source\PSoC5/CAN_1.c **** 
 707              		.loc 1 278 0
 708 0034 1449     		ldr	r1, .L66+20
 709              	.LBB94:
 710              	.LBB91:
 432:.\Generated_Source\PSoC5/CAN_1.c **** 
 711              		.loc 1 432 0
 712 0036 43F00103 		orr	r3, r3, #1
 713 003a 1370     		strb	r3, [r2]
 714              	.LBE91:
 715              	.LBE94:
 278:.\Generated_Source\PSoC5/CAN_1.c **** 
 716              		.loc 1 278 0
 717 003c 4FF48030 		mov	r0, #65536
 281:.\Generated_Source\PSoC5/CAN_1.c **** 
 718              		.loc 1 281 0
 719 0040 124B     		ldr	r3, .L66+24
 720              	.LBB95:
 721              	.LBB92:
 435:.\Generated_Source\PSoC5/CAN_1.c ****         {
 722              		.loc 1 435 0
 723 0042 1278     		ldrb	r2, [r2]	@ zero_extendqisi2
 724              	.LBE92:
 725              	.LBE95:
 278:.\Generated_Source\PSoC5/CAN_1.c **** 
 726              		.loc 1 278 0
 727 0044 0860     		str	r0, [r1]
 281:.\Generated_Source\PSoC5/CAN_1.c **** 
 728              		.loc 1 281 0
 729 0046 1A68     		ldr	r2, [r3]
 284:.\Generated_Source\PSoC5/CAN_1.c ****     {
 730              		.loc 1 284 0
 731 0048 1946     		mov	r1, r3
 281:.\Generated_Source\PSoC5/CAN_1.c **** 
 732              		.loc 1 281 0
 733 004a 42F00102 		orr	r2, r2, #1
 734 004e 1A60     		str	r2, [r3]
 735 0050 4FF4D853 		mov	r3, #6912
 736 0054 01E0     		b	.L56
 737              	.LVL52:
 738              	.L59:
 284:.\Generated_Source\PSoC5/CAN_1.c ****     {
 739              		.loc 1 284 0
 740 0056 013B     		subs	r3, r3, #1
 741 0058 09D0     		beq	.L60
 742              	.L56:
ARM GAS  C:\Users\Patrick\AppData\Local\Temp\cc3Vmx0B.s 			page 41


 743 005a 0A68     		ldr	r2, [r1]
 744 005c D207     		lsls	r2, r2, #31
 745 005e FAD5     		bpl	.L59
 291:.\Generated_Source\PSoC5/CAN_1.c ****     }
 746              		.loc 1 291 0
 747 0060 0020     		movs	r0, #0
 748 0062 10BD     		pop	{r4, pc}
 749              	.LVL53:
 750              	.L55:
 751              	.LBE87:
 752              	.LBE86:
 329:.\Generated_Source\PSoC5/CAN_1.c ****     }
 753              		.loc 1 329 0
 754 0064 FFF7FEFF 		bl	CAN_1_Init
 755              	.LVL54:
 332:.\Generated_Source\PSoC5/CAN_1.c ****     {
 756              		.loc 1 332 0
 757 0068 0028     		cmp	r0, #0
 758 006a CDD0     		beq	.L57
 759              	.LVL55:
 760              	.L58:
 339:.\Generated_Source\PSoC5/CAN_1.c **** 
 761              		.loc 1 339 0
 762 006c 10BD     		pop	{r4, pc}
 763              	.LVL56:
 764              	.L60:
 765              	.LBB97:
 766              	.LBB96:
 257:.\Generated_Source\PSoC5/CAN_1.c **** 
 767              		.loc 1 257 0
 768 006e 0120     		movs	r0, #1
 769 0070 FCE7     		b	.L58
 770              	.L67:
 771 0072 00BF     		.align	2
 772              	.L66:
 773 0074 00000000 		.word	.LANCHOR1
 774 0078 A6430040 		.word	1073759142
 775 007c B6430040 		.word	1073759158
 776 0080 00A00040 		.word	1073782784
 777 0084 04A00040 		.word	1073782788
 778 0088 00E100E0 		.word	-536813312
 779 008c 10A00040 		.word	1073782800
 780              	.LBE96:
 781              	.LBE97:
 782              		.cfi_endproc
 783              	.LFE3:
 784              		.size	CAN_1_Start, .-CAN_1_Start
 785              		.section	.text.CAN_1_Stop,"ax",%progbits
 786              		.align	2
 787              		.global	CAN_1_Stop
 788              		.thumb
 789              		.thumb_func
 790              		.type	CAN_1_Stop, %function
 791              	CAN_1_Stop:
 792              	.LFB4:
 367:.\Generated_Source\PSoC5/CAN_1.c ****     uint32 timeout = CAN_1_MODE_STATE_STOP_TIMEOUT;
 793              		.loc 1 367 0
ARM GAS  C:\Users\Patrick\AppData\Local\Temp\cc3Vmx0B.s 			page 42


 794              		.cfi_startproc
 795              		@ args = 0, pretend = 0, frame = 0
 796              		@ frame_needed = 0, uses_anonymous_args = 0
 797              	.LVL57:
 376:.\Generated_Source\PSoC5/CAN_1.c ****                                             ((uint32) (~((uint32)CAN_1_MODE_MASK)))));
 798              		.loc 1 376 0
 799 0000 1249     		ldr	r1, .L79
 367:.\Generated_Source\PSoC5/CAN_1.c ****     uint32 timeout = CAN_1_MODE_STATE_STOP_TIMEOUT;
 800              		.loc 1 367 0
 801 0002 10B5     		push	{r4, lr}
 802              		.cfi_def_cfa_offset 8
 803              		.cfi_offset 4, -8
 804              		.cfi_offset 14, -4
 376:.\Generated_Source\PSoC5/CAN_1.c ****                                             ((uint32) (~((uint32)CAN_1_MODE_MASK)))));
 805              		.loc 1 376 0
 806 0004 0868     		ldr	r0, [r1]
 807 0006 4FF4B433 		mov	r3, #92160
 808 000a 20F00100 		bic	r0, r0, #1
 380:.\Generated_Source\PSoC5/CAN_1.c ****     {
 809              		.loc 1 380 0
 810 000e 0A46     		mov	r2, r1
 376:.\Generated_Source\PSoC5/CAN_1.c ****                                             ((uint32) (~((uint32)CAN_1_MODE_MASK)))));
 811              		.loc 1 376 0
 812 0010 0860     		str	r0, [r1]
 813 0012 01E0     		b	.L69
 814              	.LVL58:
 815              	.L71:
 380:.\Generated_Source\PSoC5/CAN_1.c ****     {
 816              		.loc 1 380 0
 817 0014 013B     		subs	r3, r3, #1
 818 0016 17D0     		beq	.L73
 819              	.L69:
 380:.\Generated_Source\PSoC5/CAN_1.c ****     {
 820              		.loc 1 380 0 is_stmt 0 discriminator 1
 821 0018 1068     		ldr	r0, [r2]
 822 001a 10F00104 		ands	r4, r0, #1
 823 001e F9D1     		bne	.L71
 824              	.LVL59:
 391:.\Generated_Source\PSoC5/CAN_1.c **** 
 825              		.loc 1 391 0 is_stmt 1
 826 0020 0B4B     		ldr	r3, .L79+4
 827 0022 4FF48032 		mov	r2, #65536
 828 0026 1A60     		str	r2, [r3]
 394:.\Generated_Source\PSoC5/CAN_1.c **** 
 829              		.loc 1 394 0
 830 0028 FFF7FEFF 		bl	CyEnterCriticalSection
 831              	.LVL60:
 397:.\Generated_Source\PSoC5/CAN_1.c **** 
 832              		.loc 1 397 0
 833 002c 0949     		ldr	r1, .L79+8
 400:.\Generated_Source\PSoC5/CAN_1.c **** 
 834              		.loc 1 400 0
 835 002e 0A4A     		ldr	r2, .L79+12
 397:.\Generated_Source\PSoC5/CAN_1.c **** 
 836              		.loc 1 397 0
 837 0030 0B78     		ldrb	r3, [r1]	@ zero_extendqisi2
 838 0032 03F0FE03 		and	r3, r3, #254
ARM GAS  C:\Users\Patrick\AppData\Local\Temp\cc3Vmx0B.s 			page 43


 839 0036 0B70     		strb	r3, [r1]
 400:.\Generated_Source\PSoC5/CAN_1.c **** 
 840              		.loc 1 400 0
 841 0038 1378     		ldrb	r3, [r2]	@ zero_extendqisi2
 842 003a 03F0FE03 		and	r3, r3, #254
 843 003e 1370     		strb	r3, [r2]
 402:.\Generated_Source\PSoC5/CAN_1.c ****         #endif /* CY_PSOC3 || CY_PSOC5 */
 844              		.loc 1 402 0
 845 0040 FFF7FEFF 		bl	CyExitCriticalSection
 846              	.LVL61:
 388:.\Generated_Source\PSoC5/CAN_1.c **** 
 847              		.loc 1 388 0
 848 0044 2046     		mov	r0, r4
 407:.\Generated_Source\PSoC5/CAN_1.c **** 
 849              		.loc 1 407 0
 850 0046 10BD     		pop	{r4, pc}
 851              	.LVL62:
 852              	.L73:
 369:.\Generated_Source\PSoC5/CAN_1.c **** 
 853              		.loc 1 369 0
 854 0048 0120     		movs	r0, #1
 855 004a 10BD     		pop	{r4, pc}
 856              	.L80:
 857              		.align	2
 858              	.L79:
 859 004c 10A00040 		.word	1073782800
 860 0050 80E100E0 		.word	-536813184
 861 0054 A6430040 		.word	1073759142
 862 0058 B6430040 		.word	1073759158
 863              		.cfi_endproc
 864              	.LFE4:
 865              		.size	CAN_1_Stop, .-CAN_1_Stop
 866              		.section	.text.CAN_1_GlobalIntEnable,"ax",%progbits
 867              		.align	2
 868              		.global	CAN_1_GlobalIntEnable
 869              		.thumb
 870              		.thumb_func
 871              		.type	CAN_1_GlobalIntEnable, %function
 872              	CAN_1_GlobalIntEnable:
 873              	.LFB5:
 428:.\Generated_Source\PSoC5/CAN_1.c ****     uint8 result = CAN_1_FAIL;
 874              		.loc 1 428 0
 875              		.cfi_startproc
 876              		@ args = 0, pretend = 0, frame = 0
 877              		@ frame_needed = 0, uses_anonymous_args = 0
 878              		@ link register save eliminated.
 879              	.LVL63:
 432:.\Generated_Source\PSoC5/CAN_1.c **** 
 880              		.loc 1 432 0
 881 0000 054B     		ldr	r3, .L82
 882 0002 1A78     		ldrb	r2, [r3]	@ zero_extendqisi2
 883 0004 42F00102 		orr	r2, r2, #1
 884 0008 1A70     		strb	r2, [r3]
 435:.\Generated_Source\PSoC5/CAN_1.c ****         {
 885              		.loc 1 435 0
 886 000a 1878     		ldrb	r0, [r3]	@ zero_extendqisi2
 887 000c 00F00100 		and	r0, r0, #1
ARM GAS  C:\Users\Patrick\AppData\Local\Temp\cc3Vmx0B.s 			page 44


 888              	.LVL64:
 449:.\Generated_Source\PSoC5/CAN_1.c **** 
 889              		.loc 1 449 0
 890 0010 80F00100 		eor	r0, r0, #1
 891              	.LVL65:
 892 0014 7047     		bx	lr
 893              	.L83:
 894 0016 00BF     		.align	2
 895              	.L82:
 896 0018 04A00040 		.word	1073782788
 897              		.cfi_endproc
 898              	.LFE5:
 899              		.size	CAN_1_GlobalIntEnable, .-CAN_1_GlobalIntEnable
 900              		.section	.text.CAN_1_GlobalIntDisable,"ax",%progbits
 901              		.align	2
 902              		.global	CAN_1_GlobalIntDisable
 903              		.thumb
 904              		.thumb_func
 905              		.type	CAN_1_GlobalIntDisable, %function
 906              	CAN_1_GlobalIntDisable:
 907              	.LFB6:
 470:.\Generated_Source\PSoC5/CAN_1.c ****     uint8 result = CAN_1_FAIL;
 908              		.loc 1 470 0
 909              		.cfi_startproc
 910              		@ args = 0, pretend = 0, frame = 0
 911              		@ frame_needed = 0, uses_anonymous_args = 0
 912              		@ link register save eliminated.
 913              	.LVL66:
 474:.\Generated_Source\PSoC5/CAN_1.c **** 
 914              		.loc 1 474 0
 915 0000 044B     		ldr	r3, .L85
 916 0002 1A78     		ldrb	r2, [r3]	@ zero_extendqisi2
 917 0004 02F0FE02 		and	r2, r2, #254
 918 0008 1A70     		strb	r2, [r3]
 477:.\Generated_Source\PSoC5/CAN_1.c ****         {
 919              		.loc 1 477 0
 920 000a 1878     		ldrb	r0, [r3]	@ zero_extendqisi2
 921              	.LVL67:
 492:.\Generated_Source\PSoC5/CAN_1.c **** 
 922              		.loc 1 492 0
 923 000c 00F00100 		and	r0, r0, #1
 924              	.LVL68:
 925 0010 7047     		bx	lr
 926              	.L86:
 927 0012 00BF     		.align	2
 928              	.L85:
 929 0014 04A00040 		.word	1073782788
 930              		.cfi_endproc
 931              	.LFE6:
 932              		.size	CAN_1_GlobalIntDisable, .-CAN_1_GlobalIntDisable
 933              		.section	.text.CAN_1_SetPreScaler,"ax",%progbits
 934              		.align	2
 935              		.global	CAN_1_SetPreScaler
 936              		.thumb
 937              		.thumb_func
 938              		.type	CAN_1_SetPreScaler, %function
 939              	CAN_1_SetPreScaler:
ARM GAS  C:\Users\Patrick\AppData\Local\Temp\cc3Vmx0B.s 			page 45


 940              	.LFB7:
 520:.\Generated_Source\PSoC5/CAN_1.c ****     uint8 result = CAN_1_OUT_OF_RANGE;
 941              		.loc 1 520 0
 942              		.cfi_startproc
 943              		@ args = 0, pretend = 0, frame = 0
 944              		@ frame_needed = 0, uses_anonymous_args = 0
 945              		@ link register save eliminated.
 946              	.LVL69:
 523:.\Generated_Source\PSoC5/CAN_1.c ****     {
 947              		.loc 1 523 0
 948 0000 0304     		lsls	r3, r0, #16
 949 0002 07D4     		bmi	.L89
 950              	.LVL70:
 951              	.LBB100:
 952              	.LBB101:
 529:.\Generated_Source\PSoC5/CAN_1.c **** 
 953              		.loc 1 529 0
 954 0004 044B     		ldr	r3, .L90
 955 0006 1880     		strh	r0, [r3]	@ movhi
 532:.\Generated_Source\PSoC5/CAN_1.c ****             {
 956              		.loc 1 532 0
 957 0008 1B88     		ldrh	r3, [r3]
 958 000a 9BB2     		uxth	r3, r3
 959              	.LBE101:
 960              	.LBE100:
 521:.\Generated_Source\PSoC5/CAN_1.c **** 
 961              		.loc 1 521 0
 962 000c C01A     		subs	r0, r0, r3
 963              	.LVL71:
 964 000e 18BF     		it	ne
 965 0010 0120     		movne	r0, #1
 966 0012 7047     		bx	lr
 967              	.LVL72:
 968              	.L89:
 969 0014 0220     		movs	r0, #2
 970              	.LVL73:
 551:.\Generated_Source\PSoC5/CAN_1.c **** 
 971              		.loc 1 551 0
 972 0016 7047     		bx	lr
 973              	.L91:
 974              		.align	2
 975              	.L90:
 976 0018 16A00040 		.word	1073782806
 977              		.cfi_endproc
 978              	.LFE7:
 979              		.size	CAN_1_SetPreScaler, .-CAN_1_SetPreScaler
 980              		.section	.text.CAN_1_SetArbiter,"ax",%progbits
 981              		.align	2
 982              		.global	CAN_1_SetArbiter
 983              		.thumb
 984              		.thumb_func
 985              		.type	CAN_1_SetArbiter, %function
 986              	CAN_1_SetArbiter:
 987              	.LFB8:
 576:.\Generated_Source\PSoC5/CAN_1.c ****     uint8 result = CAN_1_FAIL;
 988              		.loc 1 576 0
 989              		.cfi_startproc
ARM GAS  C:\Users\Patrick\AppData\Local\Temp\cc3Vmx0B.s 			page 46


 990              		@ args = 0, pretend = 0, frame = 0
 991              		@ frame_needed = 0, uses_anonymous_args = 0
 992              		@ link register save eliminated.
 993              	.LVL74:
 994              	.LBB104:
 995              	.LBB105:
 582:.\Generated_Source\PSoC5/CAN_1.c **** 
 996              		.loc 1 582 0
 997 0000 094B     		ldr	r3, .L95
 998 0002 5A78     		ldrb	r2, [r3, #1]	@ zero_extendqisi2
 999              	.LBE105:
 1000              	.LBE104:
 580:.\Generated_Source\PSoC5/CAN_1.c ****         {
 1001              		.loc 1 580 0
 1002 0004 30B9     		cbnz	r0, .L93
 1003              	.LVL75:
 1004              	.LBB108:
 1005              	.LBB106:
 582:.\Generated_Source\PSoC5/CAN_1.c **** 
 1006              		.loc 1 582 0
 1007 0006 02F0EF02 		and	r2, r2, #239
 1008 000a 5A70     		strb	r2, [r3, #1]
 585:.\Generated_Source\PSoC5/CAN_1.c ****             {
 1009              		.loc 1 585 0
 1010 000c 5878     		ldrb	r0, [r3, #1]	@ zero_extendqisi2
 1011              	.LVL76:
 587:.\Generated_Source\PSoC5/CAN_1.c ****             }
 1012              		.loc 1 587 0
 1013 000e C0F30010 		ubfx	r0, r0, #4, #1
 1014 0012 7047     		bx	lr
 1015              	.LVL77:
 1016              	.L93:
 1017              	.LBE106:
 1018              	.LBE108:
 592:.\Generated_Source\PSoC5/CAN_1.c **** 
 1019              		.loc 1 592 0
 1020 0014 42F01002 		orr	r2, r2, #16
 1021 0018 5A70     		strb	r2, [r3, #1]
 595:.\Generated_Source\PSoC5/CAN_1.c ****             {
 1022              		.loc 1 595 0
 1023 001a 5878     		ldrb	r0, [r3, #1]	@ zero_extendqisi2
 1024              	.LVL78:
 1025 001c 80F01000 		eor	r0, r0, #16
 1026              	.LBB109:
 1027              	.LBB107:
 587:.\Generated_Source\PSoC5/CAN_1.c ****             }
 1028              		.loc 1 587 0
 1029 0020 C0F30010 		ubfx	r0, r0, #4, #1
 1030              	.LVL79:
 1031              	.LBE107:
 1032              	.LBE109:
 624:.\Generated_Source\PSoC5/CAN_1.c **** 
 1033              		.loc 1 624 0
 1034 0024 7047     		bx	lr
 1035              	.L96:
 1036 0026 00BF     		.align	2
 1037              	.L95:
ARM GAS  C:\Users\Patrick\AppData\Local\Temp\cc3Vmx0B.s 			page 47


 1038 0028 14A00040 		.word	1073782804
 1039              		.cfi_endproc
 1040              	.LFE8:
 1041              		.size	CAN_1_SetArbiter, .-CAN_1_SetArbiter
 1042              		.section	.text.CAN_1_SetTsegSample,"ax",%progbits
 1043              		.align	2
 1044              		.global	CAN_1_SetTsegSample
 1045              		.thumb
 1046              		.thumb_func
 1047              		.type	CAN_1_SetTsegSample, %function
 1048              	CAN_1_SetTsegSample:
 1049              	.LFB9:
 654:.\Generated_Source\PSoC5/CAN_1.c ****     uint8 result = CAN_1_OUT_OF_RANGE;
 1050              		.loc 1 654 0
 1051              		.cfi_startproc
 1052              		@ args = 0, pretend = 0, frame = 0
 1053              		@ frame_needed = 0, uses_anonymous_args = 0
 1054              		@ link register save eliminated.
 1055              	.LVL80:
 1056 0000 30B4     		push	{r4, r5}
 1057              		.cfi_def_cfa_offset 8
 1058              		.cfi_offset 4, -8
 1059              		.cfi_offset 5, -4
 658:.\Generated_Source\PSoC5/CAN_1.c ****          CAN_1_CFG_REG_TSEG1_UPPER_LIMIT))
 1060              		.loc 1 658 0
 1061 0002 841E     		subs	r4, r0, #2
 1062 0004 0D2C     		cmp	r4, #13
 1063 0006 02D9     		bls	.L110
 1064              	.L106:
 655:.\Generated_Source\PSoC5/CAN_1.c ****     uint8 cfgTemp;
 1065              		.loc 1 655 0
 1066 0008 0220     		movs	r0, #2
 1067              	.LVL81:
 1068              	.L98:
 741:.\Generated_Source\PSoC5/CAN_1.c **** 
 1069              		.loc 1 741 0
 1070 000a 30BC     		pop	{r4, r5}
 1071              		.cfi_remember_state
 1072              		.cfi_restore 5
 1073              		.cfi_restore 4
 1074              		.cfi_def_cfa_offset 0
 1075 000c 7047     		bx	lr
 1076              	.LVL82:
 1077              	.L110:
 1078              		.cfi_restore_state
 661:.\Generated_Source\PSoC5/CAN_1.c ****              (cfgTseg2 <= CAN_1_CFG_REG_TSEG2_UPPER_LIMIT)) || ((sm == CAN_1_ONE_SAMPLE_POINT) &&
 1079              		.loc 1 661 0
 1080 000e 8C1E     		subs	r4, r1, #2
 1081 0010 052C     		cmp	r4, #5
 1082 0012 10D8     		bhi	.L111
 1083              	.L99:
 665:.\Generated_Source\PSoC5/CAN_1.c ****             {
 1084              		.loc 1 665 0
 1085 0014 032A     		cmp	r2, #3
 1086 0016 F7D8     		bhi	.L106
 665:.\Generated_Source\PSoC5/CAN_1.c ****             {
 1087              		.loc 1 665 0 is_stmt 0 discriminator 1
ARM GAS  C:\Users\Patrick\AppData\Local\Temp\cc3Vmx0B.s 			page 48


 1088 0018 9042     		cmp	r0, r2
 1089 001a F5D3     		bcc	.L106
 665:.\Generated_Source\PSoC5/CAN_1.c ****             {
 1090              		.loc 1 665 0 discriminator 2
 1091 001c 9142     		cmp	r1, r2
 1092 001e F3D3     		bcc	.L106
 1093              	.LVL83:
 670:.\Generated_Source\PSoC5/CAN_1.c ****                     cfgTemp &= (uint8) (~CAN_1_CFG_REG_TSEG1_MASK);
 1094              		.loc 1 670 0 is_stmt 1
 1095 0020 0F4D     		ldr	r5, .L113
 1096 0022 6C78     		ldrb	r4, [r5, #1]	@ zero_extendqisi2
 1097              	.LVL84:
 671:.\Generated_Source\PSoC5/CAN_1.c ****                     cfgTemp |= cfgTseg1;
 1098              		.loc 1 671 0
 1099 0024 04F0F004 		and	r4, r4, #240
 1100              	.LVL85:
 672:.\Generated_Source\PSoC5/CAN_1.c **** 
 1101              		.loc 1 672 0
 1102 0028 2043     		orrs	r0, r0, r4
 1103              	.LVL86:
 675:.\Generated_Source\PSoC5/CAN_1.c **** 
 1104              		.loc 1 675 0
 1105 002a 6870     		strb	r0, [r5, #1]
 678:.\Generated_Source\PSoC5/CAN_1.c ****                     {
 1106              		.loc 1 678 0
 1107 002c 6C78     		ldrb	r4, [r5, #1]	@ zero_extendqisi2
 1108 002e 8442     		cmp	r4, r0
 1109 0030 06D0     		beq	.L112
 667:.\Generated_Source\PSoC5/CAN_1.c **** 
 1110              		.loc 1 667 0
 1111 0032 0120     		movs	r0, #1
 1112              	.LVL87:
 1113 0034 E9E7     		b	.L98
 1114              	.LVL88:
 1115              	.L111:
 662:.\Generated_Source\PSoC5/CAN_1.c ****              (cfgTseg2 == CAN_1_CFG_REG_TSEG2_EXCEPTION)))
 1116              		.loc 1 662 0
 1117 0036 002B     		cmp	r3, #0
 1118 0038 E6D1     		bne	.L106
 662:.\Generated_Source\PSoC5/CAN_1.c ****              (cfgTseg2 == CAN_1_CFG_REG_TSEG2_EXCEPTION)))
 1119              		.loc 1 662 0 is_stmt 0 discriminator 1
 1120 003a 0129     		cmp	r1, #1
 1121 003c E4D1     		bne	.L106
 1122 003e E9E7     		b	.L99
 1123              	.LVL89:
 1124              	.L112:
 1125              	.LBB112:
 1126              	.LBB113:
 684:.\Generated_Source\PSoC5/CAN_1.c ****                         }
 1127              		.loc 1 684 0 is_stmt 1
 1128 0040 002B     		cmp	r3, #0
 687:.\Generated_Source\PSoC5/CAN_1.c **** 
 1129              		.loc 1 687 0
 1130 0042 4FEA8202 		lsl	r2, r2, #2
 1131              	.LVL90:
 684:.\Generated_Source\PSoC5/CAN_1.c ****                         }
 1132              		.loc 1 684 0
ARM GAS  C:\Users\Patrick\AppData\Local\Temp\cc3Vmx0B.s 			page 49


 1133 0046 0CBF     		ite	eq
 1134 0048 0020     		moveq	r0, #0
 1135              	.LVL91:
 1136 004a 0220     		movne	r0, #2
 1137              	.LVL92:
 686:.\Generated_Source\PSoC5/CAN_1.c ****                                    ((uint8) (sjw << CAN_1_CFG_REG_SJW_SHIFT));
 1138              		.loc 1 686 0
 1139 004c 42EA4113 		orr	r3, r2, r1, lsl #5
 1140              	.LVL93:
 1141 0050 0343     		orrs	r3, r3, r0
 1142 0052 DBB2     		uxtb	r3, r3
 1143              	.LVL94:
 690:.\Generated_Source\PSoC5/CAN_1.c **** 
 1144              		.loc 1 690 0
 1145 0054 2B70     		strb	r3, [r5]
 1146              	.LVL95:
 693:.\Generated_Source\PSoC5/CAN_1.c ****                         {
 1147              		.loc 1 693 0
 1148 0056 2878     		ldrb	r0, [r5]	@ zero_extendqisi2
 1149              	.LBE113:
 1150              	.LBE112:
 655:.\Generated_Source\PSoC5/CAN_1.c ****     uint8 cfgTemp;
 1151              		.loc 1 655 0
 1152 0058 181A     		subs	r0, r3, r0
 1153 005a 18BF     		it	ne
 1154 005c 0120     		movne	r0, #1
 1155 005e D4E7     		b	.L98
 1156              	.L114:
 1157              		.align	2
 1158              	.L113:
 1159 0060 14A00040 		.word	1073782804
 1160              		.cfi_endproc
 1161              	.LFE9:
 1162              		.size	CAN_1_SetTsegSample, .-CAN_1_SetTsegSample
 1163              		.section	.text.CAN_1_SetRestartType,"ax",%progbits
 1164              		.align	2
 1165              		.global	CAN_1_SetRestartType
 1166              		.thumb
 1167              		.thumb_func
 1168              		.type	CAN_1_SetRestartType, %function
 1169              	CAN_1_SetRestartType:
 1170              	.LFB10:
 770:.\Generated_Source\PSoC5/CAN_1.c ****     uint8 result = CAN_1_FAIL;
 1171              		.loc 1 770 0
 1172              		.cfi_startproc
 1173              		@ args = 0, pretend = 0, frame = 0
 1174              		@ frame_needed = 0, uses_anonymous_args = 0
 1175              		@ link register save eliminated.
 1176              	.LVL96:
 1177              	.LBB116:
 1178              	.LBB117:
 776:.\Generated_Source\PSoC5/CAN_1.c **** 
 1179              		.loc 1 776 0
 1180 0000 094B     		ldr	r3, .L118
 1181 0002 1A78     		ldrb	r2, [r3]	@ zero_extendqisi2
 1182              	.LBE117:
 1183              	.LBE116:
ARM GAS  C:\Users\Patrick\AppData\Local\Temp\cc3Vmx0B.s 			page 50


 774:.\Generated_Source\PSoC5/CAN_1.c ****         {
 1184              		.loc 1 774 0
 1185 0004 30B9     		cbnz	r0, .L116
 1186              	.LVL97:
 1187              	.LBB120:
 1188              	.LBB118:
 776:.\Generated_Source\PSoC5/CAN_1.c **** 
 1189              		.loc 1 776 0
 1190 0006 02F0EF02 		and	r2, r2, #239
 1191 000a 1A70     		strb	r2, [r3]
 779:.\Generated_Source\PSoC5/CAN_1.c ****             {
 1192              		.loc 1 779 0
 1193 000c 1878     		ldrb	r0, [r3]	@ zero_extendqisi2
 1194              	.LVL98:
 781:.\Generated_Source\PSoC5/CAN_1.c ****             }
 1195              		.loc 1 781 0
 1196 000e C0F30010 		ubfx	r0, r0, #4, #1
 1197 0012 7047     		bx	lr
 1198              	.LVL99:
 1199              	.L116:
 1200              	.LBE118:
 1201              	.LBE120:
 786:.\Generated_Source\PSoC5/CAN_1.c **** 
 1202              		.loc 1 786 0
 1203 0014 42F01002 		orr	r2, r2, #16
 1204 0018 1A70     		strb	r2, [r3]
 789:.\Generated_Source\PSoC5/CAN_1.c ****             {
 1205              		.loc 1 789 0
 1206 001a 1878     		ldrb	r0, [r3]	@ zero_extendqisi2
 1207              	.LVL100:
 1208 001c 80F01000 		eor	r0, r0, #16
 1209              	.LBB121:
 1210              	.LBB119:
 781:.\Generated_Source\PSoC5/CAN_1.c ****             }
 1211              		.loc 1 781 0
 1212 0020 C0F30010 		ubfx	r0, r0, #4, #1
 1213              	.LVL101:
 1214              	.LBE119:
 1215              	.LBE121:
 818:.\Generated_Source\PSoC5/CAN_1.c **** 
 1216              		.loc 1 818 0
 1217 0024 7047     		bx	lr
 1218              	.L119:
 1219 0026 00BF     		.align	2
 1220              	.L118:
 1221 0028 14A00040 		.word	1073782804
 1222              		.cfi_endproc
 1223              	.LFE10:
 1224              		.size	CAN_1_SetRestartType, .-CAN_1_SetRestartType
 1225              		.section	.text.CAN_1_SetEdgeMode,"ax",%progbits
 1226              		.align	2
 1227              		.global	CAN_1_SetEdgeMode
 1228              		.thumb
 1229              		.thumb_func
 1230              		.type	CAN_1_SetEdgeMode, %function
 1231              	CAN_1_SetEdgeMode:
 1232              	.LFB11:
ARM GAS  C:\Users\Patrick\AppData\Local\Temp\cc3Vmx0B.s 			page 51


 844:.\Generated_Source\PSoC5/CAN_1.c ****     uint8 result = CAN_1_FAIL;
 1233              		.loc 1 844 0
 1234              		.cfi_startproc
 1235              		@ args = 0, pretend = 0, frame = 0
 1236              		@ frame_needed = 0, uses_anonymous_args = 0
 1237              		@ link register save eliminated.
 1238              	.LVL102:
 1239              	.LBB124:
 1240              	.LBB125:
 851:.\Generated_Source\PSoC5/CAN_1.c **** 
 1241              		.loc 1 851 0
 1242 0000 094B     		ldr	r3, .L123
 1243 0002 1A78     		ldrb	r2, [r3]	@ zero_extendqisi2
 1244              	.LBE125:
 1245              	.LBE124:
 848:.\Generated_Source\PSoC5/CAN_1.c ****         {
 1246              		.loc 1 848 0
 1247 0004 30B9     		cbnz	r0, .L121
 1248              	.LVL103:
 1249              	.LBB128:
 1250              	.LBB126:
 851:.\Generated_Source\PSoC5/CAN_1.c **** 
 1251              		.loc 1 851 0
 1252 0006 02F0FE02 		and	r2, r2, #254
 1253 000a 1A70     		strb	r2, [r3]
 854:.\Generated_Source\PSoC5/CAN_1.c ****             {
 1254              		.loc 1 854 0
 1255 000c 1878     		ldrb	r0, [r3]	@ zero_extendqisi2
 1256              	.LVL104:
 1257 000e 00F00100 		and	r0, r0, #1
 1258 0012 7047     		bx	lr
 1259              	.LVL105:
 1260              	.L121:
 1261              	.LBE126:
 1262              	.LBE128:
 862:.\Generated_Source\PSoC5/CAN_1.c **** 
 1263              		.loc 1 862 0
 1264 0014 42F00102 		orr	r2, r2, #1
 1265 0018 1A70     		strb	r2, [r3]
 865:.\Generated_Source\PSoC5/CAN_1.c ****             {
 1266              		.loc 1 865 0
 1267 001a 1878     		ldrb	r0, [r3]	@ zero_extendqisi2
 1268              	.LVL106:
 1269 001c 00F00100 		and	r0, r0, #1
 1270              	.LBB129:
 1271              	.LBB127:
 856:.\Generated_Source\PSoC5/CAN_1.c ****             }
 1272              		.loc 1 856 0
 1273 0020 80F00100 		eor	r0, r0, #1
 1274              	.LVL107:
 1275              	.LBE127:
 1276              	.LBE129:
 896:.\Generated_Source\PSoC5/CAN_1.c **** 
 1277              		.loc 1 896 0
 1278 0024 7047     		bx	lr
 1279              	.L124:
 1280 0026 00BF     		.align	2
ARM GAS  C:\Users\Patrick\AppData\Local\Temp\cc3Vmx0B.s 			page 52


 1281              	.L123:
 1282 0028 14A00040 		.word	1073782804
 1283              		.cfi_endproc
 1284              	.LFE11:
 1285              		.size	CAN_1_SetEdgeMode, .-CAN_1_SetEdgeMode
 1286              		.section	.text.CAN_1_SetOpMode,"ax",%progbits
 1287              		.align	2
 1288              		.global	CAN_1_SetOpMode
 1289              		.thumb
 1290              		.thumb_func
 1291              		.type	CAN_1_SetOpMode, %function
 1292              	CAN_1_SetOpMode:
 1293              	.LFB12:
 939:.\Generated_Source\PSoC5/CAN_1.c ****     #if (CY_PSOC3 || CY_PSOC5)
 1294              		.loc 1 939 0
 1295              		.cfi_startproc
 1296              		@ args = 0, pretend = 0, frame = 0
 1297              		@ frame_needed = 0, uses_anonymous_args = 0
 1298              		@ link register save eliminated.
 1299              	.LVL108:
 1300 0000 30B4     		push	{r4, r5}
 1301              		.cfi_def_cfa_offset 8
 1302              		.cfi_offset 4, -8
 1303              		.cfi_offset 5, -4
 947:.\Generated_Source\PSoC5/CAN_1.c ****             (opMode == CAN_1_ACTIVE_RUN_MODE))
 1304              		.loc 1 947 0
 1305 0002 184B     		ldr	r3, .L148
 1306 0004 1B78     		ldrb	r3, [r3]	@ zero_extendqisi2
 1307 0006 D907     		lsls	r1, r3, #31
 944:.\Generated_Source\PSoC5/CAN_1.c **** 
 1308              		.loc 1 944 0
 1309 0008 5CBF     		itt	pl
 1310 000a 451E     		subpl	r5, r0, #1
 1311 000c B5FA85F5 		clzpl	r5, r5
 954:.\Generated_Source\PSoC5/CAN_1.c **** 
 1312              		.loc 1 954 0
 1313 0010 1449     		ldr	r1, .L148
 1314 0012 4FF00003 		mov	r3, #0
 1315 0016 0B70     		strb	r3, [r1]
 944:.\Generated_Source\PSoC5/CAN_1.c **** 
 1316              		.loc 1 944 0
 1317 0018 54BF     		ite	pl
 1318 001a 6D09     		lsrpl	r5, r5, #5
 950:.\Generated_Source\PSoC5/CAN_1.c ****         }
 1319              		.loc 1 950 0
 1320 001c 0125     		movmi	r5, #1
 1321              	.LVL109:
 954:.\Generated_Source\PSoC5/CAN_1.c **** 
 1322              		.loc 1 954 0
 1323 001e 4FF4B433 		mov	r3, #92160
 1324 0022 01E0     		b	.L127
 1325              	.LVL110:
 1326              	.L129:
 957:.\Generated_Source\PSoC5/CAN_1.c ****             (timeout != 0u) && ((CAN_1_CMD_REG.byte[0u] & CAN_1_ACTIVE_RUN_MODE) != 0u);
 1327              		.loc 1 957 0
 1328 0024 013B     		subs	r3, r3, #1
 1329 0026 0BD0     		beq	.L134
ARM GAS  C:\Users\Patrick\AppData\Local\Temp\cc3Vmx0B.s 			page 53


 1330              	.L127:
 958:.\Generated_Source\PSoC5/CAN_1.c ****              timeout--)
 1331              		.loc 1 958 0
 1332 0028 0A78     		ldrb	r2, [r1]	@ zero_extendqisi2
 1333 002a 0E4C     		ldr	r4, .L148
 1334 002c D207     		lsls	r2, r2, #31
 1335 002e F9D4     		bmi	.L129
 1336              	.LVL111:
 968:.\Generated_Source\PSoC5/CAN_1.c ****         {
 1337              		.loc 1 968 0
 1338 0030 18B1     		cbz	r0, .L136
 970:.\Generated_Source\PSoC5/CAN_1.c ****             {
 1339              		.loc 1 970 0
 1340 0032 0228     		cmp	r0, #2
 972:.\Generated_Source\PSoC5/CAN_1.c ****             }
 1341              		.loc 1 972 0
 1342 0034 08BF     		it	eq
 1343 0036 2070     		strbeq	r0, [r4]
 975:.\Generated_Source\PSoC5/CAN_1.c ****             {
 1344              		.loc 1 975 0
 1345 0038 2DB9     		cbnz	r5, .L132
 1346              	.LVL112:
 1347              	.L136:
1028:.\Generated_Source\PSoC5/CAN_1.c **** 
 1348              		.loc 1 1028 0
 1349 003a 30BC     		pop	{r4, r5}
 1350              		.cfi_remember_state
 1351              		.cfi_restore 5
 1352              		.cfi_restore 4
 1353              		.cfi_def_cfa_offset 0
 1354              	.LVL113:
 977:.\Generated_Source\PSoC5/CAN_1.c **** 
 1355              		.loc 1 977 0
 1356 003c 0020     		movs	r0, #0
1028:.\Generated_Source\PSoC5/CAN_1.c **** 
 1357              		.loc 1 1028 0
 1358 003e 7047     		bx	lr
 1359              	.LVL114:
 1360              	.L134:
 1361              		.cfi_restore_state
 977:.\Generated_Source\PSoC5/CAN_1.c **** 
 1362              		.loc 1 977 0
 1363 0040 0120     		movs	r0, #1
1028:.\Generated_Source\PSoC5/CAN_1.c **** 
 1364              		.loc 1 1028 0
 1365 0042 30BC     		pop	{r4, r5}
 1366              		.cfi_remember_state
 1367              		.cfi_restore 4
 1368              		.cfi_restore 5
 1369              		.cfi_def_cfa_offset 0
 1370              	.LVL115:
 1371 0044 7047     		bx	lr
 1372              	.LVL116:
 1373              	.L132:
 1374              		.cfi_restore_state
 977:.\Generated_Source\PSoC5/CAN_1.c **** 
 1375              		.loc 1 977 0
ARM GAS  C:\Users\Patrick\AppData\Local\Temp\cc3Vmx0B.s 			page 54


 1376 0046 074A     		ldr	r2, .L148
 1377 0048 4FF4D853 		mov	r3, #6912
 1378 004c 1078     		ldrb	r0, [r2]	@ zero_extendqisi2
 1379              	.LVL117:
 981:.\Generated_Source\PSoC5/CAN_1.c ****                      timeout--)
 1380              		.loc 1 981 0
 1381 004e 1146     		mov	r1, r2
 977:.\Generated_Source\PSoC5/CAN_1.c **** 
 1382              		.loc 1 977 0
 1383 0050 40F00100 		orr	r0, r0, #1
 1384 0054 1070     		strb	r0, [r2]
 1385              	.LVL118:
 1386 0056 01E0     		b	.L133
 1387              	.LVL119:
 1388              	.L135:
 980:.\Generated_Source\PSoC5/CAN_1.c ****                     (timeout != 0u) && ((CAN_1_CMD_REG.byte[0u] & CAN_1_MODE_MASK) == 0u);
 1389              		.loc 1 980 0
 1390 0058 013B     		subs	r3, r3, #1
 1391 005a F1D0     		beq	.L134
 1392              	.L133:
 981:.\Generated_Source\PSoC5/CAN_1.c ****                      timeout--)
 1393              		.loc 1 981 0
 1394 005c 0A78     		ldrb	r2, [r1]	@ zero_extendqisi2
 1395 005e D207     		lsls	r2, r2, #31
 1396 0060 FAD5     		bpl	.L135
 1397 0062 EAE7     		b	.L136
 1398              	.L149:
 1399              		.align	2
 1400              	.L148:
 1401 0064 10A00040 		.word	1073782800
 1402              		.cfi_endproc
 1403              	.LFE12:
 1404              		.size	CAN_1_SetOpMode, .-CAN_1_SetOpMode
 1405              		.section	.text.CAN_1_RXRegisterInit,"ax",%progbits
 1406              		.align	2
 1407              		.global	CAN_1_RXRegisterInit
 1408              		.thumb
 1409              		.thumb_func
 1410              		.type	CAN_1_RXRegisterInit, %function
 1411              	CAN_1_RXRegisterInit:
 1412              	.LFB13:
1052:.\Generated_Source\PSoC5/CAN_1.c ****     uint8 result = CAN_1_OUT_OF_RANGE;
 1413              		.loc 1 1052 0
 1414              		.cfi_startproc
 1415              		@ args = 0, pretend = 0, frame = 0
 1416              		@ frame_needed = 0, uses_anonymous_args = 0
 1417              		@ link register save eliminated.
 1418              	.LVL120:
1055:.\Generated_Source\PSoC5/CAN_1.c ****         ((uint32) CAN_1_RX_FIRST_REGISTER_PTR & CAN_1_REG_ADDR_MASK)) &&
 1419              		.loc 1 1055 0
 1420 0000 83B2     		uxth	r3, r0
1056:.\Generated_Source\PSoC5/CAN_1.c ****         ((((uint32) regAddr & CAN_1_REG_ADDR_MASK)) <=
 1421              		.loc 1 1056 0
 1422 0002 A3F52043 		sub	r3, r3, #40960
 1423 0006 A03B     		subs	r3, r3, #160
1055:.\Generated_Source\PSoC5/CAN_1.c ****         ((uint32) CAN_1_RX_FIRST_REGISTER_PTR & CAN_1_REG_ADDR_MASK)) &&
 1424              		.loc 1 1055 0
ARM GAS  C:\Users\Patrick\AppData\Local\Temp\cc3Vmx0B.s 			page 55


 1425 0008 B3F5FE7F 		cmp	r3, #508
 1426 000c 01D9     		bls	.L156
1053:.\Generated_Source\PSoC5/CAN_1.c **** 
 1427              		.loc 1 1053 0
 1428 000e 0220     		movs	r0, #2
 1429              	.LVL121:
 1430 0010 7047     		bx	lr
 1431              	.LVL122:
 1432              	.L156:
1062:.\Generated_Source\PSoC5/CAN_1.c ****         {
 1433              		.loc 1 1062 0
 1434 0012 C306     		lsls	r3, r0, #27
1052:.\Generated_Source\PSoC5/CAN_1.c ****     uint8 result = CAN_1_OUT_OF_RANGE;
 1435              		.loc 1 1052 0
 1436 0014 10B4     		push	{r4}
 1437              		.cfi_def_cfa_offset 4
 1438              		.cfi_offset 4, -4
1073:.\Generated_Source\PSoC5/CAN_1.c **** 
 1439              		.loc 1 1073 0
 1440 0016 104A     		ldr	r2, .L158
1067:.\Generated_Source\PSoC5/CAN_1.c **** 
 1441              		.loc 1 1067 0
 1442 0018 104C     		ldr	r4, .L158+4
1062:.\Generated_Source\PSoC5/CAN_1.c ****         {
 1443              		.loc 1 1062 0
 1444 001a 0BD0     		beq	.L157
1086:.\Generated_Source\PSoC5/CAN_1.c **** 
 1445              		.loc 1 1086 0
 1446 001c 4FF48033 		mov	r3, #65536
 1447 0020 2360     		str	r3, [r4]
1089:.\Generated_Source\PSoC5/CAN_1.c **** 
 1448              		.loc 1 1089 0
 1449 0022 0160     		str	r1, [r0]
1092:.\Generated_Source\PSoC5/CAN_1.c **** 
 1450              		.loc 1 1092 0
 1451 0024 1360     		str	r3, [r2]
1095:.\Generated_Source\PSoC5/CAN_1.c ****             {
 1452              		.loc 1 1095 0
 1453 0026 0068     		ldr	r0, [r0]
 1454              	.LVL123:
1103:.\Generated_Source\PSoC5/CAN_1.c **** 
 1455              		.loc 1 1103 0
 1456 0028 5DF8044B 		ldr	r4, [sp], #4
 1457              		.cfi_remember_state
 1458              		.cfi_restore 4
 1459              		.cfi_def_cfa_offset 0
1053:.\Generated_Source\PSoC5/CAN_1.c **** 
 1460              		.loc 1 1053 0
 1461 002c 081A     		subs	r0, r1, r0
 1462 002e 18BF     		it	ne
 1463 0030 0120     		movne	r0, #1
 1464              	.LVL124:
1103:.\Generated_Source\PSoC5/CAN_1.c **** 
 1465              		.loc 1 1103 0
 1466 0032 7047     		bx	lr
 1467              	.LVL125:
 1468              	.L157:
ARM GAS  C:\Users\Patrick\AppData\Local\Temp\cc3Vmx0B.s 			page 56


 1469              		.cfi_restore_state
1064:.\Generated_Source\PSoC5/CAN_1.c **** 
 1470              		.loc 1 1064 0
 1471 0034 41F08011 		orr	r1, r1, #8388736
 1472              	.LVL126:
1067:.\Generated_Source\PSoC5/CAN_1.c **** 
 1473              		.loc 1 1067 0
 1474 0038 4FF48033 		mov	r3, #65536
 1475 003c 2360     		str	r3, [r4]
1070:.\Generated_Source\PSoC5/CAN_1.c **** 
 1476              		.loc 1 1070 0
 1477 003e 0160     		str	r1, [r0]
1073:.\Generated_Source\PSoC5/CAN_1.c **** 
 1478              		.loc 1 1073 0
 1479 0040 1360     		str	r3, [r2]
1076:.\Generated_Source\PSoC5/CAN_1.c ****                 (config & CAN_1_RX_READ_BACK_MASK))
 1480              		.loc 1 1076 0
 1481 0042 0068     		ldr	r0, [r0]
 1482              	.LVL127:
1103:.\Generated_Source\PSoC5/CAN_1.c **** 
 1483              		.loc 1 1103 0
 1484 0044 5DF8044B 		ldr	r4, [sp], #4
 1485              		.cfi_restore 4
 1486              		.cfi_def_cfa_offset 0
1076:.\Generated_Source\PSoC5/CAN_1.c ****                 (config & CAN_1_RX_READ_BACK_MASK))
 1487              		.loc 1 1076 0
 1488 0048 4140     		eors	r1, r1, r0
 1489              	.LVL128:
 1490 004a 11F07F1F 		tst	r1, #8323199
1053:.\Generated_Source\PSoC5/CAN_1.c **** 
 1491              		.loc 1 1053 0
 1492 004e 14BF     		ite	ne
 1493 0050 0120     		movne	r0, #1
 1494 0052 0020     		moveq	r0, #0
 1495              	.LVL129:
1103:.\Generated_Source\PSoC5/CAN_1.c **** 
 1496              		.loc 1 1103 0
 1497 0054 7047     		bx	lr
 1498              	.L159:
 1499 0056 00BF     		.align	2
 1500              	.L158:
 1501 0058 00E100E0 		.word	-536813312
 1502 005c 80E100E0 		.word	-536813184
 1503              		.cfi_endproc
 1504              	.LFE13:
 1505              		.size	CAN_1_RXRegisterInit, .-CAN_1_RXRegisterInit
 1506              		.section	.text.CAN_1_SetIrqMask,"ax",%progbits
 1507              		.align	2
 1508              		.global	CAN_1_SetIrqMask
 1509              		.thumb
 1510              		.thumb_func
 1511              		.type	CAN_1_SetIrqMask, %function
 1512              	CAN_1_SetIrqMask:
 1513              	.LFB14:
1143:.\Generated_Source\PSoC5/CAN_1.c ****     uint8 result = CAN_1_FAIL;
 1514              		.loc 1 1143 0
 1515              		.cfi_startproc
ARM GAS  C:\Users\Patrick\AppData\Local\Temp\cc3Vmx0B.s 			page 57


 1516              		@ args = 0, pretend = 0, frame = 0
 1517              		@ frame_needed = 0, uses_anonymous_args = 0
 1518              		@ link register save eliminated.
 1519              	.LVL130:
1148:.\Generated_Source\PSoC5/CAN_1.c **** 
 1520              		.loc 1 1148 0
 1521 0000 034B     		ldr	r3, .L161
 1522 0002 1880     		strh	r0, [r3]	@ movhi
1151:.\Generated_Source\PSoC5/CAN_1.c ****         {
 1523              		.loc 1 1151 0
 1524 0004 1B88     		ldrh	r3, [r3]
 1525 0006 9BB2     		uxth	r3, r3
 1526              	.LVL131:
1167:.\Generated_Source\PSoC5/CAN_1.c **** 
 1527              		.loc 1 1167 0
 1528 0008 C01A     		subs	r0, r0, r3
 1529              	.LVL132:
 1530 000a 18BF     		it	ne
 1531 000c 0120     		movne	r0, #1
 1532 000e 7047     		bx	lr
 1533              	.L162:
 1534              		.align	2
 1535              	.L161:
 1536 0010 04A00040 		.word	1073782788
 1537              		.cfi_endproc
 1538              	.LFE14:
 1539              		.size	CAN_1_SetIrqMask, .-CAN_1_SetIrqMask
 1540              		.section	.text.CAN_1_GetTXErrorFlag,"ax",%progbits
 1541              		.align	2
 1542              		.global	CAN_1_GetTXErrorFlag
 1543              		.thumb
 1544              		.thumb_func
 1545              		.type	CAN_1_GetTXErrorFlag, %function
 1546              	CAN_1_GetTXErrorFlag:
 1547              	.LFB15:
1186:.\Generated_Source\PSoC5/CAN_1.c ****     #if (CY_PSOC3 || CY_PSOC5)
 1548              		.loc 1 1186 0
 1549              		.cfi_startproc
 1550              		@ args = 0, pretend = 0, frame = 0
 1551              		@ frame_needed = 0, uses_anonymous_args = 0
 1552              		@ link register save eliminated.
1189:.\Generated_Source\PSoC5/CAN_1.c ****                   CAN_1_TX_ERROR_FLAG_MASK) ? 1u : 0u);
 1553              		.loc 1 1189 0
 1554 0000 024B     		ldr	r3, .L164
 1555 0002 9878     		ldrb	r0, [r3, #2]	@ zero_extendqisi2
1197:.\Generated_Source\PSoC5/CAN_1.c **** 
 1556              		.loc 1 1197 0
 1557 0004 C0F38000 		ubfx	r0, r0, #2, #1
 1558 0008 7047     		bx	lr
 1559              	.L165:
 1560 000a 00BF     		.align	2
 1561              	.L164:
 1562 000c 0CA00040 		.word	1073782796
 1563              		.cfi_endproc
 1564              	.LFE15:
 1565              		.size	CAN_1_GetTXErrorFlag, .-CAN_1_GetTXErrorFlag
 1566              		.section	.text.CAN_1_GetRXErrorFlag,"ax",%progbits
ARM GAS  C:\Users\Patrick\AppData\Local\Temp\cc3Vmx0B.s 			page 58


 1567              		.align	2
 1568              		.global	CAN_1_GetRXErrorFlag
 1569              		.thumb
 1570              		.thumb_func
 1571              		.type	CAN_1_GetRXErrorFlag, %function
 1572              	CAN_1_GetRXErrorFlag:
 1573              	.LFB16:
1216:.\Generated_Source\PSoC5/CAN_1.c ****     #if (CY_PSOC3 || CY_PSOC5)
 1574              		.loc 1 1216 0
 1575              		.cfi_startproc
 1576              		@ args = 0, pretend = 0, frame = 0
 1577              		@ frame_needed = 0, uses_anonymous_args = 0
 1578              		@ link register save eliminated.
1219:.\Generated_Source\PSoC5/CAN_1.c ****                   CAN_1_RX_ERROR_FLAG_MASK) ? 1u : 0u);
 1579              		.loc 1 1219 0
 1580 0000 024B     		ldr	r3, .L167
 1581 0002 9878     		ldrb	r0, [r3, #2]	@ zero_extendqisi2
1227:.\Generated_Source\PSoC5/CAN_1.c **** 
 1582              		.loc 1 1227 0
 1583 0004 C0F3C000 		ubfx	r0, r0, #3, #1
 1584 0008 7047     		bx	lr
 1585              	.L168:
 1586 000a 00BF     		.align	2
 1587              	.L167:
 1588 000c 0CA00040 		.word	1073782796
 1589              		.cfi_endproc
 1590              	.LFE16:
 1591              		.size	CAN_1_GetRXErrorFlag, .-CAN_1_GetRXErrorFlag
 1592              		.section	.text.CAN_1_GetTXErrorCount,"ax",%progbits
 1593              		.align	2
 1594              		.global	CAN_1_GetTXErrorCount
 1595              		.thumb
 1596              		.thumb_func
 1597              		.type	CAN_1_GetTXErrorCount, %function
 1598              	CAN_1_GetTXErrorCount:
 1599              	.LFB17:
1245:.\Generated_Source\PSoC5/CAN_1.c ****     #if (CY_PSOC3 || CY_PSOC5)
 1600              		.loc 1 1245 0
 1601              		.cfi_startproc
 1602              		@ args = 0, pretend = 0, frame = 0
 1603              		@ frame_needed = 0, uses_anonymous_args = 0
 1604              		@ link register save eliminated.
1248:.\Generated_Source\PSoC5/CAN_1.c ****     #else  /* CY_PSOC4 */
 1605              		.loc 1 1248 0
 1606 0000 014B     		ldr	r3, .L170
 1607 0002 1878     		ldrb	r0, [r3]	@ zero_extendqisi2
1253:.\Generated_Source\PSoC5/CAN_1.c **** 
 1608              		.loc 1 1253 0
 1609 0004 7047     		bx	lr
 1610              	.L171:
 1611 0006 00BF     		.align	2
 1612              	.L170:
 1613 0008 0CA00040 		.word	1073782796
 1614              		.cfi_endproc
 1615              	.LFE17:
 1616              		.size	CAN_1_GetTXErrorCount, .-CAN_1_GetTXErrorCount
 1617              		.section	.text.CAN_1_GetRXErrorCount,"ax",%progbits
ARM GAS  C:\Users\Patrick\AppData\Local\Temp\cc3Vmx0B.s 			page 59


 1618              		.align	2
 1619              		.global	CAN_1_GetRXErrorCount
 1620              		.thumb
 1621              		.thumb_func
 1622              		.type	CAN_1_GetRXErrorCount, %function
 1623              	CAN_1_GetRXErrorCount:
 1624              	.LFB18:
1271:.\Generated_Source\PSoC5/CAN_1.c ****     #if (CY_PSOC3 || CY_PSOC5)
 1625              		.loc 1 1271 0
 1626              		.cfi_startproc
 1627              		@ args = 0, pretend = 0, frame = 0
 1628              		@ frame_needed = 0, uses_anonymous_args = 0
 1629              		@ link register save eliminated.
1274:.\Generated_Source\PSoC5/CAN_1.c ****     #else  /* CY_PSOC4 */
 1630              		.loc 1 1274 0
 1631 0000 014B     		ldr	r3, .L173
 1632 0002 5878     		ldrb	r0, [r3, #1]	@ zero_extendqisi2
1280:.\Generated_Source\PSoC5/CAN_1.c **** 
 1633              		.loc 1 1280 0
 1634 0004 7047     		bx	lr
 1635              	.L174:
 1636 0006 00BF     		.align	2
 1637              	.L173:
 1638 0008 0CA00040 		.word	1073782796
 1639              		.cfi_endproc
 1640              	.LFE18:
 1641              		.size	CAN_1_GetRXErrorCount, .-CAN_1_GetRXErrorCount
 1642              		.section	.text.CAN_1_GetErrorState,"ax",%progbits
 1643              		.align	2
 1644              		.global	CAN_1_GetErrorState
 1645              		.thumb
 1646              		.thumb_func
 1647              		.type	CAN_1_GetErrorState, %function
 1648              	CAN_1_GetErrorState:
 1649              	.LFB19:
1298:.\Generated_Source\PSoC5/CAN_1.c ****     #if (CY_PSOC3 || CY_PSOC5)
 1650              		.loc 1 1298 0
 1651              		.cfi_startproc
 1652              		@ args = 0, pretend = 0, frame = 0
 1653              		@ frame_needed = 0, uses_anonymous_args = 0
 1654              		@ link register save eliminated.
1301:.\Generated_Source\PSoC5/CAN_1.c ****     #else  /* CY_PSOC4 */
 1655              		.loc 1 1301 0
 1656 0000 024B     		ldr	r3, .L176
 1657 0002 9878     		ldrb	r0, [r3, #2]	@ zero_extendqisi2
1307:.\Generated_Source\PSoC5/CAN_1.c **** 
 1658              		.loc 1 1307 0
 1659 0004 00F00300 		and	r0, r0, #3
 1660 0008 7047     		bx	lr
 1661              	.L177:
 1662 000a 00BF     		.align	2
 1663              	.L176:
 1664 000c 0CA00040 		.word	1073782796
 1665              		.cfi_endproc
 1666              	.LFE19:
 1667              		.size	CAN_1_GetErrorState, .-CAN_1_GetErrorState
 1668              		.section	.text.CAN_1_RxBufConfig,"ax",%progbits
ARM GAS  C:\Users\Patrick\AppData\Local\Temp\cc3Vmx0B.s 			page 60


 1669              		.align	2
 1670              		.global	CAN_1_RxBufConfig
 1671              		.thumb
 1672              		.thumb_func
 1673              		.type	CAN_1_RxBufConfig, %function
 1674              	CAN_1_RxBufConfig:
 1675              	.LFB20:
1330:.\Generated_Source\PSoC5/CAN_1.c ****     uint8 result = CAN_1_FAIL;
 1676              		.loc 1 1330 0
 1677              		.cfi_startproc
 1678              		@ args = 0, pretend = 0, frame = 0
 1679              		@ frame_needed = 0, uses_anonymous_args = 0
 1680              		@ link register save eliminated.
 1681              	.LVL133:
 1682 0000 10B4     		push	{r4}
 1683              		.cfi_def_cfa_offset 4
 1684              		.cfi_offset 4, -4
1334:.\Generated_Source\PSoC5/CAN_1.c ****                  CAN_1_RX_WPN_SET));
 1685              		.loc 1 1334 0
 1686 0002 4268     		ldr	r2, [r0, #4]
 1687 0004 0378     		ldrb	r3, [r0]	@ zero_extendqisi2
 1688 0006 1F49     		ldr	r1, .L183
 1689 0008 5B01     		lsls	r3, r3, #5
 1690 000a 42F08012 		orr	r2, r2, #8388736
 1691 000e 5A50     		str	r2, [r3, r1]
1336:.\Generated_Source\PSoC5/CAN_1.c ****          CAN_1_RX_READ_BACK_MASK) == (rxConfig->rxcmd & CAN_1_RX_WPN_CLEAR))
 1692              		.loc 1 1336 0
 1693 0010 0378     		ldrb	r3, [r0]	@ zero_extendqisi2
1337:.\Generated_Source\PSoC5/CAN_1.c ****     {
 1694              		.loc 1 1337 0
 1695 0012 4268     		ldr	r2, [r0, #4]
1336:.\Generated_Source\PSoC5/CAN_1.c ****          CAN_1_RX_READ_BACK_MASK) == (rxConfig->rxcmd & CAN_1_RX_WPN_CLEAR))
 1696              		.loc 1 1336 0
 1697 0014 5B01     		lsls	r3, r3, #5
 1698 0016 5958     		ldr	r1, [r3, r1]
 1699 0018 1A4C     		ldr	r4, .L183
 1700 001a 01F07F11 		and	r1, r1, #8323199
1337:.\Generated_Source\PSoC5/CAN_1.c ****     {
 1701              		.loc 1 1337 0
 1702 001e 22F08012 		bic	r2, r2, #8388736
1336:.\Generated_Source\PSoC5/CAN_1.c ****          CAN_1_RX_READ_BACK_MASK) == (rxConfig->rxcmd & CAN_1_RX_WPN_CLEAR))
 1703              		.loc 1 1336 0
 1704 0022 9142     		cmp	r1, r2
 1705 0024 1C44     		add	r4, r4, r3
 1706 0026 03D0     		beq	.L179
 1707              	.L181:
1331:.\Generated_Source\PSoC5/CAN_1.c **** 
 1708              		.loc 1 1331 0
 1709 0028 0120     		movs	r0, #1
 1710              	.LVL134:
 1711              	.L180:
1363:.\Generated_Source\PSoC5/CAN_1.c **** 
 1712              		.loc 1 1363 0
 1713 002a 5DF8044B 		ldr	r4, [sp], #4
 1714              		.cfi_remember_state
 1715              		.cfi_restore 4
 1716              		.cfi_def_cfa_offset 0
ARM GAS  C:\Users\Patrick\AppData\Local\Temp\cc3Vmx0B.s 			page 61


 1717 002e 7047     		bx	lr
 1718              	.LVL135:
 1719              	.L179:
 1720              		.cfi_restore_state
1340:.\Generated_Source\PSoC5/CAN_1.c ****         if (CY_GET_REG32((reg32 *) (&CAN_1_RX[rxConfig->rxmailbox].rxamr)) == rxConfig->rxamr)
 1721              		.loc 1 1340 0
 1722 0030 8268     		ldr	r2, [r0, #8]
1341:.\Generated_Source\PSoC5/CAN_1.c ****         {
 1723              		.loc 1 1341 0
 1724 0032 144B     		ldr	r3, .L183
1340:.\Generated_Source\PSoC5/CAN_1.c ****         if (CY_GET_REG32((reg32 *) (&CAN_1_RX[rxConfig->rxmailbox].rxamr)) == rxConfig->rxamr)
 1725              		.loc 1 1340 0
 1726 0034 2261     		str	r2, [r4, #16]
1341:.\Generated_Source\PSoC5/CAN_1.c ****         {
 1727              		.loc 1 1341 0
 1728 0036 0278     		ldrb	r2, [r0]	@ zero_extendqisi2
 1729 0038 8168     		ldr	r1, [r0, #8]
 1730 003a 5201     		lsls	r2, r2, #5
 1731 003c 1344     		add	r3, r3, r2
 1732 003e 1A69     		ldr	r2, [r3, #16]
 1733 0040 8A42     		cmp	r2, r1
 1734 0042 F1D1     		bne	.L181
1344:.\Generated_Source\PSoC5/CAN_1.c ****             if (CY_GET_REG32((reg32 *) (&CAN_1_RX[rxConfig->rxmailbox].rxacr)) == rxConfig->rxacr)
 1735              		.loc 1 1344 0
 1736 0044 C168     		ldr	r1, [r0, #12]
1345:.\Generated_Source\PSoC5/CAN_1.c ****             {
 1737              		.loc 1 1345 0
 1738 0046 0F4A     		ldr	r2, .L183
1344:.\Generated_Source\PSoC5/CAN_1.c ****             if (CY_GET_REG32((reg32 *) (&CAN_1_RX[rxConfig->rxmailbox].rxacr)) == rxConfig->rxacr)
 1739              		.loc 1 1344 0
 1740 0048 5961     		str	r1, [r3, #20]
1345:.\Generated_Source\PSoC5/CAN_1.c ****             {
 1741              		.loc 1 1345 0
 1742 004a 0378     		ldrb	r3, [r0]	@ zero_extendqisi2
 1743 004c C168     		ldr	r1, [r0, #12]
 1744 004e 5B01     		lsls	r3, r3, #5
 1745 0050 1A44     		add	r2, r2, r3
 1746 0052 5369     		ldr	r3, [r2, #20]
 1747 0054 8B42     		cmp	r3, r1
 1748 0056 E7D1     		bne	.L181
1348:.\Generated_Source\PSoC5/CAN_1.c ****                 if (CY_GET_REG32((reg32 *) (&CAN_1_RX[rxConfig->rxmailbox].rxamrd)) == 0xFFFFFFFFu)
 1749              		.loc 1 1348 0
 1750 0058 4FF0FF33 		mov	r3, #-1
 1751 005c 9361     		str	r3, [r2, #24]
1349:.\Generated_Source\PSoC5/CAN_1.c ****                 {
 1752              		.loc 1 1349 0
 1753 005e 0278     		ldrb	r2, [r0]	@ zero_extendqisi2
 1754 0060 084B     		ldr	r3, .L183
 1755 0062 5201     		lsls	r2, r2, #5
 1756 0064 1344     		add	r3, r3, r2
 1757 0066 9A69     		ldr	r2, [r3, #24]
 1758 0068 0132     		adds	r2, r2, #1
 1759 006a DDD1     		bne	.L181
1352:.\Generated_Source\PSoC5/CAN_1.c ****                     if (CY_GET_REG32((reg32 *) (&CAN_1_RX[rxConfig->rxmailbox].rxacrd)) == 0x000000
 1760              		.loc 1 1352 0
 1761 006c 0022     		movs	r2, #0
 1762 006e DA61     		str	r2, [r3, #28]
ARM GAS  C:\Users\Patrick\AppData\Local\Temp\cc3Vmx0B.s 			page 62


1353:.\Generated_Source\PSoC5/CAN_1.c ****                     {
 1763              		.loc 1 1353 0
 1764 0070 0278     		ldrb	r2, [r0]	@ zero_extendqisi2
 1765 0072 044B     		ldr	r3, .L183
 1766 0074 5201     		lsls	r2, r2, #5
 1767 0076 1344     		add	r3, r3, r2
 1768 0078 D869     		ldr	r0, [r3, #28]
 1769              	.LVL136:
1331:.\Generated_Source\PSoC5/CAN_1.c **** 
 1770              		.loc 1 1331 0
 1771 007a 0030     		adds	r0, r0, #0
 1772 007c 18BF     		it	ne
 1773 007e 0120     		movne	r0, #1
 1774 0080 D3E7     		b	.L180
 1775              	.L184:
 1776 0082 00BF     		.align	2
 1777              	.L183:
 1778 0084 A0A00040 		.word	1073782944
 1779              		.cfi_endproc
 1780              	.LFE20:
 1781              		.size	CAN_1_RxBufConfig, .-CAN_1_RxBufConfig
 1782              		.section	.text.CAN_1_TxBufConfig,"ax",%progbits
 1783              		.align	2
 1784              		.global	CAN_1_TxBufConfig
 1785              		.thumb
 1786              		.thumb_func
 1787              		.type	CAN_1_TxBufConfig, %function
 1788              	CAN_1_TxBufConfig:
 1789              	.LFB21:
1387:.\Generated_Source\PSoC5/CAN_1.c ****     uint8 result = CAN_1_FAIL;
 1790              		.loc 1 1387 0
 1791              		.cfi_startproc
 1792              		@ args = 0, pretend = 0, frame = 0
 1793              		@ frame_needed = 0, uses_anonymous_args = 0
 1794              		@ link register save eliminated.
 1795              	.LVL137:
 1796 0000 30B4     		push	{r4, r5}
 1797              		.cfi_def_cfa_offset 8
 1798              		.cfi_offset 4, -8
 1799              		.cfi_offset 5, -4
1391:.\Generated_Source\PSoC5/CAN_1.c ****     if ((CY_GET_REG32(CAN_1_TX_CMD_PTR(txConfig->txmailbox)) &
 1800              		.loc 1 1391 0
 1801 0002 4368     		ldr	r3, [r0, #4]
 1802 0004 0278     		ldrb	r2, [r0]	@ zero_extendqisi2
 1803 0006 1249     		ldr	r1, .L190
 1804 0008 43F40003 		orr	r3, r3, #8388608
 1805 000c 43F00803 		orr	r3, r3, #8
 1806 0010 1201     		lsls	r2, r2, #4
 1807 0012 5350     		str	r3, [r2, r1]
1392:.\Generated_Source\PSoC5/CAN_1.c ****         CAN_1_TX_READ_BACK_MASK) == (txConfig->txcmd & CAN_1_TX_WPN_CLEAR))
 1808              		.loc 1 1392 0
 1809 0014 0278     		ldrb	r2, [r0]	@ zero_extendqisi2
1393:.\Generated_Source\PSoC5/CAN_1.c ****     {
 1810              		.loc 1 1393 0
 1811 0016 4368     		ldr	r3, [r0, #4]
1392:.\Generated_Source\PSoC5/CAN_1.c ****         CAN_1_TX_READ_BACK_MASK) == (txConfig->txcmd & CAN_1_TX_WPN_CLEAR))
 1812              		.loc 1 1392 0
ARM GAS  C:\Users\Patrick\AppData\Local\Temp\cc3Vmx0B.s 			page 63


 1813 0018 1201     		lsls	r2, r2, #4
 1814 001a 5558     		ldr	r5, [r2, r1]
 1815 001c 0D49     		ldr	r1, .L190+4
1393:.\Generated_Source\PSoC5/CAN_1.c ****     {
 1816              		.loc 1 1393 0
 1817 001e 23F40003 		bic	r3, r3, #8388608
1392:.\Generated_Source\PSoC5/CAN_1.c ****         CAN_1_TX_READ_BACK_MASK) == (txConfig->txcmd & CAN_1_TX_WPN_CLEAR))
 1818              		.loc 1 1392 0
 1819 0022 0B4C     		ldr	r4, .L190
 1820 0024 2940     		ands	r1, r1, r5
1393:.\Generated_Source\PSoC5/CAN_1.c ****     {
 1821              		.loc 1 1393 0
 1822 0026 23F00803 		bic	r3, r3, #8
1392:.\Generated_Source\PSoC5/CAN_1.c ****         CAN_1_TX_READ_BACK_MASK) == (txConfig->txcmd & CAN_1_TX_WPN_CLEAR))
 1823              		.loc 1 1392 0
 1824 002a 9942     		cmp	r1, r3
 1825 002c 1444     		add	r4, r4, r2
 1826 002e 02D0     		beq	.L189
1398:.\Generated_Source\PSoC5/CAN_1.c ****         {
1399:.\Generated_Source\PSoC5/CAN_1.c ****             result = CYRET_SUCCESS;
1400:.\Generated_Source\PSoC5/CAN_1.c ****         }
1401:.\Generated_Source\PSoC5/CAN_1.c ****     }
1402:.\Generated_Source\PSoC5/CAN_1.c **** 
1403:.\Generated_Source\PSoC5/CAN_1.c ****     return (result);
1404:.\Generated_Source\PSoC5/CAN_1.c **** }
 1827              		.loc 1 1404 0
 1828 0030 30BC     		pop	{r4, r5}
 1829              		.cfi_remember_state
 1830              		.cfi_restore 5
 1831              		.cfi_restore 4
 1832              		.cfi_def_cfa_offset 0
1388:.\Generated_Source\PSoC5/CAN_1.c **** 
 1833              		.loc 1 1388 0
 1834 0032 0120     		movs	r0, #1
 1835              	.LVL138:
 1836              		.loc 1 1404 0
 1837 0034 7047     		bx	lr
 1838              	.LVL139:
 1839              	.L189:
 1840              		.cfi_restore_state
1396:.\Generated_Source\PSoC5/CAN_1.c ****         if (CY_GET_REG32(CAN_1_TX_ID_PTR(txConfig->txmailbox)) == txConfig->txid)
 1841              		.loc 1 1396 0
 1842 0036 8268     		ldr	r2, [r0, #8]
1397:.\Generated_Source\PSoC5/CAN_1.c ****         {
 1843              		.loc 1 1397 0
 1844 0038 054B     		ldr	r3, .L190
1396:.\Generated_Source\PSoC5/CAN_1.c ****         if (CY_GET_REG32(CAN_1_TX_ID_PTR(txConfig->txmailbox)) == txConfig->txid)
 1845              		.loc 1 1396 0
 1846 003a 6260     		str	r2, [r4, #4]
1397:.\Generated_Source\PSoC5/CAN_1.c ****         {
 1847              		.loc 1 1397 0
 1848 003c 0278     		ldrb	r2, [r0]	@ zero_extendqisi2
 1849 003e 8068     		ldr	r0, [r0, #8]
 1850              	.LVL140:
 1851 0040 1201     		lsls	r2, r2, #4
 1852 0042 1344     		add	r3, r3, r2
 1853 0044 5B68     		ldr	r3, [r3, #4]
ARM GAS  C:\Users\Patrick\AppData\Local\Temp\cc3Vmx0B.s 			page 64


 1854              		.loc 1 1404 0
 1855 0046 30BC     		pop	{r4, r5}
 1856              		.cfi_restore 4
 1857              		.cfi_restore 5
 1858              		.cfi_def_cfa_offset 0
1388:.\Generated_Source\PSoC5/CAN_1.c **** 
 1859              		.loc 1 1388 0
 1860 0048 181A     		subs	r0, r3, r0
 1861 004a 18BF     		it	ne
 1862 004c 0120     		movne	r0, #1
 1863              	.LVL141:
 1864              		.loc 1 1404 0
 1865 004e 7047     		bx	lr
 1866              	.L191:
 1867              		.align	2
 1868              	.L190:
 1869 0050 20A00040 		.word	1073782816
 1870 0054 F7007F00 		.word	8323319
 1871              		.cfi_endproc
 1872              	.LFE21:
 1873              		.size	CAN_1_TxBufConfig, .-CAN_1_TxBufConfig
 1874              		.global	CAN_1_initVar
 1875              		.section	.rodata
 1876              		.align	2
 1877              		.set	.LANCHOR0,. + 0
 1878              		.type	CAN_1_RXConfigStruct.4921, %object
 1879              		.size	CAN_1_RXConfigStruct.4921, 256
 1880              	CAN_1_RXConfigStruct.4921:
 1881 0000 00       		.byte	0
 1882 0001 000000   		.space	3
 1883 0004 00000000 		.word	0
 1884 0008 00000000 		.word	0
 1885 000c 00000000 		.word	0
 1886 0010 01       		.byte	1
 1887 0011 000000   		.space	3
 1888 0014 00000000 		.word	0
 1889 0018 00000000 		.word	0
 1890 001c 00000000 		.word	0
 1891 0020 02       		.byte	2
 1892 0021 000000   		.space	3
 1893 0024 00000000 		.word	0
 1894 0028 00000000 		.word	0
 1895 002c 00000000 		.word	0
 1896 0030 03       		.byte	3
 1897 0031 000000   		.space	3
 1898 0034 00000000 		.word	0
 1899 0038 00000000 		.word	0
 1900 003c 00000000 		.word	0
 1901 0040 04       		.byte	4
 1902 0041 000000   		.space	3
 1903 0044 00000000 		.word	0
 1904 0048 00000000 		.word	0
 1905 004c 00000000 		.word	0
 1906 0050 05       		.byte	5
 1907 0051 000000   		.space	3
 1908 0054 00000000 		.word	0
 1909 0058 00000000 		.word	0
ARM GAS  C:\Users\Patrick\AppData\Local\Temp\cc3Vmx0B.s 			page 65


 1910 005c 00000000 		.word	0
 1911 0060 06       		.byte	6
 1912 0061 000000   		.space	3
 1913 0064 00000000 		.word	0
 1914 0068 00000000 		.word	0
 1915 006c 00000000 		.word	0
 1916 0070 07       		.byte	7
 1917 0071 000000   		.space	3
 1918 0074 00000000 		.word	0
 1919 0078 00000000 		.word	0
 1920 007c 00000000 		.word	0
 1921 0080 08       		.byte	8
 1922 0081 000000   		.space	3
 1923 0084 00000000 		.word	0
 1924 0088 00000000 		.word	0
 1925 008c 00000000 		.word	0
 1926 0090 09       		.byte	9
 1927 0091 000000   		.space	3
 1928 0094 00000000 		.word	0
 1929 0098 00000000 		.word	0
 1930 009c 00000000 		.word	0
 1931 00a0 0A       		.byte	10
 1932 00a1 000000   		.space	3
 1933 00a4 00000000 		.word	0
 1934 00a8 00000000 		.word	0
 1935 00ac 00000000 		.word	0
 1936 00b0 0B       		.byte	11
 1937 00b1 000000   		.space	3
 1938 00b4 00000000 		.word	0
 1939 00b8 00000000 		.word	0
 1940 00bc 00000000 		.word	0
 1941 00c0 0C       		.byte	12
 1942 00c1 000000   		.space	3
 1943 00c4 00000000 		.word	0
 1944 00c8 00000000 		.word	0
 1945 00cc 00000000 		.word	0
 1946 00d0 0D       		.byte	13
 1947 00d1 000000   		.space	3
 1948 00d4 00000000 		.word	0
 1949 00d8 00000000 		.word	0
 1950 00dc 00000000 		.word	0
 1951 00e0 0E       		.byte	14
 1952 00e1 000000   		.space	3
 1953 00e4 00000000 		.word	0
 1954 00e8 00000000 		.word	0
 1955 00ec 00000000 		.word	0
 1956 00f0 0F       		.byte	15
 1957 00f1 000000   		.space	3
 1958 00f4 00000000 		.word	0
 1959 00f8 00000000 		.word	0
 1960 00fc 00000000 		.word	0
 1961              		.bss
 1962              		.set	.LANCHOR1,. + 0
 1963              		.type	CAN_1_initVar, %object
 1964              		.size	CAN_1_initVar, 1
 1965              	CAN_1_initVar:
 1966 0000 00       		.space	1
ARM GAS  C:\Users\Patrick\AppData\Local\Temp\cc3Vmx0B.s 			page 66


 1967              		.text
 1968              	.Letext0:
 1969              		.file 2 ".\\Generated_Source\\PSoC5\\cytypes.h"
 1970              		.file 3 ".\\Generated_Source\\PSoC5\\CAN_1.h"
 1971              		.file 4 ".\\Generated_Source\\PSoC5\\CyLib.h"
 1972              		.section	.debug_info,"",%progbits
 1973              	.Ldebug_info0:
 1974 0000 4E0D0000 		.4byte	0xd4e
 1975 0004 0400     		.2byte	0x4
 1976 0006 00000000 		.4byte	.Ldebug_abbrev0
 1977 000a 04       		.byte	0x4
 1978 000b 01       		.uleb128 0x1
 1979 000c 87040000 		.4byte	.LASF82
 1980 0010 01       		.byte	0x1
 1981 0011 E9030000 		.4byte	.LASF83
 1982 0015 72030000 		.4byte	.LASF84
 1983 0019 00010000 		.4byte	.Ldebug_ranges0+0x100
 1984 001d 00000000 		.4byte	0
 1985 0021 00000000 		.4byte	.Ldebug_line0
 1986 0025 02       		.uleb128 0x2
 1987 0026 01       		.byte	0x1
 1988 0027 06       		.byte	0x6
 1989 0028 C2000000 		.4byte	.LASF0
 1990 002c 02       		.uleb128 0x2
 1991 002d 01       		.byte	0x1
 1992 002e 08       		.byte	0x8
 1993 002f 22030000 		.4byte	.LASF1
 1994 0033 02       		.uleb128 0x2
 1995 0034 02       		.byte	0x2
 1996 0035 05       		.byte	0x5
 1997 0036 30030000 		.4byte	.LASF2
 1998 003a 02       		.uleb128 0x2
 1999 003b 02       		.byte	0x2
 2000 003c 07       		.byte	0x7
 2001 003d 05020000 		.4byte	.LASF3
 2002 0041 02       		.uleb128 0x2
 2003 0042 04       		.byte	0x4
 2004 0043 05       		.byte	0x5
 2005 0044 22010000 		.4byte	.LASF4
 2006 0048 02       		.uleb128 0x2
 2007 0049 04       		.byte	0x4
 2008 004a 07       		.byte	0x7
 2009 004b C7010000 		.4byte	.LASF5
 2010 004f 02       		.uleb128 0x2
 2011 0050 08       		.byte	0x8
 2012 0051 05       		.byte	0x5
 2013 0052 B4000000 		.4byte	.LASF6
 2014 0056 02       		.uleb128 0x2
 2015 0057 08       		.byte	0x8
 2016 0058 07       		.byte	0x7
 2017 0059 51000000 		.4byte	.LASF7
 2018 005d 03       		.uleb128 0x3
 2019 005e 04       		.byte	0x4
 2020 005f 05       		.byte	0x5
 2021 0060 696E7400 		.ascii	"int\000"
 2022 0064 02       		.uleb128 0x2
 2023 0065 04       		.byte	0x4
ARM GAS  C:\Users\Patrick\AppData\Local\Temp\cc3Vmx0B.s 			page 67


 2024 0066 07       		.byte	0x7
 2025 0067 96010000 		.4byte	.LASF8
 2026 006b 04       		.uleb128 0x4
 2027 006c 5D010000 		.4byte	.LASF9
 2028 0070 02       		.byte	0x2
 2029 0071 9201     		.2byte	0x192
 2030 0073 2C000000 		.4byte	0x2c
 2031 0077 04       		.uleb128 0x4
 2032 0078 00000000 		.4byte	.LASF10
 2033 007c 02       		.byte	0x2
 2034 007d 9301     		.2byte	0x193
 2035 007f 3A000000 		.4byte	0x3a
 2036 0083 04       		.uleb128 0x4
 2037 0084 70010000 		.4byte	.LASF11
 2038 0088 02       		.byte	0x2
 2039 0089 9401     		.2byte	0x194
 2040 008b 48000000 		.4byte	0x48
 2041 008f 02       		.uleb128 0x2
 2042 0090 04       		.byte	0x4
 2043 0091 04       		.byte	0x4
 2044 0092 DF020000 		.4byte	.LASF12
 2045 0096 02       		.uleb128 0x2
 2046 0097 08       		.byte	0x8
 2047 0098 04       		.byte	0x4
 2048 0099 69010000 		.4byte	.LASF13
 2049 009d 02       		.uleb128 0x2
 2050 009e 01       		.byte	0x1
 2051 009f 08       		.byte	0x8
 2052 00a0 45030000 		.4byte	.LASF14
 2053 00a4 04       		.uleb128 0x4
 2054 00a5 10030000 		.4byte	.LASF15
 2055 00a9 02       		.byte	0x2
 2056 00aa 3C02     		.2byte	0x23c
 2057 00ac B0000000 		.4byte	0xb0
 2058 00b0 05       		.uleb128 0x5
 2059 00b1 6B000000 		.4byte	0x6b
 2060 00b5 04       		.uleb128 0x4
 2061 00b6 57010000 		.4byte	.LASF16
 2062 00ba 02       		.byte	0x2
 2063 00bb 3D02     		.2byte	0x23d
 2064 00bd C1000000 		.4byte	0xc1
 2065 00c1 05       		.uleb128 0x5
 2066 00c2 77000000 		.4byte	0x77
 2067 00c6 04       		.uleb128 0x4
 2068 00c7 6C020000 		.4byte	.LASF17
 2069 00cb 02       		.byte	0x2
 2070 00cc 3E02     		.2byte	0x23e
 2071 00ce D2000000 		.4byte	0xd2
 2072 00d2 05       		.uleb128 0x5
 2073 00d3 83000000 		.4byte	0x83
 2074 00d7 04       		.uleb128 0x4
 2075 00d8 4A030000 		.4byte	.LASF18
 2076 00dc 02       		.byte	0x2
 2077 00dd 4E02     		.2byte	0x24e
 2078 00df E3000000 		.4byte	0xe3
 2079 00e3 06       		.uleb128 0x6
 2080 00e4 04       		.byte	0x4
ARM GAS  C:\Users\Patrick\AppData\Local\Temp\cc3Vmx0B.s 			page 68


 2081 00e5 E9000000 		.4byte	0xe9
 2082 00e9 07       		.uleb128 0x7
 2083 00ea 02       		.uleb128 0x2
 2084 00eb 04       		.byte	0x4
 2085 00ec 07       		.byte	0x7
 2086 00ed 8C020000 		.4byte	.LASF19
 2087 00f1 08       		.uleb128 0x8
 2088 00f2 08       		.byte	0x8
 2089 00f3 03       		.byte	0x3
 2090 00f4 75       		.byte	0x75
 2091 00f5 06010000 		.4byte	0x106
 2092 00f9 09       		.uleb128 0x9
 2093 00fa 77010000 		.4byte	.LASF21
 2094 00fe 03       		.byte	0x3
 2095 00ff 77       		.byte	0x77
 2096 0100 16010000 		.4byte	0x116
 2097 0104 00       		.byte	0
 2098 0105 00       		.byte	0
 2099 0106 0A       		.uleb128 0xa
 2100 0107 A4000000 		.4byte	0xa4
 2101 010b 16010000 		.4byte	0x116
 2102 010f 0B       		.uleb128 0xb
 2103 0110 EA000000 		.4byte	0xea
 2104 0114 07       		.byte	0x7
 2105 0115 00       		.byte	0
 2106 0116 05       		.uleb128 0x5
 2107 0117 06010000 		.4byte	0x106
 2108 011b 0C       		.uleb128 0xc
 2109 011c A8020000 		.4byte	.LASF20
 2110 0120 03       		.byte	0x3
 2111 0121 78       		.byte	0x78
 2112 0122 F1000000 		.4byte	0xf1
 2113 0126 08       		.uleb128 0x8
 2114 0127 04       		.byte	0x4
 2115 0128 03       		.byte	0x3
 2116 0129 7B       		.byte	0x7b
 2117 012a 3B010000 		.4byte	0x13b
 2118 012e 09       		.uleb128 0x9
 2119 012f 77010000 		.4byte	.LASF21
 2120 0133 03       		.byte	0x3
 2121 0134 7D       		.byte	0x7d
 2122 0135 4B010000 		.4byte	0x14b
 2123 0139 00       		.byte	0
 2124 013a 00       		.byte	0
 2125 013b 0A       		.uleb128 0xa
 2126 013c A4000000 		.4byte	0xa4
 2127 0140 4B010000 		.4byte	0x14b
 2128 0144 0B       		.uleb128 0xb
 2129 0145 EA000000 		.4byte	0xea
 2130 0149 03       		.byte	0x3
 2131 014a 00       		.byte	0
 2132 014b 05       		.uleb128 0x5
 2133 014c 3B010000 		.4byte	0x13b
 2134 0150 0C       		.uleb128 0xc
 2135 0151 4B020000 		.4byte	.LASF22
 2136 0155 03       		.byte	0x3
 2137 0156 7E       		.byte	0x7e
ARM GAS  C:\Users\Patrick\AppData\Local\Temp\cc3Vmx0B.s 			page 69


 2138 0157 26010000 		.4byte	0x126
 2139 015b 08       		.uleb128 0x8
 2140 015c 10       		.byte	0x10
 2141 015d 03       		.byte	0x3
 2142 015e 8F       		.byte	0x8f
 2143 015f 94010000 		.4byte	0x194
 2144 0163 09       		.uleb128 0x9
 2145 0164 82020000 		.4byte	.LASF23
 2146 0168 03       		.byte	0x3
 2147 0169 91       		.byte	0x91
 2148 016a 6B000000 		.4byte	0x6b
 2149 016e 00       		.byte	0
 2150 016f 09       		.uleb128 0x9
 2151 0170 1A040000 		.4byte	.LASF24
 2152 0174 03       		.byte	0x3
 2153 0175 92       		.byte	0x92
 2154 0176 83000000 		.4byte	0x83
 2155 017a 04       		.byte	0x4
 2156 017b 09       		.uleb128 0x9
 2157 017c 63010000 		.4byte	.LASF25
 2158 0180 03       		.byte	0x3
 2159 0181 93       		.byte	0x93
 2160 0182 83000000 		.4byte	0x83
 2161 0186 08       		.byte	0x8
 2162 0187 09       		.uleb128 0x9
 2163 0188 65040000 		.4byte	.LASF26
 2164 018c 03       		.byte	0x3
 2165 018d 94       		.byte	0x94
 2166 018e 83000000 		.4byte	0x83
 2167 0192 0C       		.byte	0xc
 2168 0193 00       		.byte	0
 2169 0194 0C       		.uleb128 0xc
 2170 0195 E1010000 		.4byte	.LASF27
 2171 0199 03       		.byte	0x3
 2172 019a 95       		.byte	0x95
 2173 019b 5B010000 		.4byte	0x15b
 2174 019f 08       		.uleb128 0x8
 2175 01a0 0C       		.byte	0xc
 2176 01a1 03       		.byte	0x3
 2177 01a2 98       		.byte	0x98
 2178 01a3 CC010000 		.4byte	0x1cc
 2179 01a7 09       		.uleb128 0x9
 2180 01a8 CD030000 		.4byte	.LASF28
 2181 01ac 03       		.byte	0x3
 2182 01ad 9A       		.byte	0x9a
 2183 01ae 6B000000 		.4byte	0x6b
 2184 01b2 00       		.byte	0
 2185 01b3 09       		.uleb128 0x9
 2186 01b4 68000000 		.4byte	.LASF29
 2187 01b8 03       		.byte	0x3
 2188 01b9 9B       		.byte	0x9b
 2189 01ba 83000000 		.4byte	0x83
 2190 01be 04       		.byte	0x4
 2191 01bf 09       		.uleb128 0x9
 2192 01c0 4B040000 		.4byte	.LASF30
 2193 01c4 03       		.byte	0x3
 2194 01c5 9C       		.byte	0x9c
ARM GAS  C:\Users\Patrick\AppData\Local\Temp\cc3Vmx0B.s 			page 70


 2195 01c6 83000000 		.4byte	0x83
 2196 01ca 08       		.byte	0x8
 2197 01cb 00       		.byte	0
 2198 01cc 0C       		.uleb128 0xc
 2199 01cd 6B040000 		.4byte	.LASF31
 2200 01d1 03       		.byte	0x3
 2201 01d2 9D       		.byte	0x9d
 2202 01d3 9F010000 		.4byte	0x19f
 2203 01d7 08       		.uleb128 0x8
 2204 01d8 20       		.byte	0x20
 2205 01d9 03       		.byte	0x3
 2206 01da A0       		.byte	0xa0
 2207 01db 34020000 		.4byte	0x234
 2208 01df 09       		.uleb128 0x9
 2209 01e0 1A040000 		.4byte	.LASF24
 2210 01e4 03       		.byte	0x3
 2211 01e5 A2       		.byte	0xa2
 2212 01e6 50010000 		.4byte	0x150
 2213 01ea 00       		.byte	0
 2214 01eb 09       		.uleb128 0x9
 2215 01ec C9020000 		.4byte	.LASF32
 2216 01f0 03       		.byte	0x3
 2217 01f1 A3       		.byte	0xa3
 2218 01f2 50010000 		.4byte	0x150
 2219 01f6 04       		.byte	0x4
 2220 01f7 09       		.uleb128 0x9
 2221 01f8 3B010000 		.4byte	.LASF33
 2222 01fc 03       		.byte	0x3
 2223 01fd A4       		.byte	0xa4
 2224 01fe 1B010000 		.4byte	0x11b
 2225 0202 08       		.byte	0x8
 2226 0203 09       		.uleb128 0x9
 2227 0204 63010000 		.4byte	.LASF25
 2228 0208 03       		.byte	0x3
 2229 0209 A5       		.byte	0xa5
 2230 020a 50010000 		.4byte	0x150
 2231 020e 10       		.byte	0x10
 2232 020f 09       		.uleb128 0x9
 2233 0210 65040000 		.4byte	.LASF26
 2234 0214 03       		.byte	0x3
 2235 0215 A6       		.byte	0xa6
 2236 0216 50010000 		.4byte	0x150
 2237 021a 14       		.byte	0x14
 2238 021b 09       		.uleb128 0x9
 2239 021c 90000000 		.4byte	.LASF34
 2240 0220 03       		.byte	0x3
 2241 0221 A7       		.byte	0xa7
 2242 0222 50010000 		.4byte	0x150
 2243 0226 18       		.byte	0x18
 2244 0227 09       		.uleb128 0x9
 2245 0228 80040000 		.4byte	.LASF35
 2246 022c 03       		.byte	0x3
 2247 022d A8       		.byte	0xa8
 2248 022e 50010000 		.4byte	0x150
 2249 0232 1C       		.byte	0x1c
 2250 0233 00       		.byte	0
 2251 0234 0C       		.uleb128 0xc
ARM GAS  C:\Users\Patrick\AppData\Local\Temp\cc3Vmx0B.s 			page 71


 2252 0235 B9020000 		.4byte	.LASF36
 2253 0239 03       		.byte	0x3
 2254 023a A9       		.byte	0xa9
 2255 023b D7010000 		.4byte	0x1d7
 2256 023f 08       		.uleb128 0x8
 2257 0240 10       		.byte	0x10
 2258 0241 03       		.byte	0x3
 2259 0242 AC       		.byte	0xac
 2260 0243 6C020000 		.4byte	0x26c
 2261 0247 09       		.uleb128 0x9
 2262 0248 68000000 		.4byte	.LASF29
 2263 024c 03       		.byte	0x3
 2264 024d AE       		.byte	0xae
 2265 024e 50010000 		.4byte	0x150
 2266 0252 00       		.byte	0
 2267 0253 09       		.uleb128 0x9
 2268 0254 4B040000 		.4byte	.LASF30
 2269 0258 03       		.byte	0x3
 2270 0259 AF       		.byte	0xaf
 2271 025a 50010000 		.4byte	0x150
 2272 025e 04       		.byte	0x4
 2273 025f 09       		.uleb128 0x9
 2274 0260 44020000 		.4byte	.LASF37
 2275 0264 03       		.byte	0x3
 2276 0265 B0       		.byte	0xb0
 2277 0266 1B010000 		.4byte	0x11b
 2278 026a 08       		.byte	0x8
 2279 026b 00       		.byte	0
 2280 026c 0C       		.uleb128 0xc
 2281 026d 0A040000 		.4byte	.LASF38
 2282 0271 03       		.byte	0x3
 2283 0272 B1       		.byte	0xb1
 2284 0273 3F020000 		.4byte	0x23f
 2285 0277 0D       		.uleb128 0xd
 2286 0278 2E020000 		.4byte	.LASF39
 2287 027c 01       		.byte	0x1
 2288 027d AB01     		.2byte	0x1ab
 2289 027f 6B000000 		.4byte	0x6b
 2290 0283 01       		.byte	0x1
 2291 0284 95020000 		.4byte	0x295
 2292 0288 0E       		.uleb128 0xe
 2293 0289 15050000 		.4byte	.LASF41
 2294 028d 01       		.byte	0x1
 2295 028e AD01     		.2byte	0x1ad
 2296 0290 6B000000 		.4byte	0x6b
 2297 0294 00       		.byte	0
 2298 0295 0D       		.uleb128 0xd
 2299 0296 95020000 		.4byte	.LASF40
 2300 029a 01       		.byte	0x1
 2301 029b 0702     		.2byte	0x207
 2302 029d 6B000000 		.4byte	0x6b
 2303 02a1 01       		.byte	0x1
 2304 02a2 BF020000 		.4byte	0x2bf
 2305 02a6 0F       		.uleb128 0xf
 2306 02a7 AC000000 		.4byte	.LASF43
 2307 02ab 01       		.byte	0x1
 2308 02ac 0702     		.2byte	0x207
ARM GAS  C:\Users\Patrick\AppData\Local\Temp\cc3Vmx0B.s 			page 72


 2309 02ae 77000000 		.4byte	0x77
 2310 02b2 0E       		.uleb128 0xe
 2311 02b3 15050000 		.4byte	.LASF41
 2312 02b7 01       		.byte	0x1
 2313 02b8 0902     		.2byte	0x209
 2314 02ba 6B000000 		.4byte	0x6b
 2315 02be 00       		.byte	0
 2316 02bf 0D       		.uleb128 0xd
 2317 02c0 29040000 		.4byte	.LASF42
 2318 02c4 01       		.byte	0x1
 2319 02c5 3F02     		.2byte	0x23f
 2320 02c7 6B000000 		.4byte	0x6b
 2321 02cb 01       		.byte	0x1
 2322 02cc E9020000 		.4byte	0x2e9
 2323 02d0 0F       		.uleb128 0xf
 2324 02d1 78040000 		.4byte	.LASF44
 2325 02d5 01       		.byte	0x1
 2326 02d6 3F02     		.2byte	0x23f
 2327 02d8 6B000000 		.4byte	0x6b
 2328 02dc 0E       		.uleb128 0xe
 2329 02dd 15050000 		.4byte	.LASF41
 2330 02e1 01       		.byte	0x1
 2331 02e2 4102     		.2byte	0x241
 2332 02e4 6B000000 		.4byte	0x6b
 2333 02e8 00       		.byte	0
 2334 02e9 0D       		.uleb128 0xd
 2335 02ea 57030000 		.4byte	.LASF45
 2336 02ee 01       		.byte	0x1
 2337 02ef 8C02     		.2byte	0x28c
 2338 02f1 6B000000 		.4byte	0x6b
 2339 02f5 01       		.byte	0x1
 2340 02f6 42030000 		.4byte	0x342
 2341 02fa 0F       		.uleb128 0xf
 2342 02fb D7030000 		.4byte	.LASF46
 2343 02ff 01       		.byte	0x1
 2344 0300 8C02     		.2byte	0x28c
 2345 0302 6B000000 		.4byte	0x6b
 2346 0306 0F       		.uleb128 0xf
 2347 0307 E0030000 		.4byte	.LASF47
 2348 030b 01       		.byte	0x1
 2349 030c 8C02     		.2byte	0x28c
 2350 030e 6B000000 		.4byte	0x6b
 2351 0312 10       		.uleb128 0x10
 2352 0313 736A7700 		.ascii	"sjw\000"
 2353 0317 01       		.byte	0x1
 2354 0318 8C02     		.2byte	0x28c
 2355 031a 6B000000 		.4byte	0x6b
 2356 031e 10       		.uleb128 0x10
 2357 031f 736D00   		.ascii	"sm\000"
 2358 0322 01       		.byte	0x1
 2359 0323 8C02     		.2byte	0x28c
 2360 0325 6B000000 		.4byte	0x6b
 2361 0329 0E       		.uleb128 0xe
 2362 032a 15050000 		.4byte	.LASF41
 2363 032e 01       		.byte	0x1
 2364 032f 8F02     		.2byte	0x28f
 2365 0331 6B000000 		.4byte	0x6b
ARM GAS  C:\Users\Patrick\AppData\Local\Temp\cc3Vmx0B.s 			page 73


 2366 0335 0E       		.uleb128 0xe
 2367 0336 7A020000 		.4byte	.LASF48
 2368 033a 01       		.byte	0x1
 2369 033b 9002     		.2byte	0x290
 2370 033d 6B000000 		.4byte	0x6b
 2371 0341 00       		.byte	0
 2372 0342 0D       		.uleb128 0xd
 2373 0343 42010000 		.4byte	.LASF49
 2374 0347 01       		.byte	0x1
 2375 0348 0103     		.2byte	0x301
 2376 034a 6B000000 		.4byte	0x6b
 2377 034e 01       		.byte	0x1
 2378 034f 6C030000 		.4byte	0x36c
 2379 0353 0F       		.uleb128 0xf
 2380 0354 07000000 		.4byte	.LASF50
 2381 0358 01       		.byte	0x1
 2382 0359 0103     		.2byte	0x301
 2383 035b 6B000000 		.4byte	0x6b
 2384 035f 0E       		.uleb128 0xe
 2385 0360 15050000 		.4byte	.LASF41
 2386 0364 01       		.byte	0x1
 2387 0365 0303     		.2byte	0x303
 2388 0367 6B000000 		.4byte	0x6b
 2389 036b 00       		.byte	0
 2390 036c 0D       		.uleb128 0xd
 2391 036d A3010000 		.4byte	.LASF51
 2392 0371 01       		.byte	0x1
 2393 0372 4B03     		.2byte	0x34b
 2394 0374 6B000000 		.4byte	0x6b
 2395 0378 01       		.byte	0x1
 2396 0379 96030000 		.4byte	0x396
 2397 037d 0F       		.uleb128 0xf
 2398 037e 23000000 		.4byte	.LASF52
 2399 0382 01       		.byte	0x1
 2400 0383 4B03     		.2byte	0x34b
 2401 0385 6B000000 		.4byte	0x6b
 2402 0389 0E       		.uleb128 0xe
 2403 038a 15050000 		.4byte	.LASF41
 2404 038e 01       		.byte	0x1
 2405 038f 4D03     		.2byte	0x34d
 2406 0391 6B000000 		.4byte	0x6b
 2407 0395 00       		.byte	0
 2408 0396 0D       		.uleb128 0xd
 2409 0397 40000000 		.4byte	.LASF53
 2410 039b 01       		.byte	0x1
 2411 039c 7604     		.2byte	0x476
 2412 039e 6B000000 		.4byte	0x6b
 2413 03a2 01       		.byte	0x1
 2414 03a3 C0030000 		.4byte	0x3c0
 2415 03a7 0F       		.uleb128 0xf
 2416 03a8 7C010000 		.4byte	.LASF54
 2417 03ac 01       		.byte	0x1
 2418 03ad 7604     		.2byte	0x476
 2419 03af 77000000 		.4byte	0x77
 2420 03b3 0E       		.uleb128 0xe
 2421 03b4 15050000 		.4byte	.LASF41
 2422 03b8 01       		.byte	0x1
ARM GAS  C:\Users\Patrick\AppData\Local\Temp\cc3Vmx0B.s 			page 74


 2423 03b9 7804     		.2byte	0x478
 2424 03bb 6B000000 		.4byte	0x6b
 2425 03bf 00       		.byte	0
 2426 03c0 11       		.uleb128 0x11
 2427 03c1 85000000 		.4byte	.LASF55
 2428 03c5 01       		.byte	0x1
 2429 03c6 89       		.byte	0x89
 2430 03c7 6B000000 		.4byte	0x6b
 2431 03cb 01       		.byte	0x1
 2432 03cc FD030000 		.4byte	0x3fd
 2433 03d0 12       		.uleb128 0x12
 2434 03d1 D9010000 		.4byte	.LASF56
 2435 03d5 01       		.byte	0x1
 2436 03d6 8B       		.byte	0x8b
 2437 03d7 83000000 		.4byte	0x83
 2438 03db 12       		.uleb128 0x12
 2439 03dc 15050000 		.4byte	.LASF41
 2440 03e0 01       		.byte	0x1
 2441 03e1 8C       		.byte	0x8c
 2442 03e2 6B000000 		.4byte	0x6b
 2443 03e6 12       		.uleb128 0x12
 2444 03e7 C1030000 		.4byte	.LASF57
 2445 03eb 01       		.byte	0x1
 2446 03ec 8D       		.byte	0x8d
 2447 03ed 6B000000 		.4byte	0x6b
 2448 03f1 12       		.uleb128 0x12
 2449 03f2 3A040000 		.4byte	.LASF58
 2450 03f6 01       		.byte	0x1
 2451 03f7 90       		.byte	0x90
 2452 03f8 6B000000 		.4byte	0x6b
 2453 03fc 00       		.byte	0
 2454 03fd 0D       		.uleb128 0xd
 2455 03fe B5010000 		.4byte	.LASF59
 2456 0402 01       		.byte	0x1
 2457 0403 6905     		.2byte	0x569
 2458 0405 6B000000 		.4byte	0x6b
 2459 0409 01       		.byte	0x1
 2460 040a 27040000 		.4byte	0x427
 2461 040e 0F       		.uleb128 0xf
 2462 040f 20040000 		.4byte	.LASF60
 2463 0413 01       		.byte	0x1
 2464 0414 6905     		.2byte	0x569
 2465 0416 27040000 		.4byte	0x427
 2466 041a 0E       		.uleb128 0xe
 2467 041b 15050000 		.4byte	.LASF41
 2468 041f 01       		.byte	0x1
 2469 0420 6C05     		.2byte	0x56c
 2470 0422 6B000000 		.4byte	0x6b
 2471 0426 00       		.byte	0
 2472 0427 06       		.uleb128 0x6
 2473 0428 04       		.byte	0x4
 2474 0429 2D040000 		.4byte	0x42d
 2475 042d 13       		.uleb128 0x13
 2476 042e CC010000 		.4byte	0x1cc
 2477 0432 0D       		.uleb128 0xd
 2478 0433 CE000000 		.4byte	.LASF61
 2479 0437 01       		.byte	0x1
ARM GAS  C:\Users\Patrick\AppData\Local\Temp\cc3Vmx0B.s 			page 75


 2480 0438 3005     		.2byte	0x530
 2481 043a 6B000000 		.4byte	0x6b
 2482 043e 01       		.byte	0x1
 2483 043f 5C040000 		.4byte	0x45c
 2484 0443 0F       		.uleb128 0xf
 2485 0444 7C000000 		.4byte	.LASF62
 2486 0448 01       		.byte	0x1
 2487 0449 3005     		.2byte	0x530
 2488 044b 5C040000 		.4byte	0x45c
 2489 044f 0E       		.uleb128 0xe
 2490 0450 15050000 		.4byte	.LASF41
 2491 0454 01       		.byte	0x1
 2492 0455 3305     		.2byte	0x533
 2493 0457 6B000000 		.4byte	0x6b
 2494 045b 00       		.byte	0
 2495 045c 06       		.uleb128 0x6
 2496 045d 04       		.byte	0x4
 2497 045e 62040000 		.4byte	0x462
 2498 0462 13       		.uleb128 0x13
 2499 0463 94010000 		.4byte	0x194
 2500 0467 14       		.uleb128 0x14
 2501 0468 28000000 		.4byte	.LASF66
 2502 046c 01       		.byte	0x1
 2503 046d 2F       		.byte	0x2f
 2504 046e 6B000000 		.4byte	0x6b
 2505 0472 00000000 		.4byte	.LFB0
 2506 0476 4C010000 		.4byte	.LFE0-.LFB0
 2507 047a 01       		.uleb128 0x1
 2508 047b 9C       		.byte	0x9c
 2509 047c 6E050000 		.4byte	0x56e
 2510 0480 15       		.uleb128 0x15
 2511 0481 FB020000 		.4byte	.LASF63
 2512 0485 01       		.byte	0x1
 2513 0486 32       		.byte	0x32
 2514 0487 7E050000 		.4byte	0x57e
 2515 048b 05       		.uleb128 0x5
 2516 048c 03       		.byte	0x3
 2517 048d 00000000 		.4byte	CAN_1_RXConfigStruct.4921
 2518 0491 16       		.uleb128 0x16
 2519 0492 81010000 		.4byte	.LASF64
 2520 0496 01       		.byte	0x1
 2521 0497 46       		.byte	0x46
 2522 0498 93050000 		.4byte	0x593
 2523 049c 60       		.byte	0x60
 2524 049d 00       		.byte	0
 2525 049e 00       		.byte	0
 2526 049f 00       		.byte	0
 2527 04a0 00       		.byte	0
 2528 04a1 00       		.byte	0
 2529 04a2 00       		.byte	0
 2530 04a3 08       		.byte	0x8
 2531 04a4 00       		.byte	0
 2532 04a5 00       		.byte	0
 2533 04a6 00       		.byte	0
 2534 04a7 20       		.byte	0x20
 2535 04a8 00       		.byte	0
 2536 04a9 01       		.byte	0x1
ARM GAS  C:\Users\Patrick\AppData\Local\Temp\cc3Vmx0B.s 			page 76


 2537 04aa 00       		.byte	0
 2538 04ab 00       		.byte	0
 2539 04ac 00       		.byte	0
 2540 04ad 00       		.byte	0
 2541 04ae 00       		.byte	0
 2542 04af 00       		.byte	0
 2543 04b0 00       		.byte	0
 2544 04b1 00       		.byte	0
 2545 04b2 00       		.byte	0
 2546 04b3 00       		.byte	0
 2547 04b4 00       		.byte	0
 2548 04b5 02       		.byte	0x2
 2549 04b6 00       		.byte	0
 2550 04b7 00       		.byte	0
 2551 04b8 00       		.byte	0
 2552 04b9 00       		.byte	0
 2553 04ba 00       		.byte	0
 2554 04bb 00       		.byte	0
 2555 04bc 00       		.byte	0
 2556 04bd 00       		.byte	0
 2557 04be 00       		.byte	0
 2558 04bf 00       		.byte	0
 2559 04c0 00       		.byte	0
 2560 04c1 03       		.byte	0x3
 2561 04c2 00       		.byte	0
 2562 04c3 00       		.byte	0
 2563 04c4 00       		.byte	0
 2564 04c5 00       		.byte	0
 2565 04c6 00       		.byte	0
 2566 04c7 00       		.byte	0
 2567 04c8 00       		.byte	0
 2568 04c9 00       		.byte	0
 2569 04ca 00       		.byte	0
 2570 04cb 00       		.byte	0
 2571 04cc 00       		.byte	0
 2572 04cd 04       		.byte	0x4
 2573 04ce 00       		.byte	0
 2574 04cf 00       		.byte	0
 2575 04d0 00       		.byte	0
 2576 04d1 00       		.byte	0
 2577 04d2 00       		.byte	0
 2578 04d3 00       		.byte	0
 2579 04d4 00       		.byte	0
 2580 04d5 00       		.byte	0
 2581 04d6 00       		.byte	0
 2582 04d7 00       		.byte	0
 2583 04d8 00       		.byte	0
 2584 04d9 05       		.byte	0x5
 2585 04da 00       		.byte	0
 2586 04db 00       		.byte	0
 2587 04dc 00       		.byte	0
 2588 04dd 00       		.byte	0
 2589 04de 00       		.byte	0
 2590 04df 00       		.byte	0
 2591 04e0 00       		.byte	0
 2592 04e1 00       		.byte	0
 2593 04e2 00       		.byte	0
ARM GAS  C:\Users\Patrick\AppData\Local\Temp\cc3Vmx0B.s 			page 77


 2594 04e3 00       		.byte	0
 2595 04e4 00       		.byte	0
 2596 04e5 06       		.byte	0x6
 2597 04e6 00       		.byte	0
 2598 04e7 00       		.byte	0
 2599 04e8 00       		.byte	0
 2600 04e9 00       		.byte	0
 2601 04ea 00       		.byte	0
 2602 04eb 00       		.byte	0
 2603 04ec 00       		.byte	0
 2604 04ed 00       		.byte	0
 2605 04ee 00       		.byte	0
 2606 04ef 00       		.byte	0
 2607 04f0 00       		.byte	0
 2608 04f1 07       		.byte	0x7
 2609 04f2 00       		.byte	0
 2610 04f3 00       		.byte	0
 2611 04f4 00       		.byte	0
 2612 04f5 00       		.byte	0
 2613 04f6 00       		.byte	0
 2614 04f7 00       		.byte	0
 2615 04f8 00       		.byte	0
 2616 04f9 00       		.byte	0
 2617 04fa 00       		.byte	0
 2618 04fb 00       		.byte	0
 2619 04fc 00       		.byte	0
 2620 04fd 17       		.uleb128 0x17
 2621 04fe 15050000 		.4byte	.LASF41
 2622 0502 01       		.byte	0x1
 2623 0503 52       		.byte	0x52
 2624 0504 6B000000 		.4byte	0x6b
 2625 0508 00000000 		.4byte	.LLST0
 2626 050c 18       		.uleb128 0x18
 2627 050d 6900     		.ascii	"i\000"
 2628 050f 01       		.byte	0x1
 2629 0510 53       		.byte	0x53
 2630 0511 6B000000 		.4byte	0x6b
 2631 0515 4F000000 		.4byte	.LLST1
 2632 0519 19       		.uleb128 0x19
 2633 051a FD030000 		.4byte	0x3fd
 2634 051e 00000000 		.4byte	.LBB16
 2635 0522 00000000 		.4byte	.Ldebug_ranges0+0
 2636 0526 01       		.byte	0x1
 2637 0527 58       		.byte	0x58
 2638 0528 45050000 		.4byte	0x545
 2639 052c 1A       		.uleb128 0x1a
 2640 052d 0E040000 		.4byte	0x40e
 2641 0531 CF000000 		.4byte	.LLST2
 2642 0535 1B       		.uleb128 0x1b
 2643 0536 00000000 		.4byte	.Ldebug_ranges0+0
 2644 053a 1C       		.uleb128 0x1c
 2645 053b 1A040000 		.4byte	0x41a
 2646 053f 69010000 		.4byte	.LLST3
 2647 0543 00       		.byte	0
 2648 0544 00       		.byte	0
 2649 0545 1D       		.uleb128 0x1d
 2650 0546 32040000 		.4byte	0x432
ARM GAS  C:\Users\Patrick\AppData\Local\Temp\cc3Vmx0B.s 			page 78


 2651 054a CA000000 		.4byte	.LBB22
 2652 054e 4C000000 		.4byte	.LBE22-.LBB22
 2653 0552 01       		.byte	0x1
 2654 0553 65       		.byte	0x65
 2655 0554 1E       		.uleb128 0x1e
 2656 0555 43040000 		.4byte	0x443
 2657 0559 1F       		.uleb128 0x1f
 2658 055a CA000000 		.4byte	.LBB23
 2659 055e 4C000000 		.4byte	.LBE23-.LBB23
 2660 0562 1C       		.uleb128 0x1c
 2661 0563 4F040000 		.4byte	0x44f
 2662 0567 89010000 		.4byte	.LLST4
 2663 056b 00       		.byte	0
 2664 056c 00       		.byte	0
 2665 056d 00       		.byte	0
 2666 056e 0A       		.uleb128 0xa
 2667 056f 94010000 		.4byte	0x194
 2668 0573 7E050000 		.4byte	0x57e
 2669 0577 0B       		.uleb128 0xb
 2670 0578 EA000000 		.4byte	0xea
 2671 057c 0F       		.byte	0xf
 2672 057d 00       		.byte	0
 2673 057e 13       		.uleb128 0x13
 2674 057f 6E050000 		.4byte	0x56e
 2675 0583 0A       		.uleb128 0xa
 2676 0584 CC010000 		.4byte	0x1cc
 2677 0588 93050000 		.4byte	0x593
 2678 058c 0B       		.uleb128 0xb
 2679 058d EA000000 		.4byte	0xea
 2680 0591 07       		.byte	0x7
 2681 0592 00       		.byte	0
 2682 0593 13       		.uleb128 0x13
 2683 0594 83050000 		.4byte	0x583
 2684 0598 20       		.uleb128 0x20
 2685 0599 C0030000 		.4byte	0x3c0
 2686 059d 00000000 		.4byte	.LFB1
 2687 05a1 F0000000 		.4byte	.LFE1-.LFB1
 2688 05a5 01       		.uleb128 0x1
 2689 05a6 9C       		.byte	0x9c
 2690 05a7 FC070000 		.4byte	0x7fc
 2691 05ab 1C       		.uleb128 0x1c
 2692 05ac D0030000 		.4byte	0x3d0
 2693 05b0 A9010000 		.4byte	.LLST5
 2694 05b4 1C       		.uleb128 0x1c
 2695 05b5 DB030000 		.4byte	0x3db
 2696 05b9 C0010000 		.4byte	.LLST6
 2697 05bd 21       		.uleb128 0x21
 2698 05be E6030000 		.4byte	0x3e6
 2699 05c2 01       		.byte	0x1
 2700 05c3 1C       		.uleb128 0x1c
 2701 05c4 F1030000 		.4byte	0x3f1
 2702 05c8 EB010000 		.4byte	.LLST7
 2703 05cc 22       		.uleb128 0x22
 2704 05cd 20000000 		.4byte	.Ldebug_ranges0+0x20
 2705 05d1 E9070000 		.4byte	0x7e9
 2706 05d5 23       		.uleb128 0x23
 2707 05d6 D0030000 		.4byte	0x3d0
ARM GAS  C:\Users\Patrick\AppData\Local\Temp\cc3Vmx0B.s 			page 79


 2708 05da 23       		.uleb128 0x23
 2709 05db DB030000 		.4byte	0x3db
 2710 05df 1C       		.uleb128 0x1c
 2711 05e0 E6030000 		.4byte	0x3e6
 2712 05e4 FE010000 		.4byte	.LLST8
 2713 05e8 23       		.uleb128 0x23
 2714 05e9 F1030000 		.4byte	0x3f1
 2715 05ed 24       		.uleb128 0x24
 2716 05ee 95020000 		.4byte	0x295
 2717 05f2 54000000 		.4byte	.LBB50
 2718 05f6 0E000000 		.4byte	.LBE50-.LBB50
 2719 05fa 01       		.byte	0x1
 2720 05fb B9       		.byte	0xb9
 2721 05fc 43060000 		.4byte	0x643
 2722 0600 1A       		.uleb128 0x1a
 2723 0601 A6020000 		.4byte	0x2a6
 2724 0605 2D020000 		.4byte	.LLST9
 2725 0609 1F       		.uleb128 0x1f
 2726 060a 54000000 		.4byte	.LBB51
 2727 060e 0E000000 		.4byte	.LBE51-.LBB51
 2728 0612 1C       		.uleb128 0x1c
 2729 0613 B2020000 		.4byte	0x2b2
 2730 0617 4F020000 		.4byte	.LLST10
 2731 061b 1F       		.uleb128 0x1f
 2732 061c 54000000 		.4byte	.LBB52
 2733 0620 0E000000 		.4byte	.LBE52-.LBB52
 2734 0624 1A       		.uleb128 0x1a
 2735 0625 A6020000 		.4byte	0x2a6
 2736 0629 2D020000 		.4byte	.LLST9
 2737 062d 1F       		.uleb128 0x1f
 2738 062e 54000000 		.4byte	.LBB53
 2739 0632 0E000000 		.4byte	.LBE53-.LBB53
 2740 0636 1C       		.uleb128 0x1c
 2741 0637 B2020000 		.4byte	0x2b2
 2742 063b 63020000 		.4byte	.LLST12
 2743 063f 00       		.byte	0
 2744 0640 00       		.byte	0
 2745 0641 00       		.byte	0
 2746 0642 00       		.byte	0
 2747 0643 24       		.uleb128 0x24
 2748 0644 BF020000 		.4byte	0x2bf
 2749 0648 66000000 		.4byte	.LBB54
 2750 064c 10000000 		.4byte	.LBE54-.LBB54
 2751 0650 01       		.byte	0x1
 2752 0651 BB       		.byte	0xbb
 2753 0652 70060000 		.4byte	0x670
 2754 0656 25       		.uleb128 0x25
 2755 0657 D0020000 		.4byte	0x2d0
 2756 065b 01       		.byte	0x1
 2757 065c 1F       		.uleb128 0x1f
 2758 065d 66000000 		.4byte	.LBB55
 2759 0661 10000000 		.4byte	.LBE55-.LBB55
 2760 0665 1C       		.uleb128 0x1c
 2761 0666 DC020000 		.4byte	0x2dc
 2762 066a 83020000 		.4byte	.LLST13
 2763 066e 00       		.byte	0
 2764 066f 00       		.byte	0
ARM GAS  C:\Users\Patrick\AppData\Local\Temp\cc3Vmx0B.s 			page 80


 2765 0670 24       		.uleb128 0x24
 2766 0671 E9020000 		.4byte	0x2e9
 2767 0675 76000000 		.4byte	.LBB56
 2768 0679 1C000000 		.4byte	.LBE56-.LBB56
 2769 067d 01       		.byte	0x1
 2770 067e C1       		.byte	0xc1
 2771 067f F0060000 		.4byte	0x6f0
 2772 0683 25       		.uleb128 0x25
 2773 0684 1E030000 		.4byte	0x31e
 2774 0688 00       		.byte	0
 2775 0689 25       		.uleb128 0x25
 2776 068a 12030000 		.4byte	0x312
 2777 068e 02       		.byte	0x2
 2778 068f 25       		.uleb128 0x25
 2779 0690 06030000 		.4byte	0x306
 2780 0694 02       		.byte	0x2
 2781 0695 25       		.uleb128 0x25
 2782 0696 FA020000 		.4byte	0x2fa
 2783 069a 03       		.byte	0x3
 2784 069b 1F       		.uleb128 0x1f
 2785 069c 76000000 		.4byte	.LBB57
 2786 06a0 1C000000 		.4byte	.LBE57-.LBB57
 2787 06a4 1C       		.uleb128 0x1c
 2788 06a5 29030000 		.4byte	0x329
 2789 06a9 A3020000 		.4byte	.LLST14
 2790 06ad 1C       		.uleb128 0x1c
 2791 06ae 35030000 		.4byte	0x335
 2792 06b2 C3020000 		.4byte	.LLST15
 2793 06b6 1F       		.uleb128 0x1f
 2794 06b7 88000000 		.4byte	.LBB58
 2795 06bb 0A000000 		.4byte	.LBE58-.LBB58
 2796 06bf 25       		.uleb128 0x25
 2797 06c0 FA020000 		.4byte	0x2fa
 2798 06c4 03       		.byte	0x3
 2799 06c5 25       		.uleb128 0x25
 2800 06c6 1E030000 		.4byte	0x31e
 2801 06ca 00       		.byte	0
 2802 06cb 25       		.uleb128 0x25
 2803 06cc 12030000 		.4byte	0x312
 2804 06d0 02       		.byte	0x2
 2805 06d1 25       		.uleb128 0x25
 2806 06d2 06030000 		.4byte	0x306
 2807 06d6 02       		.byte	0x2
 2808 06d7 1F       		.uleb128 0x1f
 2809 06d8 88000000 		.4byte	.LBB59
 2810 06dc 0A000000 		.4byte	.LBE59-.LBB59
 2811 06e0 21       		.uleb128 0x21
 2812 06e1 29030000 		.4byte	0x329
 2813 06e5 00       		.byte	0
 2814 06e6 21       		.uleb128 0x21
 2815 06e7 35030000 		.4byte	0x335
 2816 06eb 48       		.byte	0x48
 2817 06ec 00       		.byte	0
 2818 06ed 00       		.byte	0
 2819 06ee 00       		.byte	0
 2820 06ef 00       		.byte	0
 2821 06f0 24       		.uleb128 0x24
ARM GAS  C:\Users\Patrick\AppData\Local\Temp\cc3Vmx0B.s 			page 81


 2822 06f1 42030000 		.4byte	0x342
 2823 06f5 92000000 		.4byte	.LBB60
 2824 06f9 0E000000 		.4byte	.LBE60-.LBB60
 2825 06fd 01       		.byte	0x1
 2826 06fe C5       		.byte	0xc5
 2827 06ff 3D070000 		.4byte	0x73d
 2828 0703 25       		.uleb128 0x25
 2829 0704 53030000 		.4byte	0x353
 2830 0708 00       		.byte	0
 2831 0709 1F       		.uleb128 0x1f
 2832 070a 92000000 		.4byte	.LBB61
 2833 070e 0E000000 		.4byte	.LBE61-.LBB61
 2834 0712 1C       		.uleb128 0x1c
 2835 0713 5F030000 		.4byte	0x35f
 2836 0717 E2020000 		.4byte	.LLST16
 2837 071b 1F       		.uleb128 0x1f
 2838 071c 92000000 		.4byte	.LBB62
 2839 0720 0E000000 		.4byte	.LBE62-.LBB62
 2840 0724 25       		.uleb128 0x25
 2841 0725 53030000 		.4byte	0x353
 2842 0729 00       		.byte	0
 2843 072a 1F       		.uleb128 0x1f
 2844 072b 92000000 		.4byte	.LBB63
 2845 072f 0E000000 		.4byte	.LBE63-.LBB63
 2846 0733 21       		.uleb128 0x21
 2847 0734 5F030000 		.4byte	0x35f
 2848 0738 00       		.byte	0
 2849 0739 00       		.byte	0
 2850 073a 00       		.byte	0
 2851 073b 00       		.byte	0
 2852 073c 00       		.byte	0
 2853 073d 24       		.uleb128 0x24
 2854 073e 6C030000 		.4byte	0x36c
 2855 0742 A0000000 		.4byte	.LBB64
 2856 0746 0A000000 		.4byte	.LBE64-.LBB64
 2857 074a 01       		.byte	0x1
 2858 074b C7       		.byte	0xc7
 2859 074c 86070000 		.4byte	0x786
 2860 0750 25       		.uleb128 0x25
 2861 0751 7D030000 		.4byte	0x37d
 2862 0755 00       		.byte	0
 2863 0756 1F       		.uleb128 0x1f
 2864 0757 A0000000 		.4byte	.LBB65
 2865 075b 0A000000 		.4byte	.LBE65-.LBB65
 2866 075f 21       		.uleb128 0x21
 2867 0760 89030000 		.4byte	0x389
 2868 0764 01       		.byte	0x1
 2869 0765 1F       		.uleb128 0x1f
 2870 0766 A0000000 		.4byte	.LBB66
 2871 076a 0A000000 		.4byte	.LBE66-.LBB66
 2872 076e 25       		.uleb128 0x25
 2873 076f 7D030000 		.4byte	0x37d
 2874 0773 00       		.byte	0
 2875 0774 1F       		.uleb128 0x1f
 2876 0775 A0000000 		.4byte	.LBB67
 2877 0779 0A000000 		.4byte	.LBE67-.LBB67
 2878 077d 23       		.uleb128 0x23
ARM GAS  C:\Users\Patrick\AppData\Local\Temp\cc3Vmx0B.s 			page 82


 2879 077e 89030000 		.4byte	0x389
 2880 0782 00       		.byte	0
 2881 0783 00       		.byte	0
 2882 0784 00       		.byte	0
 2883 0785 00       		.byte	0
 2884 0786 24       		.uleb128 0x24
 2885 0787 96030000 		.4byte	0x396
 2886 078b B6000000 		.4byte	.LBB68
 2887 078f 10000000 		.4byte	.LBE68-.LBB68
 2888 0793 01       		.byte	0x1
 2889 0794 D6       		.byte	0xd6
 2890 0795 B4070000 		.4byte	0x7b4
 2891 0799 26       		.uleb128 0x26
 2892 079a A7030000 		.4byte	0x3a7
 2893 079e 0012     		.2byte	0x1200
 2894 07a0 1F       		.uleb128 0x1f
 2895 07a1 B6000000 		.4byte	.LBB69
 2896 07a5 10000000 		.4byte	.LBE69-.LBB69
 2897 07a9 1C       		.uleb128 0x1c
 2898 07aa B3030000 		.4byte	0x3b3
 2899 07ae 02030000 		.4byte	.LLST17
 2900 07b2 00       		.byte	0
 2901 07b3 00       		.byte	0
 2902 07b4 27       		.uleb128 0x27
 2903 07b5 4C000000 		.4byte	.LVL20
 2904 07b9 090D0000 		.4byte	0xd09
 2905 07bd C7070000 		.4byte	0x7c7
 2906 07c1 28       		.uleb128 0x28
 2907 07c2 01       		.uleb128 0x1
 2908 07c3 50       		.byte	0x50
 2909 07c4 01       		.uleb128 0x1
 2910 07c5 40       		.byte	0x40
 2911 07c6 00       		.byte	0
 2912 07c7 27       		.uleb128 0x27
 2913 07c8 54000000 		.4byte	.LVL21
 2914 07cc 230D0000 		.4byte	0xd23
 2915 07d0 DF070000 		.4byte	0x7df
 2916 07d4 28       		.uleb128 0x28
 2917 07d5 01       		.uleb128 0x1
 2918 07d6 51       		.byte	0x51
 2919 07d7 01       		.uleb128 0x1
 2920 07d8 37       		.byte	0x37
 2921 07d9 28       		.uleb128 0x28
 2922 07da 01       		.uleb128 0x1
 2923 07db 50       		.byte	0x50
 2924 07dc 01       		.uleb128 0x1
 2925 07dd 40       		.byte	0x40
 2926 07de 00       		.byte	0
 2927 07df 29       		.uleb128 0x29
 2928 07e0 B2000000 		.4byte	.LVL37
 2929 07e4 67040000 		.4byte	0x467
 2930 07e8 00       		.byte	0
 2931 07e9 29       		.uleb128 0x29
 2932 07ea 06000000 		.4byte	.LVL17
 2933 07ee 390D0000 		.4byte	0xd39
 2934 07f2 29       		.uleb128 0x29
 2935 07f3 1E000000 		.4byte	.LVL18
ARM GAS  C:\Users\Patrick\AppData\Local\Temp\cc3Vmx0B.s 			page 83


 2936 07f7 440D0000 		.4byte	0xd44
 2937 07fb 00       		.byte	0
 2938 07fc 11       		.uleb128 0x11
 2939 07fd 15030000 		.4byte	.LASF65
 2940 0801 01       		.byte	0x1
 2941 0802 FE       		.byte	0xfe
 2942 0803 6B000000 		.4byte	0x6b
 2943 0807 01       		.byte	0x1
 2944 0808 31080000 		.4byte	0x831
 2945 080c 0E       		.uleb128 0xe
 2946 080d D9010000 		.4byte	.LASF56
 2947 0811 01       		.byte	0x1
 2948 0812 0001     		.2byte	0x100
 2949 0814 83000000 		.4byte	0x83
 2950 0818 0E       		.uleb128 0xe
 2951 0819 15050000 		.4byte	.LASF41
 2952 081d 01       		.byte	0x1
 2953 081e 0101     		.2byte	0x101
 2954 0820 6B000000 		.4byte	0x6b
 2955 0824 0E       		.uleb128 0xe
 2956 0825 3A040000 		.4byte	.LASF58
 2957 0829 01       		.byte	0x1
 2958 082a 0401     		.2byte	0x104
 2959 082c 6B000000 		.4byte	0x6b
 2960 0830 00       		.byte	0
 2961 0831 20       		.uleb128 0x20
 2962 0832 FC070000 		.4byte	0x7fc
 2963 0836 00000000 		.4byte	.LFB2
 2964 083a 78000000 		.4byte	.LFE2-.LFB2
 2965 083e 01       		.uleb128 0x1
 2966 083f 9C       		.byte	0x9c
 2967 0840 93080000 		.4byte	0x893
 2968 0844 1C       		.uleb128 0x1c
 2969 0845 0C080000 		.4byte	0x80c
 2970 0849 22030000 		.4byte	.LLST18
 2971 084d 1C       		.uleb128 0x1c
 2972 084e 18080000 		.4byte	0x818
 2973 0852 38030000 		.4byte	.LLST19
 2974 0856 1C       		.uleb128 0x1c
 2975 0857 24080000 		.4byte	0x824
 2976 085b 57030000 		.4byte	.LLST20
 2977 085f 2A       		.uleb128 0x2a
 2978 0860 77020000 		.4byte	0x277
 2979 0864 20000000 		.4byte	.LBB74
 2980 0868 38000000 		.4byte	.Ldebug_ranges0+0x38
 2981 086c 01       		.byte	0x1
 2982 086d 1301     		.2byte	0x113
 2983 086f 80080000 		.4byte	0x880
 2984 0873 1B       		.uleb128 0x1b
 2985 0874 38000000 		.4byte	.Ldebug_ranges0+0x38
 2986 0878 21       		.uleb128 0x21
 2987 0879 88020000 		.4byte	0x288
 2988 087d 01       		.byte	0x1
 2989 087e 00       		.byte	0
 2990 087f 00       		.byte	0
 2991 0880 29       		.uleb128 0x29
 2992 0881 06000000 		.4byte	.LVL41
ARM GAS  C:\Users\Patrick\AppData\Local\Temp\cc3Vmx0B.s 			page 84


 2993 0885 390D0000 		.4byte	0xd39
 2994 0889 29       		.uleb128 0x29
 2995 088a 1E000000 		.4byte	.LVL42
 2996 088e 440D0000 		.4byte	0xd44
 2997 0892 00       		.byte	0
 2998 0893 2B       		.uleb128 0x2b
 2999 0894 E9000000 		.4byte	.LASF67
 3000 0898 01       		.byte	0x1
 3001 0899 4301     		.2byte	0x143
 3002 089b 6B000000 		.4byte	0x6b
 3003 089f 00000000 		.4byte	.LFB3
 3004 08a3 90000000 		.4byte	.LFE3-.LFB3
 3005 08a7 01       		.uleb128 0x1
 3006 08a8 9C       		.byte	0x9c
 3007 08a9 33090000 		.4byte	0x933
 3008 08ad 2C       		.uleb128 0x2c
 3009 08ae 15050000 		.4byte	.LASF41
 3010 08b2 01       		.byte	0x1
 3011 08b3 4501     		.2byte	0x145
 3012 08b5 6B000000 		.4byte	0x6b
 3013 08b9 6A030000 		.4byte	.LLST21
 3014 08bd 2A       		.uleb128 0x2a
 3015 08be FC070000 		.4byte	0x7fc
 3016 08c2 0C000000 		.4byte	.LBB86
 3017 08c6 60000000 		.4byte	.Ldebug_ranges0+0x60
 3018 08ca 01       		.byte	0x1
 3019 08cb 4F01     		.2byte	0x14f
 3020 08cd 29090000 		.4byte	0x929
 3021 08d1 1B       		.uleb128 0x1b
 3022 08d2 60000000 		.4byte	.Ldebug_ranges0+0x60
 3023 08d6 1C       		.uleb128 0x1c
 3024 08d7 0C080000 		.4byte	0x80c
 3025 08db 95030000 		.4byte	.LLST22
 3026 08df 1C       		.uleb128 0x1c
 3027 08e0 18080000 		.4byte	0x818
 3028 08e4 AB030000 		.4byte	.LLST23
 3029 08e8 1C       		.uleb128 0x1c
 3030 08e9 24080000 		.4byte	0x824
 3031 08ed CB030000 		.4byte	.LLST24
 3032 08f1 2A       		.uleb128 0x2a
 3033 08f2 77020000 		.4byte	0x277
 3034 08f6 2A000000 		.4byte	.LBB88
 3035 08fa 78000000 		.4byte	.Ldebug_ranges0+0x78
 3036 08fe 01       		.byte	0x1
 3037 08ff 1301     		.2byte	0x113
 3038 0901 15090000 		.4byte	0x915
 3039 0905 1B       		.uleb128 0x1b
 3040 0906 78000000 		.4byte	.Ldebug_ranges0+0x78
 3041 090a 1C       		.uleb128 0x1c
 3042 090b 88020000 		.4byte	0x288
 3043 090f DE030000 		.4byte	.LLST25
 3044 0913 00       		.byte	0
 3045 0914 00       		.byte	0
 3046 0915 29       		.uleb128 0x29
 3047 0916 10000000 		.4byte	.LVL49
 3048 091a 390D0000 		.4byte	0xd39
 3049 091e 29       		.uleb128 0x29
ARM GAS  C:\Users\Patrick\AppData\Local\Temp\cc3Vmx0B.s 			page 85


 3050 091f 28000000 		.4byte	.LVL50
 3051 0923 440D0000 		.4byte	0xd44
 3052 0927 00       		.byte	0
 3053 0928 00       		.byte	0
 3054 0929 29       		.uleb128 0x29
 3055 092a 68000000 		.4byte	.LVL54
 3056 092e C0030000 		.4byte	0x3c0
 3057 0932 00       		.byte	0
 3058 0933 2B       		.uleb128 0x2b
 3059 0934 3A030000 		.4byte	.LASF68
 3060 0938 01       		.byte	0x1
 3061 0939 6E01     		.2byte	0x16e
 3062 093b 6B000000 		.4byte	0x6b
 3063 093f 00000000 		.4byte	.LFB4
 3064 0943 5C000000 		.4byte	.LFE4-.LFB4
 3065 0947 01       		.uleb128 0x1
 3066 0948 9C       		.byte	0x9c
 3067 0949 90090000 		.4byte	0x990
 3068 094d 2C       		.uleb128 0x2c
 3069 094e D9010000 		.4byte	.LASF56
 3070 0952 01       		.byte	0x1
 3071 0953 7001     		.2byte	0x170
 3072 0955 83000000 		.4byte	0x83
 3073 0959 FE030000 		.4byte	.LLST26
 3074 095d 2C       		.uleb128 0x2c
 3075 095e 15050000 		.4byte	.LASF41
 3076 0962 01       		.byte	0x1
 3077 0963 7101     		.2byte	0x171
 3078 0965 6B000000 		.4byte	0x6b
 3079 0969 15040000 		.4byte	.LLST27
 3080 096d 2C       		.uleb128 0x2c
 3081 096e 3A040000 		.4byte	.LASF58
 3082 0972 01       		.byte	0x1
 3083 0973 7401     		.2byte	0x174
 3084 0975 6B000000 		.4byte	0x6b
 3085 0979 41040000 		.4byte	.LLST28
 3086 097d 29       		.uleb128 0x29
 3087 097e 2C000000 		.4byte	.LVL60
 3088 0982 390D0000 		.4byte	0xd39
 3089 0986 29       		.uleb128 0x29
 3090 0987 44000000 		.4byte	.LVL61
 3091 098b 440D0000 		.4byte	0xd44
 3092 098f 00       		.byte	0
 3093 0990 20       		.uleb128 0x20
 3094 0991 77020000 		.4byte	0x277
 3095 0995 00000000 		.4byte	.LFB5
 3096 0999 1C000000 		.4byte	.LFE5-.LFB5
 3097 099d 01       		.uleb128 0x1
 3098 099e 9C       		.byte	0x9c
 3099 099f AD090000 		.4byte	0x9ad
 3100 09a3 1C       		.uleb128 0x1c
 3101 09a4 88020000 		.4byte	0x288
 3102 09a8 54040000 		.4byte	.LLST29
 3103 09ac 00       		.byte	0
 3104 09ad 2B       		.uleb128 0x2b
 3105 09ae F5000000 		.4byte	.LASF69
 3106 09b2 01       		.byte	0x1
ARM GAS  C:\Users\Patrick\AppData\Local\Temp\cc3Vmx0B.s 			page 86


 3107 09b3 D501     		.2byte	0x1d5
 3108 09b5 6B000000 		.4byte	0x6b
 3109 09b9 00000000 		.4byte	.LFB6
 3110 09bd 18000000 		.4byte	.LFE6-.LFB6
 3111 09c1 01       		.uleb128 0x1
 3112 09c2 9C       		.byte	0x9c
 3113 09c3 D8090000 		.4byte	0x9d8
 3114 09c7 2C       		.uleb128 0x2c
 3115 09c8 15050000 		.4byte	.LASF41
 3116 09cc 01       		.byte	0x1
 3117 09cd D701     		.2byte	0x1d7
 3118 09cf 6B000000 		.4byte	0x6b
 3119 09d3 82040000 		.4byte	.LLST30
 3120 09d7 00       		.byte	0
 3121 09d8 20       		.uleb128 0x20
 3122 09d9 95020000 		.4byte	0x295
 3123 09dd 00000000 		.4byte	.LFB7
 3124 09e1 1C000000 		.4byte	.LFE7-.LFB7
 3125 09e5 01       		.uleb128 0x1
 3126 09e6 9C       		.byte	0x9c
 3127 09e7 240A0000 		.4byte	0xa24
 3128 09eb 1A       		.uleb128 0x1a
 3129 09ec A6020000 		.4byte	0x2a6
 3130 09f0 A5040000 		.4byte	.LLST31
 3131 09f4 1C       		.uleb128 0x1c
 3132 09f5 B2020000 		.4byte	0x2b2
 3133 09f9 E0040000 		.4byte	.LLST32
 3134 09fd 1F       		.uleb128 0x1f
 3135 09fe 04000000 		.4byte	.LBB100
 3136 0a02 08000000 		.4byte	.LBE100-.LBB100
 3137 0a06 1A       		.uleb128 0x1a
 3138 0a07 A6020000 		.4byte	0x2a6
 3139 0a0b FF040000 		.4byte	.LLST33
 3140 0a0f 1F       		.uleb128 0x1f
 3141 0a10 04000000 		.4byte	.LBB101
 3142 0a14 08000000 		.4byte	.LBE101-.LBB101
 3143 0a18 1C       		.uleb128 0x1c
 3144 0a19 B2020000 		.4byte	0x2b2
 3145 0a1d 21050000 		.4byte	.LLST34
 3146 0a21 00       		.byte	0
 3147 0a22 00       		.byte	0
 3148 0a23 00       		.byte	0
 3149 0a24 20       		.uleb128 0x20
 3150 0a25 BF020000 		.4byte	0x2bf
 3151 0a29 00000000 		.4byte	.LFB8
 3152 0a2d 2C000000 		.4byte	.LFE8-.LFB8
 3153 0a31 01       		.uleb128 0x1
 3154 0a32 9C       		.byte	0x9c
 3155 0a33 640A0000 		.4byte	0xa64
 3156 0a37 1A       		.uleb128 0x1a
 3157 0a38 D0020000 		.4byte	0x2d0
 3158 0a3c 35050000 		.4byte	.LLST35
 3159 0a40 1C       		.uleb128 0x1c
 3160 0a41 DC020000 		.4byte	0x2dc
 3161 0a45 6F050000 		.4byte	.LLST36
 3162 0a49 1B       		.uleb128 0x1b
 3163 0a4a A0000000 		.4byte	.Ldebug_ranges0+0xa0
ARM GAS  C:\Users\Patrick\AppData\Local\Temp\cc3Vmx0B.s 			page 87


 3164 0a4e 1A       		.uleb128 0x1a
 3165 0a4f D0020000 		.4byte	0x2d0
 3166 0a53 8E050000 		.4byte	.LLST37
 3167 0a57 1B       		.uleb128 0x1b
 3168 0a58 A0000000 		.4byte	.Ldebug_ranges0+0xa0
 3169 0a5c 23       		.uleb128 0x23
 3170 0a5d DC020000 		.4byte	0x2dc
 3171 0a61 00       		.byte	0
 3172 0a62 00       		.byte	0
 3173 0a63 00       		.byte	0
 3174 0a64 20       		.uleb128 0x20
 3175 0a65 E9020000 		.4byte	0x2e9
 3176 0a69 00000000 		.4byte	.LFB9
 3177 0a6d 64000000 		.4byte	.LFE9-.LFB9
 3178 0a71 01       		.uleb128 0x1
 3179 0a72 9C       		.byte	0x9c
 3180 0a73 EC0A0000 		.4byte	0xaec
 3181 0a77 1A       		.uleb128 0x1a
 3182 0a78 FA020000 		.4byte	0x2fa
 3183 0a7c A2050000 		.4byte	.LLST38
 3184 0a80 2D       		.uleb128 0x2d
 3185 0a81 06030000 		.4byte	0x306
 3186 0a85 01       		.uleb128 0x1
 3187 0a86 51       		.byte	0x51
 3188 0a87 1A       		.uleb128 0x1a
 3189 0a88 12030000 		.4byte	0x312
 3190 0a8c F5050000 		.4byte	.LLST39
 3191 0a90 1A       		.uleb128 0x1a
 3192 0a91 1E030000 		.4byte	0x31e
 3193 0a95 2F060000 		.4byte	.LLST40
 3194 0a99 1C       		.uleb128 0x1c
 3195 0a9a 29030000 		.4byte	0x329
 3196 0a9e 69060000 		.4byte	.LLST41
 3197 0aa2 1C       		.uleb128 0x1c
 3198 0aa3 35030000 		.4byte	0x335
 3199 0aa7 B8060000 		.4byte	.LLST42
 3200 0aab 1F       		.uleb128 0x1f
 3201 0aac 40000000 		.4byte	.LBB112
 3202 0ab0 18000000 		.4byte	.LBE112-.LBB112
 3203 0ab4 1E       		.uleb128 0x1e
 3204 0ab5 FA020000 		.4byte	0x2fa
 3205 0ab9 1A       		.uleb128 0x1a
 3206 0aba 1E030000 		.4byte	0x31e
 3207 0abe F9060000 		.4byte	.LLST43
 3208 0ac2 1A       		.uleb128 0x1a
 3209 0ac3 12030000 		.4byte	0x312
 3210 0ac7 1A070000 		.4byte	.LLST44
 3211 0acb 2D       		.uleb128 0x2d
 3212 0acc 06030000 		.4byte	0x306
 3213 0ad0 01       		.uleb128 0x1
 3214 0ad1 51       		.byte	0x51
 3215 0ad2 1F       		.uleb128 0x1f
 3216 0ad3 40000000 		.4byte	.LBB113
 3217 0ad7 18000000 		.4byte	.LBE113-.LBB113
 3218 0adb 23       		.uleb128 0x23
 3219 0adc 29030000 		.4byte	0x329
 3220 0ae0 1C       		.uleb128 0x1c
ARM GAS  C:\Users\Patrick\AppData\Local\Temp\cc3Vmx0B.s 			page 88


 3221 0ae1 35030000 		.4byte	0x335
 3222 0ae5 3B070000 		.4byte	.LLST45
 3223 0ae9 00       		.byte	0
 3224 0aea 00       		.byte	0
 3225 0aeb 00       		.byte	0
 3226 0aec 20       		.uleb128 0x20
 3227 0aed 42030000 		.4byte	0x342
 3228 0af1 00000000 		.4byte	.LFB10
 3229 0af5 2C000000 		.4byte	.LFE10-.LFB10
 3230 0af9 01       		.uleb128 0x1
 3231 0afa 9C       		.byte	0x9c
 3232 0afb 2C0B0000 		.4byte	0xb2c
 3233 0aff 1A       		.uleb128 0x1a
 3234 0b00 53030000 		.4byte	0x353
 3235 0b04 65070000 		.4byte	.LLST46
 3236 0b08 1C       		.uleb128 0x1c
 3237 0b09 5F030000 		.4byte	0x35f
 3238 0b0d 9F070000 		.4byte	.LLST47
 3239 0b11 1B       		.uleb128 0x1b
 3240 0b12 C0000000 		.4byte	.Ldebug_ranges0+0xc0
 3241 0b16 1A       		.uleb128 0x1a
 3242 0b17 53030000 		.4byte	0x353
 3243 0b1b BE070000 		.4byte	.LLST48
 3244 0b1f 1B       		.uleb128 0x1b
 3245 0b20 C0000000 		.4byte	.Ldebug_ranges0+0xc0
 3246 0b24 23       		.uleb128 0x23
 3247 0b25 5F030000 		.4byte	0x35f
 3248 0b29 00       		.byte	0
 3249 0b2a 00       		.byte	0
 3250 0b2b 00       		.byte	0
 3251 0b2c 20       		.uleb128 0x20
 3252 0b2d 6C030000 		.4byte	0x36c
 3253 0b31 00000000 		.4byte	.LFB11
 3254 0b35 2C000000 		.4byte	.LFE11-.LFB11
 3255 0b39 01       		.uleb128 0x1
 3256 0b3a 9C       		.byte	0x9c
 3257 0b3b 6C0B0000 		.4byte	0xb6c
 3258 0b3f 1A       		.uleb128 0x1a
 3259 0b40 7D030000 		.4byte	0x37d
 3260 0b44 D2070000 		.4byte	.LLST49
 3261 0b48 1C       		.uleb128 0x1c
 3262 0b49 89030000 		.4byte	0x389
 3263 0b4d 0C080000 		.4byte	.LLST50
 3264 0b51 1B       		.uleb128 0x1b
 3265 0b52 E0000000 		.4byte	.Ldebug_ranges0+0xe0
 3266 0b56 1A       		.uleb128 0x1a
 3267 0b57 7D030000 		.4byte	0x37d
 3268 0b5b 2B080000 		.4byte	.LLST51
 3269 0b5f 1B       		.uleb128 0x1b
 3270 0b60 E0000000 		.4byte	.Ldebug_ranges0+0xe0
 3271 0b64 23       		.uleb128 0x23
 3272 0b65 89030000 		.4byte	0x389
 3273 0b69 00       		.byte	0
 3274 0b6a 00       		.byte	0
 3275 0b6b 00       		.byte	0
 3276 0b6c 2B       		.uleb128 0x2b
 3277 0b6d 2B010000 		.4byte	.LASF70
ARM GAS  C:\Users\Patrick\AppData\Local\Temp\cc3Vmx0B.s 			page 89


 3278 0b71 01       		.byte	0x1
 3279 0b72 AA03     		.2byte	0x3aa
 3280 0b74 6B000000 		.4byte	0x6b
 3281 0b78 00000000 		.4byte	.LFB12
 3282 0b7c 68000000 		.4byte	.LFE12-.LFB12
 3283 0b80 01       		.uleb128 0x1
 3284 0b81 9C       		.byte	0x9c
 3285 0b82 C70B0000 		.4byte	0xbc7
 3286 0b86 2E       		.uleb128 0x2e
 3287 0b87 27020000 		.4byte	.LASF73
 3288 0b8b 01       		.byte	0x1
 3289 0b8c AA03     		.2byte	0x3aa
 3290 0b8e 6B000000 		.4byte	0x6b
 3291 0b92 3F080000 		.4byte	.LLST52
 3292 0b96 2C       		.uleb128 0x2c
 3293 0b97 D9010000 		.4byte	.LASF56
 3294 0b9b 01       		.byte	0x1
 3295 0b9c AD03     		.2byte	0x3ad
 3296 0b9e 83000000 		.4byte	0x83
 3297 0ba2 79080000 		.4byte	.LLST53
 3298 0ba6 2C       		.uleb128 0x2c
 3299 0ba7 15050000 		.4byte	.LASF41
 3300 0bab 01       		.byte	0x1
 3301 0bac AF03     		.2byte	0x3af
 3302 0bae 6B000000 		.4byte	0x6b
 3303 0bb2 9E080000 		.4byte	.LLST54
 3304 0bb6 2C       		.uleb128 0x2c
 3305 0bb7 E0000000 		.4byte	.LASF71
 3306 0bbb 01       		.byte	0x1
 3307 0bbc B003     		.2byte	0x3b0
 3308 0bbe 6B000000 		.4byte	0x6b
 3309 0bc2 CA080000 		.4byte	.LLST55
 3310 0bc6 00       		.byte	0
 3311 0bc7 2B       		.uleb128 0x2b
 3312 0bc8 97000000 		.4byte	.LASF72
 3313 0bcc 01       		.byte	0x1
 3314 0bcd 1A04     		.2byte	0x41a
 3315 0bcf 6B000000 		.4byte	0x6b
 3316 0bd3 00000000 		.4byte	.LFB13
 3317 0bd7 60000000 		.4byte	.LFE13-.LFB13
 3318 0bdb 01       		.uleb128 0x1
 3319 0bdc 9C       		.byte	0x9c
 3320 0bdd 120C0000 		.4byte	0xc12
 3321 0be1 2E       		.uleb128 0x2e
 3322 0be2 72020000 		.4byte	.LASF74
 3323 0be6 01       		.byte	0x1
 3324 0be7 1A04     		.2byte	0x41a
 3325 0be9 120C0000 		.4byte	0xc12
 3326 0bed FF080000 		.4byte	.LLST56
 3327 0bf1 2E       		.uleb128 0x2e
 3328 0bf2 6B030000 		.4byte	.LASF75
 3329 0bf6 01       		.byte	0x1
 3330 0bf7 1A04     		.2byte	0x41a
 3331 0bf9 83000000 		.4byte	0x83
 3332 0bfd 52090000 		.4byte	.LLST57
 3333 0c01 2C       		.uleb128 0x2c
 3334 0c02 15050000 		.4byte	.LASF41
ARM GAS  C:\Users\Patrick\AppData\Local\Temp\cc3Vmx0B.s 			page 90


 3335 0c06 01       		.byte	0x1
 3336 0c07 1D04     		.2byte	0x41d
 3337 0c09 6B000000 		.4byte	0x6b
 3338 0c0d 84090000 		.4byte	.LLST58
 3339 0c11 00       		.byte	0
 3340 0c12 06       		.uleb128 0x6
 3341 0c13 04       		.byte	0x4
 3342 0c14 C6000000 		.4byte	0xc6
 3343 0c18 20       		.uleb128 0x20
 3344 0c19 96030000 		.4byte	0x396
 3345 0c1d 00000000 		.4byte	.LFB14
 3346 0c21 14000000 		.4byte	.LFE14-.LFB14
 3347 0c25 01       		.uleb128 0x1
 3348 0c26 9C       		.byte	0x9c
 3349 0c27 3E0C0000 		.4byte	0xc3e
 3350 0c2b 1A       		.uleb128 0x1a
 3351 0c2c A7030000 		.4byte	0x3a7
 3352 0c30 C6090000 		.4byte	.LLST59
 3353 0c34 1C       		.uleb128 0x1c
 3354 0c35 B3030000 		.4byte	0x3b3
 3355 0c39 E8090000 		.4byte	.LLST60
 3356 0c3d 00       		.byte	0
 3357 0c3e 2F       		.uleb128 0x2f
 3358 0c3f 50040000 		.4byte	.LASF76
 3359 0c43 01       		.byte	0x1
 3360 0c44 A104     		.2byte	0x4a1
 3361 0c46 6B000000 		.4byte	0x6b
 3362 0c4a 00000000 		.4byte	.LFB15
 3363 0c4e 10000000 		.4byte	.LFE15-.LFB15
 3364 0c52 01       		.uleb128 0x1
 3365 0c53 9C       		.byte	0x9c
 3366 0c54 2F       		.uleb128 0x2f
 3367 0c55 1C050000 		.4byte	.LASF77
 3368 0c59 01       		.byte	0x1
 3369 0c5a BF04     		.2byte	0x4bf
 3370 0c5c 6B000000 		.4byte	0x6b
 3371 0c60 00000000 		.4byte	.LFB16
 3372 0c64 10000000 		.4byte	.LFE16-.LFB16
 3373 0c68 01       		.uleb128 0x1
 3374 0c69 9C       		.byte	0x9c
 3375 0c6a 2F       		.uleb128 0x2f
 3376 0c6b E5020000 		.4byte	.LASF78
 3377 0c6f 01       		.byte	0x1
 3378 0c70 DC04     		.2byte	0x4dc
 3379 0c72 6B000000 		.4byte	0x6b
 3380 0c76 00000000 		.4byte	.LFB17
 3381 0c7a 0C000000 		.4byte	.LFE17-.LFB17
 3382 0c7e 01       		.uleb128 0x1
 3383 0c7f 9C       		.byte	0x9c
 3384 0c80 2F       		.uleb128 0x2f
 3385 0c81 0C010000 		.4byte	.LASF79
 3386 0c85 01       		.byte	0x1
 3387 0c86 F604     		.2byte	0x4f6
 3388 0c88 6B000000 		.4byte	0x6b
 3389 0c8c 00000000 		.4byte	.LFB18
 3390 0c90 0C000000 		.4byte	.LFE18-.LFB18
 3391 0c94 01       		.uleb128 0x1
ARM GAS  C:\Users\Patrick\AppData\Local\Temp\cc3Vmx0B.s 			page 91


 3392 0c95 9C       		.byte	0x9c
 3393 0c96 2F       		.uleb128 0x2f
 3394 0c97 58020000 		.4byte	.LASF80
 3395 0c9b 01       		.byte	0x1
 3396 0c9c 1105     		.2byte	0x511
 3397 0c9e 6B000000 		.4byte	0x6b
 3398 0ca2 00000000 		.4byte	.LFB19
 3399 0ca6 10000000 		.4byte	.LFE19-.LFB19
 3400 0caa 01       		.uleb128 0x1
 3401 0cab 9C       		.byte	0x9c
 3402 0cac 20       		.uleb128 0x20
 3403 0cad 32040000 		.4byte	0x432
 3404 0cb1 00000000 		.4byte	.LFB20
 3405 0cb5 88000000 		.4byte	.LFE20-.LFB20
 3406 0cb9 01       		.uleb128 0x1
 3407 0cba 9C       		.byte	0x9c
 3408 0cbb D20C0000 		.4byte	0xcd2
 3409 0cbf 1A       		.uleb128 0x1a
 3410 0cc0 43040000 		.4byte	0x443
 3411 0cc4 290A0000 		.4byte	.LLST61
 3412 0cc8 1C       		.uleb128 0x1c
 3413 0cc9 4F040000 		.4byte	0x44f
 3414 0ccd 630A0000 		.4byte	.LLST62
 3415 0cd1 00       		.byte	0
 3416 0cd2 20       		.uleb128 0x20
 3417 0cd3 FD030000 		.4byte	0x3fd
 3418 0cd7 00000000 		.4byte	.LFB21
 3419 0cdb 58000000 		.4byte	.LFE21-.LFB21
 3420 0cdf 01       		.uleb128 0x1
 3421 0ce0 9C       		.byte	0x9c
 3422 0ce1 F80C0000 		.4byte	0xcf8
 3423 0ce5 1A       		.uleb128 0x1a
 3424 0ce6 0E040000 		.4byte	0x40e
 3425 0cea 8E0A0000 		.4byte	.LLST63
 3426 0cee 1C       		.uleb128 0x1c
 3427 0cef 1A040000 		.4byte	0x41a
 3428 0cf3 C80A0000 		.4byte	.LLST64
 3429 0cf7 00       		.byte	0
 3430 0cf8 30       		.uleb128 0x30
 3431 0cf9 6E000000 		.4byte	.LASF85
 3432 0cfd 01       		.byte	0x1
 3433 0cfe 16       		.byte	0x16
 3434 0cff 6B000000 		.4byte	0x6b
 3435 0d03 05       		.uleb128 0x5
 3436 0d04 03       		.byte	0x3
 3437 0d05 00000000 		.4byte	CAN_1_initVar
 3438 0d09 31       		.uleb128 0x31
 3439 0d0a 18020000 		.4byte	.LASF81
 3440 0d0e 04       		.byte	0x4
 3441 0d0f 88       		.byte	0x88
 3442 0d10 D7000000 		.4byte	0xd7
 3443 0d14 230D0000 		.4byte	0xd23
 3444 0d18 32       		.uleb128 0x32
 3445 0d19 6B000000 		.4byte	0x6b
 3446 0d1d 32       		.uleb128 0x32
 3447 0d1e D7000000 		.4byte	0xd7
 3448 0d22 00       		.byte	0
ARM GAS  C:\Users\Patrick\AppData\Local\Temp\cc3Vmx0B.s 			page 92


 3449 0d23 33       		.uleb128 0x33
 3450 0d24 CE020000 		.4byte	.LASF86
 3451 0d28 04       		.byte	0x4
 3452 0d29 8B       		.byte	0x8b
 3453 0d2a 390D0000 		.4byte	0xd39
 3454 0d2e 32       		.uleb128 0x32
 3455 0d2f 6B000000 		.4byte	0x6b
 3456 0d33 32       		.uleb128 0x32
 3457 0d34 6B000000 		.4byte	0x6b
 3458 0d38 00       		.byte	0
 3459 0d39 34       		.uleb128 0x34
 3460 0d3a EE010000 		.4byte	.LASF87
 3461 0d3e 04       		.byte	0x4
 3462 0d3f 7D       		.byte	0x7d
 3463 0d40 6B000000 		.4byte	0x6b
 3464 0d44 35       		.uleb128 0x35
 3465 0d45 0D000000 		.4byte	.LASF88
 3466 0d49 04       		.byte	0x4
 3467 0d4a 7E       		.byte	0x7e
 3468 0d4b 32       		.uleb128 0x32
 3469 0d4c 6B000000 		.4byte	0x6b
 3470 0d50 00       		.byte	0
 3471 0d51 00       		.byte	0
 3472              		.section	.debug_abbrev,"",%progbits
 3473              	.Ldebug_abbrev0:
 3474 0000 01       		.uleb128 0x1
 3475 0001 11       		.uleb128 0x11
 3476 0002 01       		.byte	0x1
 3477 0003 25       		.uleb128 0x25
 3478 0004 0E       		.uleb128 0xe
 3479 0005 13       		.uleb128 0x13
 3480 0006 0B       		.uleb128 0xb
 3481 0007 03       		.uleb128 0x3
 3482 0008 0E       		.uleb128 0xe
 3483 0009 1B       		.uleb128 0x1b
 3484 000a 0E       		.uleb128 0xe
 3485 000b 55       		.uleb128 0x55
 3486 000c 17       		.uleb128 0x17
 3487 000d 11       		.uleb128 0x11
 3488 000e 01       		.uleb128 0x1
 3489 000f 10       		.uleb128 0x10
 3490 0010 17       		.uleb128 0x17
 3491 0011 00       		.byte	0
 3492 0012 00       		.byte	0
 3493 0013 02       		.uleb128 0x2
 3494 0014 24       		.uleb128 0x24
 3495 0015 00       		.byte	0
 3496 0016 0B       		.uleb128 0xb
 3497 0017 0B       		.uleb128 0xb
 3498 0018 3E       		.uleb128 0x3e
 3499 0019 0B       		.uleb128 0xb
 3500 001a 03       		.uleb128 0x3
 3501 001b 0E       		.uleb128 0xe
 3502 001c 00       		.byte	0
 3503 001d 00       		.byte	0
 3504 001e 03       		.uleb128 0x3
 3505 001f 24       		.uleb128 0x24
ARM GAS  C:\Users\Patrick\AppData\Local\Temp\cc3Vmx0B.s 			page 93


 3506 0020 00       		.byte	0
 3507 0021 0B       		.uleb128 0xb
 3508 0022 0B       		.uleb128 0xb
 3509 0023 3E       		.uleb128 0x3e
 3510 0024 0B       		.uleb128 0xb
 3511 0025 03       		.uleb128 0x3
 3512 0026 08       		.uleb128 0x8
 3513 0027 00       		.byte	0
 3514 0028 00       		.byte	0
 3515 0029 04       		.uleb128 0x4
 3516 002a 16       		.uleb128 0x16
 3517 002b 00       		.byte	0
 3518 002c 03       		.uleb128 0x3
 3519 002d 0E       		.uleb128 0xe
 3520 002e 3A       		.uleb128 0x3a
 3521 002f 0B       		.uleb128 0xb
 3522 0030 3B       		.uleb128 0x3b
 3523 0031 05       		.uleb128 0x5
 3524 0032 49       		.uleb128 0x49
 3525 0033 13       		.uleb128 0x13
 3526 0034 00       		.byte	0
 3527 0035 00       		.byte	0
 3528 0036 05       		.uleb128 0x5
 3529 0037 35       		.uleb128 0x35
 3530 0038 00       		.byte	0
 3531 0039 49       		.uleb128 0x49
 3532 003a 13       		.uleb128 0x13
 3533 003b 00       		.byte	0
 3534 003c 00       		.byte	0
 3535 003d 06       		.uleb128 0x6
 3536 003e 0F       		.uleb128 0xf
 3537 003f 00       		.byte	0
 3538 0040 0B       		.uleb128 0xb
 3539 0041 0B       		.uleb128 0xb
 3540 0042 49       		.uleb128 0x49
 3541 0043 13       		.uleb128 0x13
 3542 0044 00       		.byte	0
 3543 0045 00       		.byte	0
 3544 0046 07       		.uleb128 0x7
 3545 0047 15       		.uleb128 0x15
 3546 0048 00       		.byte	0
 3547 0049 27       		.uleb128 0x27
 3548 004a 19       		.uleb128 0x19
 3549 004b 00       		.byte	0
 3550 004c 00       		.byte	0
 3551 004d 08       		.uleb128 0x8
 3552 004e 13       		.uleb128 0x13
 3553 004f 01       		.byte	0x1
 3554 0050 0B       		.uleb128 0xb
 3555 0051 0B       		.uleb128 0xb
 3556 0052 3A       		.uleb128 0x3a
 3557 0053 0B       		.uleb128 0xb
 3558 0054 3B       		.uleb128 0x3b
 3559 0055 0B       		.uleb128 0xb
 3560 0056 01       		.uleb128 0x1
 3561 0057 13       		.uleb128 0x13
 3562 0058 00       		.byte	0
ARM GAS  C:\Users\Patrick\AppData\Local\Temp\cc3Vmx0B.s 			page 94


 3563 0059 00       		.byte	0
 3564 005a 09       		.uleb128 0x9
 3565 005b 0D       		.uleb128 0xd
 3566 005c 00       		.byte	0
 3567 005d 03       		.uleb128 0x3
 3568 005e 0E       		.uleb128 0xe
 3569 005f 3A       		.uleb128 0x3a
 3570 0060 0B       		.uleb128 0xb
 3571 0061 3B       		.uleb128 0x3b
 3572 0062 0B       		.uleb128 0xb
 3573 0063 49       		.uleb128 0x49
 3574 0064 13       		.uleb128 0x13
 3575 0065 38       		.uleb128 0x38
 3576 0066 0B       		.uleb128 0xb
 3577 0067 00       		.byte	0
 3578 0068 00       		.byte	0
 3579 0069 0A       		.uleb128 0xa
 3580 006a 01       		.uleb128 0x1
 3581 006b 01       		.byte	0x1
 3582 006c 49       		.uleb128 0x49
 3583 006d 13       		.uleb128 0x13
 3584 006e 01       		.uleb128 0x1
 3585 006f 13       		.uleb128 0x13
 3586 0070 00       		.byte	0
 3587 0071 00       		.byte	0
 3588 0072 0B       		.uleb128 0xb
 3589 0073 21       		.uleb128 0x21
 3590 0074 00       		.byte	0
 3591 0075 49       		.uleb128 0x49
 3592 0076 13       		.uleb128 0x13
 3593 0077 2F       		.uleb128 0x2f
 3594 0078 0B       		.uleb128 0xb
 3595 0079 00       		.byte	0
 3596 007a 00       		.byte	0
 3597 007b 0C       		.uleb128 0xc
 3598 007c 16       		.uleb128 0x16
 3599 007d 00       		.byte	0
 3600 007e 03       		.uleb128 0x3
 3601 007f 0E       		.uleb128 0xe
 3602 0080 3A       		.uleb128 0x3a
 3603 0081 0B       		.uleb128 0xb
 3604 0082 3B       		.uleb128 0x3b
 3605 0083 0B       		.uleb128 0xb
 3606 0084 49       		.uleb128 0x49
 3607 0085 13       		.uleb128 0x13
 3608 0086 00       		.byte	0
 3609 0087 00       		.byte	0
 3610 0088 0D       		.uleb128 0xd
 3611 0089 2E       		.uleb128 0x2e
 3612 008a 01       		.byte	0x1
 3613 008b 3F       		.uleb128 0x3f
 3614 008c 19       		.uleb128 0x19
 3615 008d 03       		.uleb128 0x3
 3616 008e 0E       		.uleb128 0xe
 3617 008f 3A       		.uleb128 0x3a
 3618 0090 0B       		.uleb128 0xb
 3619 0091 3B       		.uleb128 0x3b
ARM GAS  C:\Users\Patrick\AppData\Local\Temp\cc3Vmx0B.s 			page 95


 3620 0092 05       		.uleb128 0x5
 3621 0093 27       		.uleb128 0x27
 3622 0094 19       		.uleb128 0x19
 3623 0095 49       		.uleb128 0x49
 3624 0096 13       		.uleb128 0x13
 3625 0097 20       		.uleb128 0x20
 3626 0098 0B       		.uleb128 0xb
 3627 0099 01       		.uleb128 0x1
 3628 009a 13       		.uleb128 0x13
 3629 009b 00       		.byte	0
 3630 009c 00       		.byte	0
 3631 009d 0E       		.uleb128 0xe
 3632 009e 34       		.uleb128 0x34
 3633 009f 00       		.byte	0
 3634 00a0 03       		.uleb128 0x3
 3635 00a1 0E       		.uleb128 0xe
 3636 00a2 3A       		.uleb128 0x3a
 3637 00a3 0B       		.uleb128 0xb
 3638 00a4 3B       		.uleb128 0x3b
 3639 00a5 05       		.uleb128 0x5
 3640 00a6 49       		.uleb128 0x49
 3641 00a7 13       		.uleb128 0x13
 3642 00a8 00       		.byte	0
 3643 00a9 00       		.byte	0
 3644 00aa 0F       		.uleb128 0xf
 3645 00ab 05       		.uleb128 0x5
 3646 00ac 00       		.byte	0
 3647 00ad 03       		.uleb128 0x3
 3648 00ae 0E       		.uleb128 0xe
 3649 00af 3A       		.uleb128 0x3a
 3650 00b0 0B       		.uleb128 0xb
 3651 00b1 3B       		.uleb128 0x3b
 3652 00b2 05       		.uleb128 0x5
 3653 00b3 49       		.uleb128 0x49
 3654 00b4 13       		.uleb128 0x13
 3655 00b5 00       		.byte	0
 3656 00b6 00       		.byte	0
 3657 00b7 10       		.uleb128 0x10
 3658 00b8 05       		.uleb128 0x5
 3659 00b9 00       		.byte	0
 3660 00ba 03       		.uleb128 0x3
 3661 00bb 08       		.uleb128 0x8
 3662 00bc 3A       		.uleb128 0x3a
 3663 00bd 0B       		.uleb128 0xb
 3664 00be 3B       		.uleb128 0x3b
 3665 00bf 05       		.uleb128 0x5
 3666 00c0 49       		.uleb128 0x49
 3667 00c1 13       		.uleb128 0x13
 3668 00c2 00       		.byte	0
 3669 00c3 00       		.byte	0
 3670 00c4 11       		.uleb128 0x11
 3671 00c5 2E       		.uleb128 0x2e
 3672 00c6 01       		.byte	0x1
 3673 00c7 3F       		.uleb128 0x3f
 3674 00c8 19       		.uleb128 0x19
 3675 00c9 03       		.uleb128 0x3
 3676 00ca 0E       		.uleb128 0xe
ARM GAS  C:\Users\Patrick\AppData\Local\Temp\cc3Vmx0B.s 			page 96


 3677 00cb 3A       		.uleb128 0x3a
 3678 00cc 0B       		.uleb128 0xb
 3679 00cd 3B       		.uleb128 0x3b
 3680 00ce 0B       		.uleb128 0xb
 3681 00cf 27       		.uleb128 0x27
 3682 00d0 19       		.uleb128 0x19
 3683 00d1 49       		.uleb128 0x49
 3684 00d2 13       		.uleb128 0x13
 3685 00d3 20       		.uleb128 0x20
 3686 00d4 0B       		.uleb128 0xb
 3687 00d5 01       		.uleb128 0x1
 3688 00d6 13       		.uleb128 0x13
 3689 00d7 00       		.byte	0
 3690 00d8 00       		.byte	0
 3691 00d9 12       		.uleb128 0x12
 3692 00da 34       		.uleb128 0x34
 3693 00db 00       		.byte	0
 3694 00dc 03       		.uleb128 0x3
 3695 00dd 0E       		.uleb128 0xe
 3696 00de 3A       		.uleb128 0x3a
 3697 00df 0B       		.uleb128 0xb
 3698 00e0 3B       		.uleb128 0x3b
 3699 00e1 0B       		.uleb128 0xb
 3700 00e2 49       		.uleb128 0x49
 3701 00e3 13       		.uleb128 0x13
 3702 00e4 00       		.byte	0
 3703 00e5 00       		.byte	0
 3704 00e6 13       		.uleb128 0x13
 3705 00e7 26       		.uleb128 0x26
 3706 00e8 00       		.byte	0
 3707 00e9 49       		.uleb128 0x49
 3708 00ea 13       		.uleb128 0x13
 3709 00eb 00       		.byte	0
 3710 00ec 00       		.byte	0
 3711 00ed 14       		.uleb128 0x14
 3712 00ee 2E       		.uleb128 0x2e
 3713 00ef 01       		.byte	0x1
 3714 00f0 3F       		.uleb128 0x3f
 3715 00f1 19       		.uleb128 0x19
 3716 00f2 03       		.uleb128 0x3
 3717 00f3 0E       		.uleb128 0xe
 3718 00f4 3A       		.uleb128 0x3a
 3719 00f5 0B       		.uleb128 0xb
 3720 00f6 3B       		.uleb128 0x3b
 3721 00f7 0B       		.uleb128 0xb
 3722 00f8 27       		.uleb128 0x27
 3723 00f9 19       		.uleb128 0x19
 3724 00fa 49       		.uleb128 0x49
 3725 00fb 13       		.uleb128 0x13
 3726 00fc 11       		.uleb128 0x11
 3727 00fd 01       		.uleb128 0x1
 3728 00fe 12       		.uleb128 0x12
 3729 00ff 06       		.uleb128 0x6
 3730 0100 40       		.uleb128 0x40
 3731 0101 18       		.uleb128 0x18
 3732 0102 9742     		.uleb128 0x2117
 3733 0104 19       		.uleb128 0x19
ARM GAS  C:\Users\Patrick\AppData\Local\Temp\cc3Vmx0B.s 			page 97


 3734 0105 01       		.uleb128 0x1
 3735 0106 13       		.uleb128 0x13
 3736 0107 00       		.byte	0
 3737 0108 00       		.byte	0
 3738 0109 15       		.uleb128 0x15
 3739 010a 34       		.uleb128 0x34
 3740 010b 00       		.byte	0
 3741 010c 03       		.uleb128 0x3
 3742 010d 0E       		.uleb128 0xe
 3743 010e 3A       		.uleb128 0x3a
 3744 010f 0B       		.uleb128 0xb
 3745 0110 3B       		.uleb128 0x3b
 3746 0111 0B       		.uleb128 0xb
 3747 0112 49       		.uleb128 0x49
 3748 0113 13       		.uleb128 0x13
 3749 0114 02       		.uleb128 0x2
 3750 0115 18       		.uleb128 0x18
 3751 0116 00       		.byte	0
 3752 0117 00       		.byte	0
 3753 0118 16       		.uleb128 0x16
 3754 0119 34       		.uleb128 0x34
 3755 011a 00       		.byte	0
 3756 011b 03       		.uleb128 0x3
 3757 011c 0E       		.uleb128 0xe
 3758 011d 3A       		.uleb128 0x3a
 3759 011e 0B       		.uleb128 0xb
 3760 011f 3B       		.uleb128 0x3b
 3761 0120 0B       		.uleb128 0xb
 3762 0121 49       		.uleb128 0x49
 3763 0122 13       		.uleb128 0x13
 3764 0123 1C       		.uleb128 0x1c
 3765 0124 0A       		.uleb128 0xa
 3766 0125 00       		.byte	0
 3767 0126 00       		.byte	0
 3768 0127 17       		.uleb128 0x17
 3769 0128 34       		.uleb128 0x34
 3770 0129 00       		.byte	0
 3771 012a 03       		.uleb128 0x3
 3772 012b 0E       		.uleb128 0xe
 3773 012c 3A       		.uleb128 0x3a
 3774 012d 0B       		.uleb128 0xb
 3775 012e 3B       		.uleb128 0x3b
 3776 012f 0B       		.uleb128 0xb
 3777 0130 49       		.uleb128 0x49
 3778 0131 13       		.uleb128 0x13
 3779 0132 02       		.uleb128 0x2
 3780 0133 17       		.uleb128 0x17
 3781 0134 00       		.byte	0
 3782 0135 00       		.byte	0
 3783 0136 18       		.uleb128 0x18
 3784 0137 34       		.uleb128 0x34
 3785 0138 00       		.byte	0
 3786 0139 03       		.uleb128 0x3
 3787 013a 08       		.uleb128 0x8
 3788 013b 3A       		.uleb128 0x3a
 3789 013c 0B       		.uleb128 0xb
 3790 013d 3B       		.uleb128 0x3b
ARM GAS  C:\Users\Patrick\AppData\Local\Temp\cc3Vmx0B.s 			page 98


 3791 013e 0B       		.uleb128 0xb
 3792 013f 49       		.uleb128 0x49
 3793 0140 13       		.uleb128 0x13
 3794 0141 02       		.uleb128 0x2
 3795 0142 17       		.uleb128 0x17
 3796 0143 00       		.byte	0
 3797 0144 00       		.byte	0
 3798 0145 19       		.uleb128 0x19
 3799 0146 1D       		.uleb128 0x1d
 3800 0147 01       		.byte	0x1
 3801 0148 31       		.uleb128 0x31
 3802 0149 13       		.uleb128 0x13
 3803 014a 52       		.uleb128 0x52
 3804 014b 01       		.uleb128 0x1
 3805 014c 55       		.uleb128 0x55
 3806 014d 17       		.uleb128 0x17
 3807 014e 58       		.uleb128 0x58
 3808 014f 0B       		.uleb128 0xb
 3809 0150 59       		.uleb128 0x59
 3810 0151 0B       		.uleb128 0xb
 3811 0152 01       		.uleb128 0x1
 3812 0153 13       		.uleb128 0x13
 3813 0154 00       		.byte	0
 3814 0155 00       		.byte	0
 3815 0156 1A       		.uleb128 0x1a
 3816 0157 05       		.uleb128 0x5
 3817 0158 00       		.byte	0
 3818 0159 31       		.uleb128 0x31
 3819 015a 13       		.uleb128 0x13
 3820 015b 02       		.uleb128 0x2
 3821 015c 17       		.uleb128 0x17
 3822 015d 00       		.byte	0
 3823 015e 00       		.byte	0
 3824 015f 1B       		.uleb128 0x1b
 3825 0160 0B       		.uleb128 0xb
 3826 0161 01       		.byte	0x1
 3827 0162 55       		.uleb128 0x55
 3828 0163 17       		.uleb128 0x17
 3829 0164 00       		.byte	0
 3830 0165 00       		.byte	0
 3831 0166 1C       		.uleb128 0x1c
 3832 0167 34       		.uleb128 0x34
 3833 0168 00       		.byte	0
 3834 0169 31       		.uleb128 0x31
 3835 016a 13       		.uleb128 0x13
 3836 016b 02       		.uleb128 0x2
 3837 016c 17       		.uleb128 0x17
 3838 016d 00       		.byte	0
 3839 016e 00       		.byte	0
 3840 016f 1D       		.uleb128 0x1d
 3841 0170 1D       		.uleb128 0x1d
 3842 0171 01       		.byte	0x1
 3843 0172 31       		.uleb128 0x31
 3844 0173 13       		.uleb128 0x13
 3845 0174 11       		.uleb128 0x11
 3846 0175 01       		.uleb128 0x1
 3847 0176 12       		.uleb128 0x12
ARM GAS  C:\Users\Patrick\AppData\Local\Temp\cc3Vmx0B.s 			page 99


 3848 0177 06       		.uleb128 0x6
 3849 0178 58       		.uleb128 0x58
 3850 0179 0B       		.uleb128 0xb
 3851 017a 59       		.uleb128 0x59
 3852 017b 0B       		.uleb128 0xb
 3853 017c 00       		.byte	0
 3854 017d 00       		.byte	0
 3855 017e 1E       		.uleb128 0x1e
 3856 017f 05       		.uleb128 0x5
 3857 0180 00       		.byte	0
 3858 0181 31       		.uleb128 0x31
 3859 0182 13       		.uleb128 0x13
 3860 0183 00       		.byte	0
 3861 0184 00       		.byte	0
 3862 0185 1F       		.uleb128 0x1f
 3863 0186 0B       		.uleb128 0xb
 3864 0187 01       		.byte	0x1
 3865 0188 11       		.uleb128 0x11
 3866 0189 01       		.uleb128 0x1
 3867 018a 12       		.uleb128 0x12
 3868 018b 06       		.uleb128 0x6
 3869 018c 00       		.byte	0
 3870 018d 00       		.byte	0
 3871 018e 20       		.uleb128 0x20
 3872 018f 2E       		.uleb128 0x2e
 3873 0190 01       		.byte	0x1
 3874 0191 31       		.uleb128 0x31
 3875 0192 13       		.uleb128 0x13
 3876 0193 11       		.uleb128 0x11
 3877 0194 01       		.uleb128 0x1
 3878 0195 12       		.uleb128 0x12
 3879 0196 06       		.uleb128 0x6
 3880 0197 40       		.uleb128 0x40
 3881 0198 18       		.uleb128 0x18
 3882 0199 9742     		.uleb128 0x2117
 3883 019b 19       		.uleb128 0x19
 3884 019c 01       		.uleb128 0x1
 3885 019d 13       		.uleb128 0x13
 3886 019e 00       		.byte	0
 3887 019f 00       		.byte	0
 3888 01a0 21       		.uleb128 0x21
 3889 01a1 34       		.uleb128 0x34
 3890 01a2 00       		.byte	0
 3891 01a3 31       		.uleb128 0x31
 3892 01a4 13       		.uleb128 0x13
 3893 01a5 1C       		.uleb128 0x1c
 3894 01a6 0B       		.uleb128 0xb
 3895 01a7 00       		.byte	0
 3896 01a8 00       		.byte	0
 3897 01a9 22       		.uleb128 0x22
 3898 01aa 0B       		.uleb128 0xb
 3899 01ab 01       		.byte	0x1
 3900 01ac 55       		.uleb128 0x55
 3901 01ad 17       		.uleb128 0x17
 3902 01ae 01       		.uleb128 0x1
 3903 01af 13       		.uleb128 0x13
 3904 01b0 00       		.byte	0
ARM GAS  C:\Users\Patrick\AppData\Local\Temp\cc3Vmx0B.s 			page 100


 3905 01b1 00       		.byte	0
 3906 01b2 23       		.uleb128 0x23
 3907 01b3 34       		.uleb128 0x34
 3908 01b4 00       		.byte	0
 3909 01b5 31       		.uleb128 0x31
 3910 01b6 13       		.uleb128 0x13
 3911 01b7 00       		.byte	0
 3912 01b8 00       		.byte	0
 3913 01b9 24       		.uleb128 0x24
 3914 01ba 1D       		.uleb128 0x1d
 3915 01bb 01       		.byte	0x1
 3916 01bc 31       		.uleb128 0x31
 3917 01bd 13       		.uleb128 0x13
 3918 01be 11       		.uleb128 0x11
 3919 01bf 01       		.uleb128 0x1
 3920 01c0 12       		.uleb128 0x12
 3921 01c1 06       		.uleb128 0x6
 3922 01c2 58       		.uleb128 0x58
 3923 01c3 0B       		.uleb128 0xb
 3924 01c4 59       		.uleb128 0x59
 3925 01c5 0B       		.uleb128 0xb
 3926 01c6 01       		.uleb128 0x1
 3927 01c7 13       		.uleb128 0x13
 3928 01c8 00       		.byte	0
 3929 01c9 00       		.byte	0
 3930 01ca 25       		.uleb128 0x25
 3931 01cb 05       		.uleb128 0x5
 3932 01cc 00       		.byte	0
 3933 01cd 31       		.uleb128 0x31
 3934 01ce 13       		.uleb128 0x13
 3935 01cf 1C       		.uleb128 0x1c
 3936 01d0 0B       		.uleb128 0xb
 3937 01d1 00       		.byte	0
 3938 01d2 00       		.byte	0
 3939 01d3 26       		.uleb128 0x26
 3940 01d4 05       		.uleb128 0x5
 3941 01d5 00       		.byte	0
 3942 01d6 31       		.uleb128 0x31
 3943 01d7 13       		.uleb128 0x13
 3944 01d8 1C       		.uleb128 0x1c
 3945 01d9 05       		.uleb128 0x5
 3946 01da 00       		.byte	0
 3947 01db 00       		.byte	0
 3948 01dc 27       		.uleb128 0x27
 3949 01dd 898201   		.uleb128 0x4109
 3950 01e0 01       		.byte	0x1
 3951 01e1 11       		.uleb128 0x11
 3952 01e2 01       		.uleb128 0x1
 3953 01e3 31       		.uleb128 0x31
 3954 01e4 13       		.uleb128 0x13
 3955 01e5 01       		.uleb128 0x1
 3956 01e6 13       		.uleb128 0x13
 3957 01e7 00       		.byte	0
 3958 01e8 00       		.byte	0
 3959 01e9 28       		.uleb128 0x28
 3960 01ea 8A8201   		.uleb128 0x410a
 3961 01ed 00       		.byte	0
ARM GAS  C:\Users\Patrick\AppData\Local\Temp\cc3Vmx0B.s 			page 101


 3962 01ee 02       		.uleb128 0x2
 3963 01ef 18       		.uleb128 0x18
 3964 01f0 9142     		.uleb128 0x2111
 3965 01f2 18       		.uleb128 0x18
 3966 01f3 00       		.byte	0
 3967 01f4 00       		.byte	0
 3968 01f5 29       		.uleb128 0x29
 3969 01f6 898201   		.uleb128 0x4109
 3970 01f9 00       		.byte	0
 3971 01fa 11       		.uleb128 0x11
 3972 01fb 01       		.uleb128 0x1
 3973 01fc 31       		.uleb128 0x31
 3974 01fd 13       		.uleb128 0x13
 3975 01fe 00       		.byte	0
 3976 01ff 00       		.byte	0
 3977 0200 2A       		.uleb128 0x2a
 3978 0201 1D       		.uleb128 0x1d
 3979 0202 01       		.byte	0x1
 3980 0203 31       		.uleb128 0x31
 3981 0204 13       		.uleb128 0x13
 3982 0205 52       		.uleb128 0x52
 3983 0206 01       		.uleb128 0x1
 3984 0207 55       		.uleb128 0x55
 3985 0208 17       		.uleb128 0x17
 3986 0209 58       		.uleb128 0x58
 3987 020a 0B       		.uleb128 0xb
 3988 020b 59       		.uleb128 0x59
 3989 020c 05       		.uleb128 0x5
 3990 020d 01       		.uleb128 0x1
 3991 020e 13       		.uleb128 0x13
 3992 020f 00       		.byte	0
 3993 0210 00       		.byte	0
 3994 0211 2B       		.uleb128 0x2b
 3995 0212 2E       		.uleb128 0x2e
 3996 0213 01       		.byte	0x1
 3997 0214 3F       		.uleb128 0x3f
 3998 0215 19       		.uleb128 0x19
 3999 0216 03       		.uleb128 0x3
 4000 0217 0E       		.uleb128 0xe
 4001 0218 3A       		.uleb128 0x3a
 4002 0219 0B       		.uleb128 0xb
 4003 021a 3B       		.uleb128 0x3b
 4004 021b 05       		.uleb128 0x5
 4005 021c 27       		.uleb128 0x27
 4006 021d 19       		.uleb128 0x19
 4007 021e 49       		.uleb128 0x49
 4008 021f 13       		.uleb128 0x13
 4009 0220 11       		.uleb128 0x11
 4010 0221 01       		.uleb128 0x1
 4011 0222 12       		.uleb128 0x12
 4012 0223 06       		.uleb128 0x6
 4013 0224 40       		.uleb128 0x40
 4014 0225 18       		.uleb128 0x18
 4015 0226 9742     		.uleb128 0x2117
 4016 0228 19       		.uleb128 0x19
 4017 0229 01       		.uleb128 0x1
 4018 022a 13       		.uleb128 0x13
ARM GAS  C:\Users\Patrick\AppData\Local\Temp\cc3Vmx0B.s 			page 102


 4019 022b 00       		.byte	0
 4020 022c 00       		.byte	0
 4021 022d 2C       		.uleb128 0x2c
 4022 022e 34       		.uleb128 0x34
 4023 022f 00       		.byte	0
 4024 0230 03       		.uleb128 0x3
 4025 0231 0E       		.uleb128 0xe
 4026 0232 3A       		.uleb128 0x3a
 4027 0233 0B       		.uleb128 0xb
 4028 0234 3B       		.uleb128 0x3b
 4029 0235 05       		.uleb128 0x5
 4030 0236 49       		.uleb128 0x49
 4031 0237 13       		.uleb128 0x13
 4032 0238 02       		.uleb128 0x2
 4033 0239 17       		.uleb128 0x17
 4034 023a 00       		.byte	0
 4035 023b 00       		.byte	0
 4036 023c 2D       		.uleb128 0x2d
 4037 023d 05       		.uleb128 0x5
 4038 023e 00       		.byte	0
 4039 023f 31       		.uleb128 0x31
 4040 0240 13       		.uleb128 0x13
 4041 0241 02       		.uleb128 0x2
 4042 0242 18       		.uleb128 0x18
 4043 0243 00       		.byte	0
 4044 0244 00       		.byte	0
 4045 0245 2E       		.uleb128 0x2e
 4046 0246 05       		.uleb128 0x5
 4047 0247 00       		.byte	0
 4048 0248 03       		.uleb128 0x3
 4049 0249 0E       		.uleb128 0xe
 4050 024a 3A       		.uleb128 0x3a
 4051 024b 0B       		.uleb128 0xb
 4052 024c 3B       		.uleb128 0x3b
 4053 024d 05       		.uleb128 0x5
 4054 024e 49       		.uleb128 0x49
 4055 024f 13       		.uleb128 0x13
 4056 0250 02       		.uleb128 0x2
 4057 0251 17       		.uleb128 0x17
 4058 0252 00       		.byte	0
 4059 0253 00       		.byte	0
 4060 0254 2F       		.uleb128 0x2f
 4061 0255 2E       		.uleb128 0x2e
 4062 0256 00       		.byte	0
 4063 0257 3F       		.uleb128 0x3f
 4064 0258 19       		.uleb128 0x19
 4065 0259 03       		.uleb128 0x3
 4066 025a 0E       		.uleb128 0xe
 4067 025b 3A       		.uleb128 0x3a
 4068 025c 0B       		.uleb128 0xb
 4069 025d 3B       		.uleb128 0x3b
 4070 025e 05       		.uleb128 0x5
 4071 025f 27       		.uleb128 0x27
 4072 0260 19       		.uleb128 0x19
 4073 0261 49       		.uleb128 0x49
 4074 0262 13       		.uleb128 0x13
 4075 0263 11       		.uleb128 0x11
ARM GAS  C:\Users\Patrick\AppData\Local\Temp\cc3Vmx0B.s 			page 103


 4076 0264 01       		.uleb128 0x1
 4077 0265 12       		.uleb128 0x12
 4078 0266 06       		.uleb128 0x6
 4079 0267 40       		.uleb128 0x40
 4080 0268 18       		.uleb128 0x18
 4081 0269 9742     		.uleb128 0x2117
 4082 026b 19       		.uleb128 0x19
 4083 026c 00       		.byte	0
 4084 026d 00       		.byte	0
 4085 026e 30       		.uleb128 0x30
 4086 026f 34       		.uleb128 0x34
 4087 0270 00       		.byte	0
 4088 0271 03       		.uleb128 0x3
 4089 0272 0E       		.uleb128 0xe
 4090 0273 3A       		.uleb128 0x3a
 4091 0274 0B       		.uleb128 0xb
 4092 0275 3B       		.uleb128 0x3b
 4093 0276 0B       		.uleb128 0xb
 4094 0277 49       		.uleb128 0x49
 4095 0278 13       		.uleb128 0x13
 4096 0279 3F       		.uleb128 0x3f
 4097 027a 19       		.uleb128 0x19
 4098 027b 02       		.uleb128 0x2
 4099 027c 18       		.uleb128 0x18
 4100 027d 00       		.byte	0
 4101 027e 00       		.byte	0
 4102 027f 31       		.uleb128 0x31
 4103 0280 2E       		.uleb128 0x2e
 4104 0281 01       		.byte	0x1
 4105 0282 3F       		.uleb128 0x3f
 4106 0283 19       		.uleb128 0x19
 4107 0284 03       		.uleb128 0x3
 4108 0285 0E       		.uleb128 0xe
 4109 0286 3A       		.uleb128 0x3a
 4110 0287 0B       		.uleb128 0xb
 4111 0288 3B       		.uleb128 0x3b
 4112 0289 0B       		.uleb128 0xb
 4113 028a 27       		.uleb128 0x27
 4114 028b 19       		.uleb128 0x19
 4115 028c 49       		.uleb128 0x49
 4116 028d 13       		.uleb128 0x13
 4117 028e 3C       		.uleb128 0x3c
 4118 028f 19       		.uleb128 0x19
 4119 0290 01       		.uleb128 0x1
 4120 0291 13       		.uleb128 0x13
 4121 0292 00       		.byte	0
 4122 0293 00       		.byte	0
 4123 0294 32       		.uleb128 0x32
 4124 0295 05       		.uleb128 0x5
 4125 0296 00       		.byte	0
 4126 0297 49       		.uleb128 0x49
 4127 0298 13       		.uleb128 0x13
 4128 0299 00       		.byte	0
 4129 029a 00       		.byte	0
 4130 029b 33       		.uleb128 0x33
 4131 029c 2E       		.uleb128 0x2e
 4132 029d 01       		.byte	0x1
ARM GAS  C:\Users\Patrick\AppData\Local\Temp\cc3Vmx0B.s 			page 104


 4133 029e 3F       		.uleb128 0x3f
 4134 029f 19       		.uleb128 0x19
 4135 02a0 03       		.uleb128 0x3
 4136 02a1 0E       		.uleb128 0xe
 4137 02a2 3A       		.uleb128 0x3a
 4138 02a3 0B       		.uleb128 0xb
 4139 02a4 3B       		.uleb128 0x3b
 4140 02a5 0B       		.uleb128 0xb
 4141 02a6 27       		.uleb128 0x27
 4142 02a7 19       		.uleb128 0x19
 4143 02a8 3C       		.uleb128 0x3c
 4144 02a9 19       		.uleb128 0x19
 4145 02aa 01       		.uleb128 0x1
 4146 02ab 13       		.uleb128 0x13
 4147 02ac 00       		.byte	0
 4148 02ad 00       		.byte	0
 4149 02ae 34       		.uleb128 0x34
 4150 02af 2E       		.uleb128 0x2e
 4151 02b0 00       		.byte	0
 4152 02b1 3F       		.uleb128 0x3f
 4153 02b2 19       		.uleb128 0x19
 4154 02b3 03       		.uleb128 0x3
 4155 02b4 0E       		.uleb128 0xe
 4156 02b5 3A       		.uleb128 0x3a
 4157 02b6 0B       		.uleb128 0xb
 4158 02b7 3B       		.uleb128 0x3b
 4159 02b8 0B       		.uleb128 0xb
 4160 02b9 27       		.uleb128 0x27
 4161 02ba 19       		.uleb128 0x19
 4162 02bb 49       		.uleb128 0x49
 4163 02bc 13       		.uleb128 0x13
 4164 02bd 3C       		.uleb128 0x3c
 4165 02be 19       		.uleb128 0x19
 4166 02bf 00       		.byte	0
 4167 02c0 00       		.byte	0
 4168 02c1 35       		.uleb128 0x35
 4169 02c2 2E       		.uleb128 0x2e
 4170 02c3 01       		.byte	0x1
 4171 02c4 3F       		.uleb128 0x3f
 4172 02c5 19       		.uleb128 0x19
 4173 02c6 03       		.uleb128 0x3
 4174 02c7 0E       		.uleb128 0xe
 4175 02c8 3A       		.uleb128 0x3a
 4176 02c9 0B       		.uleb128 0xb
 4177 02ca 3B       		.uleb128 0x3b
 4178 02cb 0B       		.uleb128 0xb
 4179 02cc 27       		.uleb128 0x27
 4180 02cd 19       		.uleb128 0x19
 4181 02ce 3C       		.uleb128 0x3c
 4182 02cf 19       		.uleb128 0x19
 4183 02d0 00       		.byte	0
 4184 02d1 00       		.byte	0
 4185 02d2 00       		.byte	0
 4186              		.section	.debug_loc,"",%progbits
 4187              	.Ldebug_loc0:
 4188              	.LLST0:
 4189 0000 00000000 		.4byte	.LVL0
ARM GAS  C:\Users\Patrick\AppData\Local\Temp\cc3Vmx0B.s 			page 105


 4190 0004 12000000 		.4byte	.LVL1
 4191 0008 0200     		.2byte	0x2
 4192 000a 30       		.byte	0x30
 4193 000b 9F       		.byte	0x9f
 4194 000c 12000000 		.4byte	.LVL1
 4195 0010 16000000 		.4byte	.LVL2
 4196 0014 0200     		.2byte	0x2
 4197 0016 31       		.byte	0x31
 4198 0017 9F       		.byte	0x9f
 4199 0018 16000000 		.4byte	.LVL2
 4200 001c C2000000 		.4byte	.LVL10
 4201 0020 0200     		.2byte	0x2
 4202 0022 30       		.byte	0x30
 4203 0023 9F       		.byte	0x9f
 4204 0024 C2000000 		.4byte	.LVL10
 4205 0028 C4000000 		.4byte	.LVL11
 4206 002c 0200     		.2byte	0x2
 4207 002e 31       		.byte	0x31
 4208 002f 9F       		.byte	0x9f
 4209 0030 C8000000 		.4byte	.LVL12
 4210 0034 1C010000 		.4byte	.LVL15
 4211 0038 0200     		.2byte	0x2
 4212 003a 30       		.byte	0x30
 4213 003b 9F       		.byte	0x9f
 4214 003c 1C010000 		.4byte	.LVL15
 4215 0040 4C010000 		.4byte	.LFE0
 4216 0044 0100     		.2byte	0x1
 4217 0046 50       		.byte	0x50
 4218 0047 00000000 		.4byte	0
 4219 004b 00000000 		.4byte	0
 4220              	.LLST1:
 4221 004f 00000000 		.4byte	.LVL0
 4222 0053 12000000 		.4byte	.LVL1
 4223 0057 0200     		.2byte	0x2
 4224 0059 30       		.byte	0x30
 4225 005a 9F       		.byte	0x9f
 4226 005b 16000000 		.4byte	.LVL2
 4227 005f 24000000 		.4byte	.LVL3
 4228 0063 0200     		.2byte	0x2
 4229 0065 30       		.byte	0x30
 4230 0066 9F       		.byte	0x9f
 4231 0067 24000000 		.4byte	.LVL3
 4232 006b 3C000000 		.4byte	.LVL4
 4233 006f 0200     		.2byte	0x2
 4234 0071 31       		.byte	0x31
 4235 0072 9F       		.byte	0x9f
 4236 0073 3C000000 		.4byte	.LVL4
 4237 0077 52000000 		.4byte	.LVL5
 4238 007b 0200     		.2byte	0x2
 4239 007d 32       		.byte	0x32
 4240 007e 9F       		.byte	0x9f
 4241 007f 52000000 		.4byte	.LVL5
 4242 0083 68000000 		.4byte	.LVL6
 4243 0087 0200     		.2byte	0x2
 4244 0089 33       		.byte	0x33
 4245 008a 9F       		.byte	0x9f
 4246 008b 68000000 		.4byte	.LVL6
ARM GAS  C:\Users\Patrick\AppData\Local\Temp\cc3Vmx0B.s 			page 106


 4247 008f 7E000000 		.4byte	.LVL7
 4248 0093 0200     		.2byte	0x2
 4249 0095 34       		.byte	0x34
 4250 0096 9F       		.byte	0x9f
 4251 0097 7E000000 		.4byte	.LVL7
 4252 009b 96000000 		.4byte	.LVL8
 4253 009f 0200     		.2byte	0x2
 4254 00a1 35       		.byte	0x35
 4255 00a2 9F       		.byte	0x9f
 4256 00a3 96000000 		.4byte	.LVL8
 4257 00a7 AC000000 		.4byte	.LVL9
 4258 00ab 0200     		.2byte	0x2
 4259 00ad 36       		.byte	0x36
 4260 00ae 9F       		.byte	0x9f
 4261 00af AC000000 		.4byte	.LVL9
 4262 00b3 C2000000 		.4byte	.LVL10
 4263 00b7 0200     		.2byte	0x2
 4264 00b9 37       		.byte	0x37
 4265 00ba 9F       		.byte	0x9f
 4266 00bb C8000000 		.4byte	.LVL12
 4267 00bf D2000000 		.4byte	.LVL13
 4268 00c3 0200     		.2byte	0x2
 4269 00c5 38       		.byte	0x38
 4270 00c6 9F       		.byte	0x9f
 4271 00c7 00000000 		.4byte	0
 4272 00cb 00000000 		.4byte	0
 4273              	.LLST2:
 4274 00cf 00000000 		.4byte	.LVL0
 4275 00d3 12000000 		.4byte	.LVL1
 4276 00d7 0600     		.2byte	0x6
 4277 00d9 F2       		.byte	0xf2
 4278 00da 91040000 		.4byte	.Ldebug_info0+1169
 4279 00de 00       		.sleb128 0
 4280 00df 16000000 		.4byte	.LVL2
 4281 00e3 24000000 		.4byte	.LVL3
 4282 00e7 0600     		.2byte	0x6
 4283 00e9 F2       		.byte	0xf2
 4284 00ea 91040000 		.4byte	.Ldebug_info0+1169
 4285 00ee 00       		.sleb128 0
 4286 00ef 24000000 		.4byte	.LVL3
 4287 00f3 3C000000 		.4byte	.LVL4
 4288 00f7 0600     		.2byte	0x6
 4289 00f9 F2       		.byte	0xf2
 4290 00fa 91040000 		.4byte	.Ldebug_info0+1169
 4291 00fe 0C       		.sleb128 12
 4292 00ff 3C000000 		.4byte	.LVL4
 4293 0103 52000000 		.4byte	.LVL5
 4294 0107 0600     		.2byte	0x6
 4295 0109 F2       		.byte	0xf2
 4296 010a 91040000 		.4byte	.Ldebug_info0+1169
 4297 010e 18       		.sleb128 24
 4298 010f 52000000 		.4byte	.LVL5
 4299 0113 68000000 		.4byte	.LVL6
 4300 0117 0600     		.2byte	0x6
 4301 0119 F2       		.byte	0xf2
 4302 011a 91040000 		.4byte	.Ldebug_info0+1169
 4303 011e 24       		.sleb128 36
ARM GAS  C:\Users\Patrick\AppData\Local\Temp\cc3Vmx0B.s 			page 107


 4304 011f 68000000 		.4byte	.LVL6
 4305 0123 7E000000 		.4byte	.LVL7
 4306 0127 0600     		.2byte	0x6
 4307 0129 F2       		.byte	0xf2
 4308 012a 91040000 		.4byte	.Ldebug_info0+1169
 4309 012e 30       		.sleb128 48
 4310 012f 7E000000 		.4byte	.LVL7
 4311 0133 96000000 		.4byte	.LVL8
 4312 0137 0600     		.2byte	0x6
 4313 0139 F2       		.byte	0xf2
 4314 013a 91040000 		.4byte	.Ldebug_info0+1169
 4315 013e 3C       		.sleb128 60
 4316 013f 96000000 		.4byte	.LVL8
 4317 0143 AC000000 		.4byte	.LVL9
 4318 0147 0700     		.2byte	0x7
 4319 0149 F2       		.byte	0xf2
 4320 014a 91040000 		.4byte	.Ldebug_info0+1169
 4321 014e C800     		.sleb128 72
 4322 0150 AC000000 		.4byte	.LVL9
 4323 0154 4C010000 		.4byte	.LFE0
 4324 0158 0700     		.2byte	0x7
 4325 015a F2       		.byte	0xf2
 4326 015b 91040000 		.4byte	.Ldebug_info0+1169
 4327 015f D400     		.sleb128 84
 4328 0161 00000000 		.4byte	0
 4329 0165 00000000 		.4byte	0
 4330              	.LLST3:
 4331 0169 00000000 		.4byte	.LVL0
 4332 016d C4000000 		.4byte	.LVL11
 4333 0171 0200     		.2byte	0x2
 4334 0173 31       		.byte	0x31
 4335 0174 9F       		.byte	0x9f
 4336 0175 C8000000 		.4byte	.LVL12
 4337 0179 4C010000 		.4byte	.LFE0
 4338 017d 0200     		.2byte	0x2
 4339 017f 30       		.byte	0x30
 4340 0180 9F       		.byte	0x9f
 4341 0181 00000000 		.4byte	0
 4342 0185 00000000 		.4byte	0
 4343              	.LLST4:
 4344 0189 D2000000 		.4byte	.LVL13
 4345 018d 0C010000 		.4byte	.LVL14
 4346 0191 0200     		.2byte	0x2
 4347 0193 31       		.byte	0x31
 4348 0194 9F       		.byte	0x9f
 4349 0195 0C010000 		.4byte	.LVL14
 4350 0199 4C010000 		.4byte	.LFE0
 4351 019d 0200     		.2byte	0x2
 4352 019f 30       		.byte	0x30
 4353 01a0 9F       		.byte	0x9f
 4354 01a1 00000000 		.4byte	0
 4355 01a5 00000000 		.4byte	0
 4356              	.LLST5:
 4357 01a9 00000000 		.4byte	.LVL16
 4358 01ad 30000000 		.4byte	.LVL19
 4359 01b1 0500     		.2byte	0x5
 4360 01b3 08       		.byte	0x8
ARM GAS  C:\Users\Patrick\AppData\Local\Temp\cc3Vmx0B.s 			page 108


 4361 01b4 B4       		.byte	0xb4
 4362 01b5 39       		.byte	0x39
 4363 01b6 24       		.byte	0x24
 4364 01b7 9F       		.byte	0x9f
 4365 01b8 00000000 		.4byte	0
 4366 01bc 00000000 		.4byte	0
 4367              	.LLST6:
 4368 01c0 00000000 		.4byte	.LVL16
 4369 01c4 64000000 		.4byte	.LVL23
 4370 01c8 0200     		.2byte	0x2
 4371 01ca 31       		.byte	0x31
 4372 01cb 9F       		.byte	0x9f
 4373 01cc 64000000 		.4byte	.LVL23
 4374 01d0 66000000 		.4byte	.LVL24
 4375 01d4 0100     		.2byte	0x1
 4376 01d6 50       		.byte	0x50
 4377 01d7 66000000 		.4byte	.LVL24
 4378 01db F0000000 		.4byte	.LFE1
 4379 01df 0200     		.2byte	0x2
 4380 01e1 31       		.byte	0x31
 4381 01e2 9F       		.byte	0x9f
 4382 01e3 00000000 		.4byte	0
 4383 01e7 00000000 		.4byte	0
 4384              	.LLST7:
 4385 01eb 06000000 		.4byte	.LVL17
 4386 01ef 1D000000 		.4byte	.LVL18-1
 4387 01f3 0100     		.2byte	0x1
 4388 01f5 50       		.byte	0x50
 4389 01f6 00000000 		.4byte	0
 4390 01fa 00000000 		.4byte	0
 4391              	.LLST8:
 4392 01fe 62000000 		.4byte	.LVL22
 4393 0202 66000000 		.4byte	.LVL24
 4394 0206 0200     		.2byte	0x2
 4395 0208 31       		.byte	0x31
 4396 0209 9F       		.byte	0x9f
 4397 020a AA000000 		.4byte	.LVL34
 4398 020e AC000000 		.4byte	.LVL35
 4399 0212 0500     		.2byte	0x5
 4400 0214 73       		.byte	0x73
 4401 0215 00       		.sleb128 0
 4402 0216 31       		.byte	0x31
 4403 0217 1A       		.byte	0x1a
 4404 0218 9F       		.byte	0x9f
 4405 0219 AE000000 		.4byte	.LVL36
 4406 021d F0000000 		.4byte	.LFE1
 4407 0221 0200     		.2byte	0x2
 4408 0223 30       		.byte	0x30
 4409 0224 9F       		.byte	0x9f
 4410 0225 00000000 		.4byte	0
 4411 0229 00000000 		.4byte	0
 4412              	.LLST9:
 4413 022d 54000000 		.4byte	.LVL21
 4414 0231 62000000 		.4byte	.LVL22
 4415 0235 0300     		.2byte	0x3
 4416 0237 08       		.byte	0x8
 4417 0238 47       		.byte	0x47
ARM GAS  C:\Users\Patrick\AppData\Local\Temp\cc3Vmx0B.s 			page 109


 4418 0239 9F       		.byte	0x9f
 4419 023a 66000000 		.4byte	.LVL24
 4420 023e F0000000 		.4byte	.LFE1
 4421 0242 0300     		.2byte	0x3
 4422 0244 08       		.byte	0x8
 4423 0245 47       		.byte	0x47
 4424 0246 9F       		.byte	0x9f
 4425 0247 00000000 		.4byte	0
 4426 024b 00000000 		.4byte	0
 4427              	.LLST10:
 4428 024f 54000000 		.4byte	.LVL21
 4429 0253 62000000 		.4byte	.LVL22
 4430 0257 0200     		.2byte	0x2
 4431 0259 32       		.byte	0x32
 4432 025a 9F       		.byte	0x9f
 4433 025b 00000000 		.4byte	0
 4434 025f 00000000 		.4byte	0
 4435              	.LLST12:
 4436 0263 54000000 		.4byte	.LVL21
 4437 0267 62000000 		.4byte	.LVL22
 4438 026b 0200     		.2byte	0x2
 4439 026d 31       		.byte	0x31
 4440 026e 9F       		.byte	0x9f
 4441 026f 66000000 		.4byte	.LVL24
 4442 0273 F0000000 		.4byte	.LFE1
 4443 0277 0200     		.2byte	0x2
 4444 0279 30       		.byte	0x30
 4445 027a 9F       		.byte	0x9f
 4446 027b 00000000 		.4byte	0
 4447 027f 00000000 		.4byte	0
 4448              	.LLST13:
 4449 0283 66000000 		.4byte	.LVL24
 4450 0287 76000000 		.4byte	.LVL25
 4451 028b 0200     		.2byte	0x2
 4452 028d 31       		.byte	0x31
 4453 028e 9F       		.byte	0x9f
 4454 028f 76000000 		.4byte	.LVL25
 4455 0293 F0000000 		.4byte	.LFE1
 4456 0297 0200     		.2byte	0x2
 4457 0299 30       		.byte	0x30
 4458 029a 9F       		.byte	0x9f
 4459 029b 00000000 		.4byte	0
 4460 029f 00000000 		.4byte	0
 4461              	.LLST14:
 4462 02a3 76000000 		.4byte	.LVL25
 4463 02a7 92000000 		.4byte	.LVL32
 4464 02ab 0200     		.2byte	0x2
 4465 02ad 31       		.byte	0x31
 4466 02ae 9F       		.byte	0x9f
 4467 02af 92000000 		.4byte	.LVL32
 4468 02b3 F0000000 		.4byte	.LFE1
 4469 02b7 0200     		.2byte	0x2
 4470 02b9 30       		.byte	0x30
 4471 02ba 9F       		.byte	0x9f
 4472 02bb 00000000 		.4byte	0
 4473 02bf 00000000 		.4byte	0
 4474              	.LLST15:
ARM GAS  C:\Users\Patrick\AppData\Local\Temp\cc3Vmx0B.s 			page 110


 4475 02c3 78000000 		.4byte	.LVL26
 4476 02c7 8A000000 		.4byte	.LVL30
 4477 02cb 0100     		.2byte	0x1
 4478 02cd 52       		.byte	0x52
 4479 02ce 8A000000 		.4byte	.LVL30
 4480 02d2 8C000000 		.4byte	.LVL31
 4481 02d6 0200     		.2byte	0x2
 4482 02d8 73       		.byte	0x73
 4483 02d9 01       		.sleb128 1
 4484 02da 00000000 		.4byte	0
 4485 02de 00000000 		.4byte	0
 4486              	.LLST16:
 4487 02e2 92000000 		.4byte	.LVL32
 4488 02e6 A0000000 		.4byte	.LVL33
 4489 02ea 0200     		.2byte	0x2
 4490 02ec 31       		.byte	0x31
 4491 02ed 9F       		.byte	0x9f
 4492 02ee A0000000 		.4byte	.LVL33
 4493 02f2 F0000000 		.4byte	.LFE1
 4494 02f6 0200     		.2byte	0x2
 4495 02f8 30       		.byte	0x30
 4496 02f9 9F       		.byte	0x9f
 4497 02fa 00000000 		.4byte	0
 4498 02fe 00000000 		.4byte	0
 4499              	.LLST17:
 4500 0302 B6000000 		.4byte	.LVL38
 4501 0306 C6000000 		.4byte	.LVL39
 4502 030a 0200     		.2byte	0x2
 4503 030c 31       		.byte	0x31
 4504 030d 9F       		.byte	0x9f
 4505 030e C6000000 		.4byte	.LVL39
 4506 0312 F0000000 		.4byte	.LFE1
 4507 0316 0200     		.2byte	0x2
 4508 0318 30       		.byte	0x30
 4509 0319 9F       		.byte	0x9f
 4510 031a 00000000 		.4byte	0
 4511 031e 00000000 		.4byte	0
 4512              	.LLST18:
 4513 0322 00000000 		.4byte	.LVL40
 4514 0326 4C000000 		.4byte	.LVL44
 4515 032a 0400     		.2byte	0x4
 4516 032c 0A       		.byte	0xa
 4517 032d 001B     		.2byte	0x1b00
 4518 032f 9F       		.byte	0x9f
 4519 0330 00000000 		.4byte	0
 4520 0334 00000000 		.4byte	0
 4521              	.LLST19:
 4522 0338 00000000 		.4byte	.LVL40
 4523 033c 5C000000 		.4byte	.LVL45
 4524 0340 0200     		.2byte	0x2
 4525 0342 31       		.byte	0x31
 4526 0343 9F       		.byte	0x9f
 4527 0344 5C000000 		.4byte	.LVL45
 4528 0348 78000000 		.4byte	.LFE2
 4529 034c 0100     		.2byte	0x1
 4530 034e 50       		.byte	0x50
 4531 034f 00000000 		.4byte	0
ARM GAS  C:\Users\Patrick\AppData\Local\Temp\cc3Vmx0B.s 			page 111


 4532 0353 00000000 		.4byte	0
 4533              	.LLST20:
 4534 0357 06000000 		.4byte	.LVL41
 4535 035b 1D000000 		.4byte	.LVL42-1
 4536 035f 0100     		.2byte	0x1
 4537 0361 50       		.byte	0x50
 4538 0362 00000000 		.4byte	0
 4539 0366 00000000 		.4byte	0
 4540              	.LLST21:
 4541 036a 00000000 		.4byte	.LVL46
 4542 036e 08000000 		.4byte	.LVL47
 4543 0372 0200     		.2byte	0x2
 4544 0374 30       		.byte	0x30
 4545 0375 9F       		.byte	0x9f
 4546 0376 64000000 		.4byte	.LVL53
 4547 037a 68000000 		.4byte	.LVL54
 4548 037e 0200     		.2byte	0x2
 4549 0380 30       		.byte	0x30
 4550 0381 9F       		.byte	0x9f
 4551 0382 68000000 		.4byte	.LVL54
 4552 0386 6E000000 		.4byte	.LVL56
 4553 038a 0100     		.2byte	0x1
 4554 038c 50       		.byte	0x50
 4555 038d 00000000 		.4byte	0
 4556 0391 00000000 		.4byte	0
 4557              	.LLST22:
 4558 0395 0C000000 		.4byte	.LVL48
 4559 0399 56000000 		.4byte	.LVL52
 4560 039d 0400     		.2byte	0x4
 4561 039f 0A       		.byte	0xa
 4562 03a0 001B     		.2byte	0x1b00
 4563 03a2 9F       		.byte	0x9f
 4564 03a3 00000000 		.4byte	0
 4565 03a7 00000000 		.4byte	0
 4566              	.LLST23:
 4567 03ab 0C000000 		.4byte	.LVL48
 4568 03af 64000000 		.4byte	.LVL53
 4569 03b3 0200     		.2byte	0x2
 4570 03b5 31       		.byte	0x31
 4571 03b6 9F       		.byte	0x9f
 4572 03b7 6E000000 		.4byte	.LVL56
 4573 03bb 90000000 		.4byte	.LFE3
 4574 03bf 0200     		.2byte	0x2
 4575 03c1 31       		.byte	0x31
 4576 03c2 9F       		.byte	0x9f
 4577 03c3 00000000 		.4byte	0
 4578 03c7 00000000 		.4byte	0
 4579              	.LLST24:
 4580 03cb 10000000 		.4byte	.LVL49
 4581 03cf 27000000 		.4byte	.LVL50-1
 4582 03d3 0100     		.2byte	0x1
 4583 03d5 50       		.byte	0x50
 4584 03d6 00000000 		.4byte	0
 4585 03da 00000000 		.4byte	0
 4586              	.LLST25:
 4587 03de 32000000 		.4byte	.LVL51
 4588 03e2 64000000 		.4byte	.LVL53
ARM GAS  C:\Users\Patrick\AppData\Local\Temp\cc3Vmx0B.s 			page 112


 4589 03e6 0200     		.2byte	0x2
 4590 03e8 31       		.byte	0x31
 4591 03e9 9F       		.byte	0x9f
 4592 03ea 6E000000 		.4byte	.LVL56
 4593 03ee 90000000 		.4byte	.LFE3
 4594 03f2 0200     		.2byte	0x2
 4595 03f4 31       		.byte	0x31
 4596 03f5 9F       		.byte	0x9f
 4597 03f6 00000000 		.4byte	0
 4598 03fa 00000000 		.4byte	0
 4599              	.LLST26:
 4600 03fe 00000000 		.4byte	.LVL57
 4601 0402 14000000 		.4byte	.LVL58
 4602 0406 0500     		.2byte	0x5
 4603 0408 08       		.byte	0x8
 4604 0409 B4       		.byte	0xb4
 4605 040a 39       		.byte	0x39
 4606 040b 24       		.byte	0x24
 4607 040c 9F       		.byte	0x9f
 4608 040d 00000000 		.4byte	0
 4609 0411 00000000 		.4byte	0
 4610              	.LLST27:
 4611 0415 00000000 		.4byte	.LVL57
 4612 0419 20000000 		.4byte	.LVL59
 4613 041d 0200     		.2byte	0x2
 4614 041f 31       		.byte	0x31
 4615 0420 9F       		.byte	0x9f
 4616 0421 20000000 		.4byte	.LVL59
 4617 0425 48000000 		.4byte	.LVL62
 4618 0429 0200     		.2byte	0x2
 4619 042b 30       		.byte	0x30
 4620 042c 9F       		.byte	0x9f
 4621 042d 48000000 		.4byte	.LVL62
 4622 0431 5C000000 		.4byte	.LFE4
 4623 0435 0200     		.2byte	0x2
 4624 0437 31       		.byte	0x31
 4625 0438 9F       		.byte	0x9f
 4626 0439 00000000 		.4byte	0
 4627 043d 00000000 		.4byte	0
 4628              	.LLST28:
 4629 0441 2C000000 		.4byte	.LVL60
 4630 0445 43000000 		.4byte	.LVL61-1
 4631 0449 0100     		.2byte	0x1
 4632 044b 50       		.byte	0x50
 4633 044c 00000000 		.4byte	0
 4634 0450 00000000 		.4byte	0
 4635              	.LLST29:
 4636 0454 00000000 		.4byte	.LVL63
 4637 0458 10000000 		.4byte	.LVL64
 4638 045c 0200     		.2byte	0x2
 4639 045e 31       		.byte	0x31
 4640 045f 9F       		.byte	0x9f
 4641 0460 10000000 		.4byte	.LVL64
 4642 0464 14000000 		.4byte	.LVL65
 4643 0468 0500     		.2byte	0x5
 4644 046a 70       		.byte	0x70
 4645 046b 00       		.sleb128 0
ARM GAS  C:\Users\Patrick\AppData\Local\Temp\cc3Vmx0B.s 			page 113


 4646 046c 31       		.byte	0x31
 4647 046d 27       		.byte	0x27
 4648 046e 9F       		.byte	0x9f
 4649 046f 14000000 		.4byte	.LVL65
 4650 0473 1C000000 		.4byte	.LFE5
 4651 0477 0100     		.2byte	0x1
 4652 0479 50       		.byte	0x50
 4653 047a 00000000 		.4byte	0
 4654 047e 00000000 		.4byte	0
 4655              	.LLST30:
 4656 0482 00000000 		.4byte	.LVL66
 4657 0486 0C000000 		.4byte	.LVL67
 4658 048a 0200     		.2byte	0x2
 4659 048c 31       		.byte	0x31
 4660 048d 9F       		.byte	0x9f
 4661 048e 0C000000 		.4byte	.LVL67
 4662 0492 10000000 		.4byte	.LVL68
 4663 0496 0500     		.2byte	0x5
 4664 0498 70       		.byte	0x70
 4665 0499 00       		.sleb128 0
 4666 049a 31       		.byte	0x31
 4667 049b 1A       		.byte	0x1a
 4668 049c 9F       		.byte	0x9f
 4669 049d 00000000 		.4byte	0
 4670 04a1 00000000 		.4byte	0
 4671              	.LLST31:
 4672 04a5 00000000 		.4byte	.LVL69
 4673 04a9 0E000000 		.4byte	.LVL71
 4674 04ad 0100     		.2byte	0x1
 4675 04af 50       		.byte	0x50
 4676 04b0 0E000000 		.4byte	.LVL71
 4677 04b4 14000000 		.4byte	.LVL72
 4678 04b8 0500     		.2byte	0x5
 4679 04ba 0C       		.byte	0xc
 4680 04bb 16A00040 		.4byte	0x4000a016
 4681 04bf 14000000 		.4byte	.LVL72
 4682 04c3 16000000 		.4byte	.LVL73
 4683 04c7 0100     		.2byte	0x1
 4684 04c9 50       		.byte	0x50
 4685 04ca 16000000 		.4byte	.LVL73
 4686 04ce 1C000000 		.4byte	.LFE7
 4687 04d2 0400     		.2byte	0x4
 4688 04d4 F3       		.byte	0xf3
 4689 04d5 01       		.uleb128 0x1
 4690 04d6 50       		.byte	0x50
 4691 04d7 9F       		.byte	0x9f
 4692 04d8 00000000 		.4byte	0
 4693 04dc 00000000 		.4byte	0
 4694              	.LLST32:
 4695 04e0 00000000 		.4byte	.LVL69
 4696 04e4 16000000 		.4byte	.LVL73
 4697 04e8 0200     		.2byte	0x2
 4698 04ea 32       		.byte	0x32
 4699 04eb 9F       		.byte	0x9f
 4700 04ec 16000000 		.4byte	.LVL73
 4701 04f0 1C000000 		.4byte	.LFE7
 4702 04f4 0100     		.2byte	0x1
ARM GAS  C:\Users\Patrick\AppData\Local\Temp\cc3Vmx0B.s 			page 114


 4703 04f6 50       		.byte	0x50
 4704 04f7 00000000 		.4byte	0
 4705 04fb 00000000 		.4byte	0
 4706              	.LLST33:
 4707 04ff 04000000 		.4byte	.LVL70
 4708 0503 0E000000 		.4byte	.LVL71
 4709 0507 0100     		.2byte	0x1
 4710 0509 50       		.byte	0x50
 4711 050a 0E000000 		.4byte	.LVL71
 4712 050e 14000000 		.4byte	.LVL72
 4713 0512 0500     		.2byte	0x5
 4714 0514 0C       		.byte	0xc
 4715 0515 16A00040 		.4byte	0x4000a016
 4716 0519 00000000 		.4byte	0
 4717 051d 00000000 		.4byte	0
 4718              	.LLST34:
 4719 0521 04000000 		.4byte	.LVL70
 4720 0525 14000000 		.4byte	.LVL72
 4721 0529 0200     		.2byte	0x2
 4722 052b 31       		.byte	0x31
 4723 052c 9F       		.byte	0x9f
 4724 052d 00000000 		.4byte	0
 4725 0531 00000000 		.4byte	0
 4726              	.LLST35:
 4727 0535 00000000 		.4byte	.LVL74
 4728 0539 0E000000 		.4byte	.LVL76
 4729 053d 0100     		.2byte	0x1
 4730 053f 50       		.byte	0x50
 4731 0540 0E000000 		.4byte	.LVL76
 4732 0544 14000000 		.4byte	.LVL77
 4733 0548 0400     		.2byte	0x4
 4734 054a F3       		.byte	0xf3
 4735 054b 01       		.uleb128 0x1
 4736 054c 50       		.byte	0x50
 4737 054d 9F       		.byte	0x9f
 4738 054e 14000000 		.4byte	.LVL77
 4739 0552 1C000000 		.4byte	.LVL78
 4740 0556 0100     		.2byte	0x1
 4741 0558 50       		.byte	0x50
 4742 0559 1C000000 		.4byte	.LVL78
 4743 055d 2C000000 		.4byte	.LFE8
 4744 0561 0400     		.2byte	0x4
 4745 0563 F3       		.byte	0xf3
 4746 0564 01       		.uleb128 0x1
 4747 0565 50       		.byte	0x50
 4748 0566 9F       		.byte	0x9f
 4749 0567 00000000 		.4byte	0
 4750 056b 00000000 		.4byte	0
 4751              	.LLST36:
 4752 056f 00000000 		.4byte	.LVL74
 4753 0573 24000000 		.4byte	.LVL79
 4754 0577 0200     		.2byte	0x2
 4755 0579 31       		.byte	0x31
 4756 057a 9F       		.byte	0x9f
 4757 057b 24000000 		.4byte	.LVL79
 4758 057f 2C000000 		.4byte	.LFE8
 4759 0583 0100     		.2byte	0x1
ARM GAS  C:\Users\Patrick\AppData\Local\Temp\cc3Vmx0B.s 			page 115


 4760 0585 50       		.byte	0x50
 4761 0586 00000000 		.4byte	0
 4762 058a 00000000 		.4byte	0
 4763              	.LLST37:
 4764 058e 06000000 		.4byte	.LVL75
 4765 0592 14000000 		.4byte	.LVL77
 4766 0596 0200     		.2byte	0x2
 4767 0598 30       		.byte	0x30
 4768 0599 9F       		.byte	0x9f
 4769 059a 00000000 		.4byte	0
 4770 059e 00000000 		.4byte	0
 4771              	.LLST38:
 4772 05a2 00000000 		.4byte	.LVL80
 4773 05a6 0A000000 		.4byte	.LVL81
 4774 05aa 0100     		.2byte	0x1
 4775 05ac 50       		.byte	0x50
 4776 05ad 0A000000 		.4byte	.LVL81
 4777 05b1 0E000000 		.4byte	.LVL82
 4778 05b5 0400     		.2byte	0x4
 4779 05b7 F3       		.byte	0xf3
 4780 05b8 01       		.uleb128 0x1
 4781 05b9 50       		.byte	0x50
 4782 05ba 9F       		.byte	0x9f
 4783 05bb 0E000000 		.4byte	.LVL82
 4784 05bf 2A000000 		.4byte	.LVL86
 4785 05c3 0100     		.2byte	0x1
 4786 05c5 50       		.byte	0x50
 4787 05c6 2A000000 		.4byte	.LVL86
 4788 05ca 36000000 		.4byte	.LVL88
 4789 05ce 0400     		.2byte	0x4
 4790 05d0 F3       		.byte	0xf3
 4791 05d1 01       		.uleb128 0x1
 4792 05d2 50       		.byte	0x50
 4793 05d3 9F       		.byte	0x9f
 4794 05d4 36000000 		.4byte	.LVL88
 4795 05d8 40000000 		.4byte	.LVL89
 4796 05dc 0100     		.2byte	0x1
 4797 05de 50       		.byte	0x50
 4798 05df 40000000 		.4byte	.LVL89
 4799 05e3 64000000 		.4byte	.LFE9
 4800 05e7 0400     		.2byte	0x4
 4801 05e9 F3       		.byte	0xf3
 4802 05ea 01       		.uleb128 0x1
 4803 05eb 50       		.byte	0x50
 4804 05ec 9F       		.byte	0x9f
 4805 05ed 00000000 		.4byte	0
 4806 05f1 00000000 		.4byte	0
 4807              	.LLST39:
 4808 05f5 00000000 		.4byte	.LVL80
 4809 05f9 0A000000 		.4byte	.LVL81
 4810 05fd 0100     		.2byte	0x1
 4811 05ff 52       		.byte	0x52
 4812 0600 0A000000 		.4byte	.LVL81
 4813 0604 0E000000 		.4byte	.LVL82
 4814 0608 0400     		.2byte	0x4
 4815 060a F3       		.byte	0xf3
 4816 060b 01       		.uleb128 0x1
ARM GAS  C:\Users\Patrick\AppData\Local\Temp\cc3Vmx0B.s 			page 116


 4817 060c 52       		.byte	0x52
 4818 060d 9F       		.byte	0x9f
 4819 060e 0E000000 		.4byte	.LVL82
 4820 0612 46000000 		.4byte	.LVL90
 4821 0616 0100     		.2byte	0x1
 4822 0618 52       		.byte	0x52
 4823 0619 46000000 		.4byte	.LVL90
 4824 061d 64000000 		.4byte	.LFE9
 4825 0621 0400     		.2byte	0x4
 4826 0623 F3       		.byte	0xf3
 4827 0624 01       		.uleb128 0x1
 4828 0625 52       		.byte	0x52
 4829 0626 9F       		.byte	0x9f
 4830 0627 00000000 		.4byte	0
 4831 062b 00000000 		.4byte	0
 4832              	.LLST40:
 4833 062f 00000000 		.4byte	.LVL80
 4834 0633 0A000000 		.4byte	.LVL81
 4835 0637 0100     		.2byte	0x1
 4836 0639 53       		.byte	0x53
 4837 063a 0A000000 		.4byte	.LVL81
 4838 063e 0E000000 		.4byte	.LVL82
 4839 0642 0400     		.2byte	0x4
 4840 0644 F3       		.byte	0xf3
 4841 0645 01       		.uleb128 0x1
 4842 0646 53       		.byte	0x53
 4843 0647 9F       		.byte	0x9f
 4844 0648 0E000000 		.4byte	.LVL82
 4845 064c 50000000 		.4byte	.LVL93
 4846 0650 0100     		.2byte	0x1
 4847 0652 53       		.byte	0x53
 4848 0653 50000000 		.4byte	.LVL93
 4849 0657 64000000 		.4byte	.LFE9
 4850 065b 0400     		.2byte	0x4
 4851 065d F3       		.byte	0xf3
 4852 065e 01       		.uleb128 0x1
 4853 065f 53       		.byte	0x53
 4854 0660 9F       		.byte	0x9f
 4855 0661 00000000 		.4byte	0
 4856 0665 00000000 		.4byte	0
 4857              	.LLST41:
 4858 0669 00000000 		.4byte	.LVL80
 4859 066d 0A000000 		.4byte	.LVL81
 4860 0671 0200     		.2byte	0x2
 4861 0673 32       		.byte	0x32
 4862 0674 9F       		.byte	0x9f
 4863 0675 0A000000 		.4byte	.LVL81
 4864 0679 0E000000 		.4byte	.LVL82
 4865 067d 0100     		.2byte	0x1
 4866 067f 50       		.byte	0x50
 4867 0680 0E000000 		.4byte	.LVL82
 4868 0684 20000000 		.4byte	.LVL83
 4869 0688 0200     		.2byte	0x2
 4870 068a 32       		.byte	0x32
 4871 068b 9F       		.byte	0x9f
 4872 068c 20000000 		.4byte	.LVL83
 4873 0690 36000000 		.4byte	.LVL88
ARM GAS  C:\Users\Patrick\AppData\Local\Temp\cc3Vmx0B.s 			page 117


 4874 0694 0200     		.2byte	0x2
 4875 0696 31       		.byte	0x31
 4876 0697 9F       		.byte	0x9f
 4877 0698 36000000 		.4byte	.LVL88
 4878 069c 40000000 		.4byte	.LVL89
 4879 06a0 0200     		.2byte	0x2
 4880 06a2 32       		.byte	0x32
 4881 06a3 9F       		.byte	0x9f
 4882 06a4 40000000 		.4byte	.LVL89
 4883 06a8 64000000 		.4byte	.LFE9
 4884 06ac 0200     		.2byte	0x2
 4885 06ae 31       		.byte	0x31
 4886 06af 9F       		.byte	0x9f
 4887 06b0 00000000 		.4byte	0
 4888 06b4 00000000 		.4byte	0
 4889              	.LLST42:
 4890 06b8 24000000 		.4byte	.LVL84
 4891 06bc 2A000000 		.4byte	.LVL86
 4892 06c0 0100     		.2byte	0x1
 4893 06c2 54       		.byte	0x54
 4894 06c3 2A000000 		.4byte	.LVL86
 4895 06c7 34000000 		.4byte	.LVL87
 4896 06cb 0100     		.2byte	0x1
 4897 06cd 50       		.byte	0x50
 4898 06ce 34000000 		.4byte	.LVL87
 4899 06d2 36000000 		.4byte	.LVL88
 4900 06d6 0200     		.2byte	0x2
 4901 06d8 75       		.byte	0x75
 4902 06d9 01       		.sleb128 1
 4903 06da 40000000 		.4byte	.LVL89
 4904 06de 4A000000 		.4byte	.LVL91
 4905 06e2 0100     		.2byte	0x1
 4906 06e4 50       		.byte	0x50
 4907 06e5 4A000000 		.4byte	.LVL91
 4908 06e9 56000000 		.4byte	.LVL95
 4909 06ed 0200     		.2byte	0x2
 4910 06ef 75       		.byte	0x75
 4911 06f0 01       		.sleb128 1
 4912 06f1 00000000 		.4byte	0
 4913 06f5 00000000 		.4byte	0
 4914              	.LLST43:
 4915 06f9 40000000 		.4byte	.LVL89
 4916 06fd 50000000 		.4byte	.LVL93
 4917 0701 0100     		.2byte	0x1
 4918 0703 53       		.byte	0x53
 4919 0704 50000000 		.4byte	.LVL93
 4920 0708 64000000 		.4byte	.LFE9
 4921 070c 0400     		.2byte	0x4
 4922 070e F3       		.byte	0xf3
 4923 070f 01       		.uleb128 0x1
 4924 0710 53       		.byte	0x53
 4925 0711 9F       		.byte	0x9f
 4926 0712 00000000 		.4byte	0
 4927 0716 00000000 		.4byte	0
 4928              	.LLST44:
 4929 071a 40000000 		.4byte	.LVL89
 4930 071e 46000000 		.4byte	.LVL90
ARM GAS  C:\Users\Patrick\AppData\Local\Temp\cc3Vmx0B.s 			page 118


 4931 0722 0100     		.2byte	0x1
 4932 0724 52       		.byte	0x52
 4933 0725 46000000 		.4byte	.LVL90
 4934 0729 64000000 		.4byte	.LFE9
 4935 072d 0400     		.2byte	0x4
 4936 072f F3       		.byte	0xf3
 4937 0730 01       		.uleb128 0x1
 4938 0731 52       		.byte	0x52
 4939 0732 9F       		.byte	0x9f
 4940 0733 00000000 		.4byte	0
 4941 0737 00000000 		.4byte	0
 4942              	.LLST45:
 4943 073b 40000000 		.4byte	.LVL89
 4944 073f 4C000000 		.4byte	.LVL92
 4945 0743 0200     		.2byte	0x2
 4946 0745 30       		.byte	0x30
 4947 0746 9F       		.byte	0x9f
 4948 0747 4C000000 		.4byte	.LVL92
 4949 074b 54000000 		.4byte	.LVL94
 4950 074f 0100     		.2byte	0x1
 4951 0751 50       		.byte	0x50
 4952 0752 54000000 		.4byte	.LVL94
 4953 0756 64000000 		.4byte	.LFE9
 4954 075a 0100     		.2byte	0x1
 4955 075c 53       		.byte	0x53
 4956 075d 00000000 		.4byte	0
 4957 0761 00000000 		.4byte	0
 4958              	.LLST46:
 4959 0765 00000000 		.4byte	.LVL96
 4960 0769 0E000000 		.4byte	.LVL98
 4961 076d 0100     		.2byte	0x1
 4962 076f 50       		.byte	0x50
 4963 0770 0E000000 		.4byte	.LVL98
 4964 0774 14000000 		.4byte	.LVL99
 4965 0778 0400     		.2byte	0x4
 4966 077a F3       		.byte	0xf3
 4967 077b 01       		.uleb128 0x1
 4968 077c 50       		.byte	0x50
 4969 077d 9F       		.byte	0x9f
 4970 077e 14000000 		.4byte	.LVL99
 4971 0782 1C000000 		.4byte	.LVL100
 4972 0786 0100     		.2byte	0x1
 4973 0788 50       		.byte	0x50
 4974 0789 1C000000 		.4byte	.LVL100
 4975 078d 2C000000 		.4byte	.LFE10
 4976 0791 0400     		.2byte	0x4
 4977 0793 F3       		.byte	0xf3
 4978 0794 01       		.uleb128 0x1
 4979 0795 50       		.byte	0x50
 4980 0796 9F       		.byte	0x9f
 4981 0797 00000000 		.4byte	0
 4982 079b 00000000 		.4byte	0
 4983              	.LLST47:
 4984 079f 00000000 		.4byte	.LVL96
 4985 07a3 24000000 		.4byte	.LVL101
 4986 07a7 0200     		.2byte	0x2
 4987 07a9 31       		.byte	0x31
ARM GAS  C:\Users\Patrick\AppData\Local\Temp\cc3Vmx0B.s 			page 119


 4988 07aa 9F       		.byte	0x9f
 4989 07ab 24000000 		.4byte	.LVL101
 4990 07af 2C000000 		.4byte	.LFE10
 4991 07b3 0100     		.2byte	0x1
 4992 07b5 50       		.byte	0x50
 4993 07b6 00000000 		.4byte	0
 4994 07ba 00000000 		.4byte	0
 4995              	.LLST48:
 4996 07be 06000000 		.4byte	.LVL97
 4997 07c2 14000000 		.4byte	.LVL99
 4998 07c6 0200     		.2byte	0x2
 4999 07c8 30       		.byte	0x30
 5000 07c9 9F       		.byte	0x9f
 5001 07ca 00000000 		.4byte	0
 5002 07ce 00000000 		.4byte	0
 5003              	.LLST49:
 5004 07d2 00000000 		.4byte	.LVL102
 5005 07d6 0E000000 		.4byte	.LVL104
 5006 07da 0100     		.2byte	0x1
 5007 07dc 50       		.byte	0x50
 5008 07dd 0E000000 		.4byte	.LVL104
 5009 07e1 14000000 		.4byte	.LVL105
 5010 07e5 0400     		.2byte	0x4
 5011 07e7 F3       		.byte	0xf3
 5012 07e8 01       		.uleb128 0x1
 5013 07e9 50       		.byte	0x50
 5014 07ea 9F       		.byte	0x9f
 5015 07eb 14000000 		.4byte	.LVL105
 5016 07ef 1C000000 		.4byte	.LVL106
 5017 07f3 0100     		.2byte	0x1
 5018 07f5 50       		.byte	0x50
 5019 07f6 1C000000 		.4byte	.LVL106
 5020 07fa 2C000000 		.4byte	.LFE11
 5021 07fe 0400     		.2byte	0x4
 5022 0800 F3       		.byte	0xf3
 5023 0801 01       		.uleb128 0x1
 5024 0802 50       		.byte	0x50
 5025 0803 9F       		.byte	0x9f
 5026 0804 00000000 		.4byte	0
 5027 0808 00000000 		.4byte	0
 5028              	.LLST50:
 5029 080c 00000000 		.4byte	.LVL102
 5030 0810 24000000 		.4byte	.LVL107
 5031 0814 0200     		.2byte	0x2
 5032 0816 31       		.byte	0x31
 5033 0817 9F       		.byte	0x9f
 5034 0818 24000000 		.4byte	.LVL107
 5035 081c 2C000000 		.4byte	.LFE11
 5036 0820 0100     		.2byte	0x1
 5037 0822 50       		.byte	0x50
 5038 0823 00000000 		.4byte	0
 5039 0827 00000000 		.4byte	0
 5040              	.LLST51:
 5041 082b 06000000 		.4byte	.LVL103
 5042 082f 14000000 		.4byte	.LVL105
 5043 0833 0200     		.2byte	0x2
 5044 0835 30       		.byte	0x30
ARM GAS  C:\Users\Patrick\AppData\Local\Temp\cc3Vmx0B.s 			page 120


 5045 0836 9F       		.byte	0x9f
 5046 0837 00000000 		.4byte	0
 5047 083b 00000000 		.4byte	0
 5048              	.LLST52:
 5049 083f 00000000 		.4byte	.LVL108
 5050 0843 3A000000 		.4byte	.LVL112
 5051 0847 0100     		.2byte	0x1
 5052 0849 50       		.byte	0x50
 5053 084a 3A000000 		.4byte	.LVL112
 5054 084e 46000000 		.4byte	.LVL116
 5055 0852 0400     		.2byte	0x4
 5056 0854 F3       		.byte	0xf3
 5057 0855 01       		.uleb128 0x1
 5058 0856 50       		.byte	0x50
 5059 0857 9F       		.byte	0x9f
 5060 0858 46000000 		.4byte	.LVL116
 5061 085c 4E000000 		.4byte	.LVL117
 5062 0860 0100     		.2byte	0x1
 5063 0862 50       		.byte	0x50
 5064 0863 4E000000 		.4byte	.LVL117
 5065 0867 68000000 		.4byte	.LFE12
 5066 086b 0400     		.2byte	0x4
 5067 086d F3       		.byte	0xf3
 5068 086e 01       		.uleb128 0x1
 5069 086f 50       		.byte	0x50
 5070 0870 9F       		.byte	0x9f
 5071 0871 00000000 		.4byte	0
 5072 0875 00000000 		.4byte	0
 5073              	.LLST53:
 5074 0879 1E000000 		.4byte	.LVL109
 5075 087d 24000000 		.4byte	.LVL110
 5076 0881 0500     		.2byte	0x5
 5077 0883 08       		.byte	0x8
 5078 0884 B4       		.byte	0xb4
 5079 0885 39       		.byte	0x39
 5080 0886 24       		.byte	0x24
 5081 0887 9F       		.byte	0x9f
 5082 0888 56000000 		.4byte	.LVL118
 5083 088c 58000000 		.4byte	.LVL119
 5084 0890 0400     		.2byte	0x4
 5085 0892 0A       		.byte	0xa
 5086 0893 001B     		.2byte	0x1b00
 5087 0895 9F       		.byte	0x9f
 5088 0896 00000000 		.4byte	0
 5089 089a 00000000 		.4byte	0
 5090              	.LLST54:
 5091 089e 00000000 		.4byte	.LVL108
 5092 08a2 30000000 		.4byte	.LVL111
 5093 08a6 0200     		.2byte	0x2
 5094 08a8 31       		.byte	0x31
 5095 08a9 9F       		.byte	0x9f
 5096 08aa 30000000 		.4byte	.LVL111
 5097 08ae 40000000 		.4byte	.LVL114
 5098 08b2 0200     		.2byte	0x2
 5099 08b4 30       		.byte	0x30
 5100 08b5 9F       		.byte	0x9f
 5101 08b6 46000000 		.4byte	.LVL116
ARM GAS  C:\Users\Patrick\AppData\Local\Temp\cc3Vmx0B.s 			page 121


 5102 08ba 68000000 		.4byte	.LFE12
 5103 08be 0200     		.2byte	0x2
 5104 08c0 30       		.byte	0x30
 5105 08c1 9F       		.byte	0x9f
 5106 08c2 00000000 		.4byte	0
 5107 08c6 00000000 		.4byte	0
 5108              	.LLST55:
 5109 08ca 00000000 		.4byte	.LVL108
 5110 08ce 1E000000 		.4byte	.LVL109
 5111 08d2 0200     		.2byte	0x2
 5112 08d4 30       		.byte	0x30
 5113 08d5 9F       		.byte	0x9f
 5114 08d6 1E000000 		.4byte	.LVL109
 5115 08da 3C000000 		.4byte	.LVL113
 5116 08de 0100     		.2byte	0x1
 5117 08e0 55       		.byte	0x55
 5118 08e1 40000000 		.4byte	.LVL114
 5119 08e5 44000000 		.4byte	.LVL115
 5120 08e9 0100     		.2byte	0x1
 5121 08eb 55       		.byte	0x55
 5122 08ec 46000000 		.4byte	.LVL116
 5123 08f0 68000000 		.4byte	.LFE12
 5124 08f4 0100     		.2byte	0x1
 5125 08f6 55       		.byte	0x55
 5126 08f7 00000000 		.4byte	0
 5127 08fb 00000000 		.4byte	0
 5128              	.LLST56:
 5129 08ff 00000000 		.4byte	.LVL120
 5130 0903 10000000 		.4byte	.LVL121
 5131 0907 0100     		.2byte	0x1
 5132 0909 50       		.byte	0x50
 5133 090a 10000000 		.4byte	.LVL121
 5134 090e 12000000 		.4byte	.LVL122
 5135 0912 0400     		.2byte	0x4
 5136 0914 F3       		.byte	0xf3
 5137 0915 01       		.uleb128 0x1
 5138 0916 50       		.byte	0x50
 5139 0917 9F       		.byte	0x9f
 5140 0918 12000000 		.4byte	.LVL122
 5141 091c 28000000 		.4byte	.LVL123
 5142 0920 0100     		.2byte	0x1
 5143 0922 50       		.byte	0x50
 5144 0923 28000000 		.4byte	.LVL123
 5145 0927 34000000 		.4byte	.LVL125
 5146 092b 0400     		.2byte	0x4
 5147 092d F3       		.byte	0xf3
 5148 092e 01       		.uleb128 0x1
 5149 092f 50       		.byte	0x50
 5150 0930 9F       		.byte	0x9f
 5151 0931 34000000 		.4byte	.LVL125
 5152 0935 44000000 		.4byte	.LVL127
 5153 0939 0100     		.2byte	0x1
 5154 093b 50       		.byte	0x50
 5155 093c 44000000 		.4byte	.LVL127
 5156 0940 60000000 		.4byte	.LFE13
 5157 0944 0400     		.2byte	0x4
 5158 0946 F3       		.byte	0xf3
ARM GAS  C:\Users\Patrick\AppData\Local\Temp\cc3Vmx0B.s 			page 122


 5159 0947 01       		.uleb128 0x1
 5160 0948 50       		.byte	0x50
 5161 0949 9F       		.byte	0x9f
 5162 094a 00000000 		.4byte	0
 5163 094e 00000000 		.4byte	0
 5164              	.LLST57:
 5165 0952 00000000 		.4byte	.LVL120
 5166 0956 38000000 		.4byte	.LVL126
 5167 095a 0100     		.2byte	0x1
 5168 095c 51       		.byte	0x51
 5169 095d 38000000 		.4byte	.LVL126
 5170 0961 4A000000 		.4byte	.LVL128
 5171 0965 0100     		.2byte	0x1
 5172 0967 51       		.byte	0x51
 5173 0968 4A000000 		.4byte	.LVL128
 5174 096c 60000000 		.4byte	.LFE13
 5175 0970 0A00     		.2byte	0xa
 5176 0972 F3       		.byte	0xf3
 5177 0973 01       		.uleb128 0x1
 5178 0974 51       		.byte	0x51
 5179 0975 0C       		.byte	0xc
 5180 0976 80008000 		.4byte	0x800080
 5181 097a 21       		.byte	0x21
 5182 097b 9F       		.byte	0x9f
 5183 097c 00000000 		.4byte	0
 5184 0980 00000000 		.4byte	0
 5185              	.LLST58:
 5186 0984 00000000 		.4byte	.LVL120
 5187 0988 12000000 		.4byte	.LVL122
 5188 098c 0200     		.2byte	0x2
 5189 098e 32       		.byte	0x32
 5190 098f 9F       		.byte	0x9f
 5191 0990 12000000 		.4byte	.LVL122
 5192 0994 32000000 		.4byte	.LVL124
 5193 0998 0200     		.2byte	0x2
 5194 099a 31       		.byte	0x31
 5195 099b 9F       		.byte	0x9f
 5196 099c 32000000 		.4byte	.LVL124
 5197 09a0 34000000 		.4byte	.LVL125
 5198 09a4 0100     		.2byte	0x1
 5199 09a6 50       		.byte	0x50
 5200 09a7 34000000 		.4byte	.LVL125
 5201 09ab 54000000 		.4byte	.LVL129
 5202 09af 0200     		.2byte	0x2
 5203 09b1 31       		.byte	0x31
 5204 09b2 9F       		.byte	0x9f
 5205 09b3 54000000 		.4byte	.LVL129
 5206 09b7 60000000 		.4byte	.LFE13
 5207 09bb 0100     		.2byte	0x1
 5208 09bd 50       		.byte	0x50
 5209 09be 00000000 		.4byte	0
 5210 09c2 00000000 		.4byte	0
 5211              	.LLST59:
 5212 09c6 00000000 		.4byte	.LVL130
 5213 09ca 0A000000 		.4byte	.LVL132
 5214 09ce 0100     		.2byte	0x1
 5215 09d0 50       		.byte	0x50
ARM GAS  C:\Users\Patrick\AppData\Local\Temp\cc3Vmx0B.s 			page 123


 5216 09d1 0A000000 		.4byte	.LVL132
 5217 09d5 14000000 		.4byte	.LFE14
 5218 09d9 0500     		.2byte	0x5
 5219 09db 0C       		.byte	0xc
 5220 09dc 04A00040 		.4byte	0x4000a004
 5221 09e0 00000000 		.4byte	0
 5222 09e4 00000000 		.4byte	0
 5223              	.LLST60:
 5224 09e8 00000000 		.4byte	.LVL130
 5225 09ec 08000000 		.4byte	.LVL131
 5226 09f0 0200     		.2byte	0x2
 5227 09f2 31       		.byte	0x31
 5228 09f3 9F       		.byte	0x9f
 5229 09f4 08000000 		.4byte	.LVL131
 5230 09f8 0A000000 		.4byte	.LVL132
 5231 09fc 0A00     		.2byte	0xa
 5232 09fe 70       		.byte	0x70
 5233 09ff 00       		.sleb128 0
 5234 0a00 40       		.byte	0x40
 5235 0a01 24       		.byte	0x24
 5236 0a02 73       		.byte	0x73
 5237 0a03 00       		.sleb128 0
 5238 0a04 40       		.byte	0x40
 5239 0a05 24       		.byte	0x24
 5240 0a06 2E       		.byte	0x2e
 5241 0a07 9F       		.byte	0x9f
 5242 0a08 0A000000 		.4byte	.LVL132
 5243 0a0c 14000000 		.4byte	.LFE14
 5244 0a10 0F00     		.2byte	0xf
 5245 0a12 0C       		.byte	0xc
 5246 0a13 04A00040 		.4byte	0x4000a004
 5247 0a17 94       		.byte	0x94
 5248 0a18 02       		.byte	0x2
 5249 0a19 40       		.byte	0x40
 5250 0a1a 24       		.byte	0x24
 5251 0a1b 73       		.byte	0x73
 5252 0a1c 00       		.sleb128 0
 5253 0a1d 40       		.byte	0x40
 5254 0a1e 24       		.byte	0x24
 5255 0a1f 2E       		.byte	0x2e
 5256 0a20 9F       		.byte	0x9f
 5257 0a21 00000000 		.4byte	0
 5258 0a25 00000000 		.4byte	0
 5259              	.LLST61:
 5260 0a29 00000000 		.4byte	.LVL133
 5261 0a2d 2A000000 		.4byte	.LVL134
 5262 0a31 0100     		.2byte	0x1
 5263 0a33 50       		.byte	0x50
 5264 0a34 2A000000 		.4byte	.LVL134
 5265 0a38 30000000 		.4byte	.LVL135
 5266 0a3c 0400     		.2byte	0x4
 5267 0a3e F3       		.byte	0xf3
 5268 0a3f 01       		.uleb128 0x1
 5269 0a40 50       		.byte	0x50
 5270 0a41 9F       		.byte	0x9f
 5271 0a42 30000000 		.4byte	.LVL135
 5272 0a46 7A000000 		.4byte	.LVL136
ARM GAS  C:\Users\Patrick\AppData\Local\Temp\cc3Vmx0B.s 			page 124


 5273 0a4a 0100     		.2byte	0x1
 5274 0a4c 50       		.byte	0x50
 5275 0a4d 7A000000 		.4byte	.LVL136
 5276 0a51 88000000 		.4byte	.LFE20
 5277 0a55 0400     		.2byte	0x4
 5278 0a57 F3       		.byte	0xf3
 5279 0a58 01       		.uleb128 0x1
 5280 0a59 50       		.byte	0x50
 5281 0a5a 9F       		.byte	0x9f
 5282 0a5b 00000000 		.4byte	0
 5283 0a5f 00000000 		.4byte	0
 5284              	.LLST62:
 5285 0a63 00000000 		.4byte	.LVL133
 5286 0a67 2A000000 		.4byte	.LVL134
 5287 0a6b 0200     		.2byte	0x2
 5288 0a6d 31       		.byte	0x31
 5289 0a6e 9F       		.byte	0x9f
 5290 0a6f 2A000000 		.4byte	.LVL134
 5291 0a73 30000000 		.4byte	.LVL135
 5292 0a77 0100     		.2byte	0x1
 5293 0a79 50       		.byte	0x50
 5294 0a7a 30000000 		.4byte	.LVL135
 5295 0a7e 88000000 		.4byte	.LFE20
 5296 0a82 0200     		.2byte	0x2
 5297 0a84 31       		.byte	0x31
 5298 0a85 9F       		.byte	0x9f
 5299 0a86 00000000 		.4byte	0
 5300 0a8a 00000000 		.4byte	0
 5301              	.LLST63:
 5302 0a8e 00000000 		.4byte	.LVL137
 5303 0a92 34000000 		.4byte	.LVL138
 5304 0a96 0100     		.2byte	0x1
 5305 0a98 50       		.byte	0x50
 5306 0a99 34000000 		.4byte	.LVL138
 5307 0a9d 36000000 		.4byte	.LVL139
 5308 0aa1 0400     		.2byte	0x4
 5309 0aa3 F3       		.byte	0xf3
 5310 0aa4 01       		.uleb128 0x1
 5311 0aa5 50       		.byte	0x50
 5312 0aa6 9F       		.byte	0x9f
 5313 0aa7 36000000 		.4byte	.LVL139
 5314 0aab 40000000 		.4byte	.LVL140
 5315 0aaf 0100     		.2byte	0x1
 5316 0ab1 50       		.byte	0x50
 5317 0ab2 40000000 		.4byte	.LVL140
 5318 0ab6 58000000 		.4byte	.LFE21
 5319 0aba 0400     		.2byte	0x4
 5320 0abc F3       		.byte	0xf3
 5321 0abd 01       		.uleb128 0x1
 5322 0abe 50       		.byte	0x50
 5323 0abf 9F       		.byte	0x9f
 5324 0ac0 00000000 		.4byte	0
 5325 0ac4 00000000 		.4byte	0
 5326              	.LLST64:
 5327 0ac8 00000000 		.4byte	.LVL137
 5328 0acc 34000000 		.4byte	.LVL138
 5329 0ad0 0200     		.2byte	0x2
ARM GAS  C:\Users\Patrick\AppData\Local\Temp\cc3Vmx0B.s 			page 125


 5330 0ad2 31       		.byte	0x31
 5331 0ad3 9F       		.byte	0x9f
 5332 0ad4 34000000 		.4byte	.LVL138
 5333 0ad8 36000000 		.4byte	.LVL139
 5334 0adc 0100     		.2byte	0x1
 5335 0ade 50       		.byte	0x50
 5336 0adf 36000000 		.4byte	.LVL139
 5337 0ae3 4E000000 		.4byte	.LVL141
 5338 0ae7 0200     		.2byte	0x2
 5339 0ae9 31       		.byte	0x31
 5340 0aea 9F       		.byte	0x9f
 5341 0aeb 4E000000 		.4byte	.LVL141
 5342 0aef 58000000 		.4byte	.LFE21
 5343 0af3 0100     		.2byte	0x1
 5344 0af5 50       		.byte	0x50
 5345 0af6 00000000 		.4byte	0
 5346 0afa 00000000 		.4byte	0
 5347              		.section	.debug_aranges,"",%progbits
 5348 0000 C4000000 		.4byte	0xc4
 5349 0004 0200     		.2byte	0x2
 5350 0006 00000000 		.4byte	.Ldebug_info0
 5351 000a 04       		.byte	0x4
 5352 000b 00       		.byte	0
 5353 000c 0000     		.2byte	0
 5354 000e 0000     		.2byte	0
 5355 0010 00000000 		.4byte	.LFB0
 5356 0014 4C010000 		.4byte	.LFE0-.LFB0
 5357 0018 00000000 		.4byte	.LFB1
 5358 001c F0000000 		.4byte	.LFE1-.LFB1
 5359 0020 00000000 		.4byte	.LFB2
 5360 0024 78000000 		.4byte	.LFE2-.LFB2
 5361 0028 00000000 		.4byte	.LFB3
 5362 002c 90000000 		.4byte	.LFE3-.LFB3
 5363 0030 00000000 		.4byte	.LFB4
 5364 0034 5C000000 		.4byte	.LFE4-.LFB4
 5365 0038 00000000 		.4byte	.LFB5
 5366 003c 1C000000 		.4byte	.LFE5-.LFB5
 5367 0040 00000000 		.4byte	.LFB6
 5368 0044 18000000 		.4byte	.LFE6-.LFB6
 5369 0048 00000000 		.4byte	.LFB7
 5370 004c 1C000000 		.4byte	.LFE7-.LFB7
 5371 0050 00000000 		.4byte	.LFB8
 5372 0054 2C000000 		.4byte	.LFE8-.LFB8
 5373 0058 00000000 		.4byte	.LFB9
 5374 005c 64000000 		.4byte	.LFE9-.LFB9
 5375 0060 00000000 		.4byte	.LFB10
 5376 0064 2C000000 		.4byte	.LFE10-.LFB10
 5377 0068 00000000 		.4byte	.LFB11
 5378 006c 2C000000 		.4byte	.LFE11-.LFB11
 5379 0070 00000000 		.4byte	.LFB12
 5380 0074 68000000 		.4byte	.LFE12-.LFB12
 5381 0078 00000000 		.4byte	.LFB13
 5382 007c 60000000 		.4byte	.LFE13-.LFB13
 5383 0080 00000000 		.4byte	.LFB14
 5384 0084 14000000 		.4byte	.LFE14-.LFB14
 5385 0088 00000000 		.4byte	.LFB15
 5386 008c 10000000 		.4byte	.LFE15-.LFB15
ARM GAS  C:\Users\Patrick\AppData\Local\Temp\cc3Vmx0B.s 			page 126


 5387 0090 00000000 		.4byte	.LFB16
 5388 0094 10000000 		.4byte	.LFE16-.LFB16
 5389 0098 00000000 		.4byte	.LFB17
 5390 009c 0C000000 		.4byte	.LFE17-.LFB17
 5391 00a0 00000000 		.4byte	.LFB18
 5392 00a4 0C000000 		.4byte	.LFE18-.LFB18
 5393 00a8 00000000 		.4byte	.LFB19
 5394 00ac 10000000 		.4byte	.LFE19-.LFB19
 5395 00b0 00000000 		.4byte	.LFB20
 5396 00b4 88000000 		.4byte	.LFE20-.LFB20
 5397 00b8 00000000 		.4byte	.LFB21
 5398 00bc 58000000 		.4byte	.LFE21-.LFB21
 5399 00c0 00000000 		.4byte	0
 5400 00c4 00000000 		.4byte	0
 5401              		.section	.debug_ranges,"",%progbits
 5402              	.Ldebug_ranges0:
 5403 0000 00000000 		.4byte	.LBB16
 5404 0004 12000000 		.4byte	.LBE16
 5405 0008 16000000 		.4byte	.LBB20
 5406 000c BA000000 		.4byte	.LBE20
 5407 0010 BC000000 		.4byte	.LBB21
 5408 0014 C2000000 		.4byte	.LBE21
 5409 0018 00000000 		.4byte	0
 5410 001c 00000000 		.4byte	0
 5411 0020 3C000000 		.4byte	.LBB49
 5412 0024 64000000 		.4byte	.LBE49
 5413 0028 66000000 		.4byte	.LBB70
 5414 002c F0000000 		.4byte	.LBE70
 5415 0030 00000000 		.4byte	0
 5416 0034 00000000 		.4byte	0
 5417 0038 20000000 		.4byte	.LBB74
 5418 003c 22000000 		.4byte	.LBE74
 5419 0040 28000000 		.4byte	.LBB79
 5420 0044 2A000000 		.4byte	.LBE79
 5421 0048 2C000000 		.4byte	.LBB80
 5422 004c 32000000 		.4byte	.LBE80
 5423 0050 38000000 		.4byte	.LBB81
 5424 0054 3A000000 		.4byte	.LBE81
 5425 0058 00000000 		.4byte	0
 5426 005c 00000000 		.4byte	0
 5427 0060 0C000000 		.4byte	.LBB86
 5428 0064 64000000 		.4byte	.LBE86
 5429 0068 6E000000 		.4byte	.LBB97
 5430 006c 90000000 		.4byte	.LBE97
 5431 0070 00000000 		.4byte	0
 5432 0074 00000000 		.4byte	0
 5433 0078 2A000000 		.4byte	.LBB88
 5434 007c 2C000000 		.4byte	.LBE88
 5435 0080 32000000 		.4byte	.LBB93
 5436 0084 34000000 		.4byte	.LBE93
 5437 0088 36000000 		.4byte	.LBB94
 5438 008c 3C000000 		.4byte	.LBE94
 5439 0090 42000000 		.4byte	.LBB95
 5440 0094 44000000 		.4byte	.LBE95
 5441 0098 00000000 		.4byte	0
 5442 009c 00000000 		.4byte	0
 5443 00a0 00000000 		.4byte	.LBB104
ARM GAS  C:\Users\Patrick\AppData\Local\Temp\cc3Vmx0B.s 			page 127


 5444 00a4 04000000 		.4byte	.LBE104
 5445 00a8 06000000 		.4byte	.LBB108
 5446 00ac 14000000 		.4byte	.LBE108
 5447 00b0 20000000 		.4byte	.LBB109
 5448 00b4 24000000 		.4byte	.LBE109
 5449 00b8 00000000 		.4byte	0
 5450 00bc 00000000 		.4byte	0
 5451 00c0 00000000 		.4byte	.LBB116
 5452 00c4 04000000 		.4byte	.LBE116
 5453 00c8 06000000 		.4byte	.LBB120
 5454 00cc 14000000 		.4byte	.LBE120
 5455 00d0 20000000 		.4byte	.LBB121
 5456 00d4 24000000 		.4byte	.LBE121
 5457 00d8 00000000 		.4byte	0
 5458 00dc 00000000 		.4byte	0
 5459 00e0 00000000 		.4byte	.LBB124
 5460 00e4 04000000 		.4byte	.LBE124
 5461 00e8 06000000 		.4byte	.LBB128
 5462 00ec 14000000 		.4byte	.LBE128
 5463 00f0 20000000 		.4byte	.LBB129
 5464 00f4 24000000 		.4byte	.LBE129
 5465 00f8 00000000 		.4byte	0
 5466 00fc 00000000 		.4byte	0
 5467 0100 00000000 		.4byte	.LFB0
 5468 0104 4C010000 		.4byte	.LFE0
 5469 0108 00000000 		.4byte	.LFB1
 5470 010c F0000000 		.4byte	.LFE1
 5471 0110 00000000 		.4byte	.LFB2
 5472 0114 78000000 		.4byte	.LFE2
 5473 0118 00000000 		.4byte	.LFB3
 5474 011c 90000000 		.4byte	.LFE3
 5475 0120 00000000 		.4byte	.LFB4
 5476 0124 5C000000 		.4byte	.LFE4
 5477 0128 00000000 		.4byte	.LFB5
 5478 012c 1C000000 		.4byte	.LFE5
 5479 0130 00000000 		.4byte	.LFB6
 5480 0134 18000000 		.4byte	.LFE6
 5481 0138 00000000 		.4byte	.LFB7
 5482 013c 1C000000 		.4byte	.LFE7
 5483 0140 00000000 		.4byte	.LFB8
 5484 0144 2C000000 		.4byte	.LFE8
 5485 0148 00000000 		.4byte	.LFB9
 5486 014c 64000000 		.4byte	.LFE9
 5487 0150 00000000 		.4byte	.LFB10
 5488 0154 2C000000 		.4byte	.LFE10
 5489 0158 00000000 		.4byte	.LFB11
 5490 015c 2C000000 		.4byte	.LFE11
 5491 0160 00000000 		.4byte	.LFB12
 5492 0164 68000000 		.4byte	.LFE12
 5493 0168 00000000 		.4byte	.LFB13
 5494 016c 60000000 		.4byte	.LFE13
 5495 0170 00000000 		.4byte	.LFB14
 5496 0174 14000000 		.4byte	.LFE14
 5497 0178 00000000 		.4byte	.LFB15
 5498 017c 10000000 		.4byte	.LFE15
 5499 0180 00000000 		.4byte	.LFB16
 5500 0184 10000000 		.4byte	.LFE16
ARM GAS  C:\Users\Patrick\AppData\Local\Temp\cc3Vmx0B.s 			page 128


 5501 0188 00000000 		.4byte	.LFB17
 5502 018c 0C000000 		.4byte	.LFE17
 5503 0190 00000000 		.4byte	.LFB18
 5504 0194 0C000000 		.4byte	.LFE18
 5505 0198 00000000 		.4byte	.LFB19
 5506 019c 10000000 		.4byte	.LFE19
 5507 01a0 00000000 		.4byte	.LFB20
 5508 01a4 88000000 		.4byte	.LFE20
 5509 01a8 00000000 		.4byte	.LFB21
 5510 01ac 58000000 		.4byte	.LFE21
 5511 01b0 00000000 		.4byte	0
 5512 01b4 00000000 		.4byte	0
 5513              		.section	.debug_line,"",%progbits
 5514              	.Ldebug_line0:
 5515 0000 1C040000 		.section	.debug_str,"MS",%progbits,1
 5515      02005A00 
 5515      00000201 
 5515      FB0E0D00 
 5515      01010101 
 5516              	.LASF10:
 5517 0000 75696E74 		.ascii	"uint16\000"
 5517      313600
 5518              	.LASF50:
 5519 0007 72657365 		.ascii	"reset\000"
 5519      7400
 5520              	.LASF88:
 5521 000d 43794578 		.ascii	"CyExitCriticalSection\000"
 5521      69744372 
 5521      69746963 
 5521      616C5365 
 5521      6374696F 
 5522              	.LASF52:
 5523 0023 65646765 		.ascii	"edge\000"
 5523      00
 5524              	.LASF66:
 5525 0028 43414E5F 		.ascii	"CAN_1_RxTxBuffersConfig\000"
 5525      315F5278 
 5525      54784275 
 5525      66666572 
 5525      73436F6E 
 5526              	.LASF53:
 5527 0040 43414E5F 		.ascii	"CAN_1_SetIrqMask\000"
 5527      315F5365 
 5527      74497271 
 5527      4D61736B 
 5527      00
 5528              	.LASF7:
 5529 0051 6C6F6E67 		.ascii	"long long unsigned int\000"
 5529      206C6F6E 
 5529      6720756E 
 5529      7369676E 
 5529      65642069 
 5530              	.LASF29:
 5531 0068 7478636D 		.ascii	"txcmd\000"
 5531      6400
 5532              	.LASF85:
 5533 006e 43414E5F 		.ascii	"CAN_1_initVar\000"
ARM GAS  C:\Users\Patrick\AppData\Local\Temp\cc3Vmx0B.s 			page 129


 5533      315F696E 
 5533      69745661 
 5533      7200
 5534              	.LASF62:
 5535 007c 7278436F 		.ascii	"rxConfig\000"
 5535      6E666967 
 5535      00
 5536              	.LASF55:
 5537 0085 43414E5F 		.ascii	"CAN_1_Init\000"
 5537      315F496E 
 5537      697400
 5538              	.LASF34:
 5539 0090 7278616D 		.ascii	"rxamrd\000"
 5539      726400
 5540              	.LASF72:
 5541 0097 43414E5F 		.ascii	"CAN_1_RXRegisterInit\000"
 5541      315F5258 
 5541      52656769 
 5541      73746572 
 5541      496E6974 
 5542              	.LASF43:
 5543 00ac 62697472 		.ascii	"bitrate\000"
 5543      61746500 
 5544              	.LASF6:
 5545 00b4 6C6F6E67 		.ascii	"long long int\000"
 5545      206C6F6E 
 5545      6720696E 
 5545      7400
 5546              	.LASF0:
 5547 00c2 7369676E 		.ascii	"signed char\000"
 5547      65642063 
 5547      68617200 
 5548              	.LASF61:
 5549 00ce 43414E5F 		.ascii	"CAN_1_RxBufConfig\000"
 5549      315F5278 
 5549      42756643 
 5549      6F6E6669 
 5549      6700
 5550              	.LASF71:
 5551 00e0 72756E53 		.ascii	"runState\000"
 5551      74617465 
 5551      00
 5552              	.LASF67:
 5553 00e9 43414E5F 		.ascii	"CAN_1_Start\000"
 5553      315F5374 
 5553      61727400 
 5554              	.LASF69:
 5555 00f5 43414E5F 		.ascii	"CAN_1_GlobalIntDisable\000"
 5555      315F476C 
 5555      6F62616C 
 5555      496E7444 
 5555      69736162 
 5556              	.LASF79:
 5557 010c 43414E5F 		.ascii	"CAN_1_GetRXErrorCount\000"
 5557      315F4765 
 5557      74525845 
 5557      72726F72 
ARM GAS  C:\Users\Patrick\AppData\Local\Temp\cc3Vmx0B.s 			page 130


 5557      436F756E 
 5558              	.LASF4:
 5559 0122 6C6F6E67 		.ascii	"long int\000"
 5559      20696E74 
 5559      00
 5560              	.LASF70:
 5561 012b 43414E5F 		.ascii	"CAN_1_SetOpMode\000"
 5561      315F5365 
 5561      744F704D 
 5561      6F646500 
 5562              	.LASF33:
 5563 013b 72786461 		.ascii	"rxdata\000"
 5563      746100
 5564              	.LASF49:
 5565 0142 43414E5F 		.ascii	"CAN_1_SetRestartType\000"
 5565      315F5365 
 5565      74526573 
 5565      74617274 
 5565      54797065 
 5566              	.LASF16:
 5567 0157 72656731 		.ascii	"reg16\000"
 5567      3600
 5568              	.LASF9:
 5569 015d 75696E74 		.ascii	"uint8\000"
 5569      3800
 5570              	.LASF25:
 5571 0163 7278616D 		.ascii	"rxamr\000"
 5571      7200
 5572              	.LASF13:
 5573 0169 646F7562 		.ascii	"double\000"
 5573      6C6500
 5574              	.LASF11:
 5575 0170 75696E74 		.ascii	"uint32\000"
 5575      333200
 5576              	.LASF21:
 5577 0177 62797465 		.ascii	"byte\000"
 5577      00
 5578              	.LASF54:
 5579 017c 6D61736B 		.ascii	"mask\000"
 5579      00
 5580              	.LASF64:
 5581 0181 43414E5F 		.ascii	"CAN_1_TXConfigStruct\000"
 5581      315F5458 
 5581      436F6E66 
 5581      69675374 
 5581      72756374 
 5582              	.LASF8:
 5583 0196 756E7369 		.ascii	"unsigned int\000"
 5583      676E6564 
 5583      20696E74 
 5583      00
 5584              	.LASF51:
 5585 01a3 43414E5F 		.ascii	"CAN_1_SetEdgeMode\000"
 5585      315F5365 
 5585      74456467 
 5585      654D6F64 
 5585      6500
ARM GAS  C:\Users\Patrick\AppData\Local\Temp\cc3Vmx0B.s 			page 131


 5586              	.LASF59:
 5587 01b5 43414E5F 		.ascii	"CAN_1_TxBufConfig\000"
 5587      315F5478 
 5587      42756643 
 5587      6F6E6669 
 5587      6700
 5588              	.LASF5:
 5589 01c7 6C6F6E67 		.ascii	"long unsigned int\000"
 5589      20756E73 
 5589      69676E65 
 5589      6420696E 
 5589      7400
 5590              	.LASF56:
 5591 01d9 74696D65 		.ascii	"timeout\000"
 5591      6F757400 
 5592              	.LASF27:
 5593 01e1 43414E5F 		.ascii	"CAN_1_RX_CFG\000"
 5593      315F5258 
 5593      5F434647 
 5593      00
 5594              	.LASF87:
 5595 01ee 4379456E 		.ascii	"CyEnterCriticalSection\000"
 5595      74657243 
 5595      72697469 
 5595      63616C53 
 5595      65637469 
 5596              	.LASF3:
 5597 0205 73686F72 		.ascii	"short unsigned int\000"
 5597      7420756E 
 5597      7369676E 
 5597      65642069 
 5597      6E7400
 5598              	.LASF81:
 5599 0218 4379496E 		.ascii	"CyIntSetVector\000"
 5599      74536574 
 5599      56656374 
 5599      6F7200
 5600              	.LASF73:
 5601 0227 6F704D6F 		.ascii	"opMode\000"
 5601      646500
 5602              	.LASF39:
 5603 022e 43414E5F 		.ascii	"CAN_1_GlobalIntEnable\000"
 5603      315F476C 
 5603      6F62616C 
 5603      496E7445 
 5603      6E61626C 
 5604              	.LASF37:
 5605 0244 74786461 		.ascii	"txdata\000"
 5605      746100
 5606              	.LASF22:
 5607 024b 43414E5F 		.ascii	"CAN_1_REG_32\000"
 5607      315F5245 
 5607      475F3332 
 5607      00
 5608              	.LASF80:
 5609 0258 43414E5F 		.ascii	"CAN_1_GetErrorState\000"
 5609      315F4765 
ARM GAS  C:\Users\Patrick\AppData\Local\Temp\cc3Vmx0B.s 			page 132


 5609      74457272 
 5609      6F725374 
 5609      61746500 
 5610              	.LASF17:
 5611 026c 72656733 		.ascii	"reg32\000"
 5611      3200
 5612              	.LASF74:
 5613 0272 72656741 		.ascii	"regAddr\000"
 5613      64647200 
 5614              	.LASF48:
 5615 027a 63666754 		.ascii	"cfgTemp\000"
 5615      656D7000 
 5616              	.LASF23:
 5617 0282 72786D61 		.ascii	"rxmailbox\000"
 5617      696C626F 
 5617      7800
 5618              	.LASF19:
 5619 028c 73697A65 		.ascii	"sizetype\000"
 5619      74797065 
 5619      00
 5620              	.LASF40:
 5621 0295 43414E5F 		.ascii	"CAN_1_SetPreScaler\000"
 5621      315F5365 
 5621      74507265 
 5621      5363616C 
 5621      657200
 5622              	.LASF20:
 5623 02a8 43414E5F 		.ascii	"CAN_1_DATA_BYTES\000"
 5623      315F4441 
 5623      54415F42 
 5623      59544553 
 5623      00
 5624              	.LASF36:
 5625 02b9 43414E5F 		.ascii	"CAN_1_RX_STRUCT\000"
 5625      315F5258 
 5625      5F535452 
 5625      55435400 
 5626              	.LASF32:
 5627 02c9 72786964 		.ascii	"rxid\000"
 5627      00
 5628              	.LASF86:
 5629 02ce 4379496E 		.ascii	"CyIntSetPriority\000"
 5629      74536574 
 5629      5072696F 
 5629      72697479 
 5629      00
 5630              	.LASF12:
 5631 02df 666C6F61 		.ascii	"float\000"
 5631      7400
 5632              	.LASF78:
 5633 02e5 43414E5F 		.ascii	"CAN_1_GetTXErrorCount\000"
 5633      315F4765 
 5633      74545845 
 5633      72726F72 
 5633      436F756E 
 5634              	.LASF63:
 5635 02fb 43414E5F 		.ascii	"CAN_1_RXConfigStruct\000"
ARM GAS  C:\Users\Patrick\AppData\Local\Temp\cc3Vmx0B.s 			page 133


 5635      315F5258 
 5635      436F6E66 
 5635      69675374 
 5635      72756374 
 5636              	.LASF15:
 5637 0310 72656738 		.ascii	"reg8\000"
 5637      00
 5638              	.LASF65:
 5639 0315 43414E5F 		.ascii	"CAN_1_Enable\000"
 5639      315F456E 
 5639      61626C65 
 5639      00
 5640              	.LASF1:
 5641 0322 756E7369 		.ascii	"unsigned char\000"
 5641      676E6564 
 5641      20636861 
 5641      7200
 5642              	.LASF2:
 5643 0330 73686F72 		.ascii	"short int\000"
 5643      7420696E 
 5643      7400
 5644              	.LASF68:
 5645 033a 43414E5F 		.ascii	"CAN_1_Stop\000"
 5645      315F5374 
 5645      6F7000
 5646              	.LASF14:
 5647 0345 63686172 		.ascii	"char\000"
 5647      00
 5648              	.LASF18:
 5649 034a 63796973 		.ascii	"cyisraddress\000"
 5649      72616464 
 5649      72657373 
 5649      00
 5650              	.LASF45:
 5651 0357 43414E5F 		.ascii	"CAN_1_SetTsegSample\000"
 5651      315F5365 
 5651      74547365 
 5651      6753616D 
 5651      706C6500 
 5652              	.LASF75:
 5653 036b 636F6E66 		.ascii	"config\000"
 5653      696700
 5654              	.LASF84:
 5655 0372 433A5C55 		.ascii	"C:\\Users\\Patrick\\Documents\\GitHub\\PSoC 5LP FIl"
 5655      73657273 
 5655      5C506174 
 5655      7269636B 
 5655      5C446F63 
 5656 03a0 65735C43 		.ascii	"es\\C-CAN_PSoC_DevKit\\C-CAN.cydsn\000"
 5656      2D43414E 
 5656      5F50536F 
 5656      435F4465 
 5656      764B6974 
 5657              	.LASF57:
 5658 03c1 6C6F6361 		.ascii	"localResult\000"
 5658      6C526573 
 5658      756C7400 
ARM GAS  C:\Users\Patrick\AppData\Local\Temp\cc3Vmx0B.s 			page 134


 5659              	.LASF28:
 5660 03cd 74786D61 		.ascii	"txmailbox\000"
 5660      696C626F 
 5660      7800
 5661              	.LASF46:
 5662 03d7 63666754 		.ascii	"cfgTseg1\000"
 5662      73656731 
 5662      00
 5663              	.LASF47:
 5664 03e0 63666754 		.ascii	"cfgTseg2\000"
 5664      73656732 
 5664      00
 5665              	.LASF83:
 5666 03e9 2E5C4765 		.ascii	".\\Generated_Source\\PSoC5\\CAN_1.c\000"
 5666      6E657261 
 5666      7465645F 
 5666      536F7572 
 5666      63655C50 
 5667              	.LASF38:
 5668 040a 43414E5F 		.ascii	"CAN_1_TX_STRUCT\000"
 5668      315F5458 
 5668      5F535452 
 5668      55435400 
 5669              	.LASF24:
 5670 041a 7278636D 		.ascii	"rxcmd\000"
 5670      6400
 5671              	.LASF60:
 5672 0420 7478436F 		.ascii	"txConfig\000"
 5672      6E666967 
 5672      00
 5673              	.LASF42:
 5674 0429 43414E5F 		.ascii	"CAN_1_SetArbiter\000"
 5674      315F5365 
 5674      74417262 
 5674      69746572 
 5674      00
 5675              	.LASF58:
 5676 043a 656E6162 		.ascii	"enableInterrupts\000"
 5676      6C65496E 
 5676      74657272 
 5676      75707473 
 5676      00
 5677              	.LASF30:
 5678 044b 74786964 		.ascii	"txid\000"
 5678      00
 5679              	.LASF76:
 5680 0450 43414E5F 		.ascii	"CAN_1_GetTXErrorFlag\000"
 5680      315F4765 
 5680      74545845 
 5680      72726F72 
 5680      466C6167 
 5681              	.LASF26:
 5682 0465 72786163 		.ascii	"rxacr\000"
 5682      7200
 5683              	.LASF31:
 5684 046b 43414E5F 		.ascii	"CAN_1_TX_CFG\000"
 5684      315F5458 
ARM GAS  C:\Users\Patrick\AppData\Local\Temp\cc3Vmx0B.s 			page 135


 5684      5F434647 
 5684      00
 5685              	.LASF44:
 5686 0478 61726269 		.ascii	"arbiter\000"
 5686      74657200 
 5687              	.LASF35:
 5688 0480 72786163 		.ascii	"rxacrd\000"
 5688      726400
 5689              	.LASF82:
 5690 0487 474E5520 		.ascii	"GNU C 4.9.3 20150303 (release) [ARM/embedded-4_9-br"
 5690      4320342E 
 5690      392E3320 
 5690      32303135 
 5690      30333033 
 5691 04ba 616E6368 		.ascii	"anch revision 221220] -mcpu=cortex-m3 -mthumb -g -O"
 5691      20726576 
 5691      6973696F 
 5691      6E203232 
 5691      31323230 
 5692 04ed 33202D66 		.ascii	"3 -ffunction-sections -ffat-lto-objects\000"
 5692      66756E63 
 5692      74696F6E 
 5692      2D736563 
 5692      74696F6E 
 5693              	.LASF41:
 5694 0515 72657375 		.ascii	"result\000"
 5694      6C7400
 5695              	.LASF77:
 5696 051c 43414E5F 		.ascii	"CAN_1_GetRXErrorFlag\000"
 5696      315F4765 
 5696      74525845 
 5696      72726F72 
 5696      466C6167 
 5697              		.ident	"GCC: (GNU Tools for ARM Embedded Processors) 4.9.3 20150303 (release) [ARM/embedded-4_9-br
