ARM GAS  C:\Users\Patrick\AppData\Local\Temp\ccTrP4AE.s 			page 1


   1              		.syntax unified
   2              		.cpu cortex-m3
   3              		.fpu softvfp
   4              		.eabi_attribute 20, 1
   5              		.eabi_attribute 21, 1
   6              		.eabi_attribute 23, 3
   7              		.eabi_attribute 24, 1
   8              		.eabi_attribute 25, 1
   9              		.eabi_attribute 26, 1
  10              		.eabi_attribute 30, 6
  11              		.eabi_attribute 34, 1
  12              		.eabi_attribute 18, 4
  13              		.thumb
  14              		.file	"cyfitter_cfg.c"
  15              		.text
  16              	.Ltext0:
  17              		.cfi_sections	.debug_frame
  18              		.section	.text.CYMEMZERO,"ax",%progbits
  19              		.align	2
  20              		.thumb
  21              		.thumb_func
  22              		.type	CYMEMZERO, %function
  23              	CYMEMZERO:
  24              	.LFB0:
  25              		.file 1 ".\\Generated_Source\\PSoC5\\cyfitter_cfg.c"
   1:.\Generated_Source\PSoC5/cyfitter_cfg.c **** /*******************************************************************************
   2:.\Generated_Source\PSoC5/cyfitter_cfg.c **** * File Name: cyfitter_cfg.c
   3:.\Generated_Source\PSoC5/cyfitter_cfg.c **** * 
   4:.\Generated_Source\PSoC5/cyfitter_cfg.c **** * PSoC Creator  3.3 CP3
   5:.\Generated_Source\PSoC5/cyfitter_cfg.c **** *
   6:.\Generated_Source\PSoC5/cyfitter_cfg.c **** * Description:
   7:.\Generated_Source\PSoC5/cyfitter_cfg.c **** * This file contains device initialization code.
   8:.\Generated_Source\PSoC5/cyfitter_cfg.c **** * Except for the user defined sections in CyClockStartupError(), this file should not be modified.
   9:.\Generated_Source\PSoC5/cyfitter_cfg.c **** * This file is automatically generated by PSoC Creator.
  10:.\Generated_Source\PSoC5/cyfitter_cfg.c **** *
  11:.\Generated_Source\PSoC5/cyfitter_cfg.c **** ********************************************************************************
  12:.\Generated_Source\PSoC5/cyfitter_cfg.c **** * Copyright (c) 2007-2016 Cypress Semiconductor.  All rights reserved.
  13:.\Generated_Source\PSoC5/cyfitter_cfg.c **** * You may use this file only in accordance with the license, terms, conditions, 
  14:.\Generated_Source\PSoC5/cyfitter_cfg.c **** * disclaimers, and limitations in the end user license agreement accompanying 
  15:.\Generated_Source\PSoC5/cyfitter_cfg.c **** * the software package with which this file was provided.
  16:.\Generated_Source\PSoC5/cyfitter_cfg.c **** ********************************************************************************/
  17:.\Generated_Source\PSoC5/cyfitter_cfg.c **** 
  18:.\Generated_Source\PSoC5/cyfitter_cfg.c **** #include <string.h>
  19:.\Generated_Source\PSoC5/cyfitter_cfg.c **** #include "cytypes.h"
  20:.\Generated_Source\PSoC5/cyfitter_cfg.c **** #include "cydevice_trm.h"
  21:.\Generated_Source\PSoC5/cyfitter_cfg.c **** #include "cyfitter.h"
  22:.\Generated_Source\PSoC5/cyfitter_cfg.c **** #include "CyLib.h"
  23:.\Generated_Source\PSoC5/cyfitter_cfg.c **** #include "cyfitter_cfg.h"
  24:.\Generated_Source\PSoC5/cyfitter_cfg.c **** 
  25:.\Generated_Source\PSoC5/cyfitter_cfg.c **** #define CY_NEED_CYCLOCKSTARTUPERROR 1
  26:.\Generated_Source\PSoC5/cyfitter_cfg.c **** 
  27:.\Generated_Source\PSoC5/cyfitter_cfg.c **** 
  28:.\Generated_Source\PSoC5/cyfitter_cfg.c **** #if defined(__GNUC__) || defined(__ARMCC_VERSION)
  29:.\Generated_Source\PSoC5/cyfitter_cfg.c ****     #define CYPACKED 
  30:.\Generated_Source\PSoC5/cyfitter_cfg.c ****     #define CYPACKED_ATTR __attribute__ ((packed))
  31:.\Generated_Source\PSoC5/cyfitter_cfg.c ****     #define CYALIGNED __attribute__ ((aligned))
  32:.\Generated_Source\PSoC5/cyfitter_cfg.c ****     #define CY_CFG_UNUSED __attribute__ ((unused))
ARM GAS  C:\Users\Patrick\AppData\Local\Temp\ccTrP4AE.s 			page 2


  33:.\Generated_Source\PSoC5/cyfitter_cfg.c ****     #ifndef CY_CFG_SECTION
  34:.\Generated_Source\PSoC5/cyfitter_cfg.c ****         #define CY_CFG_SECTION __attribute__ ((section(".psocinit")))
  35:.\Generated_Source\PSoC5/cyfitter_cfg.c ****     #endif
  36:.\Generated_Source\PSoC5/cyfitter_cfg.c ****     
  37:.\Generated_Source\PSoC5/cyfitter_cfg.c ****     #if defined(__ARMCC_VERSION)
  38:.\Generated_Source\PSoC5/cyfitter_cfg.c ****         #define CY_CFG_MEMORY_BARRIER() __memory_changed()
  39:.\Generated_Source\PSoC5/cyfitter_cfg.c ****     #else
  40:.\Generated_Source\PSoC5/cyfitter_cfg.c ****         #define CY_CFG_MEMORY_BARRIER() __sync_synchronize()
  41:.\Generated_Source\PSoC5/cyfitter_cfg.c ****     #endif
  42:.\Generated_Source\PSoC5/cyfitter_cfg.c ****     
  43:.\Generated_Source\PSoC5/cyfitter_cfg.c **** #elif defined(__ICCARM__)
  44:.\Generated_Source\PSoC5/cyfitter_cfg.c ****     #include <intrinsics.h>
  45:.\Generated_Source\PSoC5/cyfitter_cfg.c **** 
  46:.\Generated_Source\PSoC5/cyfitter_cfg.c ****     #define CYPACKED __packed
  47:.\Generated_Source\PSoC5/cyfitter_cfg.c ****     #define CYPACKED_ATTR 
  48:.\Generated_Source\PSoC5/cyfitter_cfg.c ****     #define CYALIGNED _Pragma("data_alignment=4")
  49:.\Generated_Source\PSoC5/cyfitter_cfg.c ****     #define CY_CFG_UNUSED _Pragma("diag_suppress=Pe177")
  50:.\Generated_Source\PSoC5/cyfitter_cfg.c ****     #define CY_CFG_SECTION _Pragma("location=\".psocinit\"")
  51:.\Generated_Source\PSoC5/cyfitter_cfg.c ****     
  52:.\Generated_Source\PSoC5/cyfitter_cfg.c ****     #define CY_CFG_MEMORY_BARRIER() __DMB()
  53:.\Generated_Source\PSoC5/cyfitter_cfg.c ****     
  54:.\Generated_Source\PSoC5/cyfitter_cfg.c **** #else
  55:.\Generated_Source\PSoC5/cyfitter_cfg.c ****     #error Unsupported toolchain
  56:.\Generated_Source\PSoC5/cyfitter_cfg.c **** #endif
  57:.\Generated_Source\PSoC5/cyfitter_cfg.c **** 
  58:.\Generated_Source\PSoC5/cyfitter_cfg.c **** 
  59:.\Generated_Source\PSoC5/cyfitter_cfg.c **** CY_CFG_UNUSED
  60:.\Generated_Source\PSoC5/cyfitter_cfg.c **** static void CYMEMZERO(void *s, size_t n);
  61:.\Generated_Source\PSoC5/cyfitter_cfg.c **** CY_CFG_UNUSED
  62:.\Generated_Source\PSoC5/cyfitter_cfg.c **** static void CYMEMZERO(void *s, size_t n)
  63:.\Generated_Source\PSoC5/cyfitter_cfg.c **** {
  26              		.loc 1 63 0
  27              		.cfi_startproc
  28              		@ args = 0, pretend = 0, frame = 8
  29              		@ frame_needed = 1, uses_anonymous_args = 0
  30 0000 80B5     		push	{r7, lr}
  31              		.cfi_def_cfa_offset 8
  32              		.cfi_offset 7, -8
  33              		.cfi_offset 14, -4
  34 0002 82B0     		sub	sp, sp, #8
  35              		.cfi_def_cfa_offset 16
  36 0004 00AF     		add	r7, sp, #0
  37              		.cfi_def_cfa_register 7
  38 0006 7860     		str	r0, [r7, #4]
  39 0008 3960     		str	r1, [r7]
  64:.\Generated_Source\PSoC5/cyfitter_cfg.c **** 	(void)memset(s, 0, n);
  40              		.loc 1 64 0
  41 000a 7868     		ldr	r0, [r7, #4]
  42 000c 0021     		movs	r1, #0
  43 000e 3A68     		ldr	r2, [r7]
  44 0010 FFF7FEFF 		bl	memset
  65:.\Generated_Source\PSoC5/cyfitter_cfg.c **** }
  45              		.loc 1 65 0
  46 0014 0837     		adds	r7, r7, #8
  47              		.cfi_def_cfa_offset 8
  48 0016 BD46     		mov	sp, r7
  49              		.cfi_def_cfa_register 13
ARM GAS  C:\Users\Patrick\AppData\Local\Temp\ccTrP4AE.s 			page 3


  50              		@ sp needed
  51 0018 80BD     		pop	{r7, pc}
  52              		.cfi_endproc
  53              	.LFE0:
  54              		.size	CYMEMZERO, .-CYMEMZERO
  55 001a 00BF     		.section	.text.CYCONFIGCPY,"ax",%progbits
  56              		.align	2
  57              		.thumb
  58              		.thumb_func
  59              		.type	CYCONFIGCPY, %function
  60              	CYCONFIGCPY:
  61              	.LFB1:
  66:.\Generated_Source\PSoC5/cyfitter_cfg.c **** CY_CFG_UNUSED
  67:.\Generated_Source\PSoC5/cyfitter_cfg.c **** static void CYCONFIGCPY(void *dest, const void *src, size_t n);
  68:.\Generated_Source\PSoC5/cyfitter_cfg.c **** CY_CFG_UNUSED
  69:.\Generated_Source\PSoC5/cyfitter_cfg.c **** static void CYCONFIGCPY(void *dest, const void *src, size_t n)
  70:.\Generated_Source\PSoC5/cyfitter_cfg.c **** {
  62              		.loc 1 70 0
  63              		.cfi_startproc
  64              		@ args = 0, pretend = 0, frame = 16
  65              		@ frame_needed = 1, uses_anonymous_args = 0
  66 0000 80B5     		push	{r7, lr}
  67              		.cfi_def_cfa_offset 8
  68              		.cfi_offset 7, -8
  69              		.cfi_offset 14, -4
  70 0002 84B0     		sub	sp, sp, #16
  71              		.cfi_def_cfa_offset 24
  72 0004 00AF     		add	r7, sp, #0
  73              		.cfi_def_cfa_register 7
  74 0006 F860     		str	r0, [r7, #12]
  75 0008 B960     		str	r1, [r7, #8]
  76 000a 7A60     		str	r2, [r7, #4]
  71:.\Generated_Source\PSoC5/cyfitter_cfg.c **** 	(void)memcpy(dest, src, n);
  77              		.loc 1 71 0
  78 000c F868     		ldr	r0, [r7, #12]
  79 000e B968     		ldr	r1, [r7, #8]
  80 0010 7A68     		ldr	r2, [r7, #4]
  81 0012 FFF7FEFF 		bl	memcpy
  72:.\Generated_Source\PSoC5/cyfitter_cfg.c **** }
  82              		.loc 1 72 0
  83 0016 1037     		adds	r7, r7, #16
  84              		.cfi_def_cfa_offset 8
  85 0018 BD46     		mov	sp, r7
  86              		.cfi_def_cfa_register 13
  87              		@ sp needed
  88 001a 80BD     		pop	{r7, pc}
  89              		.cfi_endproc
  90              	.LFE1:
  91              		.size	CYCONFIGCPY, .-CYCONFIGCPY
  92              		.section	.text.CYCONFIGCPYCODE,"ax",%progbits
  93              		.align	2
  94              		.thumb
  95              		.thumb_func
  96              		.type	CYCONFIGCPYCODE, %function
  97              	CYCONFIGCPYCODE:
  98              	.LFB2:
  73:.\Generated_Source\PSoC5/cyfitter_cfg.c **** CY_CFG_UNUSED
ARM GAS  C:\Users\Patrick\AppData\Local\Temp\ccTrP4AE.s 			page 4


  74:.\Generated_Source\PSoC5/cyfitter_cfg.c **** static void CYCONFIGCPYCODE(void *dest, const void *src, size_t n);
  75:.\Generated_Source\PSoC5/cyfitter_cfg.c **** CY_CFG_UNUSED
  76:.\Generated_Source\PSoC5/cyfitter_cfg.c **** static void CYCONFIGCPYCODE(void *dest, const void *src, size_t n)
  77:.\Generated_Source\PSoC5/cyfitter_cfg.c **** {
  99              		.loc 1 77 0
 100              		.cfi_startproc
 101              		@ args = 0, pretend = 0, frame = 16
 102              		@ frame_needed = 1, uses_anonymous_args = 0
 103 0000 80B5     		push	{r7, lr}
 104              		.cfi_def_cfa_offset 8
 105              		.cfi_offset 7, -8
 106              		.cfi_offset 14, -4
 107 0002 84B0     		sub	sp, sp, #16
 108              		.cfi_def_cfa_offset 24
 109 0004 00AF     		add	r7, sp, #0
 110              		.cfi_def_cfa_register 7
 111 0006 F860     		str	r0, [r7, #12]
 112 0008 B960     		str	r1, [r7, #8]
 113 000a 7A60     		str	r2, [r7, #4]
  78:.\Generated_Source\PSoC5/cyfitter_cfg.c **** 	(void)memcpy(dest, src, n);
 114              		.loc 1 78 0
 115 000c F868     		ldr	r0, [r7, #12]
 116 000e B968     		ldr	r1, [r7, #8]
 117 0010 7A68     		ldr	r2, [r7, #4]
 118 0012 FFF7FEFF 		bl	memcpy
  79:.\Generated_Source\PSoC5/cyfitter_cfg.c **** }
 119              		.loc 1 79 0
 120 0016 1037     		adds	r7, r7, #16
 121              		.cfi_def_cfa_offset 8
 122 0018 BD46     		mov	sp, r7
 123              		.cfi_def_cfa_register 13
 124              		@ sp needed
 125 001a 80BD     		pop	{r7, pc}
 126              		.cfi_endproc
 127              	.LFE2:
 128              		.size	CYCONFIGCPYCODE, .-CYCONFIGCPYCODE
 129              		.section	.text.CyClockStartupError,"ax",%progbits
 130              		.align	2
 131              		.thumb
 132              		.thumb_func
 133              		.type	CyClockStartupError, %function
 134              	CyClockStartupError:
 135              	.LFB3:
  80:.\Generated_Source\PSoC5/cyfitter_cfg.c **** 
  81:.\Generated_Source\PSoC5/cyfitter_cfg.c **** 
  82:.\Generated_Source\PSoC5/cyfitter_cfg.c **** 
  83:.\Generated_Source\PSoC5/cyfitter_cfg.c **** /* Clock startup error codes                                                   */
  84:.\Generated_Source\PSoC5/cyfitter_cfg.c **** #define CYCLOCKSTART_NO_ERROR    0u
  85:.\Generated_Source\PSoC5/cyfitter_cfg.c **** #define CYCLOCKSTART_XTAL_ERROR  1u
  86:.\Generated_Source\PSoC5/cyfitter_cfg.c **** #define CYCLOCKSTART_32KHZ_ERROR 2u
  87:.\Generated_Source\PSoC5/cyfitter_cfg.c **** #define CYCLOCKSTART_PLL_ERROR   3u
  88:.\Generated_Source\PSoC5/cyfitter_cfg.c **** 
  89:.\Generated_Source\PSoC5/cyfitter_cfg.c **** #ifdef CY_NEED_CYCLOCKSTARTUPERROR
  90:.\Generated_Source\PSoC5/cyfitter_cfg.c **** /*******************************************************************************
  91:.\Generated_Source\PSoC5/cyfitter_cfg.c **** * Function Name: CyClockStartupError
  92:.\Generated_Source\PSoC5/cyfitter_cfg.c **** ********************************************************************************
  93:.\Generated_Source\PSoC5/cyfitter_cfg.c **** * Summary:
ARM GAS  C:\Users\Patrick\AppData\Local\Temp\ccTrP4AE.s 			page 5


  94:.\Generated_Source\PSoC5/cyfitter_cfg.c **** *  If an error is encountered during clock configuration (crystal startup error,
  95:.\Generated_Source\PSoC5/cyfitter_cfg.c **** *  PLL lock error, etc.), the system will end up here.  Unless reimplemented by
  96:.\Generated_Source\PSoC5/cyfitter_cfg.c **** *  the customer, this function will stop in an infinite loop.
  97:.\Generated_Source\PSoC5/cyfitter_cfg.c **** *
  98:.\Generated_Source\PSoC5/cyfitter_cfg.c **** * Parameters:
  99:.\Generated_Source\PSoC5/cyfitter_cfg.c **** *   void
 100:.\Generated_Source\PSoC5/cyfitter_cfg.c **** *
 101:.\Generated_Source\PSoC5/cyfitter_cfg.c **** * Return:
 102:.\Generated_Source\PSoC5/cyfitter_cfg.c **** *   void
 103:.\Generated_Source\PSoC5/cyfitter_cfg.c **** *
 104:.\Generated_Source\PSoC5/cyfitter_cfg.c **** *******************************************************************************/
 105:.\Generated_Source\PSoC5/cyfitter_cfg.c **** CY_CFG_UNUSED
 106:.\Generated_Source\PSoC5/cyfitter_cfg.c **** static void CyClockStartupError(uint8 errorCode);
 107:.\Generated_Source\PSoC5/cyfitter_cfg.c **** CY_CFG_UNUSED
 108:.\Generated_Source\PSoC5/cyfitter_cfg.c **** static void CyClockStartupError(uint8 errorCode)
 109:.\Generated_Source\PSoC5/cyfitter_cfg.c **** {
 136              		.loc 1 109 0
 137              		.cfi_startproc
 138              		@ args = 0, pretend = 0, frame = 8
 139              		@ frame_needed = 1, uses_anonymous_args = 0
 140              		@ link register save eliminated.
 141 0000 80B4     		push	{r7}
 142              		.cfi_def_cfa_offset 4
 143              		.cfi_offset 7, -4
 144 0002 83B0     		sub	sp, sp, #12
 145              		.cfi_def_cfa_offset 16
 146 0004 00AF     		add	r7, sp, #0
 147              		.cfi_def_cfa_register 7
 148 0006 0346     		mov	r3, r0
 149 0008 FB71     		strb	r3, [r7, #7]
 150              	.L5:
 110:.\Generated_Source\PSoC5/cyfitter_cfg.c ****     /* To remove the compiler warning if errorCode not used.                */
 111:.\Generated_Source\PSoC5/cyfitter_cfg.c ****     errorCode = errorCode;
 112:.\Generated_Source\PSoC5/cyfitter_cfg.c **** 
 113:.\Generated_Source\PSoC5/cyfitter_cfg.c ****     /* `#START CyClockStartupError` */
 114:.\Generated_Source\PSoC5/cyfitter_cfg.c **** 
 115:.\Generated_Source\PSoC5/cyfitter_cfg.c ****     /* If we have a clock startup error (bad MHz crystal, PLL lock, etc.),  */
 116:.\Generated_Source\PSoC5/cyfitter_cfg.c ****     /* we will end up here to allow the customer to implement something to  */
 117:.\Generated_Source\PSoC5/cyfitter_cfg.c ****     /* deal with the clock condition.                                       */
 118:.\Generated_Source\PSoC5/cyfitter_cfg.c **** 
 119:.\Generated_Source\PSoC5/cyfitter_cfg.c ****     /* `#END` */
 120:.\Generated_Source\PSoC5/cyfitter_cfg.c **** 
 121:.\Generated_Source\PSoC5/cyfitter_cfg.c ****     /* If nothing else, stop here since the clocks have not started         */
 122:.\Generated_Source\PSoC5/cyfitter_cfg.c ****     /* correctly.                                                           */
 123:.\Generated_Source\PSoC5/cyfitter_cfg.c ****     while(1) {}
 151              		.loc 1 123 0 discriminator 1
 152 000a FEE7     		b	.L5
 153              		.cfi_endproc
 154              	.LFE3:
 155              		.size	CyClockStartupError, .-CyClockStartupError
 156              		.section	.text.cfg_write_bytes32,"ax",%progbits
 157              		.align	2
 158              		.thumb
 159              		.thumb_func
 160              		.type	cfg_write_bytes32, %function
 161              	cfg_write_bytes32:
 162              	.LFB4:
ARM GAS  C:\Users\Patrick\AppData\Local\Temp\ccTrP4AE.s 			page 6


 124:.\Generated_Source\PSoC5/cyfitter_cfg.c **** }
 125:.\Generated_Source\PSoC5/cyfitter_cfg.c **** #endif
 126:.\Generated_Source\PSoC5/cyfitter_cfg.c **** 
 127:.\Generated_Source\PSoC5/cyfitter_cfg.c **** #define CY_CFG_BASE_ADDR_COUNT 33u
 128:.\Generated_Source\PSoC5/cyfitter_cfg.c **** CYPACKED typedef struct
 129:.\Generated_Source\PSoC5/cyfitter_cfg.c **** {
 130:.\Generated_Source\PSoC5/cyfitter_cfg.c **** 	uint8 offset;
 131:.\Generated_Source\PSoC5/cyfitter_cfg.c **** 	uint8 value;
 132:.\Generated_Source\PSoC5/cyfitter_cfg.c **** } CYPACKED_ATTR cy_cfg_addrvalue_t;
 133:.\Generated_Source\PSoC5/cyfitter_cfg.c **** 
 134:.\Generated_Source\PSoC5/cyfitter_cfg.c **** #define cy_cfg_addr_table ((const uint32 CYFAR *)0x48000000u)
 135:.\Generated_Source\PSoC5/cyfitter_cfg.c **** #define cy_cfg_data_table ((const cy_cfg_addrvalue_t CYFAR *)0x48000084u)
 136:.\Generated_Source\PSoC5/cyfitter_cfg.c **** 
 137:.\Generated_Source\PSoC5/cyfitter_cfg.c **** /* UDB_0_1_0_CONFIG Address: CYDEV_UCFG_B1_P4_U1_BASE Size (bytes): 128 */
 138:.\Generated_Source\PSoC5/cyfitter_cfg.c **** #define BS_UDB_0_1_0_CONFIG_VAL ((const uint8 CYFAR *)0x480006C4u)
 139:.\Generated_Source\PSoC5/cyfitter_cfg.c **** 
 140:.\Generated_Source\PSoC5/cyfitter_cfg.c **** /* UDB_0_0_0_CONFIG Address: CYDEV_UCFG_B1_P5_U0_BASE Size (bytes): 128 */
 141:.\Generated_Source\PSoC5/cyfitter_cfg.c **** #define BS_UDB_0_0_0_CONFIG_VAL ((const uint8 CYFAR *)0x48000744u)
 142:.\Generated_Source\PSoC5/cyfitter_cfg.c **** 
 143:.\Generated_Source\PSoC5/cyfitter_cfg.c **** /* IOPINS0_0 Address: CYREG_PRT0_DM0 Size (bytes): 8 */
 144:.\Generated_Source\PSoC5/cyfitter_cfg.c **** #define BS_IOPINS0_0_VAL ((const uint8 CYFAR *)0x480007C4u)
 145:.\Generated_Source\PSoC5/cyfitter_cfg.c **** 
 146:.\Generated_Source\PSoC5/cyfitter_cfg.c **** /* IOPINS0_7 Address: CYREG_PRT12_DR Size (bytes): 10 */
 147:.\Generated_Source\PSoC5/cyfitter_cfg.c **** #define BS_IOPINS0_7_VAL ((const uint8 CYFAR *)0x480007CCu)
 148:.\Generated_Source\PSoC5/cyfitter_cfg.c **** 
 149:.\Generated_Source\PSoC5/cyfitter_cfg.c **** /* IOPINS0_1 Address: CYREG_PRT1_DR Size (bytes): 10 */
 150:.\Generated_Source\PSoC5/cyfitter_cfg.c **** #define BS_IOPINS0_1_VAL ((const uint8 CYFAR *)0x480007D8u)
 151:.\Generated_Source\PSoC5/cyfitter_cfg.c **** 
 152:.\Generated_Source\PSoC5/cyfitter_cfg.c **** /* IOPINS0_3 Address: CYREG_PRT3_DM0 Size (bytes): 8 */
 153:.\Generated_Source\PSoC5/cyfitter_cfg.c **** #define BS_IOPINS0_3_VAL ((const uint8 CYFAR *)0x480007E4u)
 154:.\Generated_Source\PSoC5/cyfitter_cfg.c **** 
 155:.\Generated_Source\PSoC5/cyfitter_cfg.c **** 
 156:.\Generated_Source\PSoC5/cyfitter_cfg.c **** /*******************************************************************************
 157:.\Generated_Source\PSoC5/cyfitter_cfg.c **** * Function Name: cfg_write_bytes32
 158:.\Generated_Source\PSoC5/cyfitter_cfg.c **** ********************************************************************************
 159:.\Generated_Source\PSoC5/cyfitter_cfg.c **** * Summary:
 160:.\Generated_Source\PSoC5/cyfitter_cfg.c **** *  This function is used for setting up the chip configuration areas that
 161:.\Generated_Source\PSoC5/cyfitter_cfg.c **** *  contain relatively sparse data.
 162:.\Generated_Source\PSoC5/cyfitter_cfg.c **** *
 163:.\Generated_Source\PSoC5/cyfitter_cfg.c **** * Parameters:
 164:.\Generated_Source\PSoC5/cyfitter_cfg.c **** *   void
 165:.\Generated_Source\PSoC5/cyfitter_cfg.c **** *
 166:.\Generated_Source\PSoC5/cyfitter_cfg.c **** * Return:
 167:.\Generated_Source\PSoC5/cyfitter_cfg.c **** *   void
 168:.\Generated_Source\PSoC5/cyfitter_cfg.c **** *
 169:.\Generated_Source\PSoC5/cyfitter_cfg.c **** *******************************************************************************/
 170:.\Generated_Source\PSoC5/cyfitter_cfg.c **** static void cfg_write_bytes32(const uint32 addr_table[], const cy_cfg_addrvalue_t data_table[]);
 171:.\Generated_Source\PSoC5/cyfitter_cfg.c **** static void cfg_write_bytes32(const uint32 addr_table[], const cy_cfg_addrvalue_t data_table[])
 172:.\Generated_Source\PSoC5/cyfitter_cfg.c **** {
 163              		.loc 1 172 0
 164              		.cfi_startproc
 165              		@ args = 0, pretend = 0, frame = 24
 166              		@ frame_needed = 1, uses_anonymous_args = 0
 167              		@ link register save eliminated.
 168 0000 80B4     		push	{r7}
 169              		.cfi_def_cfa_offset 4
 170              		.cfi_offset 7, -4
ARM GAS  C:\Users\Patrick\AppData\Local\Temp\ccTrP4AE.s 			page 7


 171 0002 87B0     		sub	sp, sp, #28
 172              		.cfi_def_cfa_offset 32
 173 0004 00AF     		add	r7, sp, #0
 174              		.cfi_def_cfa_register 7
 175 0006 7860     		str	r0, [r7, #4]
 176 0008 3960     		str	r1, [r7]
 173:.\Generated_Source\PSoC5/cyfitter_cfg.c **** 	/* For 32-bit little-endian architectures */
 174:.\Generated_Source\PSoC5/cyfitter_cfg.c **** 	uint32 i, j = 0u;
 177              		.loc 1 174 0
 178 000a 0023     		movs	r3, #0
 179 000c 3B61     		str	r3, [r7, #16]
 175:.\Generated_Source\PSoC5/cyfitter_cfg.c **** 	for (i = 0u; i < CY_CFG_BASE_ADDR_COUNT; i++)
 180              		.loc 1 175 0
 181 000e 0023     		movs	r3, #0
 182 0010 7B61     		str	r3, [r7, #20]
 183 0012 27E0     		b	.L7
 184              	.L10:
 185              	.LBB2:
 176:.\Generated_Source\PSoC5/cyfitter_cfg.c **** 	{
 177:.\Generated_Source\PSoC5/cyfitter_cfg.c **** 		uint32 baseAddr = addr_table[i];
 186              		.loc 1 177 0
 187 0014 7B69     		ldr	r3, [r7, #20]
 188 0016 9B00     		lsls	r3, r3, #2
 189 0018 7A68     		ldr	r2, [r7, #4]
 190 001a 1344     		add	r3, r3, r2
 191 001c 1B68     		ldr	r3, [r3]
 192 001e BB60     		str	r3, [r7, #8]
 178:.\Generated_Source\PSoC5/cyfitter_cfg.c **** 		uint8 count = (uint8)baseAddr;
 193              		.loc 1 178 0
 194 0020 BB68     		ldr	r3, [r7, #8]
 195 0022 FB73     		strb	r3, [r7, #15]
 179:.\Generated_Source\PSoC5/cyfitter_cfg.c **** 		baseAddr &= 0xFFFFFF00u;
 196              		.loc 1 179 0
 197 0024 BB68     		ldr	r3, [r7, #8]
 198 0026 23F0FF03 		bic	r3, r3, #255
 199 002a BB60     		str	r3, [r7, #8]
 180:.\Generated_Source\PSoC5/cyfitter_cfg.c **** 		while (count != 0u)
 200              		.loc 1 180 0
 201 002c 14E0     		b	.L8
 202              	.L9:
 181:.\Generated_Source\PSoC5/cyfitter_cfg.c **** 		{
 182:.\Generated_Source\PSoC5/cyfitter_cfg.c **** 			CY_SET_XTND_REG8((void CYFAR *)(baseAddr + data_table[j].offset), data_table[j].value);
 203              		.loc 1 182 0
 204 002e 3B69     		ldr	r3, [r7, #16]
 205 0030 5B00     		lsls	r3, r3, #1
 206 0032 3A68     		ldr	r2, [r7]
 207 0034 1344     		add	r3, r3, r2
 208 0036 1B78     		ldrb	r3, [r3]	@ zero_extendqisi2
 209 0038 1A46     		mov	r2, r3
 210 003a BB68     		ldr	r3, [r7, #8]
 211 003c 1344     		add	r3, r3, r2
 212 003e 1946     		mov	r1, r3
 213 0040 3B69     		ldr	r3, [r7, #16]
 214 0042 5B00     		lsls	r3, r3, #1
 215 0044 3A68     		ldr	r2, [r7]
 216 0046 1344     		add	r3, r3, r2
 217 0048 5B78     		ldrb	r3, [r3, #1]	@ zero_extendqisi2
ARM GAS  C:\Users\Patrick\AppData\Local\Temp\ccTrP4AE.s 			page 8


 218 004a 0B70     		strb	r3, [r1]
 183:.\Generated_Source\PSoC5/cyfitter_cfg.c **** 			j++;
 219              		.loc 1 183 0
 220 004c 3B69     		ldr	r3, [r7, #16]
 221 004e 0133     		adds	r3, r3, #1
 222 0050 3B61     		str	r3, [r7, #16]
 184:.\Generated_Source\PSoC5/cyfitter_cfg.c **** 			count--;
 223              		.loc 1 184 0
 224 0052 FB7B     		ldrb	r3, [r7, #15]	@ zero_extendqisi2
 225 0054 013B     		subs	r3, r3, #1
 226 0056 FB73     		strb	r3, [r7, #15]
 227              	.L8:
 180:.\Generated_Source\PSoC5/cyfitter_cfg.c **** 		{
 228              		.loc 1 180 0
 229 0058 FB7B     		ldrb	r3, [r7, #15]	@ zero_extendqisi2
 230 005a 002B     		cmp	r3, #0
 231 005c E7D1     		bne	.L9
 232              	.LBE2:
 175:.\Generated_Source\PSoC5/cyfitter_cfg.c **** 	{
 233              		.loc 1 175 0 discriminator 2
 234 005e 7B69     		ldr	r3, [r7, #20]
 235 0060 0133     		adds	r3, r3, #1
 236 0062 7B61     		str	r3, [r7, #20]
 237              	.L7:
 175:.\Generated_Source\PSoC5/cyfitter_cfg.c **** 	{
 238              		.loc 1 175 0 is_stmt 0 discriminator 1
 239 0064 7B69     		ldr	r3, [r7, #20]
 240 0066 202B     		cmp	r3, #32
 241 0068 D4D9     		bls	.L10
 185:.\Generated_Source\PSoC5/cyfitter_cfg.c **** 		}
 186:.\Generated_Source\PSoC5/cyfitter_cfg.c **** 	}
 187:.\Generated_Source\PSoC5/cyfitter_cfg.c **** }
 242              		.loc 1 187 0 is_stmt 1
 243 006a 1C37     		adds	r7, r7, #28
 244              		.cfi_def_cfa_offset 4
 245 006c BD46     		mov	sp, r7
 246              		.cfi_def_cfa_register 13
 247              		@ sp needed
 248 006e 5DF8047B 		ldr	r7, [sp], #4
 249              		.cfi_restore 7
 250              		.cfi_def_cfa_offset 0
 251 0072 7047     		bx	lr
 252              		.cfi_endproc
 253              	.LFE4:
 254              		.size	cfg_write_bytes32, .-cfg_write_bytes32
 255              		.section	.text.ClockSetup,"ax",%progbits
 256              		.align	2
 257              		.thumb
 258              		.thumb_func
 259              		.type	ClockSetup, %function
 260              	ClockSetup:
 261              	.LFB5:
 188:.\Generated_Source\PSoC5/cyfitter_cfg.c **** 
 189:.\Generated_Source\PSoC5/cyfitter_cfg.c **** /*******************************************************************************
 190:.\Generated_Source\PSoC5/cyfitter_cfg.c **** * Function Name: ClockSetup
 191:.\Generated_Source\PSoC5/cyfitter_cfg.c **** ********************************************************************************
 192:.\Generated_Source\PSoC5/cyfitter_cfg.c **** *
ARM GAS  C:\Users\Patrick\AppData\Local\Temp\ccTrP4AE.s 			page 9


 193:.\Generated_Source\PSoC5/cyfitter_cfg.c **** * Summary:
 194:.\Generated_Source\PSoC5/cyfitter_cfg.c **** *  Performs the initialization of all of the clocks in the device based on the
 195:.\Generated_Source\PSoC5/cyfitter_cfg.c **** *  settings in the Clock tab of the DWR.  This includes enabling the requested
 196:.\Generated_Source\PSoC5/cyfitter_cfg.c **** *  clocks and setting the necessary dividers to produce the desired frequency. 
 197:.\Generated_Source\PSoC5/cyfitter_cfg.c **** *
 198:.\Generated_Source\PSoC5/cyfitter_cfg.c **** * Parameters:
 199:.\Generated_Source\PSoC5/cyfitter_cfg.c **** *  void
 200:.\Generated_Source\PSoC5/cyfitter_cfg.c **** *
 201:.\Generated_Source\PSoC5/cyfitter_cfg.c **** * Return:
 202:.\Generated_Source\PSoC5/cyfitter_cfg.c **** *  void
 203:.\Generated_Source\PSoC5/cyfitter_cfg.c **** *
 204:.\Generated_Source\PSoC5/cyfitter_cfg.c **** *******************************************************************************/
 205:.\Generated_Source\PSoC5/cyfitter_cfg.c **** static void ClockSetup(void);
 206:.\Generated_Source\PSoC5/cyfitter_cfg.c **** static void ClockSetup(void)
 207:.\Generated_Source\PSoC5/cyfitter_cfg.c **** {
 262              		.loc 1 207 0
 263              		.cfi_startproc
 264              		@ args = 0, pretend = 0, frame = 8
 265              		@ frame_needed = 1, uses_anonymous_args = 0
 266 0000 80B5     		push	{r7, lr}
 267              		.cfi_def_cfa_offset 8
 268              		.cfi_offset 7, -8
 269              		.cfi_offset 14, -4
 270 0002 82B0     		sub	sp, sp, #8
 271              		.cfi_def_cfa_offset 16
 272 0004 00AF     		add	r7, sp, #0
 273              		.cfi_def_cfa_register 7
 208:.\Generated_Source\PSoC5/cyfitter_cfg.c **** 	uint32 timeout;
 209:.\Generated_Source\PSoC5/cyfitter_cfg.c **** 	uint8 pllLock;
 210:.\Generated_Source\PSoC5/cyfitter_cfg.c **** 
 211:.\Generated_Source\PSoC5/cyfitter_cfg.c **** 
 212:.\Generated_Source\PSoC5/cyfitter_cfg.c **** 	/* Configure Digital Clocks based on settings from Clock DWR */
 213:.\Generated_Source\PSoC5/cyfitter_cfg.c **** 	CY_SET_XTND_REG16((void CYFAR *)(CYREG_CLKDIST_DCFG0_CFG0), 0x0002u);
 274              		.loc 1 213 0
 275 0006 3C4B     		ldr	r3, .L16
 276 0008 0222     		movs	r2, #2
 277 000a 1A80     		strh	r2, [r3]	@ movhi
 214:.\Generated_Source\PSoC5/cyfitter_cfg.c **** 	CY_SET_XTND_REG8((void CYFAR *)(CYREG_CLKDIST_DCFG0_CFG0 + 0x2u), 0x18u);
 278              		.loc 1 214 0
 279 000c 3B4B     		ldr	r3, .L16+4
 280 000e 1822     		movs	r2, #24
 281 0010 1A70     		strb	r2, [r3]
 215:.\Generated_Source\PSoC5/cyfitter_cfg.c **** 	CY_SET_XTND_REG16((void CYFAR *)(CYREG_CLKDIST_DCFG1_CFG0), 0x0003u);
 282              		.loc 1 215 0
 283 0012 3B4B     		ldr	r3, .L16+8
 284 0014 0322     		movs	r2, #3
 285 0016 1A80     		strh	r2, [r3]	@ movhi
 216:.\Generated_Source\PSoC5/cyfitter_cfg.c **** 	CY_SET_XTND_REG8((void CYFAR *)(CYREG_CLKDIST_DCFG1_CFG0 + 0x2u), 0x18u);
 286              		.loc 1 216 0
 287 0018 3A4B     		ldr	r3, .L16+12
 288 001a 1822     		movs	r2, #24
 289 001c 1A70     		strb	r2, [r3]
 217:.\Generated_Source\PSoC5/cyfitter_cfg.c **** 	CY_SET_XTND_REG16((void CYFAR *)(CYREG_CLKDIST_DCFG2_CFG0), 0x0005u);
 290              		.loc 1 217 0
 291 001e 3A4B     		ldr	r3, .L16+16
 292 0020 0522     		movs	r2, #5
 293 0022 1A80     		strh	r2, [r3]	@ movhi
ARM GAS  C:\Users\Patrick\AppData\Local\Temp\ccTrP4AE.s 			page 10


 218:.\Generated_Source\PSoC5/cyfitter_cfg.c **** 	CY_SET_XTND_REG8((void CYFAR *)(CYREG_CLKDIST_DCFG2_CFG0 + 0x2u), 0x18u);
 294              		.loc 1 218 0
 295 0024 394B     		ldr	r3, .L16+20
 296 0026 1822     		movs	r2, #24
 297 0028 1A70     		strb	r2, [r3]
 219:.\Generated_Source\PSoC5/cyfitter_cfg.c **** 	CY_SET_XTND_REG16((void CYFAR *)(CYREG_CLKDIST_DCFG3_CFG0), 0x0047u);
 298              		.loc 1 219 0
 299 002a 394B     		ldr	r3, .L16+24
 300 002c 4722     		movs	r2, #71
 301 002e 1A80     		strh	r2, [r3]	@ movhi
 220:.\Generated_Source\PSoC5/cyfitter_cfg.c **** 	CY_SET_XTND_REG8((void CYFAR *)(CYREG_CLKDIST_DCFG3_CFG0 + 0x2u), 0x18u);
 302              		.loc 1 220 0
 303 0030 384B     		ldr	r3, .L16+28
 304 0032 1822     		movs	r2, #24
 305 0034 1A70     		strb	r2, [r3]
 221:.\Generated_Source\PSoC5/cyfitter_cfg.c **** 	CY_SET_XTND_REG16((void CYFAR *)(CYREG_CLKDIST_DCFG4_CFG0), 0x004Du);
 306              		.loc 1 221 0
 307 0036 384B     		ldr	r3, .L16+32
 308 0038 4D22     		movs	r2, #77
 309 003a 1A80     		strh	r2, [r3]	@ movhi
 222:.\Generated_Source\PSoC5/cyfitter_cfg.c **** 	CY_SET_XTND_REG8((void CYFAR *)(CYREG_CLKDIST_DCFG4_CFG0 + 0x2u), 0x18u);
 310              		.loc 1 222 0
 311 003c 374B     		ldr	r3, .L16+36
 312 003e 1822     		movs	r2, #24
 313 0040 1A70     		strb	r2, [r3]
 223:.\Generated_Source\PSoC5/cyfitter_cfg.c **** 
 224:.\Generated_Source\PSoC5/cyfitter_cfg.c **** 	/* Configure ILO based on settings from Clock DWR */
 225:.\Generated_Source\PSoC5/cyfitter_cfg.c **** 	CY_SET_XTND_REG8((void CYFAR *)(CYREG_SLOWCLK_ILO_CR0), 0x02u);
 314              		.loc 1 225 0
 315 0042 374B     		ldr	r3, .L16+40
 316 0044 0222     		movs	r2, #2
 317 0046 1A70     		strb	r2, [r3]
 226:.\Generated_Source\PSoC5/cyfitter_cfg.c **** 	CY_SET_XTND_REG8((void CYFAR *)(CYREG_CLKDIST_CR), 0x08u);
 318              		.loc 1 226 0
 319 0048 4FF04023 		mov	r3, #1073758208
 320 004c 0822     		movs	r2, #8
 321 004e 1A70     		strb	r2, [r3]
 227:.\Generated_Source\PSoC5/cyfitter_cfg.c **** 
 228:.\Generated_Source\PSoC5/cyfitter_cfg.c **** 	/* Configure IMO based on settings from Clock DWR */
 229:.\Generated_Source\PSoC5/cyfitter_cfg.c **** 	CY_SET_XTND_REG8((void CYFAR *)(CYREG_FASTCLK_IMO_CR), 0x03u);
 322              		.loc 1 229 0
 323 0050 344B     		ldr	r3, .L16+44
 324 0052 0322     		movs	r2, #3
 325 0054 1A70     		strb	r2, [r3]
 230:.\Generated_Source\PSoC5/cyfitter_cfg.c **** 	CY_SET_XTND_REG8((void CYFAR *)(CYREG_IMO_TR1), (CY_GET_XTND_REG8((void CYFAR *)CYREG_FLSHID_CUST_
 326              		.loc 1 230 0
 327 0056 344B     		ldr	r3, .L16+48
 328 0058 344A     		ldr	r2, .L16+52
 329 005a 1278     		ldrb	r2, [r2]
 330 005c D2B2     		uxtb	r2, r2
 331 005e 1A70     		strb	r2, [r3]
 231:.\Generated_Source\PSoC5/cyfitter_cfg.c **** 
 232:.\Generated_Source\PSoC5/cyfitter_cfg.c **** 	/* Configure PLL based on settings from Clock DWR */
 233:.\Generated_Source\PSoC5/cyfitter_cfg.c **** 	CY_SET_XTND_REG16((void CYFAR *)(CYREG_FASTCLK_PLL_P), 0x0018u);
 332              		.loc 1 233 0
 333 0060 334B     		ldr	r3, .L16+56
 334 0062 1822     		movs	r2, #24
ARM GAS  C:\Users\Patrick\AppData\Local\Temp\ccTrP4AE.s 			page 11


 335 0064 1A80     		strh	r2, [r3]	@ movhi
 234:.\Generated_Source\PSoC5/cyfitter_cfg.c **** 	CY_SET_XTND_REG16((void CYFAR *)(CYREG_FASTCLK_PLL_CFG0), 0x2251u);
 336              		.loc 1 234 0
 337 0066 334B     		ldr	r3, .L16+60
 338 0068 42F25122 		movw	r2, #8785
 339 006c 1A80     		strh	r2, [r3]	@ movhi
 235:.\Generated_Source\PSoC5/cyfitter_cfg.c **** 	/* Wait up to 250us for the PLL to lock */
 236:.\Generated_Source\PSoC5/cyfitter_cfg.c **** 	pllLock = 0u;
 340              		.loc 1 236 0
 341 006e 0023     		movs	r3, #0
 342 0070 FB70     		strb	r3, [r7, #3]
 237:.\Generated_Source\PSoC5/cyfitter_cfg.c **** 	for (timeout = 250u / 10u; (timeout > 0u) && (pllLock != 0x03u); timeout--)
 343              		.loc 1 237 0
 344 0072 1923     		movs	r3, #25
 345 0074 7B60     		str	r3, [r7, #4]
 346 0076 14E0     		b	.L12
 347              	.L14:
 238:.\Generated_Source\PSoC5/cyfitter_cfg.c **** 	{ 
 239:.\Generated_Source\PSoC5/cyfitter_cfg.c **** 		pllLock = 0x03u & ((uint8)((uint8)pllLock << 1) | ((CY_GET_XTND_REG8((void CYFAR *)CYREG_FASTCLK_
 348              		.loc 1 239 0 discriminator 4
 349 0078 FB78     		ldrb	r3, [r7, #3]
 350 007a 5B00     		lsls	r3, r3, #1
 351 007c DAB2     		uxtb	r2, r3
 352 007e 2E4B     		ldr	r3, .L16+64
 353 0080 1B78     		ldrb	r3, [r3]
 354 0082 DBB2     		uxtb	r3, r3
 355 0084 03F00103 		and	r3, r3, #1
 356 0088 DBB2     		uxtb	r3, r3
 357 008a 1343     		orrs	r3, r3, r2
 358 008c DBB2     		uxtb	r3, r3
 359 008e 03F00303 		and	r3, r3, #3
 360 0092 FB70     		strb	r3, [r7, #3]
 240:.\Generated_Source\PSoC5/cyfitter_cfg.c **** 		CyDelayCycles(10u * 48u); /* Delay 10us based on 48MHz clock */
 361              		.loc 1 240 0 discriminator 4
 362 0094 4FF4F070 		mov	r0, #480
 363 0098 FFF7FEFF 		bl	CyDelayCycles
 237:.\Generated_Source\PSoC5/cyfitter_cfg.c **** 	for (timeout = 250u / 10u; (timeout > 0u) && (pllLock != 0x03u); timeout--)
 364              		.loc 1 237 0 discriminator 4
 365 009c 7B68     		ldr	r3, [r7, #4]
 366 009e 013B     		subs	r3, r3, #1
 367 00a0 7B60     		str	r3, [r7, #4]
 368              	.L12:
 237:.\Generated_Source\PSoC5/cyfitter_cfg.c **** 	for (timeout = 250u / 10u; (timeout > 0u) && (pllLock != 0x03u); timeout--)
 369              		.loc 1 237 0 is_stmt 0 discriminator 1
 370 00a2 7B68     		ldr	r3, [r7, #4]
 371 00a4 002B     		cmp	r3, #0
 372 00a6 02D0     		beq	.L13
 237:.\Generated_Source\PSoC5/cyfitter_cfg.c **** 	for (timeout = 250u / 10u; (timeout > 0u) && (pllLock != 0x03u); timeout--)
 373              		.loc 1 237 0 discriminator 3
 374 00a8 FB78     		ldrb	r3, [r7, #3]	@ zero_extendqisi2
 375 00aa 032B     		cmp	r3, #3
 376 00ac E4D1     		bne	.L14
 377              	.L13:
 241:.\Generated_Source\PSoC5/cyfitter_cfg.c **** 	}
 242:.\Generated_Source\PSoC5/cyfitter_cfg.c **** 	/* If we ran out of time the PLL didn't lock so go to the error function */
 243:.\Generated_Source\PSoC5/cyfitter_cfg.c **** 	if (timeout == 0u)
 378              		.loc 1 243 0 is_stmt 1
ARM GAS  C:\Users\Patrick\AppData\Local\Temp\ccTrP4AE.s 			page 12


 379 00ae 7B68     		ldr	r3, [r7, #4]
 380 00b0 002B     		cmp	r3, #0
 381 00b2 02D1     		bne	.L15
 244:.\Generated_Source\PSoC5/cyfitter_cfg.c **** 	{
 245:.\Generated_Source\PSoC5/cyfitter_cfg.c **** 		CyClockStartupError(CYCLOCKSTART_PLL_ERROR);
 382              		.loc 1 245 0
 383 00b4 0320     		movs	r0, #3
 384 00b6 FFF7FEFF 		bl	CyClockStartupError
 385              	.L15:
 246:.\Generated_Source\PSoC5/cyfitter_cfg.c **** 	}
 247:.\Generated_Source\PSoC5/cyfitter_cfg.c **** 
 248:.\Generated_Source\PSoC5/cyfitter_cfg.c **** 	/* Configure Bus/Master Clock based on settings from Clock DWR */
 249:.\Generated_Source\PSoC5/cyfitter_cfg.c **** 	CY_SET_XTND_REG16((void CYFAR *)(CYREG_CLKDIST_MSTR0), 0x0100u);
 386              		.loc 1 249 0
 387 00ba 204B     		ldr	r3, .L16+68
 388 00bc 4FF48072 		mov	r2, #256
 389 00c0 1A80     		strh	r2, [r3]	@ movhi
 250:.\Generated_Source\PSoC5/cyfitter_cfg.c **** 	CY_SET_XTND_REG8((void CYFAR *)(CYREG_CLKDIST_MSTR0), 0x07u);
 390              		.loc 1 250 0
 391 00c2 1E4B     		ldr	r3, .L16+68
 392 00c4 0722     		movs	r2, #7
 393 00c6 1A70     		strb	r2, [r3]
 251:.\Generated_Source\PSoC5/cyfitter_cfg.c **** 	CY_SET_XTND_REG8((void CYFAR *)(CYREG_CLKDIST_BCFG0), 0x00u);
 394              		.loc 1 251 0
 395 00c8 1D4B     		ldr	r3, .L16+72
 396 00ca 0022     		movs	r2, #0
 397 00cc 1A70     		strb	r2, [r3]
 252:.\Generated_Source\PSoC5/cyfitter_cfg.c **** 	CY_SET_XTND_REG8((void CYFAR *)(CYREG_CLKDIST_BCFG2), 0x48u);
 398              		.loc 1 252 0
 399 00ce 1D4B     		ldr	r3, .L16+76
 400 00d0 4822     		movs	r2, #72
 401 00d2 1A70     		strb	r2, [r3]
 253:.\Generated_Source\PSoC5/cyfitter_cfg.c **** 	CY_SET_XTND_REG8((void CYFAR *)(CYREG_CLKDIST_MSTR0), 0x00u);
 402              		.loc 1 253 0
 403 00d4 194B     		ldr	r3, .L16+68
 404 00d6 0022     		movs	r2, #0
 405 00d8 1A70     		strb	r2, [r3]
 254:.\Generated_Source\PSoC5/cyfitter_cfg.c **** 	CY_SET_XTND_REG8((void CYFAR *)(CYREG_CLKDIST_LD), 0x02u);
 406              		.loc 1 254 0
 407 00da 1B4B     		ldr	r3, .L16+80
 408 00dc 0222     		movs	r2, #2
 409 00de 1A70     		strb	r2, [r3]
 255:.\Generated_Source\PSoC5/cyfitter_cfg.c **** 
 256:.\Generated_Source\PSoC5/cyfitter_cfg.c **** 	CY_SET_XTND_REG8((void CYFAR *)(CYREG_PM_ACT_CFG2), ((CY_GET_XTND_REG8((void CYFAR *)CYREG_PM_ACT_
 410              		.loc 1 256 0
 411 00e0 1A4A     		ldr	r2, .L16+84
 412 00e2 1A4B     		ldr	r3, .L16+84
 413 00e4 1B78     		ldrb	r3, [r3]
 414 00e6 DBB2     		uxtb	r3, r3
 415 00e8 43F01F03 		orr	r3, r3, #31
 416 00ec DBB2     		uxtb	r3, r3
 417 00ee 1370     		strb	r3, [r2]
 257:.\Generated_Source\PSoC5/cyfitter_cfg.c **** }
 418              		.loc 1 257 0
 419 00f0 0837     		adds	r7, r7, #8
 420              		.cfi_def_cfa_offset 8
 421 00f2 BD46     		mov	sp, r7
ARM GAS  C:\Users\Patrick\AppData\Local\Temp\ccTrP4AE.s 			page 13


 422              		.cfi_def_cfa_register 13
 423              		@ sp needed
 424 00f4 80BD     		pop	{r7, pc}
 425              	.L17:
 426 00f6 00BF     		.align	2
 427              	.L16:
 428 00f8 80400040 		.word	1073758336
 429 00fc 82400040 		.word	1073758338
 430 0100 84400040 		.word	1073758340
 431 0104 86400040 		.word	1073758342
 432 0108 88400040 		.word	1073758344
 433 010c 8A400040 		.word	1073758346
 434 0110 8C400040 		.word	1073758348
 435 0114 8E400040 		.word	1073758350
 436 0118 90400040 		.word	1073758352
 437 011c 92400040 		.word	1073758354
 438 0120 00430040 		.word	1073758976
 439 0124 00420040 		.word	1073758720
 440 0128 A1460040 		.word	1073759905
 441 012c 08010049 		.word	1224737032
 442 0130 22420040 		.word	1073758754
 443 0134 20420040 		.word	1073758752
 444 0138 25420040 		.word	1073758757
 445 013c 04400040 		.word	1073758212
 446 0140 06400040 		.word	1073758214
 447 0144 08400040 		.word	1073758216
 448 0148 01400040 		.word	1073758209
 449 014c A2430040 		.word	1073759138
 450              		.cfi_endproc
 451              	.LFE5:
 452              		.size	ClockSetup, .-ClockSetup
 453              		.section	.text.AnalogSetDefault,"ax",%progbits
 454              		.align	2
 455              		.thumb
 456              		.thumb_func
 457              		.type	AnalogSetDefault, %function
 458              	AnalogSetDefault:
 459              	.LFB6:
 258:.\Generated_Source\PSoC5/cyfitter_cfg.c **** 
 259:.\Generated_Source\PSoC5/cyfitter_cfg.c **** 
 260:.\Generated_Source\PSoC5/cyfitter_cfg.c **** /* Analog API Functions */
 261:.\Generated_Source\PSoC5/cyfitter_cfg.c **** 
 262:.\Generated_Source\PSoC5/cyfitter_cfg.c **** 
 263:.\Generated_Source\PSoC5/cyfitter_cfg.c **** /*******************************************************************************
 264:.\Generated_Source\PSoC5/cyfitter_cfg.c **** * Function Name: AnalogSetDefault
 265:.\Generated_Source\PSoC5/cyfitter_cfg.c **** ********************************************************************************
 266:.\Generated_Source\PSoC5/cyfitter_cfg.c **** *
 267:.\Generated_Source\PSoC5/cyfitter_cfg.c **** * Summary:
 268:.\Generated_Source\PSoC5/cyfitter_cfg.c **** *  Sets up the analog portions of the chip to default values based on chip
 269:.\Generated_Source\PSoC5/cyfitter_cfg.c **** *  configuration options from the project.
 270:.\Generated_Source\PSoC5/cyfitter_cfg.c **** *
 271:.\Generated_Source\PSoC5/cyfitter_cfg.c **** * Parameters:
 272:.\Generated_Source\PSoC5/cyfitter_cfg.c **** *  void
 273:.\Generated_Source\PSoC5/cyfitter_cfg.c **** *
 274:.\Generated_Source\PSoC5/cyfitter_cfg.c **** * Return:
 275:.\Generated_Source\PSoC5/cyfitter_cfg.c **** *  void
 276:.\Generated_Source\PSoC5/cyfitter_cfg.c **** *
ARM GAS  C:\Users\Patrick\AppData\Local\Temp\ccTrP4AE.s 			page 14


 277:.\Generated_Source\PSoC5/cyfitter_cfg.c **** *******************************************************************************/
 278:.\Generated_Source\PSoC5/cyfitter_cfg.c **** static void AnalogSetDefault(void);
 279:.\Generated_Source\PSoC5/cyfitter_cfg.c **** static void AnalogSetDefault(void)
 280:.\Generated_Source\PSoC5/cyfitter_cfg.c **** {
 460              		.loc 1 280 0
 461              		.cfi_startproc
 462              		@ args = 0, pretend = 0, frame = 8
 463              		@ frame_needed = 1, uses_anonymous_args = 0
 464 0000 80B5     		push	{r7, lr}
 465              		.cfi_def_cfa_offset 8
 466              		.cfi_offset 7, -8
 467              		.cfi_offset 14, -4
 468 0002 82B0     		sub	sp, sp, #8
 469              		.cfi_def_cfa_offset 16
 470 0004 00AF     		add	r7, sp, #0
 471              		.cfi_def_cfa_register 7
 281:.\Generated_Source\PSoC5/cyfitter_cfg.c **** 	uint8 bg_xover_inl_trim = CY_GET_XTND_REG8((void CYFAR *)(CYREG_FLSHID_MFG_CFG_BG_XOVER_INL_TRIM +
 472              		.loc 1 281 0
 473 0006 1F4B     		ldr	r3, .L19
 474 0008 1B78     		ldrb	r3, [r3]
 475 000a FB71     		strb	r3, [r7, #7]
 282:.\Generated_Source\PSoC5/cyfitter_cfg.c **** 	uint8 cr4 = CY_GET_XTND_REG8((void CYFAR *)(CYREG_RESET_CR4));
 476              		.loc 1 282 0
 477 000c 1E4B     		ldr	r3, .L19+4
 478 000e 1B78     		ldrb	r3, [r3]
 479 0010 BB71     		strb	r3, [r7, #6]
 283:.\Generated_Source\PSoC5/cyfitter_cfg.c **** 	uint8 cr5 = CY_GET_XTND_REG8((void CYFAR *)(CYREG_RESET_CR5));
 480              		.loc 1 283 0
 481 0012 1E4B     		ldr	r3, .L19+8
 482 0014 1B78     		ldrb	r3, [r3]
 483 0016 7B71     		strb	r3, [r7, #5]
 284:.\Generated_Source\PSoC5/cyfitter_cfg.c **** 	CY_SET_XTND_REG8((void CYFAR *)(CYREG_BG_DFT0), (bg_xover_inl_trim & 0x07u));
 484              		.loc 1 284 0
 485 0018 1D4A     		ldr	r2, .L19+12
 486 001a FB79     		ldrb	r3, [r7, #7]
 487 001c 03F00703 		and	r3, r3, #7
 488 0020 DBB2     		uxtb	r3, r3
 489 0022 1370     		strb	r3, [r2]
 285:.\Generated_Source\PSoC5/cyfitter_cfg.c **** 	CY_SET_XTND_REG8((void CYFAR *)(CYREG_BG_DFT1), ((bg_xover_inl_trim >> 4) & 0x0Fu));
 490              		.loc 1 285 0
 491 0024 1B4A     		ldr	r2, .L19+16
 492 0026 FB79     		ldrb	r3, [r7, #7]	@ zero_extendqisi2
 493 0028 1B09     		lsrs	r3, r3, #4
 494 002a DBB2     		uxtb	r3, r3
 495 002c 1370     		strb	r3, [r2]
 286:.\Generated_Source\PSoC5/cyfitter_cfg.c **** 	/* Disable PRES while setting up SAR voltage reference */
 287:.\Generated_Source\PSoC5/cyfitter_cfg.c **** 	CY_SET_XTND_REG8((void CYFAR *)(CYREG_RESET_CR4), (cr4 | 0x03u));
 496              		.loc 1 287 0
 497 002e 164A     		ldr	r2, .L19+4
 498 0030 BB79     		ldrb	r3, [r7, #6]
 499 0032 43F00303 		orr	r3, r3, #3
 500 0036 DBB2     		uxtb	r3, r3
 501 0038 1370     		strb	r3, [r2]
 288:.\Generated_Source\PSoC5/cyfitter_cfg.c **** 	CY_SET_XTND_REG8((void CYFAR *)(CYREG_RESET_CR5), (cr5 | 0x03u));
 502              		.loc 1 288 0
 503 003a 144A     		ldr	r2, .L19+8
 504 003c 7B79     		ldrb	r3, [r7, #5]
ARM GAS  C:\Users\Patrick\AppData\Local\Temp\ccTrP4AE.s 			page 15


 505 003e 43F00303 		orr	r3, r3, #3
 506 0042 DBB2     		uxtb	r3, r3
 507 0044 1370     		strb	r3, [r2]
 289:.\Generated_Source\PSoC5/cyfitter_cfg.c **** 	CY_SET_XTND_REG8((void CYFAR *)CYREG_SAR0_CSR1, 0x40u);
 508              		.loc 1 289 0
 509 0046 144B     		ldr	r3, .L19+20
 510 0048 4022     		movs	r2, #64
 511 004a 1A70     		strb	r2, [r3]
 290:.\Generated_Source\PSoC5/cyfitter_cfg.c **** 	CY_SET_XTND_REG8((void CYFAR *)CYREG_SAR0_CSR3, 0x40u);
 512              		.loc 1 290 0
 513 004c 134B     		ldr	r3, .L19+24
 514 004e 4022     		movs	r2, #64
 515 0050 1A70     		strb	r2, [r3]
 291:.\Generated_Source\PSoC5/cyfitter_cfg.c **** 	CY_SET_XTND_REG8((void CYFAR *)CYREG_DAC3_SW0, 0x30u);
 516              		.loc 1 291 0
 517 0052 134B     		ldr	r3, .L19+28
 518 0054 3022     		movs	r2, #48
 519 0056 1A70     		strb	r2, [r3]
 292:.\Generated_Source\PSoC5/cyfitter_cfg.c **** 	CY_SET_XTND_REG8((void CYFAR *)CYREG_SAR0_SW3, 0x20u);
 520              		.loc 1 292 0
 521 0058 124B     		ldr	r3, .L19+32
 522 005a 2022     		movs	r2, #32
 523 005c 1A70     		strb	r2, [r3]
 293:.\Generated_Source\PSoC5/cyfitter_cfg.c **** 	CY_SET_XTND_REG8((void CYFAR *)CYREG_BUS_SW0, 0xD0u);
 524              		.loc 1 293 0
 525 005e 124B     		ldr	r3, .L19+36
 526 0060 D022     		movs	r2, #208
 527 0062 1A70     		strb	r2, [r3]
 294:.\Generated_Source\PSoC5/cyfitter_cfg.c **** 	CyDelayUs(10u); /* Allow vref to settle before re-enabling PRES */
 528              		.loc 1 294 0
 529 0064 0A20     		movs	r0, #10
 530 0066 FFF7FEFF 		bl	CyDelayUs
 295:.\Generated_Source\PSoC5/cyfitter_cfg.c **** 	CY_SET_XTND_REG8((void CYFAR *)(CYREG_RESET_CR5), (cr5));
 531              		.loc 1 295 0
 532 006a 084A     		ldr	r2, .L19+8
 533 006c 7B79     		ldrb	r3, [r7, #5]
 534 006e 1370     		strb	r3, [r2]
 296:.\Generated_Source\PSoC5/cyfitter_cfg.c **** 	CY_SET_XTND_REG8((void CYFAR *)(CYREG_RESET_CR4), (cr4));
 535              		.loc 1 296 0
 536 0070 054A     		ldr	r2, .L19+4
 537 0072 BB79     		ldrb	r3, [r7, #6]
 538 0074 1370     		strb	r3, [r2]
 297:.\Generated_Source\PSoC5/cyfitter_cfg.c **** 	CY_SET_XTND_REG8((void CYFAR *)CYREG_PUMP_CR0, 0x44u);
 539              		.loc 1 297 0
 540 0076 0D4B     		ldr	r3, .L19+40
 541 0078 4422     		movs	r2, #68
 542 007a 1A70     		strb	r2, [r3]
 298:.\Generated_Source\PSoC5/cyfitter_cfg.c **** }
 543              		.loc 1 298 0
 544 007c 0837     		adds	r7, r7, #8
 545              		.cfi_def_cfa_offset 8
 546 007e BD46     		mov	sp, r7
 547              		.cfi_def_cfa_register 13
 548              		@ sp needed
 549 0080 80BD     		pop	{r7, pc}
 550              	.L20:
 551 0082 00BF     		.align	2
ARM GAS  C:\Users\Patrick\AppData\Local\Temp\ccTrP4AE.s 			page 16


 552              	.L19:
 553 0084 CF010049 		.word	1224737231
 554 0088 F8460040 		.word	1073759992
 555 008c F9460040 		.word	1073759993
 556 0090 6E580040 		.word	1073764462
 557 0094 6F580040 		.word	1073764463
 558 0098 01590040 		.word	1073764609
 559 009c 03590040 		.word	1073764611
 560 00a0 985A0040 		.word	1073765016
 561 00a4 235B0040 		.word	1073765155
 562 00a8 585B0040 		.word	1073765208
 563 00ac 76580040 		.word	1073764470
 564              		.cfi_endproc
 565              	.LFE6:
 566              		.size	AnalogSetDefault, .-AnalogSetDefault
 567              		.section	.text.SetAnalogRoutingPumps,"ax",%progbits
 568              		.align	2
 569              		.global	SetAnalogRoutingPumps
 570              		.thumb
 571              		.thumb_func
 572              		.type	SetAnalogRoutingPumps, %function
 573              	SetAnalogRoutingPumps:
 574              	.LFB7:
 299:.\Generated_Source\PSoC5/cyfitter_cfg.c **** 
 300:.\Generated_Source\PSoC5/cyfitter_cfg.c **** 
 301:.\Generated_Source\PSoC5/cyfitter_cfg.c **** /*******************************************************************************
 302:.\Generated_Source\PSoC5/cyfitter_cfg.c **** * Function Name: SetAnalogRoutingPumps
 303:.\Generated_Source\PSoC5/cyfitter_cfg.c **** ********************************************************************************
 304:.\Generated_Source\PSoC5/cyfitter_cfg.c **** *
 305:.\Generated_Source\PSoC5/cyfitter_cfg.c **** * Summary:
 306:.\Generated_Source\PSoC5/cyfitter_cfg.c **** * Enables or disables the analog pumps feeding analog routing switches.
 307:.\Generated_Source\PSoC5/cyfitter_cfg.c **** * Intended to be called at startup, based on the Vdda system configuration;
 308:.\Generated_Source\PSoC5/cyfitter_cfg.c **** * may be called during operation when the user informs us that the Vdda voltage
 309:.\Generated_Source\PSoC5/cyfitter_cfg.c **** * crossed the pump threshold.
 310:.\Generated_Source\PSoC5/cyfitter_cfg.c **** *
 311:.\Generated_Source\PSoC5/cyfitter_cfg.c **** * Parameters:
 312:.\Generated_Source\PSoC5/cyfitter_cfg.c **** *  enabled - 1 to enable the pumps, 0 to disable the pumps
 313:.\Generated_Source\PSoC5/cyfitter_cfg.c **** *
 314:.\Generated_Source\PSoC5/cyfitter_cfg.c **** * Return:
 315:.\Generated_Source\PSoC5/cyfitter_cfg.c **** *  void
 316:.\Generated_Source\PSoC5/cyfitter_cfg.c **** *
 317:.\Generated_Source\PSoC5/cyfitter_cfg.c **** *******************************************************************************/
 318:.\Generated_Source\PSoC5/cyfitter_cfg.c **** void SetAnalogRoutingPumps(uint8 enabled)
 319:.\Generated_Source\PSoC5/cyfitter_cfg.c **** {
 575              		.loc 1 319 0
 576              		.cfi_startproc
 577              		@ args = 0, pretend = 0, frame = 16
 578              		@ frame_needed = 1, uses_anonymous_args = 0
 579              		@ link register save eliminated.
 580 0000 80B4     		push	{r7}
 581              		.cfi_def_cfa_offset 4
 582              		.cfi_offset 7, -4
 583 0002 85B0     		sub	sp, sp, #20
 584              		.cfi_def_cfa_offset 24
 585 0004 00AF     		add	r7, sp, #0
 586              		.cfi_def_cfa_register 7
 587 0006 0346     		mov	r3, r0
ARM GAS  C:\Users\Patrick\AppData\Local\Temp\ccTrP4AE.s 			page 17


 588 0008 FB71     		strb	r3, [r7, #7]
 320:.\Generated_Source\PSoC5/cyfitter_cfg.c **** 	uint8 regValue = CY_GET_XTND_REG8((void CYFAR *)CYREG_PUMP_CR0);
 589              		.loc 1 320 0
 590 000a 0B4B     		ldr	r3, .L24
 591 000c 1B78     		ldrb	r3, [r3]
 592 000e FB73     		strb	r3, [r7, #15]
 321:.\Generated_Source\PSoC5/cyfitter_cfg.c **** 	if (enabled != 0u)
 593              		.loc 1 321 0
 594 0010 FB79     		ldrb	r3, [r7, #7]	@ zero_extendqisi2
 595 0012 002B     		cmp	r3, #0
 596 0014 04D0     		beq	.L22
 322:.\Generated_Source\PSoC5/cyfitter_cfg.c **** 	{
 323:.\Generated_Source\PSoC5/cyfitter_cfg.c **** 		regValue |= 0x22u;
 597              		.loc 1 323 0
 598 0016 FB7B     		ldrb	r3, [r7, #15]
 599 0018 43F02203 		orr	r3, r3, #34
 600 001c FB73     		strb	r3, [r7, #15]
 601 001e 03E0     		b	.L23
 602              	.L22:
 324:.\Generated_Source\PSoC5/cyfitter_cfg.c **** 	}
 325:.\Generated_Source\PSoC5/cyfitter_cfg.c **** 	else
 326:.\Generated_Source\PSoC5/cyfitter_cfg.c **** 	{
 327:.\Generated_Source\PSoC5/cyfitter_cfg.c **** 		regValue &= (uint8)~0x22u;
 603              		.loc 1 327 0
 604 0020 FB7B     		ldrb	r3, [r7, #15]
 605 0022 23F02203 		bic	r3, r3, #34
 606 0026 FB73     		strb	r3, [r7, #15]
 607              	.L23:
 328:.\Generated_Source\PSoC5/cyfitter_cfg.c **** 	}
 329:.\Generated_Source\PSoC5/cyfitter_cfg.c **** 	CY_SET_XTND_REG8((void CYFAR *)CYREG_PUMP_CR0, regValue);
 608              		.loc 1 329 0
 609 0028 034A     		ldr	r2, .L24
 610 002a FB7B     		ldrb	r3, [r7, #15]
 611 002c 1370     		strb	r3, [r2]
 330:.\Generated_Source\PSoC5/cyfitter_cfg.c **** }
 612              		.loc 1 330 0
 613 002e 1437     		adds	r7, r7, #20
 614              		.cfi_def_cfa_offset 4
 615 0030 BD46     		mov	sp, r7
 616              		.cfi_def_cfa_register 13
 617              		@ sp needed
 618 0032 5DF8047B 		ldr	r7, [sp], #4
 619              		.cfi_restore 7
 620              		.cfi_def_cfa_offset 0
 621 0036 7047     		bx	lr
 622              	.L25:
 623              		.align	2
 624              	.L24:
 625 0038 76580040 		.word	1073764470
 626              		.cfi_endproc
 627              	.LFE7:
 628              		.size	SetAnalogRoutingPumps, .-SetAnalogRoutingPumps
 629              		.section	.rodata
 630              		.align	2
 631              		.type	AMux_1__outerAddr, %object
 632              		.size	AMux_1__outerAddr, 24
 633              	AMux_1__outerAddr:
ARM GAS  C:\Users\Patrick\AppData\Local\Temp\ccTrP4AE.s 			page 18


 634 0000 3D510040 		.word	1073762621
 635 0004 3D510040 		.word	1073762621
 636 0008 3D510040 		.word	1073762621
 637 000c 3D510040 		.word	1073762621
 638 0010 3D510040 		.word	1073762621
 639 0014 3D510040 		.word	1073762621
 640              		.align	2
 641              		.type	AMux_1__outerMask, %object
 642              		.size	AMux_1__outerMask, 6
 643              	AMux_1__outerMask:
 644 0018 01       		.byte	1
 645 0019 02       		.byte	2
 646 001a 04       		.byte	4
 647 001b 08       		.byte	8
 648 001c 10       		.byte	16
 649 001d 20       		.byte	32
 650 001e 0000     		.align	2
 651              		.type	AMux_1__innerAddr, %object
 652              		.size	AMux_1__innerAddr, 12
 653              	AMux_1__innerAddr:
 654 0020 205B0040 		.word	1073765152
 655 0024 205B0040 		.word	1073765152
 656 0028 205B0040 		.word	1073765152
 657              		.align	2
 658              		.type	AMux_1__innerMask, %object
 659              		.size	AMux_1__innerMask, 3
 660              	AMux_1__innerMask:
 661 002c 10       		.byte	16
 662 002d 40       		.byte	64
 663 002e 80       		.byte	-128
 664 002f 00       		.align	2
 665              		.type	AMux_1__innerMap, %object
 666              		.size	AMux_1__innerMap, 6
 667              	AMux_1__innerMap:
 668 0030 00       		.byte	0
 669 0031 00       		.byte	0
 670 0032 01       		.byte	1
 671 0033 02       		.byte	2
 672 0034 00       		.byte	0
 673 0035 00       		.byte	0
 674              		.bss
 675              	AMux_1__armsEnabled:
 676 0000 00       		.space	1
 677 0001 000000   		.align	2
 678              	AMux_1__refCnt:
 679 0004 000000   		.space	3
 680 0007 00       		.section	.text.AMux_1_Set,"ax",%progbits
 681              		.align	2
 682              		.global	AMux_1_Set
 683              		.thumb
 684              		.thumb_func
 685              		.type	AMux_1_Set, %function
 686              	AMux_1_Set:
 687              	.LFB8:
 331:.\Generated_Source\PSoC5/cyfitter_cfg.c **** 
 332:.\Generated_Source\PSoC5/cyfitter_cfg.c **** #define CY_AMUX_UNUSED CYREG_BOOST_SR
 333:.\Generated_Source\PSoC5/cyfitter_cfg.c **** static uint8 CYXDATA * const CYCODE AMux_1__outerAddr[6] = {
ARM GAS  C:\Users\Patrick\AppData\Local\Temp\ccTrP4AE.s 			page 19


 334:.\Generated_Source\PSoC5/cyfitter_cfg.c **** 	(uint8 CYXDATA *)CYREG_PRT3_AG, 
 335:.\Generated_Source\PSoC5/cyfitter_cfg.c **** 	(uint8 CYXDATA *)CYREG_PRT3_AG, 
 336:.\Generated_Source\PSoC5/cyfitter_cfg.c **** 	(uint8 CYXDATA *)CYREG_PRT3_AG, 
 337:.\Generated_Source\PSoC5/cyfitter_cfg.c **** 	(uint8 CYXDATA *)CYREG_PRT3_AG, 
 338:.\Generated_Source\PSoC5/cyfitter_cfg.c **** 	(uint8 CYXDATA *)CYREG_PRT3_AG, 
 339:.\Generated_Source\PSoC5/cyfitter_cfg.c **** 	(uint8 CYXDATA *)CYREG_PRT3_AG, 
 340:.\Generated_Source\PSoC5/cyfitter_cfg.c **** };
 341:.\Generated_Source\PSoC5/cyfitter_cfg.c **** 
 342:.\Generated_Source\PSoC5/cyfitter_cfg.c **** static const uint8 CYCODE AMux_1__outerMask[6] = {
 343:.\Generated_Source\PSoC5/cyfitter_cfg.c **** 	0x01u, 
 344:.\Generated_Source\PSoC5/cyfitter_cfg.c **** 	0x02u, 
 345:.\Generated_Source\PSoC5/cyfitter_cfg.c **** 	0x04u, 
 346:.\Generated_Source\PSoC5/cyfitter_cfg.c **** 	0x08u, 
 347:.\Generated_Source\PSoC5/cyfitter_cfg.c **** 	0x10u, 
 348:.\Generated_Source\PSoC5/cyfitter_cfg.c **** 	0x20u, 
 349:.\Generated_Source\PSoC5/cyfitter_cfg.c **** };
 350:.\Generated_Source\PSoC5/cyfitter_cfg.c **** 
 351:.\Generated_Source\PSoC5/cyfitter_cfg.c **** static uint8 CYXDATA * const CYCODE AMux_1__innerAddr[3] = {
 352:.\Generated_Source\PSoC5/cyfitter_cfg.c **** 	(uint8 CYXDATA *)CYREG_SAR0_SW0, 
 353:.\Generated_Source\PSoC5/cyfitter_cfg.c **** 	(uint8 CYXDATA *)CYREG_SAR0_SW0, 
 354:.\Generated_Source\PSoC5/cyfitter_cfg.c **** 	(uint8 CYXDATA *)CYREG_SAR0_SW0, 
 355:.\Generated_Source\PSoC5/cyfitter_cfg.c **** };
 356:.\Generated_Source\PSoC5/cyfitter_cfg.c **** 
 357:.\Generated_Source\PSoC5/cyfitter_cfg.c **** static const uint8 CYCODE AMux_1__innerMask[3] = {
 358:.\Generated_Source\PSoC5/cyfitter_cfg.c **** 	0x10u, 
 359:.\Generated_Source\PSoC5/cyfitter_cfg.c **** 	0x40u, 
 360:.\Generated_Source\PSoC5/cyfitter_cfg.c **** 	0x80u, 
 361:.\Generated_Source\PSoC5/cyfitter_cfg.c **** };
 362:.\Generated_Source\PSoC5/cyfitter_cfg.c **** 
 363:.\Generated_Source\PSoC5/cyfitter_cfg.c **** static const uint8 CYCODE AMux_1__innerMap[6] = {
 364:.\Generated_Source\PSoC5/cyfitter_cfg.c **** 	0u, 
 365:.\Generated_Source\PSoC5/cyfitter_cfg.c **** 	0u, 
 366:.\Generated_Source\PSoC5/cyfitter_cfg.c **** 	1u, 
 367:.\Generated_Source\PSoC5/cyfitter_cfg.c **** 	2u, 
 368:.\Generated_Source\PSoC5/cyfitter_cfg.c **** 	0u, 
 369:.\Generated_Source\PSoC5/cyfitter_cfg.c **** 	0u, 
 370:.\Generated_Source\PSoC5/cyfitter_cfg.c **** };
 371:.\Generated_Source\PSoC5/cyfitter_cfg.c **** 
 372:.\Generated_Source\PSoC5/cyfitter_cfg.c **** static uint8 AMux_1__armsEnabled = 0u;
 373:.\Generated_Source\PSoC5/cyfitter_cfg.c **** static uint8 AMux_1__refCnt[] = {0u, 0u, 0u};
 374:.\Generated_Source\PSoC5/cyfitter_cfg.c **** 
 375:.\Generated_Source\PSoC5/cyfitter_cfg.c **** /*******************************************************************************
 376:.\Generated_Source\PSoC5/cyfitter_cfg.c **** * Function Name: AMux_1_Set
 377:.\Generated_Source\PSoC5/cyfitter_cfg.c **** ********************************************************************************
 378:.\Generated_Source\PSoC5/cyfitter_cfg.c **** * Summary:
 379:.\Generated_Source\PSoC5/cyfitter_cfg.c **** *  This function is used to set a particular channel as active on the AMux.
 380:.\Generated_Source\PSoC5/cyfitter_cfg.c **** *
 381:.\Generated_Source\PSoC5/cyfitter_cfg.c **** * Parameters:  
 382:.\Generated_Source\PSoC5/cyfitter_cfg.c **** *   channel - The mux channel input to set as active
 383:.\Generated_Source\PSoC5/cyfitter_cfg.c **** *
 384:.\Generated_Source\PSoC5/cyfitter_cfg.c **** * Return:
 385:.\Generated_Source\PSoC5/cyfitter_cfg.c **** *   void
 386:.\Generated_Source\PSoC5/cyfitter_cfg.c **** *
 387:.\Generated_Source\PSoC5/cyfitter_cfg.c **** *******************************************************************************/
 388:.\Generated_Source\PSoC5/cyfitter_cfg.c **** void AMux_1_Set(uint8 channel)
 389:.\Generated_Source\PSoC5/cyfitter_cfg.c **** {
 688              		.loc 1 389 0
ARM GAS  C:\Users\Patrick\AppData\Local\Temp\ccTrP4AE.s 			page 20


 689              		.cfi_startproc
 690              		@ args = 0, pretend = 0, frame = 16
 691              		@ frame_needed = 1, uses_anonymous_args = 0
 692              		@ link register save eliminated.
 693 0000 80B4     		push	{r7}
 694              		.cfi_def_cfa_offset 4
 695              		.cfi_offset 7, -4
 696 0002 85B0     		sub	sp, sp, #20
 697              		.cfi_def_cfa_offset 24
 698 0004 00AF     		add	r7, sp, #0
 699              		.cfi_def_cfa_register 7
 700 0006 0346     		mov	r3, r0
 701 0008 FB71     		strb	r3, [r7, #7]
 390:.\Generated_Source\PSoC5/cyfitter_cfg.c **** 	uint8 i;
 391:.\Generated_Source\PSoC5/cyfitter_cfg.c **** 	uint8 channelMask = (1UL << channel);
 702              		.loc 1 391 0
 703 000a FB79     		ldrb	r3, [r7, #7]	@ zero_extendqisi2
 704 000c 0122     		movs	r2, #1
 705 000e 02FA03F3 		lsl	r3, r2, r3
 706 0012 FB73     		strb	r3, [r7, #15]
 392:.\Generated_Source\PSoC5/cyfitter_cfg.c **** 	if ((channel < 6u) && ((AMux_1__armsEnabled & channelMask) == ((uint32)0u)))
 707              		.loc 1 392 0
 708 0014 FB79     		ldrb	r3, [r7, #7]	@ zero_extendqisi2
 709 0016 052B     		cmp	r3, #5
 710 0018 3BD8     		bhi	.L26
 711              		.loc 1 392 0 is_stmt 0 discriminator 1
 712 001a 204B     		ldr	r3, .L29
 713 001c 1A78     		ldrb	r2, [r3]	@ zero_extendqisi2
 714 001e FB7B     		ldrb	r3, [r7, #15]
 715 0020 1340     		ands	r3, r3, r2
 716 0022 DBB2     		uxtb	r3, r3
 717 0024 002B     		cmp	r3, #0
 718 0026 34D1     		bne	.L26
 393:.\Generated_Source\PSoC5/cyfitter_cfg.c **** 	{
 394:.\Generated_Source\PSoC5/cyfitter_cfg.c **** 		AMux_1__armsEnabled |= channelMask;
 719              		.loc 1 394 0 is_stmt 1
 720 0028 1C4B     		ldr	r3, .L29
 721 002a 1A78     		ldrb	r2, [r3]	@ zero_extendqisi2
 722 002c FB7B     		ldrb	r3, [r7, #15]
 723 002e 1343     		orrs	r3, r3, r2
 724 0030 DAB2     		uxtb	r2, r3
 725 0032 1A4B     		ldr	r3, .L29
 726 0034 1A70     		strb	r2, [r3]
 395:.\Generated_Source\PSoC5/cyfitter_cfg.c **** 		*AMux_1__outerAddr[channel] |= AMux_1__outerMask[channel];
 727              		.loc 1 395 0
 728 0036 FB79     		ldrb	r3, [r7, #7]	@ zero_extendqisi2
 729 0038 194A     		ldr	r2, .L29+4
 730 003a 52F82330 		ldr	r3, [r2, r3, lsl #2]
 731 003e FA79     		ldrb	r2, [r7, #7]	@ zero_extendqisi2
 732 0040 1749     		ldr	r1, .L29+4
 733 0042 51F82220 		ldr	r2, [r1, r2, lsl #2]
 734 0046 1178     		ldrb	r1, [r2]	@ zero_extendqisi2
 735 0048 FA79     		ldrb	r2, [r7, #7]	@ zero_extendqisi2
 736 004a 1648     		ldr	r0, .L29+8
 737 004c 825C     		ldrb	r2, [r0, r2]	@ zero_extendqisi2
 738 004e 0A43     		orrs	r2, r2, r1
 739 0050 D2B2     		uxtb	r2, r2
ARM GAS  C:\Users\Patrick\AppData\Local\Temp\ccTrP4AE.s 			page 21


 740 0052 1A70     		strb	r2, [r3]
 396:.\Generated_Source\PSoC5/cyfitter_cfg.c **** 		i = AMux_1__innerMap[channel];
 741              		.loc 1 396 0
 742 0054 FB79     		ldrb	r3, [r7, #7]	@ zero_extendqisi2
 743 0056 144A     		ldr	r2, .L29+12
 744 0058 D35C     		ldrb	r3, [r2, r3]
 745 005a BB73     		strb	r3, [r7, #14]
 397:.\Generated_Source\PSoC5/cyfitter_cfg.c **** 		if (AMux_1__refCnt[i] == 0u)
 746              		.loc 1 397 0
 747 005c BB7B     		ldrb	r3, [r7, #14]	@ zero_extendqisi2
 748 005e 134A     		ldr	r2, .L29+16
 749 0060 D35C     		ldrb	r3, [r2, r3]	@ zero_extendqisi2
 750 0062 002B     		cmp	r3, #0
 751 0064 0ED1     		bne	.L28
 398:.\Generated_Source\PSoC5/cyfitter_cfg.c **** 		{
 399:.\Generated_Source\PSoC5/cyfitter_cfg.c **** 			*AMux_1__innerAddr[i] |= AMux_1__innerMask[i];
 752              		.loc 1 399 0
 753 0066 BB7B     		ldrb	r3, [r7, #14]	@ zero_extendqisi2
 754 0068 114A     		ldr	r2, .L29+20
 755 006a 52F82330 		ldr	r3, [r2, r3, lsl #2]
 756 006e BA7B     		ldrb	r2, [r7, #14]	@ zero_extendqisi2
 757 0070 0F49     		ldr	r1, .L29+20
 758 0072 51F82220 		ldr	r2, [r1, r2, lsl #2]
 759 0076 1178     		ldrb	r1, [r2]	@ zero_extendqisi2
 760 0078 BA7B     		ldrb	r2, [r7, #14]	@ zero_extendqisi2
 761 007a 0E48     		ldr	r0, .L29+24
 762 007c 825C     		ldrb	r2, [r0, r2]	@ zero_extendqisi2
 763 007e 0A43     		orrs	r2, r2, r1
 764 0080 D2B2     		uxtb	r2, r2
 765 0082 1A70     		strb	r2, [r3]
 766              	.L28:
 400:.\Generated_Source\PSoC5/cyfitter_cfg.c **** 		}
 401:.\Generated_Source\PSoC5/cyfitter_cfg.c **** 		AMux_1__refCnt[i]++;
 767              		.loc 1 401 0
 768 0084 BB7B     		ldrb	r3, [r7, #14]	@ zero_extendqisi2
 769 0086 094A     		ldr	r2, .L29+16
 770 0088 D25C     		ldrb	r2, [r2, r3]	@ zero_extendqisi2
 771 008a 0132     		adds	r2, r2, #1
 772 008c D1B2     		uxtb	r1, r2
 773 008e 074A     		ldr	r2, .L29+16
 774 0090 D154     		strb	r1, [r2, r3]
 775              	.L26:
 402:.\Generated_Source\PSoC5/cyfitter_cfg.c **** 	}
 403:.\Generated_Source\PSoC5/cyfitter_cfg.c **** }
 776              		.loc 1 403 0
 777 0092 1437     		adds	r7, r7, #20
 778              		.cfi_def_cfa_offset 4
 779 0094 BD46     		mov	sp, r7
 780              		.cfi_def_cfa_register 13
 781              		@ sp needed
 782 0096 5DF8047B 		ldr	r7, [sp], #4
 783              		.cfi_restore 7
 784              		.cfi_def_cfa_offset 0
 785 009a 7047     		bx	lr
 786              	.L30:
 787              		.align	2
 788              	.L29:
ARM GAS  C:\Users\Patrick\AppData\Local\Temp\ccTrP4AE.s 			page 22


 789 009c 00000000 		.word	AMux_1__armsEnabled
 790 00a0 00000000 		.word	AMux_1__outerAddr
 791 00a4 18000000 		.word	AMux_1__outerMask
 792 00a8 30000000 		.word	AMux_1__innerMap
 793 00ac 04000000 		.word	AMux_1__refCnt
 794 00b0 20000000 		.word	AMux_1__innerAddr
 795 00b4 2C000000 		.word	AMux_1__innerMask
 796              		.cfi_endproc
 797              	.LFE8:
 798              		.size	AMux_1_Set, .-AMux_1_Set
 799              		.section	.text.AMux_1_Unset,"ax",%progbits
 800              		.align	2
 801              		.global	AMux_1_Unset
 802              		.thumb
 803              		.thumb_func
 804              		.type	AMux_1_Unset, %function
 805              	AMux_1_Unset:
 806              	.LFB9:
 404:.\Generated_Source\PSoC5/cyfitter_cfg.c **** 
 405:.\Generated_Source\PSoC5/cyfitter_cfg.c **** /*******************************************************************************
 406:.\Generated_Source\PSoC5/cyfitter_cfg.c **** * Function Name: AMux_1_Unset
 407:.\Generated_Source\PSoC5/cyfitter_cfg.c **** ********************************************************************************
 408:.\Generated_Source\PSoC5/cyfitter_cfg.c **** * Summary:
 409:.\Generated_Source\PSoC5/cyfitter_cfg.c **** *  This function is used to clear a particular channel from being active on the
 410:.\Generated_Source\PSoC5/cyfitter_cfg.c **** *  AMux.
 411:.\Generated_Source\PSoC5/cyfitter_cfg.c **** *
 412:.\Generated_Source\PSoC5/cyfitter_cfg.c **** * Parameters:  
 413:.\Generated_Source\PSoC5/cyfitter_cfg.c **** *   channel - The mux channel input to mark inactive
 414:.\Generated_Source\PSoC5/cyfitter_cfg.c **** *
 415:.\Generated_Source\PSoC5/cyfitter_cfg.c **** * Return:
 416:.\Generated_Source\PSoC5/cyfitter_cfg.c **** *   void
 417:.\Generated_Source\PSoC5/cyfitter_cfg.c **** *
 418:.\Generated_Source\PSoC5/cyfitter_cfg.c **** *******************************************************************************/
 419:.\Generated_Source\PSoC5/cyfitter_cfg.c **** void AMux_1_Unset(uint8 channel)
 420:.\Generated_Source\PSoC5/cyfitter_cfg.c **** {
 807              		.loc 1 420 0
 808              		.cfi_startproc
 809              		@ args = 0, pretend = 0, frame = 16
 810              		@ frame_needed = 1, uses_anonymous_args = 0
 811              		@ link register save eliminated.
 812 0000 80B4     		push	{r7}
 813              		.cfi_def_cfa_offset 4
 814              		.cfi_offset 7, -4
 815 0002 85B0     		sub	sp, sp, #20
 816              		.cfi_def_cfa_offset 24
 817 0004 00AF     		add	r7, sp, #0
 818              		.cfi_def_cfa_register 7
 819 0006 0346     		mov	r3, r0
 820 0008 FB71     		strb	r3, [r7, #7]
 421:.\Generated_Source\PSoC5/cyfitter_cfg.c **** 	uint8 i;
 422:.\Generated_Source\PSoC5/cyfitter_cfg.c **** 	uint8 channelMask = (1UL << channel);
 821              		.loc 1 422 0
 822 000a FB79     		ldrb	r3, [r7, #7]	@ zero_extendqisi2
 823 000c 0122     		movs	r2, #1
 824 000e 02FA03F3 		lsl	r3, r2, r3
 825 0012 FB73     		strb	r3, [r7, #15]
 423:.\Generated_Source\PSoC5/cyfitter_cfg.c **** 	if ((channel < 6u) && ((AMux_1__armsEnabled & channelMask) != ((uint32)0u)))
ARM GAS  C:\Users\Patrick\AppData\Local\Temp\ccTrP4AE.s 			page 23


 826              		.loc 1 423 0
 827 0014 FB79     		ldrb	r3, [r7, #7]	@ zero_extendqisi2
 828 0016 052B     		cmp	r3, #5
 829 0018 41D8     		bhi	.L31
 830              		.loc 1 423 0 is_stmt 0 discriminator 1
 831 001a 234B     		ldr	r3, .L33
 832 001c 1A78     		ldrb	r2, [r3]	@ zero_extendqisi2
 833 001e FB7B     		ldrb	r3, [r7, #15]
 834 0020 1340     		ands	r3, r3, r2
 835 0022 DBB2     		uxtb	r3, r3
 836 0024 002B     		cmp	r3, #0
 837 0026 3AD0     		beq	.L31
 424:.\Generated_Source\PSoC5/cyfitter_cfg.c **** 	{
 425:.\Generated_Source\PSoC5/cyfitter_cfg.c **** 		AMux_1__armsEnabled &= (uint8)~channelMask;
 838              		.loc 1 425 0 is_stmt 1
 839 0028 FB7B     		ldrb	r3, [r7, #15]
 840 002a DB43     		mvns	r3, r3
 841 002c DAB2     		uxtb	r2, r3
 842 002e 1E4B     		ldr	r3, .L33
 843 0030 1B78     		ldrb	r3, [r3]	@ zero_extendqisi2
 844 0032 1340     		ands	r3, r3, r2
 845 0034 DAB2     		uxtb	r2, r3
 846 0036 1C4B     		ldr	r3, .L33
 847 0038 1A70     		strb	r2, [r3]
 426:.\Generated_Source\PSoC5/cyfitter_cfg.c **** 		*AMux_1__outerAddr[channel] &= (uint8)~AMux_1__outerMask[channel];
 848              		.loc 1 426 0
 849 003a FB79     		ldrb	r3, [r7, #7]	@ zero_extendqisi2
 850 003c 1B4A     		ldr	r2, .L33+4
 851 003e 52F82330 		ldr	r3, [r2, r3, lsl #2]
 852 0042 FA79     		ldrb	r2, [r7, #7]	@ zero_extendqisi2
 853 0044 1949     		ldr	r1, .L33+4
 854 0046 51F82220 		ldr	r2, [r1, r2, lsl #2]
 855 004a 1178     		ldrb	r1, [r2]	@ zero_extendqisi2
 856 004c FA79     		ldrb	r2, [r7, #7]	@ zero_extendqisi2
 857 004e 1848     		ldr	r0, .L33+8
 858 0050 825C     		ldrb	r2, [r0, r2]	@ zero_extendqisi2
 859 0052 D243     		mvns	r2, r2
 860 0054 D2B2     		uxtb	r2, r2
 861 0056 0A40     		ands	r2, r2, r1
 862 0058 D2B2     		uxtb	r2, r2
 863 005a 1A70     		strb	r2, [r3]
 427:.\Generated_Source\PSoC5/cyfitter_cfg.c **** 		i = AMux_1__innerMap[channel];
 864              		.loc 1 427 0
 865 005c FB79     		ldrb	r3, [r7, #7]	@ zero_extendqisi2
 866 005e 154A     		ldr	r2, .L33+12
 867 0060 D35C     		ldrb	r3, [r2, r3]
 868 0062 BB73     		strb	r3, [r7, #14]
 428:.\Generated_Source\PSoC5/cyfitter_cfg.c **** 		AMux_1__refCnt[i]--;
 869              		.loc 1 428 0
 870 0064 BB7B     		ldrb	r3, [r7, #14]	@ zero_extendqisi2
 871 0066 144A     		ldr	r2, .L33+16
 872 0068 D25C     		ldrb	r2, [r2, r3]	@ zero_extendqisi2
 873 006a 013A     		subs	r2, r2, #1
 874 006c D1B2     		uxtb	r1, r2
 875 006e 124A     		ldr	r2, .L33+16
 876 0070 D154     		strb	r1, [r2, r3]
 429:.\Generated_Source\PSoC5/cyfitter_cfg.c **** 		if (AMux_1__refCnt[i] == 0)
ARM GAS  C:\Users\Patrick\AppData\Local\Temp\ccTrP4AE.s 			page 24


 877              		.loc 1 429 0
 878 0072 BB7B     		ldrb	r3, [r7, #14]	@ zero_extendqisi2
 879 0074 104A     		ldr	r2, .L33+16
 880 0076 D35C     		ldrb	r3, [r2, r3]	@ zero_extendqisi2
 881 0078 002B     		cmp	r3, #0
 882 007a 10D1     		bne	.L31
 430:.\Generated_Source\PSoC5/cyfitter_cfg.c **** 		{
 431:.\Generated_Source\PSoC5/cyfitter_cfg.c **** 			*AMux_1__innerAddr[i] &= (uint8)~AMux_1__innerMask[i];
 883              		.loc 1 431 0
 884 007c BB7B     		ldrb	r3, [r7, #14]	@ zero_extendqisi2
 885 007e 0F4A     		ldr	r2, .L33+20
 886 0080 52F82330 		ldr	r3, [r2, r3, lsl #2]
 887 0084 BA7B     		ldrb	r2, [r7, #14]	@ zero_extendqisi2
 888 0086 0D49     		ldr	r1, .L33+20
 889 0088 51F82220 		ldr	r2, [r1, r2, lsl #2]
 890 008c 1178     		ldrb	r1, [r2]	@ zero_extendqisi2
 891 008e BA7B     		ldrb	r2, [r7, #14]	@ zero_extendqisi2
 892 0090 0B48     		ldr	r0, .L33+24
 893 0092 825C     		ldrb	r2, [r0, r2]	@ zero_extendqisi2
 894 0094 D243     		mvns	r2, r2
 895 0096 D2B2     		uxtb	r2, r2
 896 0098 0A40     		ands	r2, r2, r1
 897 009a D2B2     		uxtb	r2, r2
 898 009c 1A70     		strb	r2, [r3]
 899              	.L31:
 432:.\Generated_Source\PSoC5/cyfitter_cfg.c **** 		}
 433:.\Generated_Source\PSoC5/cyfitter_cfg.c **** 	}
 434:.\Generated_Source\PSoC5/cyfitter_cfg.c **** }
 900              		.loc 1 434 0
 901 009e 1437     		adds	r7, r7, #20
 902              		.cfi_def_cfa_offset 4
 903 00a0 BD46     		mov	sp, r7
 904              		.cfi_def_cfa_register 13
 905              		@ sp needed
 906 00a2 5DF8047B 		ldr	r7, [sp], #4
 907              		.cfi_restore 7
 908              		.cfi_def_cfa_offset 0
 909 00a6 7047     		bx	lr
 910              	.L34:
 911              		.align	2
 912              	.L33:
 913 00a8 00000000 		.word	AMux_1__armsEnabled
 914 00ac 00000000 		.word	AMux_1__outerAddr
 915 00b0 18000000 		.word	AMux_1__outerMask
 916 00b4 30000000 		.word	AMux_1__innerMap
 917 00b8 04000000 		.word	AMux_1__refCnt
 918 00bc 20000000 		.word	AMux_1__innerAddr
 919 00c0 2C000000 		.word	AMux_1__innerMask
 920              		.cfi_endproc
 921              	.LFE9:
 922              		.size	AMux_1_Unset, .-AMux_1_Unset
 923              		.section	.text.cyfitter_cfg,"ax",%progbits
 924              		.align	2
 925              		.global	cyfitter_cfg
 926              		.thumb
 927              		.thumb_func
 928              		.type	cyfitter_cfg, %function
ARM GAS  C:\Users\Patrick\AppData\Local\Temp\ccTrP4AE.s 			page 25


 929              	cyfitter_cfg:
 930              	.LFB10:
 435:.\Generated_Source\PSoC5/cyfitter_cfg.c **** 
 436:.\Generated_Source\PSoC5/cyfitter_cfg.c **** 
 437:.\Generated_Source\PSoC5/cyfitter_cfg.c **** 
 438:.\Generated_Source\PSoC5/cyfitter_cfg.c **** /*******************************************************************************
 439:.\Generated_Source\PSoC5/cyfitter_cfg.c **** * Function Name: cyfitter_cfg
 440:.\Generated_Source\PSoC5/cyfitter_cfg.c **** ********************************************************************************
 441:.\Generated_Source\PSoC5/cyfitter_cfg.c **** * Summary:
 442:.\Generated_Source\PSoC5/cyfitter_cfg.c **** *  This function is called by the start-up code for the selected device. It
 443:.\Generated_Source\PSoC5/cyfitter_cfg.c **** *  performs all of the necessary device configuration based on the design
 444:.\Generated_Source\PSoC5/cyfitter_cfg.c **** *  settings.  This includes settings from the Design Wide Resources (DWR) such
 445:.\Generated_Source\PSoC5/cyfitter_cfg.c **** *  as Clocks and Pins as well as any component configuration that is necessary.
 446:.\Generated_Source\PSoC5/cyfitter_cfg.c **** *
 447:.\Generated_Source\PSoC5/cyfitter_cfg.c **** * Parameters:  
 448:.\Generated_Source\PSoC5/cyfitter_cfg.c **** *   void
 449:.\Generated_Source\PSoC5/cyfitter_cfg.c **** *
 450:.\Generated_Source\PSoC5/cyfitter_cfg.c **** * Return:
 451:.\Generated_Source\PSoC5/cyfitter_cfg.c **** *   void
 452:.\Generated_Source\PSoC5/cyfitter_cfg.c **** *
 453:.\Generated_Source\PSoC5/cyfitter_cfg.c **** *******************************************************************************/
 454:.\Generated_Source\PSoC5/cyfitter_cfg.c **** 
 455:.\Generated_Source\PSoC5/cyfitter_cfg.c **** void cyfitter_cfg(void)
 456:.\Generated_Source\PSoC5/cyfitter_cfg.c **** {
 931              		.loc 1 456 0
 932              		.cfi_startproc
 933              		@ args = 0, pretend = 0, frame = 24
 934              		@ frame_needed = 1, uses_anonymous_args = 0
 935 0000 80B5     		push	{r7, lr}
 936              		.cfi_def_cfa_offset 8
 937              		.cfi_offset 7, -8
 938              		.cfi_offset 14, -4
 939 0002 86B0     		sub	sp, sp, #24
 940              		.cfi_def_cfa_offset 32
 941 0004 00AF     		add	r7, sp, #0
 942              		.cfi_def_cfa_register 7
 457:.\Generated_Source\PSoC5/cyfitter_cfg.c **** #ifdef CYGlobalIntDisable
 458:.\Generated_Source\PSoC5/cyfitter_cfg.c **** 	/* Disable interrupts by default. Let user enable if/when they want. */
 459:.\Generated_Source\PSoC5/cyfitter_cfg.c **** 	CYGlobalIntDisable
 943              		.loc 1 459 0
 944              	@ 459 ".\Generated_Source\PSoC5\cyfitter_cfg.c" 1
 945 0006 72B6     		CPSID   i
 946              	@ 0 "" 2
 460:.\Generated_Source\PSoC5/cyfitter_cfg.c **** #endif
 461:.\Generated_Source\PSoC5/cyfitter_cfg.c **** 
 462:.\Generated_Source\PSoC5/cyfitter_cfg.c **** 
 463:.\Generated_Source\PSoC5/cyfitter_cfg.c **** 	/* Set Flash Cycles based on max possible frequency in case a glitch occurs during ClockSetup(). *
 464:.\Generated_Source\PSoC5/cyfitter_cfg.c **** 	CY_SET_XTND_REG8((void CYFAR *)(CYREG_CACHE_CC_CTL), (((CYDEV_INSTRUCT_CACHE_ENABLED) != 0) ? 0x61
 947              		.loc 1 464 0
 948              		.thumb
 949 0008 4A4B     		ldr	r3, .L40
 950 000a 6022     		movs	r2, #96
 951 000c 1A70     		strb	r2, [r3]
 465:.\Generated_Source\PSoC5/cyfitter_cfg.c **** 	/* Setup clocks based on selections from Clock DWR */
 466:.\Generated_Source\PSoC5/cyfitter_cfg.c **** 	ClockSetup();
 952              		.loc 1 466 0
 953 000e FFF7FEFF 		bl	ClockSetup
ARM GAS  C:\Users\Patrick\AppData\Local\Temp\ccTrP4AE.s 			page 26


 467:.\Generated_Source\PSoC5/cyfitter_cfg.c **** 	/* Enable/Disable Debug functionality based on settings from System DWR */
 468:.\Generated_Source\PSoC5/cyfitter_cfg.c **** 	CY_SET_XTND_REG8((void CYFAR *)CYREG_MLOGIC_DEBUG, (CY_GET_XTND_REG8((void CYFAR *)CYREG_MLOGIC_DE
 954              		.loc 1 468 0
 955 0012 494A     		ldr	r2, .L40+4
 956 0014 484B     		ldr	r3, .L40+4
 957 0016 1B78     		ldrb	r3, [r3]
 958 0018 DBB2     		uxtb	r3, r3
 959 001a 43F00403 		orr	r3, r3, #4
 960 001e DBB2     		uxtb	r3, r3
 961 0020 1370     		strb	r3, [r2]
 962              	.LBB3:
 469:.\Generated_Source\PSoC5/cyfitter_cfg.c **** 
 470:.\Generated_Source\PSoC5/cyfitter_cfg.c **** 	{
 471:.\Generated_Source\PSoC5/cyfitter_cfg.c **** 
 472:.\Generated_Source\PSoC5/cyfitter_cfg.c **** 		CYPACKED typedef struct {
 473:.\Generated_Source\PSoC5/cyfitter_cfg.c **** 			void CYFAR *address;
 474:.\Generated_Source\PSoC5/cyfitter_cfg.c **** 			uint16 size;
 475:.\Generated_Source\PSoC5/cyfitter_cfg.c **** 		} CYPACKED_ATTR cfg_memset_t;
 476:.\Generated_Source\PSoC5/cyfitter_cfg.c **** 
 477:.\Generated_Source\PSoC5/cyfitter_cfg.c **** 
 478:.\Generated_Source\PSoC5/cyfitter_cfg.c **** 		CYPACKED typedef struct {
 479:.\Generated_Source\PSoC5/cyfitter_cfg.c **** 			void CYFAR *dest;
 480:.\Generated_Source\PSoC5/cyfitter_cfg.c **** 			const void CYFAR *src;
 481:.\Generated_Source\PSoC5/cyfitter_cfg.c **** 			uint16 size;
 482:.\Generated_Source\PSoC5/cyfitter_cfg.c **** 		} CYPACKED_ATTR cfg_memcpy_t;
 483:.\Generated_Source\PSoC5/cyfitter_cfg.c **** 
 484:.\Generated_Source\PSoC5/cyfitter_cfg.c **** 		static const cfg_memset_t CYCODE cfg_memset_list [] = {
 485:.\Generated_Source\PSoC5/cyfitter_cfg.c **** 			/* address, size */
 486:.\Generated_Source\PSoC5/cyfitter_cfg.c **** 			{(void CYFAR *)(CYREG_PRT2_DR), 16u},
 487:.\Generated_Source\PSoC5/cyfitter_cfg.c **** 			{(void CYFAR *)(CYREG_PRT4_DR), 48u},
 488:.\Generated_Source\PSoC5/cyfitter_cfg.c **** 			{(void CYFAR *)(CYREG_PRT15_DR), 16u},
 489:.\Generated_Source\PSoC5/cyfitter_cfg.c **** 			{(void CYFAR *)(CYDEV_UCFG_B0_P0_U0_BASE), 4096u},
 490:.\Generated_Source\PSoC5/cyfitter_cfg.c **** 			{(void CYFAR *)(CYDEV_UCFG_B1_P2_U0_BASE), 1152u},
 491:.\Generated_Source\PSoC5/cyfitter_cfg.c **** 			{(void CYFAR *)(CYDEV_UCFG_B1_P4_ROUTE_BASE), 256u},
 492:.\Generated_Source\PSoC5/cyfitter_cfg.c **** 			{(void CYFAR *)(CYDEV_UCFG_B1_P5_U1_BASE), 384u},
 493:.\Generated_Source\PSoC5/cyfitter_cfg.c **** 			{(void CYFAR *)(CYDEV_UCFG_DSI0_BASE), 2560u},
 494:.\Generated_Source\PSoC5/cyfitter_cfg.c **** 			{(void CYFAR *)(CYDEV_UCFG_DSI12_BASE), 512u},
 495:.\Generated_Source\PSoC5/cyfitter_cfg.c **** 			{(void CYFAR *)(CYREG_BCTL0_MDCLK_EN), 32u},
 496:.\Generated_Source\PSoC5/cyfitter_cfg.c **** 		};
 497:.\Generated_Source\PSoC5/cyfitter_cfg.c **** 
 498:.\Generated_Source\PSoC5/cyfitter_cfg.c **** 		static const cfg_memcpy_t CYCODE cfg_memcpy_list [] = {
 499:.\Generated_Source\PSoC5/cyfitter_cfg.c **** 			/* dest, src, size */
 500:.\Generated_Source\PSoC5/cyfitter_cfg.c **** 			{(void CYFAR *)(CYDEV_UCFG_B1_P4_U1_BASE), BS_UDB_0_1_0_CONFIG_VAL, 128u},
 501:.\Generated_Source\PSoC5/cyfitter_cfg.c **** 			{(void CYFAR *)(CYDEV_UCFG_B1_P5_U0_BASE), BS_UDB_0_0_0_CONFIG_VAL, 128u},
 502:.\Generated_Source\PSoC5/cyfitter_cfg.c **** 		};
 503:.\Generated_Source\PSoC5/cyfitter_cfg.c **** 
 504:.\Generated_Source\PSoC5/cyfitter_cfg.c **** 		uint8 CYDATA i;
 505:.\Generated_Source\PSoC5/cyfitter_cfg.c **** 
 506:.\Generated_Source\PSoC5/cyfitter_cfg.c **** 		/* Zero out critical memory blocks before beginning configuration */
 507:.\Generated_Source\PSoC5/cyfitter_cfg.c **** 		for (i = 0u; i < (sizeof(cfg_memset_list)/sizeof(cfg_memset_list[0])); i++)
 963              		.loc 1 507 0
 964 0022 0023     		movs	r3, #0
 965 0024 FB75     		strb	r3, [r7, #23]
 966 0026 13E0     		b	.L36
 967              	.L37:
 968              	.LBB4:
 508:.\Generated_Source\PSoC5/cyfitter_cfg.c **** 		{
ARM GAS  C:\Users\Patrick\AppData\Local\Temp\ccTrP4AE.s 			page 27


 509:.\Generated_Source\PSoC5/cyfitter_cfg.c **** 			const cfg_memset_t CYCODE * CYDATA ms = &cfg_memset_list[i];
 969              		.loc 1 509 0 discriminator 3
 970 0028 FA7D     		ldrb	r2, [r7, #23]	@ zero_extendqisi2
 971 002a 1346     		mov	r3, r2
 972 002c 5B00     		lsls	r3, r3, #1
 973 002e 1344     		add	r3, r3, r2
 974 0030 5B00     		lsls	r3, r3, #1
 975 0032 424A     		ldr	r2, .L40+8
 976 0034 1344     		add	r3, r3, r2
 977 0036 3B61     		str	r3, [r7, #16]
 510:.\Generated_Source\PSoC5/cyfitter_cfg.c **** 			CYMEMZERO(ms->address, (size_t)(uint32)(ms->size));
 978              		.loc 1 510 0 discriminator 3
 979 0038 3B69     		ldr	r3, [r7, #16]
 980 003a 1A68     		ldr	r2, [r3]	@ unaligned
 981 003c 3B69     		ldr	r3, [r7, #16]
 982 003e 9B88     		ldrh	r3, [r3, #4]	@ unaligned
 983 0040 9BB2     		uxth	r3, r3
 984 0042 1046     		mov	r0, r2
 985 0044 1946     		mov	r1, r3
 986 0046 FFF7FEFF 		bl	CYMEMZERO
 987              	.LBE4:
 507:.\Generated_Source\PSoC5/cyfitter_cfg.c **** 		{
 988              		.loc 1 507 0 discriminator 3
 989 004a FB7D     		ldrb	r3, [r7, #23]	@ zero_extendqisi2
 990 004c 0133     		adds	r3, r3, #1
 991 004e FB75     		strb	r3, [r7, #23]
 992              	.L36:
 507:.\Generated_Source\PSoC5/cyfitter_cfg.c **** 		{
 993              		.loc 1 507 0 is_stmt 0 discriminator 1
 994 0050 FB7D     		ldrb	r3, [r7, #23]	@ zero_extendqisi2
 995 0052 092B     		cmp	r3, #9
 996 0054 E8D9     		bls	.L37
 511:.\Generated_Source\PSoC5/cyfitter_cfg.c **** 		}
 512:.\Generated_Source\PSoC5/cyfitter_cfg.c **** 
 513:.\Generated_Source\PSoC5/cyfitter_cfg.c **** 		/* Copy device configuration data into registers */
 514:.\Generated_Source\PSoC5/cyfitter_cfg.c **** 		for (i = 0u; i < (sizeof(cfg_memcpy_list)/sizeof(cfg_memcpy_list[0])); i++)
 997              		.loc 1 514 0 is_stmt 1
 998 0056 0023     		movs	r3, #0
 999 0058 FB75     		strb	r3, [r7, #23]
 1000 005a 1CE0     		b	.L38
 1001              	.L39:
 1002              	.LBB5:
 515:.\Generated_Source\PSoC5/cyfitter_cfg.c **** 		{
 516:.\Generated_Source\PSoC5/cyfitter_cfg.c **** 			const cfg_memcpy_t CYCODE * CYDATA mc = &cfg_memcpy_list[i];
 1003              		.loc 1 516 0 discriminator 3
 1004 005c FA7D     		ldrb	r2, [r7, #23]	@ zero_extendqisi2
 1005 005e 1346     		mov	r3, r2
 1006 0060 9B00     		lsls	r3, r3, #2
 1007 0062 1344     		add	r3, r3, r2
 1008 0064 5B00     		lsls	r3, r3, #1
 1009 0066 364A     		ldr	r2, .L40+12
 1010 0068 1344     		add	r3, r3, r2
 1011 006a FB60     		str	r3, [r7, #12]
 517:.\Generated_Source\PSoC5/cyfitter_cfg.c **** 			void * CYDATA destPtr = mc->dest;
 1012              		.loc 1 517 0 discriminator 3
 1013 006c FB68     		ldr	r3, [r7, #12]
 1014 006e 1B68     		ldr	r3, [r3]	@ unaligned
ARM GAS  C:\Users\Patrick\AppData\Local\Temp\ccTrP4AE.s 			page 28


 1015 0070 BB60     		str	r3, [r7, #8]
 518:.\Generated_Source\PSoC5/cyfitter_cfg.c **** 			const void * CYDATA srcPtr = mc->src;
 1016              		.loc 1 518 0 discriminator 3
 1017 0072 FB68     		ldr	r3, [r7, #12]
 1018 0074 5B68     		ldr	r3, [r3, #4]	@ unaligned
 1019 0076 7B60     		str	r3, [r7, #4]
 519:.\Generated_Source\PSoC5/cyfitter_cfg.c **** 			uint16 CYDATA numBytes = mc->size;
 1020              		.loc 1 519 0 discriminator 3
 1021 0078 FB68     		ldr	r3, [r7, #12]
 1022 007a 1A7A     		ldrb	r2, [r3, #8]	@ zero_extendqisi2
 1023 007c 5B7A     		ldrb	r3, [r3, #9]	@ zero_extendqisi2
 1024 007e 1B02     		lsls	r3, r3, #8
 1025 0080 1343     		orrs	r3, r3, r2
 1026 0082 7B80     		strh	r3, [r7, #2]	@ movhi
 520:.\Generated_Source\PSoC5/cyfitter_cfg.c **** 			CYCONFIGCPY(destPtr, srcPtr, numBytes);
 1027              		.loc 1 520 0 discriminator 3
 1028 0084 7B88     		ldrh	r3, [r7, #2]
 1029 0086 B868     		ldr	r0, [r7, #8]
 1030 0088 7968     		ldr	r1, [r7, #4]
 1031 008a 1A46     		mov	r2, r3
 1032 008c FFF7FEFF 		bl	CYCONFIGCPY
 1033              	.LBE5:
 514:.\Generated_Source\PSoC5/cyfitter_cfg.c **** 		{
 1034              		.loc 1 514 0 discriminator 3
 1035 0090 FB7D     		ldrb	r3, [r7, #23]	@ zero_extendqisi2
 1036 0092 0133     		adds	r3, r3, #1
 1037 0094 FB75     		strb	r3, [r7, #23]
 1038              	.L38:
 514:.\Generated_Source\PSoC5/cyfitter_cfg.c **** 		{
 1039              		.loc 1 514 0 is_stmt 0 discriminator 1
 1040 0096 FB7D     		ldrb	r3, [r7, #23]	@ zero_extendqisi2
 1041 0098 012B     		cmp	r3, #1
 1042 009a DFD9     		bls	.L39
 521:.\Generated_Source\PSoC5/cyfitter_cfg.c **** 		}
 522:.\Generated_Source\PSoC5/cyfitter_cfg.c **** 
 523:.\Generated_Source\PSoC5/cyfitter_cfg.c **** 		cfg_write_bytes32(cy_cfg_addr_table, cy_cfg_data_table);
 1043              		.loc 1 523 0 is_stmt 1
 1044 009c 4FF09040 		mov	r0, #1207959552
 1045 00a0 2849     		ldr	r1, .L40+16
 1046 00a2 FFF7FEFF 		bl	cfg_write_bytes32
 524:.\Generated_Source\PSoC5/cyfitter_cfg.c **** 
 525:.\Generated_Source\PSoC5/cyfitter_cfg.c **** 		/* Enable digital routing */
 526:.\Generated_Source\PSoC5/cyfitter_cfg.c **** 		CY_SET_XTND_REG8((void CYFAR *)CYREG_BCTL0_BANK_CTL, CY_GET_XTND_REG8((void CYFAR *)CYREG_BCTL0_B
 1047              		.loc 1 526 0
 1048 00a6 284A     		ldr	r2, .L40+20
 1049 00a8 274B     		ldr	r3, .L40+20
 1050 00aa 1B78     		ldrb	r3, [r3]
 1051 00ac DBB2     		uxtb	r3, r3
 1052 00ae 43F00203 		orr	r3, r3, #2
 1053 00b2 DBB2     		uxtb	r3, r3
 1054 00b4 1370     		strb	r3, [r2]
 527:.\Generated_Source\PSoC5/cyfitter_cfg.c **** 		CY_SET_XTND_REG8((void CYFAR *)CYREG_BCTL1_BANK_CTL, CY_GET_XTND_REG8((void CYFAR *)CYREG_BCTL1_B
 1055              		.loc 1 527 0
 1056 00b6 254A     		ldr	r2, .L40+24
 1057 00b8 244B     		ldr	r3, .L40+24
 1058 00ba 1B78     		ldrb	r3, [r3]
 1059 00bc DBB2     		uxtb	r3, r3
ARM GAS  C:\Users\Patrick\AppData\Local\Temp\ccTrP4AE.s 			page 29


 1060 00be 43F00203 		orr	r3, r3, #2
 1061 00c2 DBB2     		uxtb	r3, r3
 1062 00c4 1370     		strb	r3, [r2]
 528:.\Generated_Source\PSoC5/cyfitter_cfg.c **** 
 529:.\Generated_Source\PSoC5/cyfitter_cfg.c **** 		/* Enable UDB array */
 530:.\Generated_Source\PSoC5/cyfitter_cfg.c **** 		CY_SET_XTND_REG8((void CYFAR *)CYREG_PM_ACT_CFG0, CY_GET_XTND_REG8((void CYFAR *)CYREG_PM_ACT_CFG
 1063              		.loc 1 530 0
 1064 00c6 224A     		ldr	r2, .L40+28
 1065 00c8 214B     		ldr	r3, .L40+28
 1066 00ca 1B78     		ldrb	r3, [r3]
 1067 00cc DBB2     		uxtb	r3, r3
 1068 00ce 43F04003 		orr	r3, r3, #64
 1069 00d2 DBB2     		uxtb	r3, r3
 1070 00d4 1370     		strb	r3, [r2]
 531:.\Generated_Source\PSoC5/cyfitter_cfg.c **** 		CY_SET_XTND_REG8((void CYFAR *)CYREG_PM_AVAIL_CR2, CY_GET_XTND_REG8((void CYFAR *)CYREG_PM_AVAIL_
 1071              		.loc 1 531 0
 1072 00d6 1F4A     		ldr	r2, .L40+32
 1073 00d8 1E4B     		ldr	r3, .L40+32
 1074 00da 1B78     		ldrb	r3, [r3]
 1075 00dc DBB2     		uxtb	r3, r3
 1076 00de 43F01003 		orr	r3, r3, #16
 1077 00e2 DBB2     		uxtb	r3, r3
 1078 00e4 1370     		strb	r3, [r2]
 1079              	.LBE3:
 532:.\Generated_Source\PSoC5/cyfitter_cfg.c **** 	}
 533:.\Generated_Source\PSoC5/cyfitter_cfg.c **** 
 534:.\Generated_Source\PSoC5/cyfitter_cfg.c **** 
 535:.\Generated_Source\PSoC5/cyfitter_cfg.c **** 	/* Perform second pass device configuration. These items must be configured in specific order afte
 536:.\Generated_Source\PSoC5/cyfitter_cfg.c **** 	CYCONFIGCPY((void CYFAR *)(CYREG_PRT0_DM0), (const void CYFAR *)(BS_IOPINS0_0_VAL), 8u);
 1080              		.loc 1 536 0
 1081 00e6 1C48     		ldr	r0, .L40+36
 1082 00e8 1C49     		ldr	r1, .L40+40
 1083 00ea 0822     		movs	r2, #8
 1084 00ec FFF7FEFF 		bl	CYCONFIGCPY
 537:.\Generated_Source\PSoC5/cyfitter_cfg.c **** 	CYCONFIGCPY((void CYFAR *)(CYREG_PRT12_DR), (const void CYFAR *)(BS_IOPINS0_7_VAL), 10u);
 1085              		.loc 1 537 0
 1086 00f0 1B48     		ldr	r0, .L40+44
 1087 00f2 1C49     		ldr	r1, .L40+48
 1088 00f4 0A22     		movs	r2, #10
 1089 00f6 FFF7FEFF 		bl	CYCONFIGCPY
 538:.\Generated_Source\PSoC5/cyfitter_cfg.c **** 	CYCONFIGCPY((void CYFAR *)(CYREG_PRT1_DR), (const void CYFAR *)(BS_IOPINS0_1_VAL), 10u);
 1090              		.loc 1 538 0
 1091 00fa 1B48     		ldr	r0, .L40+52
 1092 00fc 1B49     		ldr	r1, .L40+56
 1093 00fe 0A22     		movs	r2, #10
 1094 0100 FFF7FEFF 		bl	CYCONFIGCPY
 539:.\Generated_Source\PSoC5/cyfitter_cfg.c **** 	CYCONFIGCPY((void CYFAR *)(CYREG_PRT3_DM0), (const void CYFAR *)(BS_IOPINS0_3_VAL), 8u);
 1095              		.loc 1 539 0
 1096 0104 1A48     		ldr	r0, .L40+60
 1097 0106 1B49     		ldr	r1, .L40+64
 1098 0108 0822     		movs	r2, #8
 1099 010a FFF7FEFF 		bl	CYCONFIGCPY
 540:.\Generated_Source\PSoC5/cyfitter_cfg.c **** 	/* Switch Boost to the precision bandgap reference from its internal reference */
 541:.\Generated_Source\PSoC5/cyfitter_cfg.c **** 	CY_SET_REG8((void CYXDATA *)CYREG_BOOST_CR2, (CY_GET_REG8((void CYXDATA *)CYREG_BOOST_CR2) | 0x08u
 1100              		.loc 1 541 0
 1101 010e 1A4A     		ldr	r2, .L40+68
 1102 0110 194B     		ldr	r3, .L40+68
ARM GAS  C:\Users\Patrick\AppData\Local\Temp\ccTrP4AE.s 			page 30


 1103 0112 1B78     		ldrb	r3, [r3]
 1104 0114 DBB2     		uxtb	r3, r3
 1105 0116 43F00803 		orr	r3, r3, #8
 1106 011a DBB2     		uxtb	r3, r3
 1107 011c 1370     		strb	r3, [r2]
 542:.\Generated_Source\PSoC5/cyfitter_cfg.c **** 
 543:.\Generated_Source\PSoC5/cyfitter_cfg.c **** 	/* Perform basic analog initialization to defaults */
 544:.\Generated_Source\PSoC5/cyfitter_cfg.c **** 	AnalogSetDefault();
 1108              		.loc 1 544 0
 1109 011e FFF7FEFF 		bl	AnalogSetDefault
 545:.\Generated_Source\PSoC5/cyfitter_cfg.c **** 
 546:.\Generated_Source\PSoC5/cyfitter_cfg.c **** 	/* Configure alternate active mode */
 547:.\Generated_Source\PSoC5/cyfitter_cfg.c **** 	CYCONFIGCPY((void CYFAR *)CYDEV_PM_STBY_BASE, (const void CYFAR *)CYDEV_PM_ACT_BASE, 14u);
 1110              		.loc 1 547 0
 1111 0122 1648     		ldr	r0, .L40+72
 1112 0124 0A49     		ldr	r1, .L40+28
 1113 0126 0E22     		movs	r2, #14
 1114 0128 FFF7FEFF 		bl	CYCONFIGCPY
 548:.\Generated_Source\PSoC5/cyfitter_cfg.c **** }
 1115              		.loc 1 548 0
 1116 012c 1837     		adds	r7, r7, #24
 1117              		.cfi_def_cfa_offset 8
 1118 012e BD46     		mov	sp, r7
 1119              		.cfi_def_cfa_register 13
 1120              		@ sp needed
 1121 0130 80BD     		pop	{r7, pc}
 1122              	.L41:
 1123 0132 00BF     		.align	2
 1124              	.L40:
 1125 0134 00480040 		.word	1073760256
 1126 0138 E8460040 		.word	1073759976
 1127 013c 38000000 		.word	cfg_memset_list.4908
 1128 0140 74000000 		.word	cfg_memcpy_list.4909
 1129 0144 84000048 		.word	1207959684
 1130 0148 03500140 		.word	1073827843
 1131 014c 13500140 		.word	1073827859
 1132 0150 A0430040 		.word	1073759136
 1133 0154 C2430040 		.word	1073759170
 1134 0158 02510040 		.word	1073762562
 1135 015c C4070048 		.word	1207961540
 1136 0160 C0510040 		.word	1073762752
 1137 0164 CC070048 		.word	1207961548
 1138 0168 10510040 		.word	1073762576
 1139 016c D8070048 		.word	1207961560
 1140 0170 32510040 		.word	1073762610
 1141 0174 E4070048 		.word	1207961572
 1142 0178 22430040 		.word	1073759010
 1143 017c B0430040 		.word	1073759152
 1144              		.cfi_endproc
 1145              	.LFE10:
 1146              		.size	cyfitter_cfg, .-cyfitter_cfg
 1147              		.section	.rodata
 1148 0036 0000     		.align	2
 1149              		.type	cfg_memset_list.4908, %object
 1150              		.size	cfg_memset_list.4908, 60
 1151              	cfg_memset_list.4908:
 1152 0038 20510040 		.word	1073762592
ARM GAS  C:\Users\Patrick\AppData\Local\Temp\ccTrP4AE.s 			page 31


 1153 003c 1000     		.short	16
 1154 003e 40510040 		.4byte	1073762624
 1155 0042 3000     		.short	48
 1156 0044 F0510040 		.word	1073762800
 1157 0048 1000     		.short	16
 1158 004a 00000140 		.4byte	1073807360
 1159 004e 0010     		.short	4096
 1160 0050 00140140 		.word	1073812480
 1161 0054 8004     		.short	1152
 1162 0056 00190140 		.4byte	1073813760
 1163 005a 0001     		.short	256
 1164 005c 801A0140 		.word	1073814144
 1165 0060 8001     		.short	384
 1166 0062 00400140 		.4byte	1073823744
 1167 0066 000A     		.short	2560
 1168 0068 004C0140 		.word	1073826816
 1169 006c 0002     		.short	512
 1170 006e 00500140 		.4byte	1073827840
 1171 0072 2000     		.short	32
 1172              		.align	2
 1173              		.type	cfg_memcpy_list.4909, %object
 1174              		.size	cfg_memcpy_list.4909, 20
 1175              	cfg_memcpy_list.4909:
 1176 0074 80180140 		.word	1073813632
 1177 0078 C4060048 		.word	1207961284
 1178 007c 8000     		.short	128
 1179 007e 001A0140 		.4byte	1073814016
 1180 0082 44070048 		.4byte	1207961412
 1181 0086 8000     		.short	128
 1182              		.text
 1183              	.Letext0:
 1184              		.file 2 "c:\\program files (x86)\\cypress\\psoc creator\\3.3\\psoc creator\\import\\gnu\\arm\\4.9.
 1185              		.file 3 ".\\Generated_Source\\PSoC5\\cytypes.h"
 1186              		.section	.debug_info,"",%progbits
 1187              	.Ldebug_info0:
 1188 0000 CA050000 		.4byte	0x5ca
 1189 0004 0400     		.2byte	0x4
 1190 0006 00000000 		.4byte	.Ldebug_abbrev0
 1191 000a 04       		.byte	0x4
 1192 000b 01       		.uleb128 0x1
 1193 000c CE010000 		.4byte	.LASF62
 1194 0010 01       		.byte	0x1
 1195 0011 0C010000 		.4byte	.LASF63
 1196 0015 FD020000 		.4byte	.LASF64
 1197 0019 00000000 		.4byte	.Ldebug_ranges0+0
 1198 001d 00000000 		.4byte	0
 1199 0021 00000000 		.4byte	.Ldebug_line0
 1200 0025 02       		.uleb128 0x2
 1201 0026 04       		.byte	0x4
 1202 0027 05       		.byte	0x5
 1203 0028 696E7400 		.ascii	"int\000"
 1204 002c 03       		.uleb128 0x3
 1205 002d 10000000 		.4byte	.LASF11
 1206 0031 02       		.byte	0x2
 1207 0032 D4       		.byte	0xd4
 1208 0033 37000000 		.4byte	0x37
 1209 0037 04       		.uleb128 0x4
ARM GAS  C:\Users\Patrick\AppData\Local\Temp\ccTrP4AE.s 			page 32


 1210 0038 04       		.byte	0x4
 1211 0039 07       		.byte	0x7
 1212 003a F6000000 		.4byte	.LASF0
 1213 003e 04       		.uleb128 0x4
 1214 003f 01       		.byte	0x1
 1215 0040 06       		.byte	0x6
 1216 0041 86000000 		.4byte	.LASF1
 1217 0045 04       		.uleb128 0x4
 1218 0046 01       		.byte	0x1
 1219 0047 08       		.byte	0x8
 1220 0048 96020000 		.4byte	.LASF2
 1221 004c 04       		.uleb128 0x4
 1222 004d 02       		.byte	0x2
 1223 004e 05       		.byte	0x5
 1224 004f A4020000 		.4byte	.LASF3
 1225 0053 04       		.uleb128 0x4
 1226 0054 02       		.byte	0x2
 1227 0055 07       		.byte	0x7
 1228 0056 83010000 		.4byte	.LASF4
 1229 005a 04       		.uleb128 0x4
 1230 005b 04       		.byte	0x4
 1231 005c 05       		.byte	0x5
 1232 005d B1000000 		.4byte	.LASF5
 1233 0061 04       		.uleb128 0x4
 1234 0062 04       		.byte	0x4
 1235 0063 07       		.byte	0x7
 1236 0064 34010000 		.4byte	.LASF6
 1237 0068 04       		.uleb128 0x4
 1238 0069 08       		.byte	0x8
 1239 006a 05       		.byte	0x5
 1240 006b 78000000 		.4byte	.LASF7
 1241 006f 04       		.uleb128 0x4
 1242 0070 08       		.byte	0x8
 1243 0071 07       		.byte	0x7
 1244 0072 36000000 		.4byte	.LASF8
 1245 0076 04       		.uleb128 0x4
 1246 0077 04       		.byte	0x4
 1247 0078 07       		.byte	0x7
 1248 0079 A6010000 		.4byte	.LASF9
 1249 007d 05       		.uleb128 0x5
 1250 007e 04       		.byte	0x4
 1251 007f 04       		.uleb128 0x4
 1252 0080 01       		.byte	0x1
 1253 0081 08       		.byte	0x8
 1254 0082 F1020000 		.4byte	.LASF10
 1255 0086 06       		.uleb128 0x6
 1256 0087 C0000000 		.4byte	.LASF12
 1257 008b 03       		.byte	0x3
 1258 008c 9201     		.2byte	0x192
 1259 008e 45000000 		.4byte	0x45
 1260 0092 06       		.uleb128 0x6
 1261 0093 00000000 		.4byte	.LASF13
 1262 0097 03       		.byte	0x3
 1263 0098 9301     		.2byte	0x193
 1264 009a 53000000 		.4byte	0x53
 1265 009e 06       		.uleb128 0x6
 1266 009f DA000000 		.4byte	.LASF14
ARM GAS  C:\Users\Patrick\AppData\Local\Temp\ccTrP4AE.s 			page 33


 1267 00a3 03       		.byte	0x3
 1268 00a4 9401     		.2byte	0x194
 1269 00a6 61000000 		.4byte	0x61
 1270 00aa 04       		.uleb128 0x4
 1271 00ab 04       		.byte	0x4
 1272 00ac 04       		.byte	0x4
 1273 00ad 71020000 		.4byte	.LASF15
 1274 00b1 04       		.uleb128 0x4
 1275 00b2 08       		.byte	0x8
 1276 00b3 04       		.byte	0x4
 1277 00b4 C6000000 		.4byte	.LASF16
 1278 00b8 06       		.uleb128 0x6
 1279 00b9 7F020000 		.4byte	.LASF17
 1280 00bd 03       		.byte	0x3
 1281 00be 3C02     		.2byte	0x23c
 1282 00c0 C4000000 		.4byte	0xc4
 1283 00c4 07       		.uleb128 0x7
 1284 00c5 86000000 		.4byte	0x86
 1285 00c9 06       		.uleb128 0x6
 1286 00ca BA000000 		.4byte	.LASF18
 1287 00ce 03       		.byte	0x3
 1288 00cf 3D02     		.2byte	0x23d
 1289 00d1 D5000000 		.4byte	0xd5
 1290 00d5 07       		.uleb128 0x7
 1291 00d6 92000000 		.4byte	0x92
 1292 00da 08       		.uleb128 0x8
 1293 00db 02       		.byte	0x2
 1294 00dc 01       		.byte	0x1
 1295 00dd 80       		.byte	0x80
 1296 00de FB000000 		.4byte	0xfb
 1297 00e2 09       		.uleb128 0x9
 1298 00e3 74030000 		.4byte	.LASF19
 1299 00e7 01       		.byte	0x1
 1300 00e8 82       		.byte	0x82
 1301 00e9 86000000 		.4byte	0x86
 1302 00ed 00       		.byte	0
 1303 00ee 09       		.uleb128 0x9
 1304 00ef F0000000 		.4byte	.LASF20
 1305 00f3 01       		.byte	0x1
 1306 00f4 83       		.byte	0x83
 1307 00f5 86000000 		.4byte	0x86
 1308 00f9 01       		.byte	0x1
 1309 00fa 00       		.byte	0
 1310 00fb 03       		.uleb128 0x3
 1311 00fc D2020000 		.4byte	.LASF21
 1312 0100 01       		.byte	0x1
 1313 0101 84       		.byte	0x84
 1314 0102 DA000000 		.4byte	0xda
 1315 0106 0A       		.uleb128 0xa
 1316 0107 92000000 		.4byte	.LASF22
 1317 010b 01       		.byte	0x1
 1318 010c 3E       		.byte	0x3e
 1319 010d 00000000 		.4byte	.LFB0
 1320 0111 1A000000 		.4byte	.LFE0-.LFB0
 1321 0115 01       		.uleb128 0x1
 1322 0116 9C       		.byte	0x9c
 1323 0117 34010000 		.4byte	0x134
ARM GAS  C:\Users\Patrick\AppData\Local\Temp\ccTrP4AE.s 			page 34


 1324 011b 0B       		.uleb128 0xb
 1325 011c 7300     		.ascii	"s\000"
 1326 011e 01       		.byte	0x1
 1327 011f 3E       		.byte	0x3e
 1328 0120 7D000000 		.4byte	0x7d
 1329 0124 02       		.uleb128 0x2
 1330 0125 91       		.byte	0x91
 1331 0126 74       		.sleb128 -12
 1332 0127 0B       		.uleb128 0xb
 1333 0128 6E00     		.ascii	"n\000"
 1334 012a 01       		.byte	0x1
 1335 012b 3E       		.byte	0x3e
 1336 012c 2C000000 		.4byte	0x2c
 1337 0130 02       		.uleb128 0x2
 1338 0131 91       		.byte	0x91
 1339 0132 70       		.sleb128 -16
 1340 0133 00       		.byte	0
 1341 0134 0A       		.uleb128 0xa
 1342 0135 95030000 		.4byte	.LASF23
 1343 0139 01       		.byte	0x1
 1344 013a 45       		.byte	0x45
 1345 013b 00000000 		.4byte	.LFB1
 1346 013f 1C000000 		.4byte	.LFE1-.LFB1
 1347 0143 01       		.uleb128 0x1
 1348 0144 9C       		.byte	0x9c
 1349 0145 72010000 		.4byte	0x172
 1350 0149 0C       		.uleb128 0xc
 1351 014a 6C020000 		.4byte	.LASF24
 1352 014e 01       		.byte	0x1
 1353 014f 45       		.byte	0x45
 1354 0150 7D000000 		.4byte	0x7d
 1355 0154 02       		.uleb128 0x2
 1356 0155 91       		.byte	0x91
 1357 0156 74       		.sleb128 -12
 1358 0157 0B       		.uleb128 0xb
 1359 0158 73726300 		.ascii	"src\000"
 1360 015c 01       		.byte	0x1
 1361 015d 45       		.byte	0x45
 1362 015e 72010000 		.4byte	0x172
 1363 0162 02       		.uleb128 0x2
 1364 0163 91       		.byte	0x91
 1365 0164 70       		.sleb128 -16
 1366 0165 0B       		.uleb128 0xb
 1367 0166 6E00     		.ascii	"n\000"
 1368 0168 01       		.byte	0x1
 1369 0169 45       		.byte	0x45
 1370 016a 2C000000 		.4byte	0x2c
 1371 016e 02       		.uleb128 0x2
 1372 016f 91       		.byte	0x91
 1373 0170 6C       		.sleb128 -20
 1374 0171 00       		.byte	0
 1375 0172 0D       		.uleb128 0xd
 1376 0173 04       		.byte	0x4
 1377 0174 78010000 		.4byte	0x178
 1378 0178 0E       		.uleb128 0xe
 1379 0179 0A       		.uleb128 0xa
 1380 017a 96010000 		.4byte	.LASF25
ARM GAS  C:\Users\Patrick\AppData\Local\Temp\ccTrP4AE.s 			page 35


 1381 017e 01       		.byte	0x1
 1382 017f 4C       		.byte	0x4c
 1383 0180 00000000 		.4byte	.LFB2
 1384 0184 1C000000 		.4byte	.LFE2-.LFB2
 1385 0188 01       		.uleb128 0x1
 1386 0189 9C       		.byte	0x9c
 1387 018a B7010000 		.4byte	0x1b7
 1388 018e 0C       		.uleb128 0xc
 1389 018f 6C020000 		.4byte	.LASF24
 1390 0193 01       		.byte	0x1
 1391 0194 4C       		.byte	0x4c
 1392 0195 7D000000 		.4byte	0x7d
 1393 0199 02       		.uleb128 0x2
 1394 019a 91       		.byte	0x91
 1395 019b 74       		.sleb128 -12
 1396 019c 0B       		.uleb128 0xb
 1397 019d 73726300 		.ascii	"src\000"
 1398 01a1 01       		.byte	0x1
 1399 01a2 4C       		.byte	0x4c
 1400 01a3 72010000 		.4byte	0x172
 1401 01a7 02       		.uleb128 0x2
 1402 01a8 91       		.byte	0x91
 1403 01a9 70       		.sleb128 -16
 1404 01aa 0B       		.uleb128 0xb
 1405 01ab 6E00     		.ascii	"n\000"
 1406 01ad 01       		.byte	0x1
 1407 01ae 4C       		.byte	0x4c
 1408 01af 2C000000 		.4byte	0x2c
 1409 01b3 02       		.uleb128 0x2
 1410 01b4 91       		.byte	0x91
 1411 01b5 6C       		.sleb128 -20
 1412 01b6 00       		.byte	0
 1413 01b7 0F       		.uleb128 0xf
 1414 01b8 17000000 		.4byte	.LASF26
 1415 01bc 01       		.byte	0x1
 1416 01bd 6C       		.byte	0x6c
 1417 01be 00000000 		.4byte	.LFB3
 1418 01c2 0C000000 		.4byte	.LFE3-.LFB3
 1419 01c6 01       		.uleb128 0x1
 1420 01c7 9C       		.byte	0x9c
 1421 01c8 DB010000 		.4byte	0x1db
 1422 01cc 0C       		.uleb128 0xc
 1423 01cd A7000000 		.4byte	.LASF27
 1424 01d1 01       		.byte	0x1
 1425 01d2 6C       		.byte	0x6c
 1426 01d3 86000000 		.4byte	0x86
 1427 01d7 02       		.uleb128 0x2
 1428 01d8 91       		.byte	0x91
 1429 01d9 77       		.sleb128 -9
 1430 01da 00       		.byte	0
 1431 01db 0F       		.uleb128 0xf
 1432 01dc 5B010000 		.4byte	.LASF28
 1433 01e0 01       		.byte	0x1
 1434 01e1 AB       		.byte	0xab
 1435 01e2 00000000 		.4byte	.LFB4
 1436 01e6 74000000 		.4byte	.LFE4-.LFB4
 1437 01ea 01       		.uleb128 0x1
ARM GAS  C:\Users\Patrick\AppData\Local\Temp\ccTrP4AE.s 			page 36


 1438 01eb 9C       		.byte	0x9c
 1439 01ec 4B020000 		.4byte	0x24b
 1440 01f0 0C       		.uleb128 0xc
 1441 01f1 5C000000 		.4byte	.LASF29
 1442 01f5 01       		.byte	0x1
 1443 01f6 AB       		.byte	0xab
 1444 01f7 4B020000 		.4byte	0x24b
 1445 01fb 02       		.uleb128 0x2
 1446 01fc 91       		.byte	0x91
 1447 01fd 64       		.sleb128 -28
 1448 01fe 0C       		.uleb128 0xc
 1449 01ff 2B000000 		.4byte	.LASF30
 1450 0203 01       		.byte	0x1
 1451 0204 AB       		.byte	0xab
 1452 0205 56020000 		.4byte	0x256
 1453 0209 02       		.uleb128 0x2
 1454 020a 91       		.byte	0x91
 1455 020b 60       		.sleb128 -32
 1456 020c 10       		.uleb128 0x10
 1457 020d 6900     		.ascii	"i\000"
 1458 020f 01       		.byte	0x1
 1459 0210 AE       		.byte	0xae
 1460 0211 9E000000 		.4byte	0x9e
 1461 0215 02       		.uleb128 0x2
 1462 0216 91       		.byte	0x91
 1463 0217 74       		.sleb128 -12
 1464 0218 10       		.uleb128 0x10
 1465 0219 6A00     		.ascii	"j\000"
 1466 021b 01       		.byte	0x1
 1467 021c AE       		.byte	0xae
 1468 021d 9E000000 		.4byte	0x9e
 1469 0221 02       		.uleb128 0x2
 1470 0222 91       		.byte	0x91
 1471 0223 70       		.sleb128 -16
 1472 0224 11       		.uleb128 0x11
 1473 0225 14000000 		.4byte	.LBB2
 1474 0229 4A000000 		.4byte	.LBE2-.LBB2
 1475 022d 12       		.uleb128 0x12
 1476 022e 07000000 		.4byte	.LASF31
 1477 0232 01       		.byte	0x1
 1478 0233 B1       		.byte	0xb1
 1479 0234 9E000000 		.4byte	0x9e
 1480 0238 02       		.uleb128 0x2
 1481 0239 91       		.byte	0x91
 1482 023a 68       		.sleb128 -24
 1483 023b 12       		.uleb128 0x12
 1484 023c E1000000 		.4byte	.LASF32
 1485 0240 01       		.byte	0x1
 1486 0241 B2       		.byte	0xb2
 1487 0242 86000000 		.4byte	0x86
 1488 0246 02       		.uleb128 0x2
 1489 0247 91       		.byte	0x91
 1490 0248 6F       		.sleb128 -17
 1491 0249 00       		.byte	0
 1492 024a 00       		.byte	0
 1493 024b 0D       		.uleb128 0xd
 1494 024c 04       		.byte	0x4
ARM GAS  C:\Users\Patrick\AppData\Local\Temp\ccTrP4AE.s 			page 37


 1495 024d 51020000 		.4byte	0x251
 1496 0251 13       		.uleb128 0x13
 1497 0252 9E000000 		.4byte	0x9e
 1498 0256 0D       		.uleb128 0xd
 1499 0257 04       		.byte	0x4
 1500 0258 5C020000 		.4byte	0x25c
 1501 025c 13       		.uleb128 0x13
 1502 025d FB000000 		.4byte	0xfb
 1503 0261 0A       		.uleb128 0xa
 1504 0262 9C000000 		.4byte	.LASF33
 1505 0266 01       		.byte	0x1
 1506 0267 CE       		.byte	0xce
 1507 0268 00000000 		.4byte	.LFB5
 1508 026c 50010000 		.4byte	.LFE5-.LFB5
 1509 0270 01       		.uleb128 0x1
 1510 0271 9C       		.byte	0x9c
 1511 0272 93020000 		.4byte	0x293
 1512 0276 12       		.uleb128 0x12
 1513 0277 46010000 		.4byte	.LASF34
 1514 027b 01       		.byte	0x1
 1515 027c D0       		.byte	0xd0
 1516 027d 9E000000 		.4byte	0x9e
 1517 0281 02       		.uleb128 0x2
 1518 0282 91       		.byte	0x91
 1519 0283 74       		.sleb128 -12
 1520 0284 12       		.uleb128 0x12
 1521 0285 C2020000 		.4byte	.LASF35
 1522 0289 01       		.byte	0x1
 1523 028a D1       		.byte	0xd1
 1524 028b 86000000 		.4byte	0x86
 1525 028f 02       		.uleb128 0x2
 1526 0290 91       		.byte	0x91
 1527 0291 73       		.sleb128 -13
 1528 0292 00       		.byte	0
 1529 0293 14       		.uleb128 0x14
 1530 0294 67000000 		.4byte	.LASF36
 1531 0298 01       		.byte	0x1
 1532 0299 1701     		.2byte	0x117
 1533 029b 00000000 		.4byte	.LFB6
 1534 029f B0000000 		.4byte	.LFE6-.LFB6
 1535 02a3 01       		.uleb128 0x1
 1536 02a4 9C       		.byte	0x9c
 1537 02a5 D7020000 		.4byte	0x2d7
 1538 02a9 15       		.uleb128 0x15
 1539 02aa AF010000 		.4byte	.LASF37
 1540 02ae 01       		.byte	0x1
 1541 02af 1901     		.2byte	0x119
 1542 02b1 86000000 		.4byte	0x86
 1543 02b5 02       		.uleb128 0x2
 1544 02b6 91       		.byte	0x91
 1545 02b7 77       		.sleb128 -9
 1546 02b8 16       		.uleb128 0x16
 1547 02b9 63723400 		.ascii	"cr4\000"
 1548 02bd 01       		.byte	0x1
 1549 02be 1A01     		.2byte	0x11a
 1550 02c0 86000000 		.4byte	0x86
 1551 02c4 02       		.uleb128 0x2
ARM GAS  C:\Users\Patrick\AppData\Local\Temp\ccTrP4AE.s 			page 38


 1552 02c5 91       		.byte	0x91
 1553 02c6 76       		.sleb128 -10
 1554 02c7 16       		.uleb128 0x16
 1555 02c8 63723500 		.ascii	"cr5\000"
 1556 02cc 01       		.byte	0x1
 1557 02cd 1B01     		.2byte	0x11b
 1558 02cf 86000000 		.4byte	0x86
 1559 02d3 02       		.uleb128 0x2
 1560 02d4 91       		.byte	0x91
 1561 02d5 75       		.sleb128 -11
 1562 02d6 00       		.byte	0
 1563 02d7 17       		.uleb128 0x17
 1564 02d8 4C030000 		.4byte	.LASF40
 1565 02dc 01       		.byte	0x1
 1566 02dd 3E01     		.2byte	0x13e
 1567 02df 00000000 		.4byte	.LFB7
 1568 02e3 3C000000 		.4byte	.LFE7-.LFB7
 1569 02e7 01       		.uleb128 0x1
 1570 02e8 9C       		.byte	0x9c
 1571 02e9 0C030000 		.4byte	0x30c
 1572 02ed 18       		.uleb128 0x18
 1573 02ee 8D030000 		.4byte	.LASF38
 1574 02f2 01       		.byte	0x1
 1575 02f3 3E01     		.2byte	0x13e
 1576 02f5 86000000 		.4byte	0x86
 1577 02f9 02       		.uleb128 0x2
 1578 02fa 91       		.byte	0x91
 1579 02fb 6F       		.sleb128 -17
 1580 02fc 15       		.uleb128 0x15
 1581 02fd E7000000 		.4byte	.LASF39
 1582 0301 01       		.byte	0x1
 1583 0302 4001     		.2byte	0x140
 1584 0304 86000000 		.4byte	0x86
 1585 0308 02       		.uleb128 0x2
 1586 0309 91       		.byte	0x91
 1587 030a 77       		.sleb128 -9
 1588 030b 00       		.byte	0
 1589 030c 17       		.uleb128 0x17
 1590 030d A9030000 		.4byte	.LASF41
 1591 0311 01       		.byte	0x1
 1592 0312 8401     		.2byte	0x184
 1593 0314 00000000 		.4byte	.LFB8
 1594 0318 B8000000 		.4byte	.LFE8-.LFB8
 1595 031c 01       		.uleb128 0x1
 1596 031d 9C       		.byte	0x9c
 1597 031e 4E030000 		.4byte	0x34e
 1598 0322 18       		.uleb128 0x18
 1599 0323 CA020000 		.4byte	.LASF42
 1600 0327 01       		.byte	0x1
 1601 0328 8401     		.2byte	0x184
 1602 032a 86000000 		.4byte	0x86
 1603 032e 02       		.uleb128 0x2
 1604 032f 91       		.byte	0x91
 1605 0330 6F       		.sleb128 -17
 1606 0331 16       		.uleb128 0x16
 1607 0332 6900     		.ascii	"i\000"
 1608 0334 01       		.byte	0x1
ARM GAS  C:\Users\Patrick\AppData\Local\Temp\ccTrP4AE.s 			page 39


 1609 0335 8601     		.2byte	0x186
 1610 0337 86000000 		.4byte	0x86
 1611 033b 02       		.uleb128 0x2
 1612 033c 91       		.byte	0x91
 1613 033d 76       		.sleb128 -10
 1614 033e 15       		.uleb128 0x15
 1615 033f E5020000 		.4byte	.LASF43
 1616 0343 01       		.byte	0x1
 1617 0344 8701     		.2byte	0x187
 1618 0346 86000000 		.4byte	0x86
 1619 034a 02       		.uleb128 0x2
 1620 034b 91       		.byte	0x91
 1621 034c 77       		.sleb128 -9
 1622 034d 00       		.byte	0
 1623 034e 17       		.uleb128 0x17
 1624 034f CD000000 		.4byte	.LASF44
 1625 0353 01       		.byte	0x1
 1626 0354 A301     		.2byte	0x1a3
 1627 0356 00000000 		.4byte	.LFB9
 1628 035a C4000000 		.4byte	.LFE9-.LFB9
 1629 035e 01       		.uleb128 0x1
 1630 035f 9C       		.byte	0x9c
 1631 0360 90030000 		.4byte	0x390
 1632 0364 18       		.uleb128 0x18
 1633 0365 CA020000 		.4byte	.LASF42
 1634 0369 01       		.byte	0x1
 1635 036a A301     		.2byte	0x1a3
 1636 036c 86000000 		.4byte	0x86
 1637 0370 02       		.uleb128 0x2
 1638 0371 91       		.byte	0x91
 1639 0372 6F       		.sleb128 -17
 1640 0373 16       		.uleb128 0x16
 1641 0374 6900     		.ascii	"i\000"
 1642 0376 01       		.byte	0x1
 1643 0377 A501     		.2byte	0x1a5
 1644 0379 86000000 		.4byte	0x86
 1645 037d 02       		.uleb128 0x2
 1646 037e 91       		.byte	0x91
 1647 037f 76       		.sleb128 -10
 1648 0380 15       		.uleb128 0x15
 1649 0381 E5020000 		.4byte	.LASF43
 1650 0385 01       		.byte	0x1
 1651 0386 A601     		.2byte	0x1a6
 1652 0388 86000000 		.4byte	0x86
 1653 038c 02       		.uleb128 0x2
 1654 038d 91       		.byte	0x91
 1655 038e 77       		.sleb128 -9
 1656 038f 00       		.byte	0
 1657 0390 19       		.uleb128 0x19
 1658 0391 C4030000 		.4byte	.LASF45
 1659 0395 01       		.byte	0x1
 1660 0396 C701     		.2byte	0x1c7
 1661 0398 00000000 		.4byte	.LFB10
 1662 039c 80010000 		.4byte	.LFE10-.LFB10
 1663 03a0 01       		.uleb128 0x1
 1664 03a1 9C       		.byte	0x9c
 1665 03a2 F0040000 		.4byte	0x4f0
ARM GAS  C:\Users\Patrick\AppData\Local\Temp\ccTrP4AE.s 			page 40


 1666 03a6 11       		.uleb128 0x11
 1667 03a7 22000000 		.4byte	.LBB3
 1668 03ab C4000000 		.4byte	.LBE3-.LBB3
 1669 03af 1A       		.uleb128 0x1a
 1670 03b0 06       		.byte	0x6
 1671 03b1 01       		.byte	0x1
 1672 03b2 D801     		.2byte	0x1d8
 1673 03b4 D3030000 		.4byte	0x3d3
 1674 03b8 1B       		.uleb128 0x1b
 1675 03b9 A1030000 		.4byte	.LASF46
 1676 03bd 01       		.byte	0x1
 1677 03be D901     		.2byte	0x1d9
 1678 03c0 7D000000 		.4byte	0x7d
 1679 03c4 00       		.byte	0
 1680 03c5 1B       		.uleb128 0x1b
 1681 03c6 7E010000 		.4byte	.LASF47
 1682 03ca 01       		.byte	0x1
 1683 03cb DA01     		.2byte	0x1da
 1684 03cd 92000000 		.4byte	0x92
 1685 03d1 04       		.byte	0x4
 1686 03d2 00       		.byte	0
 1687 03d3 06       		.uleb128 0x6
 1688 03d4 C1010000 		.4byte	.LASF48
 1689 03d8 01       		.byte	0x1
 1690 03d9 DB01     		.2byte	0x1db
 1691 03db AF030000 		.4byte	0x3af
 1692 03df 1A       		.uleb128 0x1a
 1693 03e0 0A       		.byte	0xa
 1694 03e1 01       		.byte	0x1
 1695 03e2 DE01     		.2byte	0x1de
 1696 03e4 10040000 		.4byte	0x410
 1697 03e8 1B       		.uleb128 0x1b
 1698 03e9 6C020000 		.4byte	.LASF24
 1699 03ed 01       		.byte	0x1
 1700 03ee DF01     		.2byte	0x1df
 1701 03f0 7D000000 		.4byte	0x7d
 1702 03f4 00       		.byte	0
 1703 03f5 1C       		.uleb128 0x1c
 1704 03f6 73726300 		.ascii	"src\000"
 1705 03fa 01       		.byte	0x1
 1706 03fb E001     		.2byte	0x1e0
 1707 03fd 72010000 		.4byte	0x172
 1708 0401 04       		.byte	0x4
 1709 0402 1B       		.uleb128 0x1b
 1710 0403 7E010000 		.4byte	.LASF47
 1711 0407 01       		.byte	0x1
 1712 0408 E101     		.2byte	0x1e1
 1713 040a 92000000 		.4byte	0x92
 1714 040e 08       		.byte	0x8
 1715 040f 00       		.byte	0
 1716 0410 06       		.uleb128 0x6
 1717 0411 4E010000 		.4byte	.LASF49
 1718 0415 01       		.byte	0x1
 1719 0416 E201     		.2byte	0x1e2
 1720 0418 DF030000 		.4byte	0x3df
 1721 041c 1D       		.uleb128 0x1d
 1722 041d D3030000 		.4byte	0x3d3
ARM GAS  C:\Users\Patrick\AppData\Local\Temp\ccTrP4AE.s 			page 41


 1723 0421 2C040000 		.4byte	0x42c
 1724 0425 1E       		.uleb128 0x1e
 1725 0426 76000000 		.4byte	0x76
 1726 042a 09       		.byte	0x9
 1727 042b 00       		.byte	0
 1728 042c 15       		.uleb128 0x15
 1729 042d 5C020000 		.4byte	.LASF50
 1730 0431 01       		.byte	0x1
 1731 0432 E401     		.2byte	0x1e4
 1732 0434 3E040000 		.4byte	0x43e
 1733 0438 05       		.uleb128 0x5
 1734 0439 03       		.byte	0x3
 1735 043a 38000000 		.4byte	cfg_memset_list.4908
 1736 043e 13       		.uleb128 0x13
 1737 043f 1C040000 		.4byte	0x41c
 1738 0443 1D       		.uleb128 0x1d
 1739 0444 10040000 		.4byte	0x410
 1740 0448 53040000 		.4byte	0x453
 1741 044c 1E       		.uleb128 0x1e
 1742 044d 76000000 		.4byte	0x76
 1743 0451 01       		.byte	0x1
 1744 0452 00       		.byte	0
 1745 0453 15       		.uleb128 0x15
 1746 0454 B4030000 		.4byte	.LASF51
 1747 0458 01       		.byte	0x1
 1748 0459 F201     		.2byte	0x1f2
 1749 045b 65040000 		.4byte	0x465
 1750 045f 05       		.uleb128 0x5
 1751 0460 03       		.byte	0x3
 1752 0461 74000000 		.4byte	cfg_memcpy_list.4909
 1753 0465 13       		.uleb128 0x13
 1754 0466 43040000 		.4byte	0x443
 1755 046a 16       		.uleb128 0x16
 1756 046b 6900     		.ascii	"i\000"
 1757 046d 01       		.byte	0x1
 1758 046e F801     		.2byte	0x1f8
 1759 0470 86000000 		.4byte	0x86
 1760 0474 02       		.uleb128 0x2
 1761 0475 91       		.byte	0x91
 1762 0476 77       		.sleb128 -9
 1763 0477 1F       		.uleb128 0x1f
 1764 0478 28000000 		.4byte	.LBB4
 1765 047c 22000000 		.4byte	.LBE4-.LBB4
 1766 0480 9E040000 		.4byte	0x49e
 1767 0484 16       		.uleb128 0x16
 1768 0485 6D7300   		.ascii	"ms\000"
 1769 0488 01       		.byte	0x1
 1770 0489 FD01     		.2byte	0x1fd
 1771 048b 92040000 		.4byte	0x492
 1772 048f 02       		.uleb128 0x2
 1773 0490 91       		.byte	0x91
 1774 0491 70       		.sleb128 -16
 1775 0492 0D       		.uleb128 0xd
 1776 0493 04       		.byte	0x4
 1777 0494 98040000 		.4byte	0x498
 1778 0498 13       		.uleb128 0x13
 1779 0499 D3030000 		.4byte	0x3d3
ARM GAS  C:\Users\Patrick\AppData\Local\Temp\ccTrP4AE.s 			page 42


 1780 049d 00       		.byte	0
 1781 049e 11       		.uleb128 0x11
 1782 049f 5C000000 		.4byte	.LBB5
 1783 04a3 34000000 		.4byte	.LBE5-.LBB5
 1784 04a7 16       		.uleb128 0x16
 1785 04a8 6D6300   		.ascii	"mc\000"
 1786 04ab 01       		.byte	0x1
 1787 04ac 0402     		.2byte	0x204
 1788 04ae B5040000 		.4byte	0x4b5
 1789 04b2 02       		.uleb128 0x2
 1790 04b3 91       		.byte	0x91
 1791 04b4 6C       		.sleb128 -20
 1792 04b5 0D       		.uleb128 0xd
 1793 04b6 04       		.byte	0x4
 1794 04b7 BB040000 		.4byte	0x4bb
 1795 04bb 13       		.uleb128 0x13
 1796 04bc 10040000 		.4byte	0x410
 1797 04c0 15       		.uleb128 0x15
 1798 04c1 77020000 		.4byte	.LASF52
 1799 04c5 01       		.byte	0x1
 1800 04c6 0502     		.2byte	0x205
 1801 04c8 7D000000 		.4byte	0x7d
 1802 04cc 02       		.uleb128 0x2
 1803 04cd 91       		.byte	0x91
 1804 04ce 68       		.sleb128 -24
 1805 04cf 15       		.uleb128 0x15
 1806 04d0 F6020000 		.4byte	.LASF53
 1807 04d4 01       		.byte	0x1
 1808 04d5 0602     		.2byte	0x206
 1809 04d7 72010000 		.4byte	0x172
 1810 04db 02       		.uleb128 0x2
 1811 04dc 91       		.byte	0x91
 1812 04dd 64       		.sleb128 -28
 1813 04de 15       		.uleb128 0x15
 1814 04df 03010000 		.4byte	.LASF54
 1815 04e3 01       		.byte	0x1
 1816 04e4 0702     		.2byte	0x207
 1817 04e6 92000000 		.4byte	0x92
 1818 04ea 02       		.uleb128 0x2
 1819 04eb 91       		.byte	0x91
 1820 04ec 62       		.sleb128 -30
 1821 04ed 00       		.byte	0
 1822 04ee 00       		.byte	0
 1823 04ef 00       		.byte	0
 1824 04f0 1D       		.uleb128 0x1d
 1825 04f1 00050000 		.4byte	0x500
 1826 04f5 00050000 		.4byte	0x500
 1827 04f9 1E       		.uleb128 0x1e
 1828 04fa 76000000 		.4byte	0x76
 1829 04fe 05       		.byte	0x5
 1830 04ff 00       		.byte	0
 1831 0500 0D       		.uleb128 0xd
 1832 0501 04       		.byte	0x4
 1833 0502 86000000 		.4byte	0x86
 1834 0506 15       		.uleb128 0x15
 1835 0507 62030000 		.4byte	.LASF55
 1836 050b 01       		.byte	0x1
ARM GAS  C:\Users\Patrick\AppData\Local\Temp\ccTrP4AE.s 			page 43


 1837 050c 4D01     		.2byte	0x14d
 1838 050e 18050000 		.4byte	0x518
 1839 0512 05       		.uleb128 0x5
 1840 0513 03       		.byte	0x3
 1841 0514 00000000 		.4byte	AMux_1__outerAddr
 1842 0518 13       		.uleb128 0x13
 1843 0519 F0040000 		.4byte	0x4f0
 1844 051d 1D       		.uleb128 0x1d
 1845 051e 86000000 		.4byte	0x86
 1846 0522 2D050000 		.4byte	0x52d
 1847 0526 1E       		.uleb128 0x1e
 1848 0527 76000000 		.4byte	0x76
 1849 052b 05       		.byte	0x5
 1850 052c 00       		.byte	0
 1851 052d 15       		.uleb128 0x15
 1852 052e D1030000 		.4byte	.LASF56
 1853 0532 01       		.byte	0x1
 1854 0533 5601     		.2byte	0x156
 1855 0535 3F050000 		.4byte	0x53f
 1856 0539 05       		.uleb128 0x5
 1857 053a 03       		.byte	0x3
 1858 053b 18000000 		.4byte	AMux_1__outerMask
 1859 053f 13       		.uleb128 0x13
 1860 0540 1D050000 		.4byte	0x51d
 1861 0544 1D       		.uleb128 0x1d
 1862 0545 00050000 		.4byte	0x500
 1863 0549 54050000 		.4byte	0x554
 1864 054d 1E       		.uleb128 0x1e
 1865 054e 76000000 		.4byte	0x76
 1866 0552 02       		.byte	0x2
 1867 0553 00       		.byte	0
 1868 0554 15       		.uleb128 0x15
 1869 0555 84020000 		.4byte	.LASF57
 1870 0559 01       		.byte	0x1
 1871 055a 5F01     		.2byte	0x15f
 1872 055c 66050000 		.4byte	0x566
 1873 0560 05       		.uleb128 0x5
 1874 0561 03       		.byte	0x3
 1875 0562 20000000 		.4byte	AMux_1__innerAddr
 1876 0566 13       		.uleb128 0x13
 1877 0567 44050000 		.4byte	0x544
 1878 056b 1D       		.uleb128 0x1d
 1879 056c 86000000 		.4byte	0x86
 1880 0570 7B050000 		.4byte	0x57b
 1881 0574 1E       		.uleb128 0x1e
 1882 0575 76000000 		.4byte	0x76
 1883 0579 02       		.byte	0x2
 1884 057a 00       		.byte	0
 1885 057b 15       		.uleb128 0x15
 1886 057c 7B030000 		.4byte	.LASF58
 1887 0580 01       		.byte	0x1
 1888 0581 6501     		.2byte	0x165
 1889 0583 8D050000 		.4byte	0x58d
 1890 0587 05       		.uleb128 0x5
 1891 0588 03       		.byte	0x3
 1892 0589 2C000000 		.4byte	AMux_1__innerMask
 1893 058d 13       		.uleb128 0x13
ARM GAS  C:\Users\Patrick\AppData\Local\Temp\ccTrP4AE.s 			page 44


 1894 058e 6B050000 		.4byte	0x56b
 1895 0592 15       		.uleb128 0x15
 1896 0593 6D010000 		.4byte	.LASF59
 1897 0597 01       		.byte	0x1
 1898 0598 6B01     		.2byte	0x16b
 1899 059a A4050000 		.4byte	0x5a4
 1900 059e 05       		.uleb128 0x5
 1901 059f 03       		.byte	0x3
 1902 05a0 30000000 		.4byte	AMux_1__innerMap
 1903 05a4 13       		.uleb128 0x13
 1904 05a5 1D050000 		.4byte	0x51d
 1905 05a9 15       		.uleb128 0x15
 1906 05aa AE020000 		.4byte	.LASF60
 1907 05ae 01       		.byte	0x1
 1908 05af 7401     		.2byte	0x174
 1909 05b1 86000000 		.4byte	0x86
 1910 05b5 05       		.uleb128 0x5
 1911 05b6 03       		.byte	0x3
 1912 05b7 00000000 		.4byte	AMux_1__armsEnabled
 1913 05bb 15       		.uleb128 0x15
 1914 05bc 4D000000 		.4byte	.LASF61
 1915 05c0 01       		.byte	0x1
 1916 05c1 7501     		.2byte	0x175
 1917 05c3 6B050000 		.4byte	0x56b
 1918 05c7 05       		.uleb128 0x5
 1919 05c8 03       		.byte	0x3
 1920 05c9 04000000 		.4byte	AMux_1__refCnt
 1921 05cd 00       		.byte	0
 1922              		.section	.debug_abbrev,"",%progbits
 1923              	.Ldebug_abbrev0:
 1924 0000 01       		.uleb128 0x1
 1925 0001 11       		.uleb128 0x11
 1926 0002 01       		.byte	0x1
 1927 0003 25       		.uleb128 0x25
 1928 0004 0E       		.uleb128 0xe
 1929 0005 13       		.uleb128 0x13
 1930 0006 0B       		.uleb128 0xb
 1931 0007 03       		.uleb128 0x3
 1932 0008 0E       		.uleb128 0xe
 1933 0009 1B       		.uleb128 0x1b
 1934 000a 0E       		.uleb128 0xe
 1935 000b 55       		.uleb128 0x55
 1936 000c 17       		.uleb128 0x17
 1937 000d 11       		.uleb128 0x11
 1938 000e 01       		.uleb128 0x1
 1939 000f 10       		.uleb128 0x10
 1940 0010 17       		.uleb128 0x17
 1941 0011 00       		.byte	0
 1942 0012 00       		.byte	0
 1943 0013 02       		.uleb128 0x2
 1944 0014 24       		.uleb128 0x24
 1945 0015 00       		.byte	0
 1946 0016 0B       		.uleb128 0xb
 1947 0017 0B       		.uleb128 0xb
 1948 0018 3E       		.uleb128 0x3e
 1949 0019 0B       		.uleb128 0xb
 1950 001a 03       		.uleb128 0x3
ARM GAS  C:\Users\Patrick\AppData\Local\Temp\ccTrP4AE.s 			page 45


 1951 001b 08       		.uleb128 0x8
 1952 001c 00       		.byte	0
 1953 001d 00       		.byte	0
 1954 001e 03       		.uleb128 0x3
 1955 001f 16       		.uleb128 0x16
 1956 0020 00       		.byte	0
 1957 0021 03       		.uleb128 0x3
 1958 0022 0E       		.uleb128 0xe
 1959 0023 3A       		.uleb128 0x3a
 1960 0024 0B       		.uleb128 0xb
 1961 0025 3B       		.uleb128 0x3b
 1962 0026 0B       		.uleb128 0xb
 1963 0027 49       		.uleb128 0x49
 1964 0028 13       		.uleb128 0x13
 1965 0029 00       		.byte	0
 1966 002a 00       		.byte	0
 1967 002b 04       		.uleb128 0x4
 1968 002c 24       		.uleb128 0x24
 1969 002d 00       		.byte	0
 1970 002e 0B       		.uleb128 0xb
 1971 002f 0B       		.uleb128 0xb
 1972 0030 3E       		.uleb128 0x3e
 1973 0031 0B       		.uleb128 0xb
 1974 0032 03       		.uleb128 0x3
 1975 0033 0E       		.uleb128 0xe
 1976 0034 00       		.byte	0
 1977 0035 00       		.byte	0
 1978 0036 05       		.uleb128 0x5
 1979 0037 0F       		.uleb128 0xf
 1980 0038 00       		.byte	0
 1981 0039 0B       		.uleb128 0xb
 1982 003a 0B       		.uleb128 0xb
 1983 003b 00       		.byte	0
 1984 003c 00       		.byte	0
 1985 003d 06       		.uleb128 0x6
 1986 003e 16       		.uleb128 0x16
 1987 003f 00       		.byte	0
 1988 0040 03       		.uleb128 0x3
 1989 0041 0E       		.uleb128 0xe
 1990 0042 3A       		.uleb128 0x3a
 1991 0043 0B       		.uleb128 0xb
 1992 0044 3B       		.uleb128 0x3b
 1993 0045 05       		.uleb128 0x5
 1994 0046 49       		.uleb128 0x49
 1995 0047 13       		.uleb128 0x13
 1996 0048 00       		.byte	0
 1997 0049 00       		.byte	0
 1998 004a 07       		.uleb128 0x7
 1999 004b 35       		.uleb128 0x35
 2000 004c 00       		.byte	0
 2001 004d 49       		.uleb128 0x49
 2002 004e 13       		.uleb128 0x13
 2003 004f 00       		.byte	0
 2004 0050 00       		.byte	0
 2005 0051 08       		.uleb128 0x8
 2006 0052 13       		.uleb128 0x13
 2007 0053 01       		.byte	0x1
ARM GAS  C:\Users\Patrick\AppData\Local\Temp\ccTrP4AE.s 			page 46


 2008 0054 0B       		.uleb128 0xb
 2009 0055 0B       		.uleb128 0xb
 2010 0056 3A       		.uleb128 0x3a
 2011 0057 0B       		.uleb128 0xb
 2012 0058 3B       		.uleb128 0x3b
 2013 0059 0B       		.uleb128 0xb
 2014 005a 01       		.uleb128 0x1
 2015 005b 13       		.uleb128 0x13
 2016 005c 00       		.byte	0
 2017 005d 00       		.byte	0
 2018 005e 09       		.uleb128 0x9
 2019 005f 0D       		.uleb128 0xd
 2020 0060 00       		.byte	0
 2021 0061 03       		.uleb128 0x3
 2022 0062 0E       		.uleb128 0xe
 2023 0063 3A       		.uleb128 0x3a
 2024 0064 0B       		.uleb128 0xb
 2025 0065 3B       		.uleb128 0x3b
 2026 0066 0B       		.uleb128 0xb
 2027 0067 49       		.uleb128 0x49
 2028 0068 13       		.uleb128 0x13
 2029 0069 38       		.uleb128 0x38
 2030 006a 0B       		.uleb128 0xb
 2031 006b 00       		.byte	0
 2032 006c 00       		.byte	0
 2033 006d 0A       		.uleb128 0xa
 2034 006e 2E       		.uleb128 0x2e
 2035 006f 01       		.byte	0x1
 2036 0070 03       		.uleb128 0x3
 2037 0071 0E       		.uleb128 0xe
 2038 0072 3A       		.uleb128 0x3a
 2039 0073 0B       		.uleb128 0xb
 2040 0074 3B       		.uleb128 0x3b
 2041 0075 0B       		.uleb128 0xb
 2042 0076 27       		.uleb128 0x27
 2043 0077 19       		.uleb128 0x19
 2044 0078 11       		.uleb128 0x11
 2045 0079 01       		.uleb128 0x1
 2046 007a 12       		.uleb128 0x12
 2047 007b 06       		.uleb128 0x6
 2048 007c 40       		.uleb128 0x40
 2049 007d 18       		.uleb128 0x18
 2050 007e 9642     		.uleb128 0x2116
 2051 0080 19       		.uleb128 0x19
 2052 0081 01       		.uleb128 0x1
 2053 0082 13       		.uleb128 0x13
 2054 0083 00       		.byte	0
 2055 0084 00       		.byte	0
 2056 0085 0B       		.uleb128 0xb
 2057 0086 05       		.uleb128 0x5
 2058 0087 00       		.byte	0
 2059 0088 03       		.uleb128 0x3
 2060 0089 08       		.uleb128 0x8
 2061 008a 3A       		.uleb128 0x3a
 2062 008b 0B       		.uleb128 0xb
 2063 008c 3B       		.uleb128 0x3b
 2064 008d 0B       		.uleb128 0xb
ARM GAS  C:\Users\Patrick\AppData\Local\Temp\ccTrP4AE.s 			page 47


 2065 008e 49       		.uleb128 0x49
 2066 008f 13       		.uleb128 0x13
 2067 0090 02       		.uleb128 0x2
 2068 0091 18       		.uleb128 0x18
 2069 0092 00       		.byte	0
 2070 0093 00       		.byte	0
 2071 0094 0C       		.uleb128 0xc
 2072 0095 05       		.uleb128 0x5
 2073 0096 00       		.byte	0
 2074 0097 03       		.uleb128 0x3
 2075 0098 0E       		.uleb128 0xe
 2076 0099 3A       		.uleb128 0x3a
 2077 009a 0B       		.uleb128 0xb
 2078 009b 3B       		.uleb128 0x3b
 2079 009c 0B       		.uleb128 0xb
 2080 009d 49       		.uleb128 0x49
 2081 009e 13       		.uleb128 0x13
 2082 009f 02       		.uleb128 0x2
 2083 00a0 18       		.uleb128 0x18
 2084 00a1 00       		.byte	0
 2085 00a2 00       		.byte	0
 2086 00a3 0D       		.uleb128 0xd
 2087 00a4 0F       		.uleb128 0xf
 2088 00a5 00       		.byte	0
 2089 00a6 0B       		.uleb128 0xb
 2090 00a7 0B       		.uleb128 0xb
 2091 00a8 49       		.uleb128 0x49
 2092 00a9 13       		.uleb128 0x13
 2093 00aa 00       		.byte	0
 2094 00ab 00       		.byte	0
 2095 00ac 0E       		.uleb128 0xe
 2096 00ad 26       		.uleb128 0x26
 2097 00ae 00       		.byte	0
 2098 00af 00       		.byte	0
 2099 00b0 00       		.byte	0
 2100 00b1 0F       		.uleb128 0xf
 2101 00b2 2E       		.uleb128 0x2e
 2102 00b3 01       		.byte	0x1
 2103 00b4 03       		.uleb128 0x3
 2104 00b5 0E       		.uleb128 0xe
 2105 00b6 3A       		.uleb128 0x3a
 2106 00b7 0B       		.uleb128 0xb
 2107 00b8 3B       		.uleb128 0x3b
 2108 00b9 0B       		.uleb128 0xb
 2109 00ba 27       		.uleb128 0x27
 2110 00bb 19       		.uleb128 0x19
 2111 00bc 11       		.uleb128 0x11
 2112 00bd 01       		.uleb128 0x1
 2113 00be 12       		.uleb128 0x12
 2114 00bf 06       		.uleb128 0x6
 2115 00c0 40       		.uleb128 0x40
 2116 00c1 18       		.uleb128 0x18
 2117 00c2 9742     		.uleb128 0x2117
 2118 00c4 19       		.uleb128 0x19
 2119 00c5 01       		.uleb128 0x1
 2120 00c6 13       		.uleb128 0x13
 2121 00c7 00       		.byte	0
ARM GAS  C:\Users\Patrick\AppData\Local\Temp\ccTrP4AE.s 			page 48


 2122 00c8 00       		.byte	0
 2123 00c9 10       		.uleb128 0x10
 2124 00ca 34       		.uleb128 0x34
 2125 00cb 00       		.byte	0
 2126 00cc 03       		.uleb128 0x3
 2127 00cd 08       		.uleb128 0x8
 2128 00ce 3A       		.uleb128 0x3a
 2129 00cf 0B       		.uleb128 0xb
 2130 00d0 3B       		.uleb128 0x3b
 2131 00d1 0B       		.uleb128 0xb
 2132 00d2 49       		.uleb128 0x49
 2133 00d3 13       		.uleb128 0x13
 2134 00d4 02       		.uleb128 0x2
 2135 00d5 18       		.uleb128 0x18
 2136 00d6 00       		.byte	0
 2137 00d7 00       		.byte	0
 2138 00d8 11       		.uleb128 0x11
 2139 00d9 0B       		.uleb128 0xb
 2140 00da 01       		.byte	0x1
 2141 00db 11       		.uleb128 0x11
 2142 00dc 01       		.uleb128 0x1
 2143 00dd 12       		.uleb128 0x12
 2144 00de 06       		.uleb128 0x6
 2145 00df 00       		.byte	0
 2146 00e0 00       		.byte	0
 2147 00e1 12       		.uleb128 0x12
 2148 00e2 34       		.uleb128 0x34
 2149 00e3 00       		.byte	0
 2150 00e4 03       		.uleb128 0x3
 2151 00e5 0E       		.uleb128 0xe
 2152 00e6 3A       		.uleb128 0x3a
 2153 00e7 0B       		.uleb128 0xb
 2154 00e8 3B       		.uleb128 0x3b
 2155 00e9 0B       		.uleb128 0xb
 2156 00ea 49       		.uleb128 0x49
 2157 00eb 13       		.uleb128 0x13
 2158 00ec 02       		.uleb128 0x2
 2159 00ed 18       		.uleb128 0x18
 2160 00ee 00       		.byte	0
 2161 00ef 00       		.byte	0
 2162 00f0 13       		.uleb128 0x13
 2163 00f1 26       		.uleb128 0x26
 2164 00f2 00       		.byte	0
 2165 00f3 49       		.uleb128 0x49
 2166 00f4 13       		.uleb128 0x13
 2167 00f5 00       		.byte	0
 2168 00f6 00       		.byte	0
 2169 00f7 14       		.uleb128 0x14
 2170 00f8 2E       		.uleb128 0x2e
 2171 00f9 01       		.byte	0x1
 2172 00fa 03       		.uleb128 0x3
 2173 00fb 0E       		.uleb128 0xe
 2174 00fc 3A       		.uleb128 0x3a
 2175 00fd 0B       		.uleb128 0xb
 2176 00fe 3B       		.uleb128 0x3b
 2177 00ff 05       		.uleb128 0x5
 2178 0100 27       		.uleb128 0x27
ARM GAS  C:\Users\Patrick\AppData\Local\Temp\ccTrP4AE.s 			page 49


 2179 0101 19       		.uleb128 0x19
 2180 0102 11       		.uleb128 0x11
 2181 0103 01       		.uleb128 0x1
 2182 0104 12       		.uleb128 0x12
 2183 0105 06       		.uleb128 0x6
 2184 0106 40       		.uleb128 0x40
 2185 0107 18       		.uleb128 0x18
 2186 0108 9642     		.uleb128 0x2116
 2187 010a 19       		.uleb128 0x19
 2188 010b 01       		.uleb128 0x1
 2189 010c 13       		.uleb128 0x13
 2190 010d 00       		.byte	0
 2191 010e 00       		.byte	0
 2192 010f 15       		.uleb128 0x15
 2193 0110 34       		.uleb128 0x34
 2194 0111 00       		.byte	0
 2195 0112 03       		.uleb128 0x3
 2196 0113 0E       		.uleb128 0xe
 2197 0114 3A       		.uleb128 0x3a
 2198 0115 0B       		.uleb128 0xb
 2199 0116 3B       		.uleb128 0x3b
 2200 0117 05       		.uleb128 0x5
 2201 0118 49       		.uleb128 0x49
 2202 0119 13       		.uleb128 0x13
 2203 011a 02       		.uleb128 0x2
 2204 011b 18       		.uleb128 0x18
 2205 011c 00       		.byte	0
 2206 011d 00       		.byte	0
 2207 011e 16       		.uleb128 0x16
 2208 011f 34       		.uleb128 0x34
 2209 0120 00       		.byte	0
 2210 0121 03       		.uleb128 0x3
 2211 0122 08       		.uleb128 0x8
 2212 0123 3A       		.uleb128 0x3a
 2213 0124 0B       		.uleb128 0xb
 2214 0125 3B       		.uleb128 0x3b
 2215 0126 05       		.uleb128 0x5
 2216 0127 49       		.uleb128 0x49
 2217 0128 13       		.uleb128 0x13
 2218 0129 02       		.uleb128 0x2
 2219 012a 18       		.uleb128 0x18
 2220 012b 00       		.byte	0
 2221 012c 00       		.byte	0
 2222 012d 17       		.uleb128 0x17
 2223 012e 2E       		.uleb128 0x2e
 2224 012f 01       		.byte	0x1
 2225 0130 3F       		.uleb128 0x3f
 2226 0131 19       		.uleb128 0x19
 2227 0132 03       		.uleb128 0x3
 2228 0133 0E       		.uleb128 0xe
 2229 0134 3A       		.uleb128 0x3a
 2230 0135 0B       		.uleb128 0xb
 2231 0136 3B       		.uleb128 0x3b
 2232 0137 05       		.uleb128 0x5
 2233 0138 27       		.uleb128 0x27
 2234 0139 19       		.uleb128 0x19
 2235 013a 11       		.uleb128 0x11
ARM GAS  C:\Users\Patrick\AppData\Local\Temp\ccTrP4AE.s 			page 50


 2236 013b 01       		.uleb128 0x1
 2237 013c 12       		.uleb128 0x12
 2238 013d 06       		.uleb128 0x6
 2239 013e 40       		.uleb128 0x40
 2240 013f 18       		.uleb128 0x18
 2241 0140 9742     		.uleb128 0x2117
 2242 0142 19       		.uleb128 0x19
 2243 0143 01       		.uleb128 0x1
 2244 0144 13       		.uleb128 0x13
 2245 0145 00       		.byte	0
 2246 0146 00       		.byte	0
 2247 0147 18       		.uleb128 0x18
 2248 0148 05       		.uleb128 0x5
 2249 0149 00       		.byte	0
 2250 014a 03       		.uleb128 0x3
 2251 014b 0E       		.uleb128 0xe
 2252 014c 3A       		.uleb128 0x3a
 2253 014d 0B       		.uleb128 0xb
 2254 014e 3B       		.uleb128 0x3b
 2255 014f 05       		.uleb128 0x5
 2256 0150 49       		.uleb128 0x49
 2257 0151 13       		.uleb128 0x13
 2258 0152 02       		.uleb128 0x2
 2259 0153 18       		.uleb128 0x18
 2260 0154 00       		.byte	0
 2261 0155 00       		.byte	0
 2262 0156 19       		.uleb128 0x19
 2263 0157 2E       		.uleb128 0x2e
 2264 0158 01       		.byte	0x1
 2265 0159 3F       		.uleb128 0x3f
 2266 015a 19       		.uleb128 0x19
 2267 015b 03       		.uleb128 0x3
 2268 015c 0E       		.uleb128 0xe
 2269 015d 3A       		.uleb128 0x3a
 2270 015e 0B       		.uleb128 0xb
 2271 015f 3B       		.uleb128 0x3b
 2272 0160 05       		.uleb128 0x5
 2273 0161 27       		.uleb128 0x27
 2274 0162 19       		.uleb128 0x19
 2275 0163 11       		.uleb128 0x11
 2276 0164 01       		.uleb128 0x1
 2277 0165 12       		.uleb128 0x12
 2278 0166 06       		.uleb128 0x6
 2279 0167 40       		.uleb128 0x40
 2280 0168 18       		.uleb128 0x18
 2281 0169 9642     		.uleb128 0x2116
 2282 016b 19       		.uleb128 0x19
 2283 016c 01       		.uleb128 0x1
 2284 016d 13       		.uleb128 0x13
 2285 016e 00       		.byte	0
 2286 016f 00       		.byte	0
 2287 0170 1A       		.uleb128 0x1a
 2288 0171 13       		.uleb128 0x13
 2289 0172 01       		.byte	0x1
 2290 0173 0B       		.uleb128 0xb
 2291 0174 0B       		.uleb128 0xb
 2292 0175 3A       		.uleb128 0x3a
ARM GAS  C:\Users\Patrick\AppData\Local\Temp\ccTrP4AE.s 			page 51


 2293 0176 0B       		.uleb128 0xb
 2294 0177 3B       		.uleb128 0x3b
 2295 0178 05       		.uleb128 0x5
 2296 0179 01       		.uleb128 0x1
 2297 017a 13       		.uleb128 0x13
 2298 017b 00       		.byte	0
 2299 017c 00       		.byte	0
 2300 017d 1B       		.uleb128 0x1b
 2301 017e 0D       		.uleb128 0xd
 2302 017f 00       		.byte	0
 2303 0180 03       		.uleb128 0x3
 2304 0181 0E       		.uleb128 0xe
 2305 0182 3A       		.uleb128 0x3a
 2306 0183 0B       		.uleb128 0xb
 2307 0184 3B       		.uleb128 0x3b
 2308 0185 05       		.uleb128 0x5
 2309 0186 49       		.uleb128 0x49
 2310 0187 13       		.uleb128 0x13
 2311 0188 38       		.uleb128 0x38
 2312 0189 0B       		.uleb128 0xb
 2313 018a 00       		.byte	0
 2314 018b 00       		.byte	0
 2315 018c 1C       		.uleb128 0x1c
 2316 018d 0D       		.uleb128 0xd
 2317 018e 00       		.byte	0
 2318 018f 03       		.uleb128 0x3
 2319 0190 08       		.uleb128 0x8
 2320 0191 3A       		.uleb128 0x3a
 2321 0192 0B       		.uleb128 0xb
 2322 0193 3B       		.uleb128 0x3b
 2323 0194 05       		.uleb128 0x5
 2324 0195 49       		.uleb128 0x49
 2325 0196 13       		.uleb128 0x13
 2326 0197 38       		.uleb128 0x38
 2327 0198 0B       		.uleb128 0xb
 2328 0199 00       		.byte	0
 2329 019a 00       		.byte	0
 2330 019b 1D       		.uleb128 0x1d
 2331 019c 01       		.uleb128 0x1
 2332 019d 01       		.byte	0x1
 2333 019e 49       		.uleb128 0x49
 2334 019f 13       		.uleb128 0x13
 2335 01a0 01       		.uleb128 0x1
 2336 01a1 13       		.uleb128 0x13
 2337 01a2 00       		.byte	0
 2338 01a3 00       		.byte	0
 2339 01a4 1E       		.uleb128 0x1e
 2340 01a5 21       		.uleb128 0x21
 2341 01a6 00       		.byte	0
 2342 01a7 49       		.uleb128 0x49
 2343 01a8 13       		.uleb128 0x13
 2344 01a9 2F       		.uleb128 0x2f
 2345 01aa 0B       		.uleb128 0xb
 2346 01ab 00       		.byte	0
 2347 01ac 00       		.byte	0
 2348 01ad 1F       		.uleb128 0x1f
 2349 01ae 0B       		.uleb128 0xb
ARM GAS  C:\Users\Patrick\AppData\Local\Temp\ccTrP4AE.s 			page 52


 2350 01af 01       		.byte	0x1
 2351 01b0 11       		.uleb128 0x11
 2352 01b1 01       		.uleb128 0x1
 2353 01b2 12       		.uleb128 0x12
 2354 01b3 06       		.uleb128 0x6
 2355 01b4 01       		.uleb128 0x1
 2356 01b5 13       		.uleb128 0x13
 2357 01b6 00       		.byte	0
 2358 01b7 00       		.byte	0
 2359 01b8 00       		.byte	0
 2360              		.section	.debug_aranges,"",%progbits
 2361 0000 6C000000 		.4byte	0x6c
 2362 0004 0200     		.2byte	0x2
 2363 0006 00000000 		.4byte	.Ldebug_info0
 2364 000a 04       		.byte	0x4
 2365 000b 00       		.byte	0
 2366 000c 0000     		.2byte	0
 2367 000e 0000     		.2byte	0
 2368 0010 00000000 		.4byte	.LFB0
 2369 0014 1A000000 		.4byte	.LFE0-.LFB0
 2370 0018 00000000 		.4byte	.LFB1
 2371 001c 1C000000 		.4byte	.LFE1-.LFB1
 2372 0020 00000000 		.4byte	.LFB2
 2373 0024 1C000000 		.4byte	.LFE2-.LFB2
 2374 0028 00000000 		.4byte	.LFB3
 2375 002c 0C000000 		.4byte	.LFE3-.LFB3
 2376 0030 00000000 		.4byte	.LFB4
 2377 0034 74000000 		.4byte	.LFE4-.LFB4
 2378 0038 00000000 		.4byte	.LFB5
 2379 003c 50010000 		.4byte	.LFE5-.LFB5
 2380 0040 00000000 		.4byte	.LFB6
 2381 0044 B0000000 		.4byte	.LFE6-.LFB6
 2382 0048 00000000 		.4byte	.LFB7
 2383 004c 3C000000 		.4byte	.LFE7-.LFB7
 2384 0050 00000000 		.4byte	.LFB8
 2385 0054 B8000000 		.4byte	.LFE8-.LFB8
 2386 0058 00000000 		.4byte	.LFB9
 2387 005c C4000000 		.4byte	.LFE9-.LFB9
 2388 0060 00000000 		.4byte	.LFB10
 2389 0064 80010000 		.4byte	.LFE10-.LFB10
 2390 0068 00000000 		.4byte	0
 2391 006c 00000000 		.4byte	0
 2392              		.section	.debug_ranges,"",%progbits
 2393              	.Ldebug_ranges0:
 2394 0000 00000000 		.4byte	.LFB0
 2395 0004 1A000000 		.4byte	.LFE0
 2396 0008 00000000 		.4byte	.LFB1
 2397 000c 1C000000 		.4byte	.LFE1
 2398 0010 00000000 		.4byte	.LFB2
 2399 0014 1C000000 		.4byte	.LFE2
 2400 0018 00000000 		.4byte	.LFB3
 2401 001c 0C000000 		.4byte	.LFE3
 2402 0020 00000000 		.4byte	.LFB4
 2403 0024 74000000 		.4byte	.LFE4
 2404 0028 00000000 		.4byte	.LFB5
 2405 002c 50010000 		.4byte	.LFE5
 2406 0030 00000000 		.4byte	.LFB6
ARM GAS  C:\Users\Patrick\AppData\Local\Temp\ccTrP4AE.s 			page 53


 2407 0034 B0000000 		.4byte	.LFE6
 2408 0038 00000000 		.4byte	.LFB7
 2409 003c 3C000000 		.4byte	.LFE7
 2410 0040 00000000 		.4byte	.LFB8
 2411 0044 B8000000 		.4byte	.LFE8
 2412 0048 00000000 		.4byte	.LFB9
 2413 004c C4000000 		.4byte	.LFE9
 2414 0050 00000000 		.4byte	.LFB10
 2415 0054 80010000 		.4byte	.LFE10
 2416 0058 00000000 		.4byte	0
 2417 005c 00000000 		.4byte	0
 2418              		.section	.debug_line,"",%progbits
 2419              	.Ldebug_line0:
 2420 0000 6C020000 		.section	.debug_str,"MS",%progbits,1
 2420      0200CD00 
 2420      00000201 
 2420      FB0E0D00 
 2420      01010101 
 2421              	.LASF13:
 2422 0000 75696E74 		.ascii	"uint16\000"
 2422      313600
 2423              	.LASF31:
 2424 0007 62617365 		.ascii	"baseAddr\000"
 2424      41646472 
 2424      00
 2425              	.LASF11:
 2426 0010 73697A65 		.ascii	"size_t\000"
 2426      5F7400
 2427              	.LASF26:
 2428 0017 4379436C 		.ascii	"CyClockStartupError\000"
 2428      6F636B53 
 2428      74617274 
 2428      75704572 
 2428      726F7200 
 2429              	.LASF30:
 2430 002b 64617461 		.ascii	"data_table\000"
 2430      5F746162 
 2430      6C6500
 2431              	.LASF8:
 2432 0036 6C6F6E67 		.ascii	"long long unsigned int\000"
 2432      206C6F6E 
 2432      6720756E 
 2432      7369676E 
 2432      65642069 
 2433              	.LASF61:
 2434 004d 414D7578 		.ascii	"AMux_1__refCnt\000"
 2434      5F315F5F 
 2434      72656643 
 2434      6E7400
 2435              	.LASF29:
 2436 005c 61646472 		.ascii	"addr_table\000"
 2436      5F746162 
 2436      6C6500
 2437              	.LASF36:
 2438 0067 416E616C 		.ascii	"AnalogSetDefault\000"
 2438      6F675365 
 2438      74446566 
ARM GAS  C:\Users\Patrick\AppData\Local\Temp\ccTrP4AE.s 			page 54


 2438      61756C74 
 2438      00
 2439              	.LASF7:
 2440 0078 6C6F6E67 		.ascii	"long long int\000"
 2440      206C6F6E 
 2440      6720696E 
 2440      7400
 2441              	.LASF1:
 2442 0086 7369676E 		.ascii	"signed char\000"
 2442      65642063 
 2442      68617200 
 2443              	.LASF22:
 2444 0092 43594D45 		.ascii	"CYMEMZERO\000"
 2444      4D5A4552 
 2444      4F00
 2445              	.LASF33:
 2446 009c 436C6F63 		.ascii	"ClockSetup\000"
 2446      6B536574 
 2446      757000
 2447              	.LASF27:
 2448 00a7 6572726F 		.ascii	"errorCode\000"
 2448      72436F64 
 2448      6500
 2449              	.LASF5:
 2450 00b1 6C6F6E67 		.ascii	"long int\000"
 2450      20696E74 
 2450      00
 2451              	.LASF18:
 2452 00ba 72656731 		.ascii	"reg16\000"
 2452      3600
 2453              	.LASF12:
 2454 00c0 75696E74 		.ascii	"uint8\000"
 2454      3800
 2455              	.LASF16:
 2456 00c6 646F7562 		.ascii	"double\000"
 2456      6C6500
 2457              	.LASF44:
 2458 00cd 414D7578 		.ascii	"AMux_1_Unset\000"
 2458      5F315F55 
 2458      6E736574 
 2458      00
 2459              	.LASF14:
 2460 00da 75696E74 		.ascii	"uint32\000"
 2460      333200
 2461              	.LASF32:
 2462 00e1 636F756E 		.ascii	"count\000"
 2462      7400
 2463              	.LASF39:
 2464 00e7 72656756 		.ascii	"regValue\000"
 2464      616C7565 
 2464      00
 2465              	.LASF20:
 2466 00f0 76616C75 		.ascii	"value\000"
 2466      6500
 2467              	.LASF0:
 2468 00f6 756E7369 		.ascii	"unsigned int\000"
 2468      676E6564 
ARM GAS  C:\Users\Patrick\AppData\Local\Temp\ccTrP4AE.s 			page 55


 2468      20696E74 
 2468      00
 2469              	.LASF54:
 2470 0103 6E756D42 		.ascii	"numBytes\000"
 2470      79746573 
 2470      00
 2471              	.LASF63:
 2472 010c 2E5C4765 		.ascii	".\\Generated_Source\\PSoC5\\cyfitter_cfg.c\000"
 2472      6E657261 
 2472      7465645F 
 2472      536F7572 
 2472      63655C50 
 2473              	.LASF6:
 2474 0134 6C6F6E67 		.ascii	"long unsigned int\000"
 2474      20756E73 
 2474      69676E65 
 2474      6420696E 
 2474      7400
 2475              	.LASF34:
 2476 0146 74696D65 		.ascii	"timeout\000"
 2476      6F757400 
 2477              	.LASF49:
 2478 014e 6366675F 		.ascii	"cfg_memcpy_t\000"
 2478      6D656D63 
 2478      70795F74 
 2478      00
 2479              	.LASF28:
 2480 015b 6366675F 		.ascii	"cfg_write_bytes32\000"
 2480      77726974 
 2480      655F6279 
 2480      74657333 
 2480      3200
 2481              	.LASF59:
 2482 016d 414D7578 		.ascii	"AMux_1__innerMap\000"
 2482      5F315F5F 
 2482      696E6E65 
 2482      724D6170 
 2482      00
 2483              	.LASF47:
 2484 017e 73697A65 		.ascii	"size\000"
 2484      00
 2485              	.LASF4:
 2486 0183 73686F72 		.ascii	"short unsigned int\000"
 2486      7420756E 
 2486      7369676E 
 2486      65642069 
 2486      6E7400
 2487              	.LASF25:
 2488 0196 4359434F 		.ascii	"CYCONFIGCPYCODE\000"
 2488      4E464947 
 2488      43505943 
 2488      4F444500 
 2489              	.LASF9:
 2490 01a6 73697A65 		.ascii	"sizetype\000"
 2490      74797065 
 2490      00
 2491              	.LASF37:
ARM GAS  C:\Users\Patrick\AppData\Local\Temp\ccTrP4AE.s 			page 56


 2492 01af 62675F78 		.ascii	"bg_xover_inl_trim\000"
 2492      6F766572 
 2492      5F696E6C 
 2492      5F747269 
 2492      6D00
 2493              	.LASF48:
 2494 01c1 6366675F 		.ascii	"cfg_memset_t\000"
 2494      6D656D73 
 2494      65745F74 
 2494      00
 2495              	.LASF62:
 2496 01ce 474E5520 		.ascii	"GNU C 4.9.3 20150303 (release) [ARM/embedded-4_9-br"
 2496      4320342E 
 2496      392E3320 
 2496      32303135 
 2496      30333033 
 2497 0201 616E6368 		.ascii	"anch revision 221220] -mcpu=cortex-m3 -mthumb -g -O"
 2497      20726576 
 2497      6973696F 
 2497      6E203232 
 2497      31323230 
 2498 0234 30202D66 		.ascii	"0 -ffunction-sections -ffat-lto-objects\000"
 2498      66756E63 
 2498      74696F6E 
 2498      2D736563 
 2498      74696F6E 
 2499              	.LASF50:
 2500 025c 6366675F 		.ascii	"cfg_memset_list\000"
 2500      6D656D73 
 2500      65745F6C 
 2500      69737400 
 2501              	.LASF24:
 2502 026c 64657374 		.ascii	"dest\000"
 2502      00
 2503              	.LASF15:
 2504 0271 666C6F61 		.ascii	"float\000"
 2504      7400
 2505              	.LASF52:
 2506 0277 64657374 		.ascii	"destPtr\000"
 2506      50747200 
 2507              	.LASF17:
 2508 027f 72656738 		.ascii	"reg8\000"
 2508      00
 2509              	.LASF57:
 2510 0284 414D7578 		.ascii	"AMux_1__innerAddr\000"
 2510      5F315F5F 
 2510      696E6E65 
 2510      72416464 
 2510      7200
 2511              	.LASF2:
 2512 0296 756E7369 		.ascii	"unsigned char\000"
 2512      676E6564 
 2512      20636861 
 2512      7200
 2513              	.LASF3:
 2514 02a4 73686F72 		.ascii	"short int\000"
 2514      7420696E 
ARM GAS  C:\Users\Patrick\AppData\Local\Temp\ccTrP4AE.s 			page 57


 2514      7400
 2515              	.LASF60:
 2516 02ae 414D7578 		.ascii	"AMux_1__armsEnabled\000"
 2516      5F315F5F 
 2516      61726D73 
 2516      456E6162 
 2516      6C656400 
 2517              	.LASF35:
 2518 02c2 706C6C4C 		.ascii	"pllLock\000"
 2518      6F636B00 
 2519              	.LASF42:
 2520 02ca 6368616E 		.ascii	"channel\000"
 2520      6E656C00 
 2521              	.LASF21:
 2522 02d2 63795F63 		.ascii	"cy_cfg_addrvalue_t\000"
 2522      66675F61 
 2522      64647276 
 2522      616C7565 
 2522      5F7400
 2523              	.LASF43:
 2524 02e5 6368616E 		.ascii	"channelMask\000"
 2524      6E656C4D 
 2524      61736B00 
 2525              	.LASF10:
 2526 02f1 63686172 		.ascii	"char\000"
 2526      00
 2527              	.LASF53:
 2528 02f6 73726350 		.ascii	"srcPtr\000"
 2528      747200
 2529              	.LASF64:
 2530 02fd 433A5C55 		.ascii	"C:\\Users\\Patrick\\Documents\\GitHub\\PSoC 5LP FIl"
 2530      73657273 
 2530      5C506174 
 2530      7269636B 
 2530      5C446F63 
 2531 032b 65735C43 		.ascii	"es\\C-CAN_PSoC_DevKit\\C-CAN.cydsn\000"
 2531      2D43414E 
 2531      5F50536F 
 2531      435F4465 
 2531      764B6974 
 2532              	.LASF40:
 2533 034c 53657441 		.ascii	"SetAnalogRoutingPumps\000"
 2533      6E616C6F 
 2533      67526F75 
 2533      74696E67 
 2533      50756D70 
 2534              	.LASF55:
 2535 0362 414D7578 		.ascii	"AMux_1__outerAddr\000"
 2535      5F315F5F 
 2535      6F757465 
 2535      72416464 
 2535      7200
 2536              	.LASF19:
 2537 0374 6F666673 		.ascii	"offset\000"
 2537      657400
 2538              	.LASF58:
 2539 037b 414D7578 		.ascii	"AMux_1__innerMask\000"
ARM GAS  C:\Users\Patrick\AppData\Local\Temp\ccTrP4AE.s 			page 58


 2539      5F315F5F 
 2539      696E6E65 
 2539      724D6173 
 2539      6B00
 2540              	.LASF38:
 2541 038d 656E6162 		.ascii	"enabled\000"
 2541      6C656400 
 2542              	.LASF23:
 2543 0395 4359434F 		.ascii	"CYCONFIGCPY\000"
 2543      4E464947 
 2543      43505900 
 2544              	.LASF46:
 2545 03a1 61646472 		.ascii	"address\000"
 2545      65737300 
 2546              	.LASF41:
 2547 03a9 414D7578 		.ascii	"AMux_1_Set\000"
 2547      5F315F53 
 2547      657400
 2548              	.LASF51:
 2549 03b4 6366675F 		.ascii	"cfg_memcpy_list\000"
 2549      6D656D63 
 2549      70795F6C 
 2549      69737400 
 2550              	.LASF45:
 2551 03c4 63796669 		.ascii	"cyfitter_cfg\000"
 2551      74746572 
 2551      5F636667 
 2551      00
 2552              	.LASF56:
 2553 03d1 414D7578 		.ascii	"AMux_1__outerMask\000"
 2553      5F315F5F 
 2553      6F757465 
 2553      724D6173 
 2553      6B00
 2554              		.ident	"GCC: (GNU Tools for ARM Embedded Processors) 4.9.3 20150303 (release) [ARM/embedded-4_9-br
