ARM GAS  C:\Users\Patrick\AppData\Local\Temp\ccy4Y7jA.s 			page 1


   1              		.syntax unified
   2              		.cpu cortex-m3
   3              		.fpu softvfp
   4              		.eabi_attribute 20, 1
   5              		.eabi_attribute 21, 1
   6              		.eabi_attribute 23, 3
   7              		.eabi_attribute 24, 1
   8              		.eabi_attribute 25, 1
   9              		.eabi_attribute 26, 1
  10              		.eabi_attribute 30, 2
  11              		.eabi_attribute 34, 1
  12              		.eabi_attribute 18, 4
  13              		.thumb
  14              		.file	"cyfitter_cfg.c"
  15              		.text
  16              	.Ltext0:
  17              		.cfi_sections	.debug_frame
  18              		.section	.text.SetAnalogRoutingPumps,"ax",%progbits
  19              		.align	2
  20              		.global	SetAnalogRoutingPumps
  21              		.thumb
  22              		.thumb_func
  23              		.type	SetAnalogRoutingPumps, %function
  24              	SetAnalogRoutingPumps:
  25              	.LFB7:
  26              		.file 1 ".\\Generated_Source\\PSoC5\\cyfitter_cfg.c"
   1:.\Generated_Source\PSoC5/cyfitter_cfg.c **** /*******************************************************************************
   2:.\Generated_Source\PSoC5/cyfitter_cfg.c **** * File Name: cyfitter_cfg.c
   3:.\Generated_Source\PSoC5/cyfitter_cfg.c **** * 
   4:.\Generated_Source\PSoC5/cyfitter_cfg.c **** * PSoC Creator  3.3 CP3
   5:.\Generated_Source\PSoC5/cyfitter_cfg.c **** *
   6:.\Generated_Source\PSoC5/cyfitter_cfg.c **** * Description:
   7:.\Generated_Source\PSoC5/cyfitter_cfg.c **** * This file contains device initialization code.
   8:.\Generated_Source\PSoC5/cyfitter_cfg.c **** * Except for the user defined sections in CyClockStartupError(), this file should not be modified.
   9:.\Generated_Source\PSoC5/cyfitter_cfg.c **** * This file is automatically generated by PSoC Creator.
  10:.\Generated_Source\PSoC5/cyfitter_cfg.c **** *
  11:.\Generated_Source\PSoC5/cyfitter_cfg.c **** ********************************************************************************
  12:.\Generated_Source\PSoC5/cyfitter_cfg.c **** * Copyright (c) 2007-2016 Cypress Semiconductor.  All rights reserved.
  13:.\Generated_Source\PSoC5/cyfitter_cfg.c **** * You may use this file only in accordance with the license, terms, conditions, 
  14:.\Generated_Source\PSoC5/cyfitter_cfg.c **** * disclaimers, and limitations in the end user license agreement accompanying 
  15:.\Generated_Source\PSoC5/cyfitter_cfg.c **** * the software package with which this file was provided.
  16:.\Generated_Source\PSoC5/cyfitter_cfg.c **** ********************************************************************************/
  17:.\Generated_Source\PSoC5/cyfitter_cfg.c **** 
  18:.\Generated_Source\PSoC5/cyfitter_cfg.c **** #include <string.h>
  19:.\Generated_Source\PSoC5/cyfitter_cfg.c **** #include "cytypes.h"
  20:.\Generated_Source\PSoC5/cyfitter_cfg.c **** #include "cydevice_trm.h"
  21:.\Generated_Source\PSoC5/cyfitter_cfg.c **** #include "cyfitter.h"
  22:.\Generated_Source\PSoC5/cyfitter_cfg.c **** #include "CyLib.h"
  23:.\Generated_Source\PSoC5/cyfitter_cfg.c **** #include "cyfitter_cfg.h"
  24:.\Generated_Source\PSoC5/cyfitter_cfg.c **** 
  25:.\Generated_Source\PSoC5/cyfitter_cfg.c **** #define CY_NEED_CYCLOCKSTARTUPERROR 1
  26:.\Generated_Source\PSoC5/cyfitter_cfg.c **** 
  27:.\Generated_Source\PSoC5/cyfitter_cfg.c **** 
  28:.\Generated_Source\PSoC5/cyfitter_cfg.c **** #if defined(__GNUC__) || defined(__ARMCC_VERSION)
  29:.\Generated_Source\PSoC5/cyfitter_cfg.c ****     #define CYPACKED 
  30:.\Generated_Source\PSoC5/cyfitter_cfg.c ****     #define CYPACKED_ATTR __attribute__ ((packed))
  31:.\Generated_Source\PSoC5/cyfitter_cfg.c ****     #define CYALIGNED __attribute__ ((aligned))
ARM GAS  C:\Users\Patrick\AppData\Local\Temp\ccy4Y7jA.s 			page 2


  32:.\Generated_Source\PSoC5/cyfitter_cfg.c ****     #define CY_CFG_UNUSED __attribute__ ((unused))
  33:.\Generated_Source\PSoC5/cyfitter_cfg.c ****     #ifndef CY_CFG_SECTION
  34:.\Generated_Source\PSoC5/cyfitter_cfg.c ****         #define CY_CFG_SECTION __attribute__ ((section(".psocinit")))
  35:.\Generated_Source\PSoC5/cyfitter_cfg.c ****     #endif
  36:.\Generated_Source\PSoC5/cyfitter_cfg.c ****     
  37:.\Generated_Source\PSoC5/cyfitter_cfg.c ****     #if defined(__ARMCC_VERSION)
  38:.\Generated_Source\PSoC5/cyfitter_cfg.c ****         #define CY_CFG_MEMORY_BARRIER() __memory_changed()
  39:.\Generated_Source\PSoC5/cyfitter_cfg.c ****     #else
  40:.\Generated_Source\PSoC5/cyfitter_cfg.c ****         #define CY_CFG_MEMORY_BARRIER() __sync_synchronize()
  41:.\Generated_Source\PSoC5/cyfitter_cfg.c ****     #endif
  42:.\Generated_Source\PSoC5/cyfitter_cfg.c ****     
  43:.\Generated_Source\PSoC5/cyfitter_cfg.c **** #elif defined(__ICCARM__)
  44:.\Generated_Source\PSoC5/cyfitter_cfg.c ****     #include <intrinsics.h>
  45:.\Generated_Source\PSoC5/cyfitter_cfg.c **** 
  46:.\Generated_Source\PSoC5/cyfitter_cfg.c ****     #define CYPACKED __packed
  47:.\Generated_Source\PSoC5/cyfitter_cfg.c ****     #define CYPACKED_ATTR 
  48:.\Generated_Source\PSoC5/cyfitter_cfg.c ****     #define CYALIGNED _Pragma("data_alignment=4")
  49:.\Generated_Source\PSoC5/cyfitter_cfg.c ****     #define CY_CFG_UNUSED _Pragma("diag_suppress=Pe177")
  50:.\Generated_Source\PSoC5/cyfitter_cfg.c ****     #define CY_CFG_SECTION _Pragma("location=\".psocinit\"")
  51:.\Generated_Source\PSoC5/cyfitter_cfg.c ****     
  52:.\Generated_Source\PSoC5/cyfitter_cfg.c ****     #define CY_CFG_MEMORY_BARRIER() __DMB()
  53:.\Generated_Source\PSoC5/cyfitter_cfg.c ****     
  54:.\Generated_Source\PSoC5/cyfitter_cfg.c **** #else
  55:.\Generated_Source\PSoC5/cyfitter_cfg.c ****     #error Unsupported toolchain
  56:.\Generated_Source\PSoC5/cyfitter_cfg.c **** #endif
  57:.\Generated_Source\PSoC5/cyfitter_cfg.c **** 
  58:.\Generated_Source\PSoC5/cyfitter_cfg.c **** #if defined(__ARMCC_VERSION)
  59:.\Generated_Source\PSoC5/cyfitter_cfg.c ****     extern unsigned int Load$$LR$$CYCONFIGECC$$Base;
  60:.\Generated_Source\PSoC5/cyfitter_cfg.c ****     #pragma diag_suppress 170,1296
  61:.\Generated_Source\PSoC5/cyfitter_cfg.c ****     #define CYDEV_ECC_VIRT_BASE 0x80000000
  62:.\Generated_Source\PSoC5/cyfitter_cfg.c ****     #define CYAPP_ECC_OFFSET ((uint32)&Load$$LR$$CYCONFIGECC$$Base - CYDEV_ECC_VIRT_BASE)
  63:.\Generated_Source\PSoC5/cyfitter_cfg.c **** #elif defined (__GNUC__) || defined (__ICCARM__)
  64:.\Generated_Source\PSoC5/cyfitter_cfg.c ****     extern int CY_ECC_OFFSET;
  65:.\Generated_Source\PSoC5/cyfitter_cfg.c ****     #define CYAPP_ECC_OFFSET ((uint32)&CY_ECC_OFFSET)
  66:.\Generated_Source\PSoC5/cyfitter_cfg.c **** #endif
  67:.\Generated_Source\PSoC5/cyfitter_cfg.c **** 
  68:.\Generated_Source\PSoC5/cyfitter_cfg.c **** CY_CFG_UNUSED
  69:.\Generated_Source\PSoC5/cyfitter_cfg.c **** static void CYMEMZERO(void *s, size_t n);
  70:.\Generated_Source\PSoC5/cyfitter_cfg.c **** CY_CFG_UNUSED
  71:.\Generated_Source\PSoC5/cyfitter_cfg.c **** static void CYMEMZERO(void *s, size_t n)
  72:.\Generated_Source\PSoC5/cyfitter_cfg.c **** {
  73:.\Generated_Source\PSoC5/cyfitter_cfg.c **** 	(void)memset(s, 0, n);
  74:.\Generated_Source\PSoC5/cyfitter_cfg.c **** }
  75:.\Generated_Source\PSoC5/cyfitter_cfg.c **** CY_CFG_UNUSED
  76:.\Generated_Source\PSoC5/cyfitter_cfg.c **** static void CYCONFIGCPY(void *dest, const void *src, size_t n);
  77:.\Generated_Source\PSoC5/cyfitter_cfg.c **** CY_CFG_UNUSED
  78:.\Generated_Source\PSoC5/cyfitter_cfg.c **** static void CYCONFIGCPY(void *dest, const void *src, size_t n)
  79:.\Generated_Source\PSoC5/cyfitter_cfg.c **** {
  80:.\Generated_Source\PSoC5/cyfitter_cfg.c **** 	(void)memcpy(dest, src, n);
  81:.\Generated_Source\PSoC5/cyfitter_cfg.c **** }
  82:.\Generated_Source\PSoC5/cyfitter_cfg.c **** CY_CFG_UNUSED
  83:.\Generated_Source\PSoC5/cyfitter_cfg.c **** static void CYCONFIGCPYCODE(void *dest, const void *src, size_t n);
  84:.\Generated_Source\PSoC5/cyfitter_cfg.c **** CY_CFG_UNUSED
  85:.\Generated_Source\PSoC5/cyfitter_cfg.c **** static void CYCONFIGCPYCODE(void *dest, const void *src, size_t n)
  86:.\Generated_Source\PSoC5/cyfitter_cfg.c **** {
  87:.\Generated_Source\PSoC5/cyfitter_cfg.c **** 	(void)memcpy(dest, src, n);
  88:.\Generated_Source\PSoC5/cyfitter_cfg.c **** }
ARM GAS  C:\Users\Patrick\AppData\Local\Temp\ccy4Y7jA.s 			page 3


  89:.\Generated_Source\PSoC5/cyfitter_cfg.c **** 
  90:.\Generated_Source\PSoC5/cyfitter_cfg.c **** 
  91:.\Generated_Source\PSoC5/cyfitter_cfg.c **** 
  92:.\Generated_Source\PSoC5/cyfitter_cfg.c **** /* Clock startup error codes                                                   */
  93:.\Generated_Source\PSoC5/cyfitter_cfg.c **** #define CYCLOCKSTART_NO_ERROR    0u
  94:.\Generated_Source\PSoC5/cyfitter_cfg.c **** #define CYCLOCKSTART_XTAL_ERROR  1u
  95:.\Generated_Source\PSoC5/cyfitter_cfg.c **** #define CYCLOCKSTART_32KHZ_ERROR 2u
  96:.\Generated_Source\PSoC5/cyfitter_cfg.c **** #define CYCLOCKSTART_PLL_ERROR   3u
  97:.\Generated_Source\PSoC5/cyfitter_cfg.c **** 
  98:.\Generated_Source\PSoC5/cyfitter_cfg.c **** #ifdef CY_NEED_CYCLOCKSTARTUPERROR
  99:.\Generated_Source\PSoC5/cyfitter_cfg.c **** /*******************************************************************************
 100:.\Generated_Source\PSoC5/cyfitter_cfg.c **** * Function Name: CyClockStartupError
 101:.\Generated_Source\PSoC5/cyfitter_cfg.c **** ********************************************************************************
 102:.\Generated_Source\PSoC5/cyfitter_cfg.c **** * Summary:
 103:.\Generated_Source\PSoC5/cyfitter_cfg.c **** *  If an error is encountered during clock configuration (crystal startup error,
 104:.\Generated_Source\PSoC5/cyfitter_cfg.c **** *  PLL lock error, etc.), the system will end up here.  Unless reimplemented by
 105:.\Generated_Source\PSoC5/cyfitter_cfg.c **** *  the customer, this function will stop in an infinite loop.
 106:.\Generated_Source\PSoC5/cyfitter_cfg.c **** *
 107:.\Generated_Source\PSoC5/cyfitter_cfg.c **** * Parameters:
 108:.\Generated_Source\PSoC5/cyfitter_cfg.c **** *   void
 109:.\Generated_Source\PSoC5/cyfitter_cfg.c **** *
 110:.\Generated_Source\PSoC5/cyfitter_cfg.c **** * Return:
 111:.\Generated_Source\PSoC5/cyfitter_cfg.c **** *   void
 112:.\Generated_Source\PSoC5/cyfitter_cfg.c **** *
 113:.\Generated_Source\PSoC5/cyfitter_cfg.c **** *******************************************************************************/
 114:.\Generated_Source\PSoC5/cyfitter_cfg.c **** CY_CFG_UNUSED
 115:.\Generated_Source\PSoC5/cyfitter_cfg.c **** static void CyClockStartupError(uint8 errorCode);
 116:.\Generated_Source\PSoC5/cyfitter_cfg.c **** CY_CFG_UNUSED
 117:.\Generated_Source\PSoC5/cyfitter_cfg.c **** static void CyClockStartupError(uint8 errorCode)
 118:.\Generated_Source\PSoC5/cyfitter_cfg.c **** {
 119:.\Generated_Source\PSoC5/cyfitter_cfg.c ****     /* To remove the compiler warning if errorCode not used.                */
 120:.\Generated_Source\PSoC5/cyfitter_cfg.c ****     errorCode = errorCode;
 121:.\Generated_Source\PSoC5/cyfitter_cfg.c **** 
 122:.\Generated_Source\PSoC5/cyfitter_cfg.c ****     /* `#START CyClockStartupError` */
 123:.\Generated_Source\PSoC5/cyfitter_cfg.c **** 
 124:.\Generated_Source\PSoC5/cyfitter_cfg.c ****     /* If we have a clock startup error (bad MHz crystal, PLL lock, etc.),  */
 125:.\Generated_Source\PSoC5/cyfitter_cfg.c ****     /* we will end up here to allow the customer to implement something to  */
 126:.\Generated_Source\PSoC5/cyfitter_cfg.c ****     /* deal with the clock condition.                                       */
 127:.\Generated_Source\PSoC5/cyfitter_cfg.c **** 
 128:.\Generated_Source\PSoC5/cyfitter_cfg.c ****     /* `#END` */
 129:.\Generated_Source\PSoC5/cyfitter_cfg.c **** 
 130:.\Generated_Source\PSoC5/cyfitter_cfg.c ****     /* If nothing else, stop here since the clocks have not started         */
 131:.\Generated_Source\PSoC5/cyfitter_cfg.c ****     /* correctly.                                                           */
 132:.\Generated_Source\PSoC5/cyfitter_cfg.c ****     while(1) {}
 133:.\Generated_Source\PSoC5/cyfitter_cfg.c **** }
 134:.\Generated_Source\PSoC5/cyfitter_cfg.c **** #endif
 135:.\Generated_Source\PSoC5/cyfitter_cfg.c **** 
 136:.\Generated_Source\PSoC5/cyfitter_cfg.c **** #define CY_CFG_BASE_ADDR_COUNT 35u
 137:.\Generated_Source\PSoC5/cyfitter_cfg.c **** CYPACKED typedef struct
 138:.\Generated_Source\PSoC5/cyfitter_cfg.c **** {
 139:.\Generated_Source\PSoC5/cyfitter_cfg.c **** 	uint8 offset;
 140:.\Generated_Source\PSoC5/cyfitter_cfg.c **** 	uint8 value;
 141:.\Generated_Source\PSoC5/cyfitter_cfg.c **** } CYPACKED_ATTR cy_cfg_addrvalue_t;
 142:.\Generated_Source\PSoC5/cyfitter_cfg.c **** 
 143:.\Generated_Source\PSoC5/cyfitter_cfg.c **** #define cy_cfg_addr_table ((const uint32 CYFAR *)(0x48000000u + CYAPP_ECC_OFFSET))
 144:.\Generated_Source\PSoC5/cyfitter_cfg.c **** #define cy_cfg_data_table ((const cy_cfg_addrvalue_t CYFAR *)(0x4800008Cu + CYAPP_ECC_OFFSET))
 145:.\Generated_Source\PSoC5/cyfitter_cfg.c **** 
ARM GAS  C:\Users\Patrick\AppData\Local\Temp\ccy4Y7jA.s 			page 4


 146:.\Generated_Source\PSoC5/cyfitter_cfg.c **** /* UDB_0_1_0_CONFIG Address: CYDEV_UCFG_B1_P4_U1_BASE Size (bytes): 128 */
 147:.\Generated_Source\PSoC5/cyfitter_cfg.c **** #define BS_UDB_0_1_0_CONFIG_VAL ((const uint8 CYFAR *)(0x480007FCu + CYAPP_ECC_OFFSET))
 148:.\Generated_Source\PSoC5/cyfitter_cfg.c **** 
 149:.\Generated_Source\PSoC5/cyfitter_cfg.c **** /* IOPINS0_0 Address: CYREG_PRT0_DM0 Size (bytes): 8 */
 150:.\Generated_Source\PSoC5/cyfitter_cfg.c **** #define BS_IOPINS0_0_VAL ((const uint8 CYFAR *)(0x4800087Cu + CYAPP_ECC_OFFSET))
 151:.\Generated_Source\PSoC5/cyfitter_cfg.c **** 
 152:.\Generated_Source\PSoC5/cyfitter_cfg.c **** /* IOPINS0_7 Address: CYREG_PRT12_DR Size (bytes): 10 */
 153:.\Generated_Source\PSoC5/cyfitter_cfg.c **** #define BS_IOPINS0_7_VAL ((const uint8 CYFAR *)(0x48000884u + CYAPP_ECC_OFFSET))
 154:.\Generated_Source\PSoC5/cyfitter_cfg.c **** 
 155:.\Generated_Source\PSoC5/cyfitter_cfg.c **** /* IOPINS0_1 Address: CYREG_PRT1_DR Size (bytes): 10 */
 156:.\Generated_Source\PSoC5/cyfitter_cfg.c **** #define BS_IOPINS0_1_VAL ((const uint8 CYFAR *)(0x48000890u + CYAPP_ECC_OFFSET))
 157:.\Generated_Source\PSoC5/cyfitter_cfg.c **** 
 158:.\Generated_Source\PSoC5/cyfitter_cfg.c **** /* IOPINS0_2 Address: CYREG_PRT2_DM0 Size (bytes): 8 */
 159:.\Generated_Source\PSoC5/cyfitter_cfg.c **** #define BS_IOPINS0_2_VAL ((const uint8 CYFAR *)(0x4800089Cu + CYAPP_ECC_OFFSET))
 160:.\Generated_Source\PSoC5/cyfitter_cfg.c **** 
 161:.\Generated_Source\PSoC5/cyfitter_cfg.c **** 
 162:.\Generated_Source\PSoC5/cyfitter_cfg.c **** /*******************************************************************************
 163:.\Generated_Source\PSoC5/cyfitter_cfg.c **** * Function Name: cfg_write_bytes32
 164:.\Generated_Source\PSoC5/cyfitter_cfg.c **** ********************************************************************************
 165:.\Generated_Source\PSoC5/cyfitter_cfg.c **** * Summary:
 166:.\Generated_Source\PSoC5/cyfitter_cfg.c **** *  This function is used for setting up the chip configuration areas that
 167:.\Generated_Source\PSoC5/cyfitter_cfg.c **** *  contain relatively sparse data.
 168:.\Generated_Source\PSoC5/cyfitter_cfg.c **** *
 169:.\Generated_Source\PSoC5/cyfitter_cfg.c **** * Parameters:
 170:.\Generated_Source\PSoC5/cyfitter_cfg.c **** *   void
 171:.\Generated_Source\PSoC5/cyfitter_cfg.c **** *
 172:.\Generated_Source\PSoC5/cyfitter_cfg.c **** * Return:
 173:.\Generated_Source\PSoC5/cyfitter_cfg.c **** *   void
 174:.\Generated_Source\PSoC5/cyfitter_cfg.c **** *
 175:.\Generated_Source\PSoC5/cyfitter_cfg.c **** *******************************************************************************/
 176:.\Generated_Source\PSoC5/cyfitter_cfg.c **** static void cfg_write_bytes32(const uint32 addr_table[], const cy_cfg_addrvalue_t data_table[]);
 177:.\Generated_Source\PSoC5/cyfitter_cfg.c **** static void cfg_write_bytes32(const uint32 addr_table[], const cy_cfg_addrvalue_t data_table[])
 178:.\Generated_Source\PSoC5/cyfitter_cfg.c **** {
 179:.\Generated_Source\PSoC5/cyfitter_cfg.c **** 	/* For 32-bit little-endian architectures */
 180:.\Generated_Source\PSoC5/cyfitter_cfg.c **** 	uint32 i, j = 0u;
 181:.\Generated_Source\PSoC5/cyfitter_cfg.c **** 	for (i = 0u; i < CY_CFG_BASE_ADDR_COUNT; i++)
 182:.\Generated_Source\PSoC5/cyfitter_cfg.c **** 	{
 183:.\Generated_Source\PSoC5/cyfitter_cfg.c **** 		uint32 baseAddr = addr_table[i];
 184:.\Generated_Source\PSoC5/cyfitter_cfg.c **** 		uint8 count = (uint8)baseAddr;
 185:.\Generated_Source\PSoC5/cyfitter_cfg.c **** 		baseAddr &= 0xFFFFFF00u;
 186:.\Generated_Source\PSoC5/cyfitter_cfg.c **** 		while (count != 0u)
 187:.\Generated_Source\PSoC5/cyfitter_cfg.c **** 		{
 188:.\Generated_Source\PSoC5/cyfitter_cfg.c **** 			CY_SET_XTND_REG8((void CYFAR *)(baseAddr + data_table[j].offset), data_table[j].value);
 189:.\Generated_Source\PSoC5/cyfitter_cfg.c **** 			j++;
 190:.\Generated_Source\PSoC5/cyfitter_cfg.c **** 			count--;
 191:.\Generated_Source\PSoC5/cyfitter_cfg.c **** 		}
 192:.\Generated_Source\PSoC5/cyfitter_cfg.c **** 	}
 193:.\Generated_Source\PSoC5/cyfitter_cfg.c **** }
 194:.\Generated_Source\PSoC5/cyfitter_cfg.c **** 
 195:.\Generated_Source\PSoC5/cyfitter_cfg.c **** /*******************************************************************************
 196:.\Generated_Source\PSoC5/cyfitter_cfg.c **** * Function Name: ClockSetup
 197:.\Generated_Source\PSoC5/cyfitter_cfg.c **** ********************************************************************************
 198:.\Generated_Source\PSoC5/cyfitter_cfg.c **** *
 199:.\Generated_Source\PSoC5/cyfitter_cfg.c **** * Summary:
 200:.\Generated_Source\PSoC5/cyfitter_cfg.c **** *  Performs the initialization of all of the clocks in the device based on the
 201:.\Generated_Source\PSoC5/cyfitter_cfg.c **** *  settings in the Clock tab of the DWR.  This includes enabling the requested
 202:.\Generated_Source\PSoC5/cyfitter_cfg.c **** *  clocks and setting the necessary dividers to produce the desired frequency. 
ARM GAS  C:\Users\Patrick\AppData\Local\Temp\ccy4Y7jA.s 			page 5


 203:.\Generated_Source\PSoC5/cyfitter_cfg.c **** *
 204:.\Generated_Source\PSoC5/cyfitter_cfg.c **** * Parameters:
 205:.\Generated_Source\PSoC5/cyfitter_cfg.c **** *  void
 206:.\Generated_Source\PSoC5/cyfitter_cfg.c **** *
 207:.\Generated_Source\PSoC5/cyfitter_cfg.c **** * Return:
 208:.\Generated_Source\PSoC5/cyfitter_cfg.c **** *  void
 209:.\Generated_Source\PSoC5/cyfitter_cfg.c **** *
 210:.\Generated_Source\PSoC5/cyfitter_cfg.c **** *******************************************************************************/
 211:.\Generated_Source\PSoC5/cyfitter_cfg.c **** static void ClockSetup(void);
 212:.\Generated_Source\PSoC5/cyfitter_cfg.c **** static void ClockSetup(void)
 213:.\Generated_Source\PSoC5/cyfitter_cfg.c **** {
 214:.\Generated_Source\PSoC5/cyfitter_cfg.c **** 	uint32 timeout;
 215:.\Generated_Source\PSoC5/cyfitter_cfg.c **** 	uint8 pllLock;
 216:.\Generated_Source\PSoC5/cyfitter_cfg.c **** 
 217:.\Generated_Source\PSoC5/cyfitter_cfg.c **** 
 218:.\Generated_Source\PSoC5/cyfitter_cfg.c **** 	/* Configure Digital Clocks based on settings from Clock DWR */
 219:.\Generated_Source\PSoC5/cyfitter_cfg.c **** 	CY_SET_XTND_REG16((void CYFAR *)(CYREG_CLKDIST_DCFG0_CFG0), 0x0002u);
 220:.\Generated_Source\PSoC5/cyfitter_cfg.c **** 	CY_SET_XTND_REG8((void CYFAR *)(CYREG_CLKDIST_DCFG0_CFG0 + 0x2u), 0x18u);
 221:.\Generated_Source\PSoC5/cyfitter_cfg.c **** 	CY_SET_XTND_REG16((void CYFAR *)(CYREG_CLKDIST_DCFG1_CFG0), 0x0003u);
 222:.\Generated_Source\PSoC5/cyfitter_cfg.c **** 	CY_SET_XTND_REG8((void CYFAR *)(CYREG_CLKDIST_DCFG1_CFG0 + 0x2u), 0x18u);
 223:.\Generated_Source\PSoC5/cyfitter_cfg.c **** 	CY_SET_XTND_REG16((void CYFAR *)(CYREG_CLKDIST_DCFG2_CFG0), 0x0005u);
 224:.\Generated_Source\PSoC5/cyfitter_cfg.c **** 	CY_SET_XTND_REG8((void CYFAR *)(CYREG_CLKDIST_DCFG2_CFG0 + 0x2u), 0x18u);
 225:.\Generated_Source\PSoC5/cyfitter_cfg.c **** 	CY_SET_XTND_REG16((void CYFAR *)(CYREG_CLKDIST_DCFG3_CFG0), 0x0047u);
 226:.\Generated_Source\PSoC5/cyfitter_cfg.c **** 	CY_SET_XTND_REG8((void CYFAR *)(CYREG_CLKDIST_DCFG3_CFG0 + 0x2u), 0x18u);
 227:.\Generated_Source\PSoC5/cyfitter_cfg.c **** 	CY_SET_XTND_REG16((void CYFAR *)(CYREG_CLKDIST_DCFG4_CFG0), 0x004Du);
 228:.\Generated_Source\PSoC5/cyfitter_cfg.c **** 	CY_SET_XTND_REG8((void CYFAR *)(CYREG_CLKDIST_DCFG4_CFG0 + 0x2u), 0x18u);
 229:.\Generated_Source\PSoC5/cyfitter_cfg.c **** 
 230:.\Generated_Source\PSoC5/cyfitter_cfg.c **** 	/* Configure ILO based on settings from Clock DWR */
 231:.\Generated_Source\PSoC5/cyfitter_cfg.c **** 	CY_SET_XTND_REG8((void CYFAR *)(CYREG_SLOWCLK_ILO_CR0), 0x02u);
 232:.\Generated_Source\PSoC5/cyfitter_cfg.c **** 	CY_SET_XTND_REG8((void CYFAR *)(CYREG_CLKDIST_CR), 0x08u);
 233:.\Generated_Source\PSoC5/cyfitter_cfg.c **** 
 234:.\Generated_Source\PSoC5/cyfitter_cfg.c **** 	/* Configure IMO based on settings from Clock DWR */
 235:.\Generated_Source\PSoC5/cyfitter_cfg.c **** 	CY_SET_XTND_REG8((void CYFAR *)(CYREG_FASTCLK_IMO_CR), 0x03u);
 236:.\Generated_Source\PSoC5/cyfitter_cfg.c **** 	CY_SET_XTND_REG8((void CYFAR *)(CYREG_IMO_TR1), (CY_GET_XTND_REG8((void CYFAR *)CYREG_FLSHID_CUST_
 237:.\Generated_Source\PSoC5/cyfitter_cfg.c **** 
 238:.\Generated_Source\PSoC5/cyfitter_cfg.c **** 	/* Configure PLL based on settings from Clock DWR */
 239:.\Generated_Source\PSoC5/cyfitter_cfg.c **** 	CY_SET_XTND_REG16((void CYFAR *)(CYREG_FASTCLK_PLL_P), 0x0018u);
 240:.\Generated_Source\PSoC5/cyfitter_cfg.c **** 	CY_SET_XTND_REG16((void CYFAR *)(CYREG_FASTCLK_PLL_CFG0), 0x2251u);
 241:.\Generated_Source\PSoC5/cyfitter_cfg.c **** 	/* Wait up to 250us for the PLL to lock */
 242:.\Generated_Source\PSoC5/cyfitter_cfg.c **** 	pllLock = 0u;
 243:.\Generated_Source\PSoC5/cyfitter_cfg.c **** 	for (timeout = 250u / 10u; (timeout > 0u) && (pllLock != 0x03u); timeout--)
 244:.\Generated_Source\PSoC5/cyfitter_cfg.c **** 	{ 
 245:.\Generated_Source\PSoC5/cyfitter_cfg.c **** 		pllLock = 0x03u & ((uint8)((uint8)pllLock << 1) | ((CY_GET_XTND_REG8((void CYFAR *)CYREG_FASTCLK_
 246:.\Generated_Source\PSoC5/cyfitter_cfg.c **** 		CyDelayCycles(10u * 48u); /* Delay 10us based on 48MHz clock */
 247:.\Generated_Source\PSoC5/cyfitter_cfg.c **** 	}
 248:.\Generated_Source\PSoC5/cyfitter_cfg.c **** 	/* If we ran out of time the PLL didn't lock so go to the error function */
 249:.\Generated_Source\PSoC5/cyfitter_cfg.c **** 	if (timeout == 0u)
 250:.\Generated_Source\PSoC5/cyfitter_cfg.c **** 	{
 251:.\Generated_Source\PSoC5/cyfitter_cfg.c **** 		CyClockStartupError(CYCLOCKSTART_PLL_ERROR);
 252:.\Generated_Source\PSoC5/cyfitter_cfg.c **** 	}
 253:.\Generated_Source\PSoC5/cyfitter_cfg.c **** 
 254:.\Generated_Source\PSoC5/cyfitter_cfg.c **** 	/* Configure Bus/Master Clock based on settings from Clock DWR */
 255:.\Generated_Source\PSoC5/cyfitter_cfg.c **** 	CY_SET_XTND_REG16((void CYFAR *)(CYREG_CLKDIST_MSTR0), 0x0100u);
 256:.\Generated_Source\PSoC5/cyfitter_cfg.c **** 	CY_SET_XTND_REG8((void CYFAR *)(CYREG_CLKDIST_MSTR0), 0x07u);
 257:.\Generated_Source\PSoC5/cyfitter_cfg.c **** 	CY_SET_XTND_REG8((void CYFAR *)(CYREG_CLKDIST_BCFG0), 0x00u);
 258:.\Generated_Source\PSoC5/cyfitter_cfg.c **** 	CY_SET_XTND_REG8((void CYFAR *)(CYREG_CLKDIST_BCFG2), 0x48u);
 259:.\Generated_Source\PSoC5/cyfitter_cfg.c **** 	CY_SET_XTND_REG8((void CYFAR *)(CYREG_CLKDIST_MSTR0), 0x00u);
ARM GAS  C:\Users\Patrick\AppData\Local\Temp\ccy4Y7jA.s 			page 6


 260:.\Generated_Source\PSoC5/cyfitter_cfg.c **** 	CY_SET_XTND_REG8((void CYFAR *)(CYREG_CLKDIST_LD), 0x02u);
 261:.\Generated_Source\PSoC5/cyfitter_cfg.c **** 
 262:.\Generated_Source\PSoC5/cyfitter_cfg.c **** 	CY_SET_XTND_REG8((void CYFAR *)(CYREG_PM_ACT_CFG2), ((CY_GET_XTND_REG8((void CYFAR *)CYREG_PM_ACT_
 263:.\Generated_Source\PSoC5/cyfitter_cfg.c **** }
 264:.\Generated_Source\PSoC5/cyfitter_cfg.c **** 
 265:.\Generated_Source\PSoC5/cyfitter_cfg.c **** 
 266:.\Generated_Source\PSoC5/cyfitter_cfg.c **** /* Analog API Functions */
 267:.\Generated_Source\PSoC5/cyfitter_cfg.c **** 
 268:.\Generated_Source\PSoC5/cyfitter_cfg.c **** 
 269:.\Generated_Source\PSoC5/cyfitter_cfg.c **** /*******************************************************************************
 270:.\Generated_Source\PSoC5/cyfitter_cfg.c **** * Function Name: AnalogSetDefault
 271:.\Generated_Source\PSoC5/cyfitter_cfg.c **** ********************************************************************************
 272:.\Generated_Source\PSoC5/cyfitter_cfg.c **** *
 273:.\Generated_Source\PSoC5/cyfitter_cfg.c **** * Summary:
 274:.\Generated_Source\PSoC5/cyfitter_cfg.c **** *  Sets up the analog portions of the chip to default values based on chip
 275:.\Generated_Source\PSoC5/cyfitter_cfg.c **** *  configuration options from the project.
 276:.\Generated_Source\PSoC5/cyfitter_cfg.c **** *
 277:.\Generated_Source\PSoC5/cyfitter_cfg.c **** * Parameters:
 278:.\Generated_Source\PSoC5/cyfitter_cfg.c **** *  void
 279:.\Generated_Source\PSoC5/cyfitter_cfg.c **** *
 280:.\Generated_Source\PSoC5/cyfitter_cfg.c **** * Return:
 281:.\Generated_Source\PSoC5/cyfitter_cfg.c **** *  void
 282:.\Generated_Source\PSoC5/cyfitter_cfg.c **** *
 283:.\Generated_Source\PSoC5/cyfitter_cfg.c **** *******************************************************************************/
 284:.\Generated_Source\PSoC5/cyfitter_cfg.c **** static void AnalogSetDefault(void);
 285:.\Generated_Source\PSoC5/cyfitter_cfg.c **** static void AnalogSetDefault(void)
 286:.\Generated_Source\PSoC5/cyfitter_cfg.c **** {
 287:.\Generated_Source\PSoC5/cyfitter_cfg.c **** 	uint8 bg_xover_inl_trim = CY_GET_XTND_REG8((void CYFAR *)(CYREG_FLSHID_MFG_CFG_BG_XOVER_INL_TRIM +
 288:.\Generated_Source\PSoC5/cyfitter_cfg.c **** 	uint8 cr4 = CY_GET_XTND_REG8((void CYFAR *)(CYREG_RESET_CR4));
 289:.\Generated_Source\PSoC5/cyfitter_cfg.c **** 	uint8 cr5 = CY_GET_XTND_REG8((void CYFAR *)(CYREG_RESET_CR5));
 290:.\Generated_Source\PSoC5/cyfitter_cfg.c **** 	CY_SET_XTND_REG8((void CYFAR *)(CYREG_BG_DFT0), (bg_xover_inl_trim & 0x07u));
 291:.\Generated_Source\PSoC5/cyfitter_cfg.c **** 	CY_SET_XTND_REG8((void CYFAR *)(CYREG_BG_DFT1), ((bg_xover_inl_trim >> 4) & 0x0Fu));
 292:.\Generated_Source\PSoC5/cyfitter_cfg.c **** 	/* Disable PRES while setting up SAR voltage reference */
 293:.\Generated_Source\PSoC5/cyfitter_cfg.c **** 	CY_SET_XTND_REG8((void CYFAR *)(CYREG_RESET_CR4), (cr4 | 0x03u));
 294:.\Generated_Source\PSoC5/cyfitter_cfg.c **** 	CY_SET_XTND_REG8((void CYFAR *)(CYREG_RESET_CR5), (cr5 | 0x03u));
 295:.\Generated_Source\PSoC5/cyfitter_cfg.c **** 	CY_SET_XTND_REG8((void CYFAR *)CYREG_SAR0_CSR1, 0x40u);
 296:.\Generated_Source\PSoC5/cyfitter_cfg.c **** 	CY_SET_XTND_REG8((void CYFAR *)CYREG_SAR0_CSR3, 0x40u);
 297:.\Generated_Source\PSoC5/cyfitter_cfg.c **** 	CY_SET_XTND_REG8((void CYFAR *)CYREG_SAR0_SW3, 0x20u);
 298:.\Generated_Source\PSoC5/cyfitter_cfg.c **** 	CyDelayUs(10u); /* Allow vref to settle before re-enabling PRES */
 299:.\Generated_Source\PSoC5/cyfitter_cfg.c **** 	CY_SET_XTND_REG8((void CYFAR *)(CYREG_RESET_CR5), (cr5));
 300:.\Generated_Source\PSoC5/cyfitter_cfg.c **** 	CY_SET_XTND_REG8((void CYFAR *)(CYREG_RESET_CR4), (cr4));
 301:.\Generated_Source\PSoC5/cyfitter_cfg.c **** 	CY_SET_XTND_REG8((void CYFAR *)CYREG_PUMP_CR0, 0x44u);
 302:.\Generated_Source\PSoC5/cyfitter_cfg.c **** }
 303:.\Generated_Source\PSoC5/cyfitter_cfg.c **** 
 304:.\Generated_Source\PSoC5/cyfitter_cfg.c **** 
 305:.\Generated_Source\PSoC5/cyfitter_cfg.c **** /*******************************************************************************
 306:.\Generated_Source\PSoC5/cyfitter_cfg.c **** * Function Name: SetAnalogRoutingPumps
 307:.\Generated_Source\PSoC5/cyfitter_cfg.c **** ********************************************************************************
 308:.\Generated_Source\PSoC5/cyfitter_cfg.c **** *
 309:.\Generated_Source\PSoC5/cyfitter_cfg.c **** * Summary:
 310:.\Generated_Source\PSoC5/cyfitter_cfg.c **** * Enables or disables the analog pumps feeding analog routing switches.
 311:.\Generated_Source\PSoC5/cyfitter_cfg.c **** * Intended to be called at startup, based on the Vdda system configuration;
 312:.\Generated_Source\PSoC5/cyfitter_cfg.c **** * may be called during operation when the user informs us that the Vdda voltage
 313:.\Generated_Source\PSoC5/cyfitter_cfg.c **** * crossed the pump threshold.
 314:.\Generated_Source\PSoC5/cyfitter_cfg.c **** *
 315:.\Generated_Source\PSoC5/cyfitter_cfg.c **** * Parameters:
 316:.\Generated_Source\PSoC5/cyfitter_cfg.c **** *  enabled - 1 to enable the pumps, 0 to disable the pumps
ARM GAS  C:\Users\Patrick\AppData\Local\Temp\ccy4Y7jA.s 			page 7


 317:.\Generated_Source\PSoC5/cyfitter_cfg.c **** *
 318:.\Generated_Source\PSoC5/cyfitter_cfg.c **** * Return:
 319:.\Generated_Source\PSoC5/cyfitter_cfg.c **** *  void
 320:.\Generated_Source\PSoC5/cyfitter_cfg.c **** *
 321:.\Generated_Source\PSoC5/cyfitter_cfg.c **** *******************************************************************************/
 322:.\Generated_Source\PSoC5/cyfitter_cfg.c **** void SetAnalogRoutingPumps(uint8 enabled)
 323:.\Generated_Source\PSoC5/cyfitter_cfg.c **** {
  27              		.loc 1 323 0
  28              		.cfi_startproc
  29              		@ args = 0, pretend = 0, frame = 0
  30              		@ frame_needed = 0, uses_anonymous_args = 0
  31              		@ link register save eliminated.
  32              	.LVL0:
 324:.\Generated_Source\PSoC5/cyfitter_cfg.c **** 	uint8 regValue = CY_GET_XTND_REG8((void CYFAR *)CYREG_PUMP_CR0);
  33              		.loc 1 324 0
  34 0000 064B     		ldr	r3, .L6
  35 0002 1B78     		ldrb	r3, [r3]	@ zero_extendqisi2
  36 0004 DBB2     		uxtb	r3, r3
  37              	.LVL1:
 325:.\Generated_Source\PSoC5/cyfitter_cfg.c **** 	if (enabled != 0u)
  38              		.loc 1 325 0
  39 0006 20B9     		cbnz	r0, .L5
 326:.\Generated_Source\PSoC5/cyfitter_cfg.c **** 	{
 327:.\Generated_Source\PSoC5/cyfitter_cfg.c **** 		regValue |= 0x22u;
 328:.\Generated_Source\PSoC5/cyfitter_cfg.c **** 	}
 329:.\Generated_Source\PSoC5/cyfitter_cfg.c **** 	else
 330:.\Generated_Source\PSoC5/cyfitter_cfg.c **** 	{
 331:.\Generated_Source\PSoC5/cyfitter_cfg.c **** 		regValue &= (uint8)~0x22u;
 332:.\Generated_Source\PSoC5/cyfitter_cfg.c **** 	}
 333:.\Generated_Source\PSoC5/cyfitter_cfg.c **** 	CY_SET_XTND_REG8((void CYFAR *)CYREG_PUMP_CR0, regValue);
  40              		.loc 1 333 0
  41 0008 044A     		ldr	r2, .L6
 331:.\Generated_Source\PSoC5/cyfitter_cfg.c **** 	}
  42              		.loc 1 331 0
  43 000a 03F0DD03 		and	r3, r3, #221
  44              	.LVL2:
  45              		.loc 1 333 0
  46 000e 1370     		strb	r3, [r2]
  47 0010 7047     		bx	lr
  48              	.L5:
  49 0012 024A     		ldr	r2, .L6
 327:.\Generated_Source\PSoC5/cyfitter_cfg.c **** 	}
  50              		.loc 1 327 0
  51 0014 43F02203 		orr	r3, r3, #34
  52              	.LVL3:
  53              		.loc 1 333 0
  54 0018 1370     		strb	r3, [r2]
  55 001a 7047     		bx	lr
  56              	.L7:
  57              		.align	2
  58              	.L6:
  59 001c 76580040 		.word	1073764470
  60              		.cfi_endproc
  61              	.LFE7:
  62              		.size	SetAnalogRoutingPumps, .-SetAnalogRoutingPumps
  63              		.section	.text.AMux_1_Set,"ax",%progbits
  64              		.align	2
ARM GAS  C:\Users\Patrick\AppData\Local\Temp\ccy4Y7jA.s 			page 8


  65              		.global	AMux_1_Set
  66              		.thumb
  67              		.thumb_func
  68              		.type	AMux_1_Set, %function
  69              	AMux_1_Set:
  70              	.LFB8:
 334:.\Generated_Source\PSoC5/cyfitter_cfg.c **** }
 335:.\Generated_Source\PSoC5/cyfitter_cfg.c **** 
 336:.\Generated_Source\PSoC5/cyfitter_cfg.c **** #define CY_AMUX_UNUSED CYREG_BOOST_SR
 337:.\Generated_Source\PSoC5/cyfitter_cfg.c **** static uint8 CYXDATA * const CYCODE AMux_1__outerAddr[3] = {
 338:.\Generated_Source\PSoC5/cyfitter_cfg.c **** 	(uint8 CYXDATA *)CYREG_PRT0_AG, 
 339:.\Generated_Source\PSoC5/cyfitter_cfg.c **** 	(uint8 CYXDATA *)CYREG_PRT0_AG, 
 340:.\Generated_Source\PSoC5/cyfitter_cfg.c **** 	(uint8 CYXDATA *)CYREG_PRT0_AG, 
 341:.\Generated_Source\PSoC5/cyfitter_cfg.c **** };
 342:.\Generated_Source\PSoC5/cyfitter_cfg.c **** 
 343:.\Generated_Source\PSoC5/cyfitter_cfg.c **** static const uint8 CYCODE AMux_1__outerMask[3] = {
 344:.\Generated_Source\PSoC5/cyfitter_cfg.c **** 	0x04u, 
 345:.\Generated_Source\PSoC5/cyfitter_cfg.c **** 	0x40u, 
 346:.\Generated_Source\PSoC5/cyfitter_cfg.c **** 	0x20u, 
 347:.\Generated_Source\PSoC5/cyfitter_cfg.c **** };
 348:.\Generated_Source\PSoC5/cyfitter_cfg.c **** 
 349:.\Generated_Source\PSoC5/cyfitter_cfg.c **** static uint8 CYXDATA * const CYCODE AMux_1__innerAddr[2] = {
 350:.\Generated_Source\PSoC5/cyfitter_cfg.c **** 	(uint8 CYXDATA *)CYREG_SAR0_SW0, 
 351:.\Generated_Source\PSoC5/cyfitter_cfg.c **** 	(uint8 CYXDATA *)CYREG_SAR0_SW0, 
 352:.\Generated_Source\PSoC5/cyfitter_cfg.c **** };
 353:.\Generated_Source\PSoC5/cyfitter_cfg.c **** 
 354:.\Generated_Source\PSoC5/cyfitter_cfg.c **** static const uint8 CYCODE AMux_1__innerMask[2] = {
 355:.\Generated_Source\PSoC5/cyfitter_cfg.c **** 	0x40u, 
 356:.\Generated_Source\PSoC5/cyfitter_cfg.c **** 	0x20u, 
 357:.\Generated_Source\PSoC5/cyfitter_cfg.c **** };
 358:.\Generated_Source\PSoC5/cyfitter_cfg.c **** 
 359:.\Generated_Source\PSoC5/cyfitter_cfg.c **** static const uint8 CYCODE AMux_1__innerMap[3] = {
 360:.\Generated_Source\PSoC5/cyfitter_cfg.c **** 	0u, 
 361:.\Generated_Source\PSoC5/cyfitter_cfg.c **** 	0u, 
 362:.\Generated_Source\PSoC5/cyfitter_cfg.c **** 	1u, 
 363:.\Generated_Source\PSoC5/cyfitter_cfg.c **** };
 364:.\Generated_Source\PSoC5/cyfitter_cfg.c **** 
 365:.\Generated_Source\PSoC5/cyfitter_cfg.c **** static uint8 AMux_1__armsEnabled = 0u;
 366:.\Generated_Source\PSoC5/cyfitter_cfg.c **** static uint8 AMux_1__refCnt[] = {0u, 0u};
 367:.\Generated_Source\PSoC5/cyfitter_cfg.c **** 
 368:.\Generated_Source\PSoC5/cyfitter_cfg.c **** /*******************************************************************************
 369:.\Generated_Source\PSoC5/cyfitter_cfg.c **** * Function Name: AMux_1_Set
 370:.\Generated_Source\PSoC5/cyfitter_cfg.c **** ********************************************************************************
 371:.\Generated_Source\PSoC5/cyfitter_cfg.c **** * Summary:
 372:.\Generated_Source\PSoC5/cyfitter_cfg.c **** *  This function is used to set a particular channel as active on the AMux.
 373:.\Generated_Source\PSoC5/cyfitter_cfg.c **** *
 374:.\Generated_Source\PSoC5/cyfitter_cfg.c **** * Parameters:  
 375:.\Generated_Source\PSoC5/cyfitter_cfg.c **** *   channel - The mux channel input to set as active
 376:.\Generated_Source\PSoC5/cyfitter_cfg.c **** *
 377:.\Generated_Source\PSoC5/cyfitter_cfg.c **** * Return:
 378:.\Generated_Source\PSoC5/cyfitter_cfg.c **** *   void
 379:.\Generated_Source\PSoC5/cyfitter_cfg.c **** *
 380:.\Generated_Source\PSoC5/cyfitter_cfg.c **** *******************************************************************************/
 381:.\Generated_Source\PSoC5/cyfitter_cfg.c **** void AMux_1_Set(uint8 channel)
 382:.\Generated_Source\PSoC5/cyfitter_cfg.c **** {
  71              		.loc 1 382 0
  72              		.cfi_startproc
ARM GAS  C:\Users\Patrick\AppData\Local\Temp\ccy4Y7jA.s 			page 9


  73              		@ args = 0, pretend = 0, frame = 0
  74              		@ frame_needed = 0, uses_anonymous_args = 0
  75              	.LVL4:
 383:.\Generated_Source\PSoC5/cyfitter_cfg.c **** 	uint8 i;
 384:.\Generated_Source\PSoC5/cyfitter_cfg.c **** 	uint8 channelMask = (1UL << channel);
 385:.\Generated_Source\PSoC5/cyfitter_cfg.c **** 	if ((channel < 3u) && ((AMux_1__armsEnabled & channelMask) == ((uint32)0u)))
  76              		.loc 1 385 0
  77 0000 0228     		cmp	r0, #2
  78 0002 23D8     		bhi	.L12
  79              		.loc 1 385 0 is_stmt 0 discriminator 1
  80 0004 124A     		ldr	r2, .L13
 384:.\Generated_Source\PSoC5/cyfitter_cfg.c **** 	if ((channel < 3u) && ((AMux_1__armsEnabled & channelMask) == ((uint32)0u)))
  81              		.loc 1 384 0 is_stmt 1 discriminator 1
  82 0006 0123     		movs	r3, #1
  83 0008 8340     		lsls	r3, r3, r0
  84              		.loc 1 385 0 discriminator 1
  85 000a 1178     		ldrb	r1, [r2]	@ zero_extendqisi2
 384:.\Generated_Source\PSoC5/cyfitter_cfg.c **** 	if ((channel < 3u) && ((AMux_1__armsEnabled & channelMask) == ((uint32)0u)))
  86              		.loc 1 384 0 discriminator 1
  87 000c DBB2     		uxtb	r3, r3
  88              		.loc 1 385 0 discriminator 1
  89 000e 0B42     		tst	r3, r1
  90 0010 1CD1     		bne	.L12
 382:.\Generated_Source\PSoC5/cyfitter_cfg.c **** 	uint8 i;
  91              		.loc 1 382 0
  92 0012 F0B5     		push	{r4, r5, r6, r7, lr}
  93              		.cfi_def_cfa_offset 20
  94              		.cfi_offset 4, -20
  95              		.cfi_offset 5, -16
  96              		.cfi_offset 6, -12
  97              		.cfi_offset 7, -8
  98              		.cfi_offset 14, -4
 386:.\Generated_Source\PSoC5/cyfitter_cfg.c **** 	{
 387:.\Generated_Source\PSoC5/cyfitter_cfg.c **** 		AMux_1__armsEnabled |= channelMask;
 388:.\Generated_Source\PSoC5/cyfitter_cfg.c **** 		*AMux_1__outerAddr[channel] |= AMux_1__outerMask[channel];
  99              		.loc 1 388 0
 100 0014 0F4C     		ldr	r4, .L13+4
 387:.\Generated_Source\PSoC5/cyfitter_cfg.c **** 		*AMux_1__outerAddr[channel] |= AMux_1__outerMask[channel];
 101              		.loc 1 387 0
 102 0016 0B43     		orrs	r3, r3, r1
 103              		.loc 1 388 0
 104 0018 2718     		adds	r7, r4, r0
 105 001a 54F82060 		ldr	r6, [r4, r0, lsl #2]
 389:.\Generated_Source\PSoC5/cyfitter_cfg.c **** 		i = AMux_1__innerMap[channel];
 390:.\Generated_Source\PSoC5/cyfitter_cfg.c **** 		if (AMux_1__refCnt[i] == 0u)
 106              		.loc 1 390 0
 107 001e 397C     		ldrb	r1, [r7, #16]	@ zero_extendqisi2
 388:.\Generated_Source\PSoC5/cyfitter_cfg.c **** 		i = AMux_1__innerMap[channel];
 108              		.loc 1 388 0
 109 0020 96F800E0 		ldrb	lr, [r6]	@ zero_extendqisi2
 110 0024 3D7B     		ldrb	r5, [r7, #12]	@ zero_extendqisi2
 111              		.loc 1 390 0
 112 0026 5018     		adds	r0, r2, r1
 113              	.LVL5:
 114 0028 0079     		ldrb	r0, [r0, #4]	@ zero_extendqisi2
 388:.\Generated_Source\PSoC5/cyfitter_cfg.c **** 		i = AMux_1__innerMap[channel];
 115              		.loc 1 388 0
ARM GAS  C:\Users\Patrick\AppData\Local\Temp\ccy4Y7jA.s 			page 10


 116 002a 4EEA0505 		orr	r5, lr, r5
 387:.\Generated_Source\PSoC5/cyfitter_cfg.c **** 		*AMux_1__outerAddr[channel] |= AMux_1__outerMask[channel];
 117              		.loc 1 387 0
 118 002e 1370     		strb	r3, [r2]
 388:.\Generated_Source\PSoC5/cyfitter_cfg.c **** 		i = AMux_1__innerMap[channel];
 119              		.loc 1 388 0
 120 0030 3570     		strb	r5, [r6]
 121              	.LVL6:
 122              		.loc 1 390 0
 123 0032 38B9     		cbnz	r0, .L10
 391:.\Generated_Source\PSoC5/cyfitter_cfg.c **** 		{
 392:.\Generated_Source\PSoC5/cyfitter_cfg.c **** 			*AMux_1__innerAddr[i] |= AMux_1__innerMask[i];
 124              		.loc 1 392 0
 125 0034 04EB8103 		add	r3, r4, r1, lsl #2
 126 0038 5D69     		ldr	r5, [r3, #20]
 127 003a 0C44     		add	r4, r4, r1
 128 003c 237F     		ldrb	r3, [r4, #28]	@ zero_extendqisi2
 129 003e 2C78     		ldrb	r4, [r5]	@ zero_extendqisi2
 130 0040 2343     		orrs	r3, r3, r4
 131 0042 2B70     		strb	r3, [r5]
 132              	.L10:
 393:.\Generated_Source\PSoC5/cyfitter_cfg.c **** 		}
 394:.\Generated_Source\PSoC5/cyfitter_cfg.c **** 		AMux_1__refCnt[i]++;
 133              		.loc 1 394 0
 134 0044 0A44     		add	r2, r2, r1
 135 0046 0130     		adds	r0, r0, #1
 136 0048 1071     		strb	r0, [r2, #4]
 137 004a F0BD     		pop	{r4, r5, r6, r7, pc}
 138              	.LVL7:
 139              	.L12:
 140              		.cfi_def_cfa_offset 0
 141              		.cfi_restore 4
 142              		.cfi_restore 5
 143              		.cfi_restore 6
 144              		.cfi_restore 7
 145              		.cfi_restore 14
 146 004c 7047     		bx	lr
 147              	.L14:
 148 004e 00BF     		.align	2
 149              	.L13:
 150 0050 00000000 		.word	.LANCHOR0
 151 0054 00000000 		.word	.LANCHOR1
 152              		.cfi_endproc
 153              	.LFE8:
 154              		.size	AMux_1_Set, .-AMux_1_Set
 155              		.section	.text.AMux_1_Unset,"ax",%progbits
 156              		.align	2
 157              		.global	AMux_1_Unset
 158              		.thumb
 159              		.thumb_func
 160              		.type	AMux_1_Unset, %function
 161              	AMux_1_Unset:
 162              	.LFB9:
 395:.\Generated_Source\PSoC5/cyfitter_cfg.c **** 	}
 396:.\Generated_Source\PSoC5/cyfitter_cfg.c **** }
 397:.\Generated_Source\PSoC5/cyfitter_cfg.c **** 
 398:.\Generated_Source\PSoC5/cyfitter_cfg.c **** /*******************************************************************************
ARM GAS  C:\Users\Patrick\AppData\Local\Temp\ccy4Y7jA.s 			page 11


 399:.\Generated_Source\PSoC5/cyfitter_cfg.c **** * Function Name: AMux_1_Unset
 400:.\Generated_Source\PSoC5/cyfitter_cfg.c **** ********************************************************************************
 401:.\Generated_Source\PSoC5/cyfitter_cfg.c **** * Summary:
 402:.\Generated_Source\PSoC5/cyfitter_cfg.c **** *  This function is used to clear a particular channel from being active on the
 403:.\Generated_Source\PSoC5/cyfitter_cfg.c **** *  AMux.
 404:.\Generated_Source\PSoC5/cyfitter_cfg.c **** *
 405:.\Generated_Source\PSoC5/cyfitter_cfg.c **** * Parameters:  
 406:.\Generated_Source\PSoC5/cyfitter_cfg.c **** *   channel - The mux channel input to mark inactive
 407:.\Generated_Source\PSoC5/cyfitter_cfg.c **** *
 408:.\Generated_Source\PSoC5/cyfitter_cfg.c **** * Return:
 409:.\Generated_Source\PSoC5/cyfitter_cfg.c **** *   void
 410:.\Generated_Source\PSoC5/cyfitter_cfg.c **** *
 411:.\Generated_Source\PSoC5/cyfitter_cfg.c **** *******************************************************************************/
 412:.\Generated_Source\PSoC5/cyfitter_cfg.c **** void AMux_1_Unset(uint8 channel)
 413:.\Generated_Source\PSoC5/cyfitter_cfg.c **** {
 163              		.loc 1 413 0
 164              		.cfi_startproc
 165              		@ args = 0, pretend = 0, frame = 0
 166              		@ frame_needed = 0, uses_anonymous_args = 0
 167              	.LVL8:
 414:.\Generated_Source\PSoC5/cyfitter_cfg.c **** 	uint8 i;
 415:.\Generated_Source\PSoC5/cyfitter_cfg.c **** 	uint8 channelMask = (1UL << channel);
 416:.\Generated_Source\PSoC5/cyfitter_cfg.c **** 	if ((channel < 3u) && ((AMux_1__armsEnabled & channelMask) != ((uint32)0u)))
 168              		.loc 1 416 0
 169 0000 0228     		cmp	r0, #2
 170 0002 27D8     		bhi	.L23
 171              		.loc 1 416 0 is_stmt 0 discriminator 1
 172 0004 1449     		ldr	r1, .L24
 415:.\Generated_Source\PSoC5/cyfitter_cfg.c **** 	if ((channel < 3u) && ((AMux_1__armsEnabled & channelMask) != ((uint32)0u)))
 173              		.loc 1 415 0 is_stmt 1 discriminator 1
 174 0006 0123     		movs	r3, #1
 175 0008 8340     		lsls	r3, r3, r0
 176              		.loc 1 416 0 discriminator 1
 177 000a 0A78     		ldrb	r2, [r1]	@ zero_extendqisi2
 415:.\Generated_Source\PSoC5/cyfitter_cfg.c **** 	if ((channel < 3u) && ((AMux_1__armsEnabled & channelMask) != ((uint32)0u)))
 178              		.loc 1 415 0 discriminator 1
 179 000c DBB2     		uxtb	r3, r3
 180              		.loc 1 416 0 discriminator 1
 181 000e 1342     		tst	r3, r2
 182 0010 20D0     		beq	.L23
 413:.\Generated_Source\PSoC5/cyfitter_cfg.c **** 	uint8 i;
 183              		.loc 1 413 0
 184 0012 F0B5     		push	{r4, r5, r6, r7, lr}
 185              		.cfi_def_cfa_offset 20
 186              		.cfi_offset 4, -20
 187              		.cfi_offset 5, -16
 188              		.cfi_offset 6, -12
 189              		.cfi_offset 7, -8
 190              		.cfi_offset 14, -4
 417:.\Generated_Source\PSoC5/cyfitter_cfg.c **** 	{
 418:.\Generated_Source\PSoC5/cyfitter_cfg.c **** 		AMux_1__armsEnabled &= (uint8)~channelMask;
 419:.\Generated_Source\PSoC5/cyfitter_cfg.c **** 		*AMux_1__outerAddr[channel] &= (uint8)~AMux_1__outerMask[channel];
 191              		.loc 1 419 0
 192 0014 114D     		ldr	r5, .L24+4
 418:.\Generated_Source\PSoC5/cyfitter_cfg.c **** 		*AMux_1__outerAddr[channel] &= (uint8)~AMux_1__outerMask[channel];
 193              		.loc 1 418 0
 194 0016 22EA0303 		bic	r3, r2, r3
ARM GAS  C:\Users\Patrick\AppData\Local\Temp\ccy4Y7jA.s 			page 12


 195              		.loc 1 419 0
 196 001a 05EB000E 		add	lr, r5, r0
 420:.\Generated_Source\PSoC5/cyfitter_cfg.c **** 		i = AMux_1__innerMap[channel];
 421:.\Generated_Source\PSoC5/cyfitter_cfg.c **** 		AMux_1__refCnt[i]--;
 197              		.loc 1 421 0
 198 001e 9EF81040 		ldrb	r4, [lr, #16]	@ zero_extendqisi2
 419:.\Generated_Source\PSoC5/cyfitter_cfg.c **** 		i = AMux_1__innerMap[channel];
 199              		.loc 1 419 0
 200 0022 55F82070 		ldr	r7, [r5, r0, lsl #2]
 201              		.loc 1 421 0
 202 0026 0E19     		adds	r6, r1, r4
 203 0028 3279     		ldrb	r2, [r6, #4]	@ zero_extendqisi2
 419:.\Generated_Source\PSoC5/cyfitter_cfg.c **** 		i = AMux_1__innerMap[channel];
 204              		.loc 1 419 0
 205 002a 3878     		ldrb	r0, [r7]	@ zero_extendqisi2
 206              	.LVL9:
 207 002c 9EF80CE0 		ldrb	lr, [lr, #12]	@ zero_extendqisi2
 208              		.loc 1 421 0
 209 0030 013A     		subs	r2, r2, #1
 419:.\Generated_Source\PSoC5/cyfitter_cfg.c **** 		i = AMux_1__innerMap[channel];
 210              		.loc 1 419 0
 211 0032 20EA0E00 		bic	r0, r0, lr
 212              		.loc 1 421 0
 213 0036 D2B2     		uxtb	r2, r2
 418:.\Generated_Source\PSoC5/cyfitter_cfg.c **** 		*AMux_1__outerAddr[channel] &= (uint8)~AMux_1__outerMask[channel];
 214              		.loc 1 418 0
 215 0038 0B70     		strb	r3, [r1]
 419:.\Generated_Source\PSoC5/cyfitter_cfg.c **** 		i = AMux_1__innerMap[channel];
 216              		.loc 1 419 0
 217 003a 3870     		strb	r0, [r7]
 218              	.LVL10:
 219              		.loc 1 421 0
 220 003c 3271     		strb	r2, [r6, #4]
 422:.\Generated_Source\PSoC5/cyfitter_cfg.c **** 		if (AMux_1__refCnt[i] == 0)
 221              		.loc 1 422 0
 222 003e 42B9     		cbnz	r2, .L15
 423:.\Generated_Source\PSoC5/cyfitter_cfg.c **** 		{
 424:.\Generated_Source\PSoC5/cyfitter_cfg.c **** 			*AMux_1__innerAddr[i] &= (uint8)~AMux_1__innerMask[i];
 223              		.loc 1 424 0
 224 0040 05EB8403 		add	r3, r5, r4, lsl #2
 225 0044 5A69     		ldr	r2, [r3, #20]
 226 0046 2C44     		add	r4, r4, r5
 227 0048 1378     		ldrb	r3, [r2]	@ zero_extendqisi2
 228 004a 217F     		ldrb	r1, [r4, #28]	@ zero_extendqisi2
 229 004c 23EA0103 		bic	r3, r3, r1
 230 0050 1370     		strb	r3, [r2]
 231              	.L15:
 232 0052 F0BD     		pop	{r4, r5, r6, r7, pc}
 233              	.LVL11:
 234              	.L23:
 235              		.cfi_def_cfa_offset 0
 236              		.cfi_restore 4
 237              		.cfi_restore 5
 238              		.cfi_restore 6
 239              		.cfi_restore 7
 240              		.cfi_restore 14
 241 0054 7047     		bx	lr
ARM GAS  C:\Users\Patrick\AppData\Local\Temp\ccy4Y7jA.s 			page 13


 242              	.L25:
 243 0056 00BF     		.align	2
 244              	.L24:
 245 0058 00000000 		.word	.LANCHOR0
 246 005c 00000000 		.word	.LANCHOR1
 247              		.cfi_endproc
 248              	.LFE9:
 249              		.size	AMux_1_Unset, .-AMux_1_Unset
 250              		.section	.text.cyfitter_cfg,"ax",%progbits
 251              		.align	2
 252              		.global	cyfitter_cfg
 253              		.thumb
 254              		.thumb_func
 255              		.type	cyfitter_cfg, %function
 256              	cyfitter_cfg:
 257              	.LFB10:
 425:.\Generated_Source\PSoC5/cyfitter_cfg.c **** 		}
 426:.\Generated_Source\PSoC5/cyfitter_cfg.c **** 	}
 427:.\Generated_Source\PSoC5/cyfitter_cfg.c **** }
 428:.\Generated_Source\PSoC5/cyfitter_cfg.c **** 
 429:.\Generated_Source\PSoC5/cyfitter_cfg.c **** 
 430:.\Generated_Source\PSoC5/cyfitter_cfg.c **** 
 431:.\Generated_Source\PSoC5/cyfitter_cfg.c **** /*******************************************************************************
 432:.\Generated_Source\PSoC5/cyfitter_cfg.c **** * Function Name: cyfitter_cfg
 433:.\Generated_Source\PSoC5/cyfitter_cfg.c **** ********************************************************************************
 434:.\Generated_Source\PSoC5/cyfitter_cfg.c **** * Summary:
 435:.\Generated_Source\PSoC5/cyfitter_cfg.c **** *  This function is called by the start-up code for the selected device. It
 436:.\Generated_Source\PSoC5/cyfitter_cfg.c **** *  performs all of the necessary device configuration based on the design
 437:.\Generated_Source\PSoC5/cyfitter_cfg.c **** *  settings.  This includes settings from the Design Wide Resources (DWR) such
 438:.\Generated_Source\PSoC5/cyfitter_cfg.c **** *  as Clocks and Pins as well as any component configuration that is necessary.
 439:.\Generated_Source\PSoC5/cyfitter_cfg.c **** *
 440:.\Generated_Source\PSoC5/cyfitter_cfg.c **** * Parameters:  
 441:.\Generated_Source\PSoC5/cyfitter_cfg.c **** *   void
 442:.\Generated_Source\PSoC5/cyfitter_cfg.c **** *
 443:.\Generated_Source\PSoC5/cyfitter_cfg.c **** * Return:
 444:.\Generated_Source\PSoC5/cyfitter_cfg.c **** *   void
 445:.\Generated_Source\PSoC5/cyfitter_cfg.c **** *
 446:.\Generated_Source\PSoC5/cyfitter_cfg.c **** *******************************************************************************/
 447:.\Generated_Source\PSoC5/cyfitter_cfg.c **** 
 448:.\Generated_Source\PSoC5/cyfitter_cfg.c **** void cyfitter_cfg(void)
 449:.\Generated_Source\PSoC5/cyfitter_cfg.c **** {
 258              		.loc 1 449 0
 259              		.cfi_startproc
 260              		@ args = 0, pretend = 0, frame = 0
 261              		@ frame_needed = 0, uses_anonymous_args = 0
 262 0000 2DE9F84F 		push	{r3, r4, r5, r6, r7, r8, r9, r10, fp, lr}
 263              		.cfi_def_cfa_offset 40
 264              		.cfi_offset 3, -40
 265              		.cfi_offset 4, -36
 266              		.cfi_offset 5, -32
 267              		.cfi_offset 6, -28
 268              		.cfi_offset 7, -24
 269              		.cfi_offset 8, -20
 270              		.cfi_offset 9, -16
 271              		.cfi_offset 10, -12
 272              		.cfi_offset 11, -8
 273              		.cfi_offset 14, -4
ARM GAS  C:\Users\Patrick\AppData\Local\Temp\ccy4Y7jA.s 			page 14


 450:.\Generated_Source\PSoC5/cyfitter_cfg.c **** #ifdef CYGlobalIntDisable
 451:.\Generated_Source\PSoC5/cyfitter_cfg.c **** 	/* Disable interrupts by default. Let user enable if/when they want. */
 452:.\Generated_Source\PSoC5/cyfitter_cfg.c **** 	CYGlobalIntDisable
 274              		.loc 1 452 0
 275              	@ 452 ".\Generated_Source\PSoC5\cyfitter_cfg.c" 1
 276 0004 72B6     		CPSID   i
 277              	@ 0 "" 2
 278              		.thumb
 279              	.LBB45:
 280              	.LBB46:
 240:.\Generated_Source\PSoC5/cyfitter_cfg.c **** 	/* Wait up to 250us for the PLL to lock */
 281              		.loc 1 240 0
 282 0006 42F25120 		movw	r0, #8785
 283              	.LBE46:
 284              	.LBE45:
 453:.\Generated_Source\PSoC5/cyfitter_cfg.c **** #endif
 454:.\Generated_Source\PSoC5/cyfitter_cfg.c **** 
 455:.\Generated_Source\PSoC5/cyfitter_cfg.c **** 
 456:.\Generated_Source\PSoC5/cyfitter_cfg.c **** 	/* Set Flash Cycles based on max possible frequency in case a glitch occurs during ClockSetup(). *
 457:.\Generated_Source\PSoC5/cyfitter_cfg.c **** 	CY_SET_XTND_REG8((void CYFAR *)(CYREG_CACHE_CC_CTL), (((CYDEV_INSTRUCT_CACHE_ENABLED) != 0) ? 0x61
 285              		.loc 1 457 0
 286 000a 9149     		ldr	r1, .L48
 287              	.LBB51:
 288              	.LBB47:
 219:.\Generated_Source\PSoC5/cyfitter_cfg.c **** 	CY_SET_XTND_REG8((void CYFAR *)(CYREG_CLKDIST_DCFG0_CFG0 + 0x2u), 0x18u);
 289              		.loc 1 219 0
 290 000c 914B     		ldr	r3, .L48+4
 291              	.LBE47:
 292              	.LBE51:
 293              		.loc 1 457 0
 294 000e 6025     		movs	r5, #96
 295 0010 0D70     		strb	r5, [r1]
 296              	.LBB52:
 297              	.LBB48:
 220:.\Generated_Source\PSoC5/cyfitter_cfg.c **** 	CY_SET_XTND_REG16((void CYFAR *)(CYREG_CLKDIST_DCFG1_CFG0), 0x0003u);
 298              		.loc 1 220 0
 299 0012 914A     		ldr	r2, .L48+8
 219:.\Generated_Source\PSoC5/cyfitter_cfg.c **** 	CY_SET_XTND_REG8((void CYFAR *)(CYREG_CLKDIST_DCFG0_CFG0 + 0x2u), 0x18u);
 300              		.loc 1 219 0
 301 0014 0221     		movs	r1, #2
 302 0016 1980     		strh	r1, [r3]	@ movhi
 221:.\Generated_Source\PSoC5/cyfitter_cfg.c **** 	CY_SET_XTND_REG8((void CYFAR *)(CYREG_CLKDIST_DCFG1_CFG0 + 0x2u), 0x18u);
 303              		.loc 1 221 0
 304 0018 DFF8AC92 		ldr	r9, .L48+120
 220:.\Generated_Source\PSoC5/cyfitter_cfg.c **** 	CY_SET_XTND_REG16((void CYFAR *)(CYREG_CLKDIST_DCFG1_CFG0), 0x0003u);
 305              		.loc 1 220 0
 306 001c 1823     		movs	r3, #24
 222:.\Generated_Source\PSoC5/cyfitter_cfg.c **** 	CY_SET_XTND_REG16((void CYFAR *)(CYREG_CLKDIST_DCFG2_CFG0), 0x0005u);
 307              		.loc 1 222 0
 308 001e DFF8ACB2 		ldr	fp, .L48+124
 220:.\Generated_Source\PSoC5/cyfitter_cfg.c **** 	CY_SET_XTND_REG16((void CYFAR *)(CYREG_CLKDIST_DCFG1_CFG0), 0x0003u);
 309              		.loc 1 220 0
 310 0022 1370     		strb	r3, [r2]
 223:.\Generated_Source\PSoC5/cyfitter_cfg.c **** 	CY_SET_XTND_REG8((void CYFAR *)(CYREG_CLKDIST_DCFG2_CFG0 + 0x2u), 0x18u);
 311              		.loc 1 223 0
 312 0024 8D4E     		ldr	r6, .L48+12
 221:.\Generated_Source\PSoC5/cyfitter_cfg.c **** 	CY_SET_XTND_REG8((void CYFAR *)(CYREG_CLKDIST_DCFG1_CFG0 + 0x2u), 0x18u);
ARM GAS  C:\Users\Patrick\AppData\Local\Temp\ccy4Y7jA.s 			page 15


 313              		.loc 1 221 0
 314 0026 0322     		movs	r2, #3
 224:.\Generated_Source\PSoC5/cyfitter_cfg.c **** 	CY_SET_XTND_REG16((void CYFAR *)(CYREG_CLKDIST_DCFG3_CFG0), 0x0047u);
 315              		.loc 1 224 0
 316 0028 8D4F     		ldr	r7, .L48+16
 225:.\Generated_Source\PSoC5/cyfitter_cfg.c **** 	CY_SET_XTND_REG8((void CYFAR *)(CYREG_CLKDIST_DCFG3_CFG0 + 0x2u), 0x18u);
 317              		.loc 1 225 0
 318 002a 8E4C     		ldr	r4, .L48+20
 221:.\Generated_Source\PSoC5/cyfitter_cfg.c **** 	CY_SET_XTND_REG8((void CYFAR *)(CYREG_CLKDIST_DCFG1_CFG0 + 0x2u), 0x18u);
 319              		.loc 1 221 0
 320 002c A9F80020 		strh	r2, [r9]	@ movhi
 235:.\Generated_Source\PSoC5/cyfitter_cfg.c **** 	CY_SET_XTND_REG8((void CYFAR *)(CYREG_IMO_TR1), (CY_GET_XTND_REG8((void CYFAR *)CYREG_FLSHID_CUST_
 321              		.loc 1 235 0
 322 0030 8D4D     		ldr	r5, .L48+24
 222:.\Generated_Source\PSoC5/cyfitter_cfg.c **** 	CY_SET_XTND_REG16((void CYFAR *)(CYREG_CLKDIST_DCFG2_CFG0), 0x0005u);
 323              		.loc 1 222 0
 324 0032 8BF80030 		strb	r3, [fp]
 223:.\Generated_Source\PSoC5/cyfitter_cfg.c **** 	CY_SET_XTND_REG8((void CYFAR *)(CYREG_CLKDIST_DCFG2_CFG0 + 0x2u), 0x18u);
 325              		.loc 1 223 0
 326 0036 4FF00509 		mov	r9, #5
 226:.\Generated_Source\PSoC5/cyfitter_cfg.c **** 	CY_SET_XTND_REG16((void CYFAR *)(CYREG_CLKDIST_DCFG4_CFG0), 0x004Du);
 327              		.loc 1 226 0
 328 003a DFF894A2 		ldr	r10, .L48+128
 227:.\Generated_Source\PSoC5/cyfitter_cfg.c **** 	CY_SET_XTND_REG8((void CYFAR *)(CYREG_CLKDIST_DCFG4_CFG0 + 0x2u), 0x18u);
 329              		.loc 1 227 0
 330 003e DFF89482 		ldr	r8, .L48+132
 228:.\Generated_Source\PSoC5/cyfitter_cfg.c **** 
 331              		.loc 1 228 0
 332 0042 DFF894C2 		ldr	ip, .L48+136
 231:.\Generated_Source\PSoC5/cyfitter_cfg.c **** 	CY_SET_XTND_REG8((void CYFAR *)(CYREG_CLKDIST_CR), 0x08u);
 333              		.loc 1 231 0
 334 0046 DFF894E2 		ldr	lr, .L48+140
 225:.\Generated_Source\PSoC5/cyfitter_cfg.c **** 	CY_SET_XTND_REG8((void CYFAR *)(CYREG_CLKDIST_DCFG3_CFG0 + 0x2u), 0x18u);
 335              		.loc 1 225 0
 336 004a 4FF0470B 		mov	fp, #71
 223:.\Generated_Source\PSoC5/cyfitter_cfg.c **** 	CY_SET_XTND_REG8((void CYFAR *)(CYREG_CLKDIST_DCFG2_CFG0 + 0x2u), 0x18u);
 337              		.loc 1 223 0
 338 004e A6F80090 		strh	r9, [r6]	@ movhi
 224:.\Generated_Source\PSoC5/cyfitter_cfg.c **** 	CY_SET_XTND_REG16((void CYFAR *)(CYREG_CLKDIST_DCFG3_CFG0), 0x0047u);
 339              		.loc 1 224 0
 340 0052 3B70     		strb	r3, [r7]
 232:.\Generated_Source\PSoC5/cyfitter_cfg.c **** 
 341              		.loc 1 232 0
 342 0054 4FF04026 		mov	r6, #1073758208
 225:.\Generated_Source\PSoC5/cyfitter_cfg.c **** 	CY_SET_XTND_REG8((void CYFAR *)(CYREG_CLKDIST_DCFG3_CFG0 + 0x2u), 0x18u);
 343              		.loc 1 225 0
 344 0058 A4F800B0 		strh	fp, [r4]	@ movhi
 227:.\Generated_Source\PSoC5/cyfitter_cfg.c **** 	CY_SET_XTND_REG8((void CYFAR *)(CYREG_CLKDIST_DCFG4_CFG0 + 0x2u), 0x18u);
 345              		.loc 1 227 0
 346 005c 4FF04D09 		mov	r9, #77
 236:.\Generated_Source\PSoC5/cyfitter_cfg.c **** 
 347              		.loc 1 236 0
 348 0060 824C     		ldr	r4, .L48+28
 232:.\Generated_Source\PSoC5/cyfitter_cfg.c **** 
 349              		.loc 1 232 0
 350 0062 0827     		movs	r7, #8
 226:.\Generated_Source\PSoC5/cyfitter_cfg.c **** 	CY_SET_XTND_REG16((void CYFAR *)(CYREG_CLKDIST_DCFG4_CFG0), 0x004Du);
ARM GAS  C:\Users\Patrick\AppData\Local\Temp\ccy4Y7jA.s 			page 16


 351              		.loc 1 226 0
 352 0064 8AF80030 		strb	r3, [r10]
 227:.\Generated_Source\PSoC5/cyfitter_cfg.c **** 	CY_SET_XTND_REG8((void CYFAR *)(CYREG_CLKDIST_DCFG4_CFG0 + 0x2u), 0x18u);
 353              		.loc 1 227 0
 354 0068 A8F80090 		strh	r9, [r8]	@ movhi
 228:.\Generated_Source\PSoC5/cyfitter_cfg.c **** 
 355              		.loc 1 228 0
 356 006c 8CF80030 		strb	r3, [ip]
 231:.\Generated_Source\PSoC5/cyfitter_cfg.c **** 	CY_SET_XTND_REG8((void CYFAR *)(CYREG_CLKDIST_CR), 0x08u);
 357              		.loc 1 231 0
 358 0070 8EF80010 		strb	r1, [lr]
 232:.\Generated_Source\PSoC5/cyfitter_cfg.c **** 
 359              		.loc 1 232 0
 360 0074 3770     		strb	r7, [r6]
 235:.\Generated_Source\PSoC5/cyfitter_cfg.c **** 	CY_SET_XTND_REG8((void CYFAR *)(CYREG_IMO_TR1), (CY_GET_XTND_REG8((void CYFAR *)CYREG_FLSHID_CUST_
 361              		.loc 1 235 0
 362 0076 2A70     		strb	r2, [r5]
 236:.\Generated_Source\PSoC5/cyfitter_cfg.c **** 
 363              		.loc 1 236 0
 364 0078 2278     		ldrb	r2, [r4]	@ zero_extendqisi2
 240:.\Generated_Source\PSoC5/cyfitter_cfg.c **** 	/* Wait up to 250us for the PLL to lock */
 365              		.loc 1 240 0
 366 007a 7D49     		ldr	r1, .L48+32
 239:.\Generated_Source\PSoC5/cyfitter_cfg.c **** 	CY_SET_XTND_REG16((void CYFAR *)(CYREG_FASTCLK_PLL_CFG0), 0x2251u);
 367              		.loc 1 239 0
 368 007c 7D4C     		ldr	r4, .L48+36
 236:.\Generated_Source\PSoC5/cyfitter_cfg.c **** 
 369              		.loc 1 236 0
 370 007e D2B2     		uxtb	r2, r2
 371 0080 85F8A124 		strb	r2, [r5, #1185]
 245:.\Generated_Source\PSoC5/cyfitter_cfg.c **** 		CyDelayCycles(10u * 48u); /* Delay 10us based on 48MHz clock */
 372              		.loc 1 245 0
 373 0084 06F22526 		addw	r6, r6, #549
 239:.\Generated_Source\PSoC5/cyfitter_cfg.c **** 	CY_SET_XTND_REG16((void CYFAR *)(CYREG_FASTCLK_PLL_CFG0), 0x2251u);
 374              		.loc 1 239 0
 375 0088 2380     		strh	r3, [r4]	@ movhi
 240:.\Generated_Source\PSoC5/cyfitter_cfg.c **** 	/* Wait up to 250us for the PLL to lock */
 376              		.loc 1 240 0
 377 008a 1925     		movs	r5, #25
 242:.\Generated_Source\PSoC5/cyfitter_cfg.c **** 	for (timeout = 250u / 10u; (timeout > 0u) && (pllLock != 0x03u); timeout--)
 378              		.loc 1 242 0
 379 008c 0024     		movs	r4, #0
 240:.\Generated_Source\PSoC5/cyfitter_cfg.c **** 	/* Wait up to 250us for the PLL to lock */
 380              		.loc 1 240 0
 381 008e 0880     		strh	r0, [r1]	@ movhi
 382              	.LVL12:
 383 0090 01E0     		b	.L28
 384              	.LVL13:
 385              	.L47:
 243:.\Generated_Source\PSoC5/cyfitter_cfg.c **** 	{ 
 386              		.loc 1 243 0
 387 0092 032C     		cmp	r4, #3
 388 0094 0DD0     		beq	.L46
 389              	.LVL14:
 390              	.L28:
 245:.\Generated_Source\PSoC5/cyfitter_cfg.c **** 		CyDelayCycles(10u * 48u); /* Delay 10us based on 48MHz clock */
 391              		.loc 1 245 0
ARM GAS  C:\Users\Patrick\AppData\Local\Temp\ccy4Y7jA.s 			page 17


 392 0096 3378     		ldrb	r3, [r6]	@ zero_extendqisi2
 246:.\Generated_Source\PSoC5/cyfitter_cfg.c **** 	}
 393              		.loc 1 246 0
 394 0098 4FF4F070 		mov	r0, #480
 245:.\Generated_Source\PSoC5/cyfitter_cfg.c **** 		CyDelayCycles(10u * 48u); /* Delay 10us based on 48MHz clock */
 395              		.loc 1 245 0
 396 009c 03F00103 		and	r3, r3, #1
 397 00a0 43EA4404 		orr	r4, r3, r4, lsl #1
 398              	.LVL15:
 246:.\Generated_Source\PSoC5/cyfitter_cfg.c **** 	}
 399              		.loc 1 246 0
 400 00a4 FFF7FEFF 		bl	CyDelayCycles
 401              	.LVL16:
 243:.\Generated_Source\PSoC5/cyfitter_cfg.c **** 	{ 
 402              		.loc 1 243 0
 403 00a8 013D     		subs	r5, r5, #1
 245:.\Generated_Source\PSoC5/cyfitter_cfg.c **** 		CyDelayCycles(10u * 48u); /* Delay 10us based on 48MHz clock */
 404              		.loc 1 245 0
 405 00aa 04F00304 		and	r4, r4, #3
 406              	.LVL17:
 243:.\Generated_Source\PSoC5/cyfitter_cfg.c **** 	{ 
 407              		.loc 1 243 0
 408 00ae F0D1     		bne	.L47
 409              	.L27:
 410 00b0 FEE7     		b	.L27
 411              	.L46:
 255:.\Generated_Source\PSoC5/cyfitter_cfg.c **** 	CY_SET_XTND_REG8((void CYFAR *)(CYREG_CLKDIST_MSTR0), 0x07u);
 412              		.loc 1 255 0
 413 00b2 714B     		ldr	r3, .L48+40
 258:.\Generated_Source\PSoC5/cyfitter_cfg.c **** 	CY_SET_XTND_REG8((void CYFAR *)(CYREG_CLKDIST_MSTR0), 0x00u);
 414              		.loc 1 258 0
 415 00b4 714E     		ldr	r6, .L48+44
 257:.\Generated_Source\PSoC5/cyfitter_cfg.c **** 	CY_SET_XTND_REG8((void CYFAR *)(CYREG_CLKDIST_BCFG2), 0x48u);
 416              		.loc 1 257 0
 417 00b6 DFF828E2 		ldr	lr, .L48+144
 260:.\Generated_Source\PSoC5/cyfitter_cfg.c **** 
 418              		.loc 1 260 0
 419 00ba 7148     		ldr	r0, .L48+48
 257:.\Generated_Source\PSoC5/cyfitter_cfg.c **** 	CY_SET_XTND_REG8((void CYFAR *)(CYREG_CLKDIST_BCFG2), 0x48u);
 420              		.loc 1 257 0
 421 00bc 0022     		movs	r2, #0
 260:.\Generated_Source\PSoC5/cyfitter_cfg.c **** 
 422              		.loc 1 260 0
 423 00be 0225     		movs	r5, #2
 262:.\Generated_Source\PSoC5/cyfitter_cfg.c **** }
 424              		.loc 1 262 0
 425 00c0 7049     		ldr	r1, .L48+52
 255:.\Generated_Source\PSoC5/cyfitter_cfg.c **** 	CY_SET_XTND_REG8((void CYFAR *)(CYREG_CLKDIST_MSTR0), 0x07u);
 426              		.loc 1 255 0
 427 00c2 4FF48078 		mov	r8, #256
 256:.\Generated_Source\PSoC5/cyfitter_cfg.c **** 	CY_SET_XTND_REG8((void CYFAR *)(CYREG_CLKDIST_BCFG0), 0x00u);
 428              		.loc 1 256 0
 429 00c6 4FF0070C 		mov	ip, #7
 258:.\Generated_Source\PSoC5/cyfitter_cfg.c **** 	CY_SET_XTND_REG8((void CYFAR *)(CYREG_CLKDIST_MSTR0), 0x00u);
 430              		.loc 1 258 0
 431 00ca 4827     		movs	r7, #72
 255:.\Generated_Source\PSoC5/cyfitter_cfg.c **** 	CY_SET_XTND_REG8((void CYFAR *)(CYREG_CLKDIST_MSTR0), 0x07u);
ARM GAS  C:\Users\Patrick\AppData\Local\Temp\ccy4Y7jA.s 			page 18


 432              		.loc 1 255 0
 433 00cc A3F80080 		strh	r8, [r3]	@ movhi
 256:.\Generated_Source\PSoC5/cyfitter_cfg.c **** 	CY_SET_XTND_REG8((void CYFAR *)(CYREG_CLKDIST_BCFG0), 0x00u);
 434              		.loc 1 256 0
 435 00d0 83F800C0 		strb	ip, [r3]
 257:.\Generated_Source\PSoC5/cyfitter_cfg.c **** 	CY_SET_XTND_REG8((void CYFAR *)(CYREG_CLKDIST_BCFG2), 0x48u);
 436              		.loc 1 257 0
 437 00d4 8EF80020 		strb	r2, [lr]
 258:.\Generated_Source\PSoC5/cyfitter_cfg.c **** 	CY_SET_XTND_REG8((void CYFAR *)(CYREG_CLKDIST_MSTR0), 0x00u);
 438              		.loc 1 258 0
 439 00d8 3770     		strb	r7, [r6]
 259:.\Generated_Source\PSoC5/cyfitter_cfg.c **** 	CY_SET_XTND_REG8((void CYFAR *)(CYREG_CLKDIST_LD), 0x02u);
 440              		.loc 1 259 0
 441 00da 1A70     		strb	r2, [r3]
 260:.\Generated_Source\PSoC5/cyfitter_cfg.c **** 
 442              		.loc 1 260 0
 443 00dc 0570     		strb	r5, [r0]
 262:.\Generated_Source\PSoC5/cyfitter_cfg.c **** }
 444              		.loc 1 262 0
 445 00de 0B78     		ldrb	r3, [r1]	@ zero_extendqisi2
 446              	.LBE48:
 447              	.LBE52:
 458:.\Generated_Source\PSoC5/cyfitter_cfg.c **** 	/* Setup clocks based on selections from Clock DWR */
 459:.\Generated_Source\PSoC5/cyfitter_cfg.c **** 	ClockSetup();
 460:.\Generated_Source\PSoC5/cyfitter_cfg.c **** 	/* Enable/Disable Debug functionality based on settings from System DWR */
 461:.\Generated_Source\PSoC5/cyfitter_cfg.c **** 	CY_SET_XTND_REG8((void CYFAR *)CYREG_MLOGIC_DEBUG, (CY_GET_XTND_REG8((void CYFAR *)CYREG_MLOGIC_DE
 448              		.loc 1 461 0
 449 00e0 1446     		mov	r4, r2
 450              	.LVL18:
 451              	.LBB53:
 452              	.LBB49:
 262:.\Generated_Source\PSoC5/cyfitter_cfg.c **** }
 453              		.loc 1 262 0
 454 00e2 43F01F03 		orr	r3, r3, #31
 455              	.LBE49:
 456              	.LBE53:
 457              		.loc 1 461 0
 458 00e6 684A     		ldr	r2, .L48+56
 459              	.LBB54:
 460              	.LBB50:
 262:.\Generated_Source\PSoC5/cyfitter_cfg.c **** }
 461              		.loc 1 262 0
 462 00e8 0B70     		strb	r3, [r1]
 463              	.LBE50:
 464              	.LBE54:
 465              		.loc 1 461 0
 466 00ea 1378     		ldrb	r3, [r2]	@ zero_extendqisi2
 467 00ec 674D     		ldr	r5, .L48+60
 468 00ee 43F00403 		orr	r3, r3, #4
 469 00f2 1370     		strb	r3, [r2]
 470              	.LVL19:
 471 00f4 A5F12006 		sub	r6, r5, #32
 472              	.LVL20:
 473              	.L30:
 474              	.LBB55:
 475              	.LBB56:
 462:.\Generated_Source\PSoC5/cyfitter_cfg.c **** 
ARM GAS  C:\Users\Patrick\AppData\Local\Temp\ccy4Y7jA.s 			page 19


 463:.\Generated_Source\PSoC5/cyfitter_cfg.c **** 	{
 464:.\Generated_Source\PSoC5/cyfitter_cfg.c **** 
 465:.\Generated_Source\PSoC5/cyfitter_cfg.c **** 		CYPACKED typedef struct {
 466:.\Generated_Source\PSoC5/cyfitter_cfg.c **** 			void CYFAR *address;
 467:.\Generated_Source\PSoC5/cyfitter_cfg.c **** 			uint16 size;
 468:.\Generated_Source\PSoC5/cyfitter_cfg.c **** 		} CYPACKED_ATTR cfg_memset_t;
 469:.\Generated_Source\PSoC5/cyfitter_cfg.c **** 
 470:.\Generated_Source\PSoC5/cyfitter_cfg.c **** 
 471:.\Generated_Source\PSoC5/cyfitter_cfg.c **** 		CYPACKED typedef struct {
 472:.\Generated_Source\PSoC5/cyfitter_cfg.c **** 			void CYFAR *dest;
 473:.\Generated_Source\PSoC5/cyfitter_cfg.c **** 			const void CYFAR *src;
 474:.\Generated_Source\PSoC5/cyfitter_cfg.c **** 			uint16 size;
 475:.\Generated_Source\PSoC5/cyfitter_cfg.c **** 		} CYPACKED_ATTR cfg_memcpy_t;
 476:.\Generated_Source\PSoC5/cyfitter_cfg.c **** 
 477:.\Generated_Source\PSoC5/cyfitter_cfg.c **** 		static const cfg_memset_t CYCODE cfg_memset_list [] = {
 478:.\Generated_Source\PSoC5/cyfitter_cfg.c **** 			/* address, size */
 479:.\Generated_Source\PSoC5/cyfitter_cfg.c **** 			{(void CYFAR *)(CYREG_PRT3_DR), 64u},
 480:.\Generated_Source\PSoC5/cyfitter_cfg.c **** 			{(void CYFAR *)(CYREG_PRT15_DR), 16u},
 481:.\Generated_Source\PSoC5/cyfitter_cfg.c **** 			{(void CYFAR *)(CYDEV_UCFG_B0_P0_U0_BASE), 4096u},
 482:.\Generated_Source\PSoC5/cyfitter_cfg.c **** 			{(void CYFAR *)(CYDEV_UCFG_B1_P2_U0_BASE), 1152u},
 483:.\Generated_Source\PSoC5/cyfitter_cfg.c **** 			{(void CYFAR *)(CYDEV_UCFG_B1_P4_ROUTE_BASE), 768u},
 484:.\Generated_Source\PSoC5/cyfitter_cfg.c **** 			{(void CYFAR *)(CYDEV_UCFG_DSI0_BASE), 2560u},
 485:.\Generated_Source\PSoC5/cyfitter_cfg.c **** 			{(void CYFAR *)(CYDEV_UCFG_DSI12_BASE), 512u},
 486:.\Generated_Source\PSoC5/cyfitter_cfg.c **** 			{(void CYFAR *)(CYREG_BCTL0_MDCLK_EN), 32u},
 487:.\Generated_Source\PSoC5/cyfitter_cfg.c **** 		};
 488:.\Generated_Source\PSoC5/cyfitter_cfg.c **** 
 489:.\Generated_Source\PSoC5/cyfitter_cfg.c **** 		static const cfg_memcpy_t CYCODE cfg_memcpy_list [] = {
 490:.\Generated_Source\PSoC5/cyfitter_cfg.c **** 			/* dest, src, size */
 491:.\Generated_Source\PSoC5/cyfitter_cfg.c **** 			{(void CYFAR *)(CYDEV_UCFG_B1_P4_U1_BASE), BS_UDB_0_1_0_CONFIG_VAL, 128u},
 492:.\Generated_Source\PSoC5/cyfitter_cfg.c **** 		};
 493:.\Generated_Source\PSoC5/cyfitter_cfg.c **** 
 494:.\Generated_Source\PSoC5/cyfitter_cfg.c **** 		uint8 CYDATA i;
 495:.\Generated_Source\PSoC5/cyfitter_cfg.c **** 
 496:.\Generated_Source\PSoC5/cyfitter_cfg.c **** 		/* Zero out critical memory blocks before beginning configuration */
 497:.\Generated_Source\PSoC5/cyfitter_cfg.c **** 		for (i = 0u; i < (sizeof(cfg_memset_list)/sizeof(cfg_memset_list[0])); i++)
 498:.\Generated_Source\PSoC5/cyfitter_cfg.c **** 		{
 499:.\Generated_Source\PSoC5/cyfitter_cfg.c **** 			const cfg_memset_t CYCODE * CYDATA ms = &cfg_memset_list[i];
 500:.\Generated_Source\PSoC5/cyfitter_cfg.c **** 			CYMEMZERO(ms->address, (size_t)(uint32)(ms->size));
 476              		.loc 1 500 0 discriminator 3
 477 00f8 04EB4403 		add	r3, r4, r4, lsl #1
 478 00fc 06EB4303 		add	r3, r6, r3, lsl #1
 479              	.LBB57:
 480              	.LBB58:
  73:.\Generated_Source\PSoC5/cyfitter_cfg.c **** }
 481              		.loc 1 73 0 discriminator 3
 482 0100 186A     		ldr	r0, [r3, #32]	@ unaligned
 483 0102 AA88     		ldrh	r2, [r5, #4]
 484              	.LVL21:
 485 0104 0134     		adds	r4, r4, #1
 486              	.LVL22:
 487 0106 0021     		movs	r1, #0
 488 0108 FFF7FEFF 		bl	memset
 489              	.LVL23:
 490              	.LBE58:
 491              	.LBE57:
 492              	.LBE56:
 497:.\Generated_Source\PSoC5/cyfitter_cfg.c **** 		{
ARM GAS  C:\Users\Patrick\AppData\Local\Temp\ccy4Y7jA.s 			page 20


 493              		.loc 1 497 0 discriminator 3
 494 010c 082C     		cmp	r4, #8
 495 010e 05F10605 		add	r5, r5, #6
 496              	.LBB59:
 497              		.loc 1 500 0 discriminator 3
 498 0112 5F4B     		ldr	r3, .L48+64
 499              	.LBE59:
 497:.\Generated_Source\PSoC5/cyfitter_cfg.c **** 		{
 500              		.loc 1 497 0 discriminator 3
 501 0114 F0D1     		bne	.L30
 502              	.LVL24:
 503 0116 5F4E     		ldr	r6, .L48+68
 504              	.LBB60:
 505              	.LBB61:
 506              	.LBB62:
  80:.\Generated_Source\PSoC5/cyfitter_cfg.c **** }
 507              		.loc 1 80 0 discriminator 3
 508 0118 596D     		ldr	r1, [r3, #84]
 509 011a 5F48     		ldr	r0, .L48+72
 510 011c 8022     		movs	r2, #128
 511              	.LBE62:
 512              	.LBE61:
 513              	.LBE60:
 501:.\Generated_Source\PSoC5/cyfitter_cfg.c **** 		}
 502:.\Generated_Source\PSoC5/cyfitter_cfg.c **** 
 503:.\Generated_Source\PSoC5/cyfitter_cfg.c **** 		/* Copy device configuration data into registers */
 504:.\Generated_Source\PSoC5/cyfitter_cfg.c **** 		for (i = 0u; i < (sizeof(cfg_memcpy_list)/sizeof(cfg_memcpy_list[0])); i++)
 505:.\Generated_Source\PSoC5/cyfitter_cfg.c **** 		{
 506:.\Generated_Source\PSoC5/cyfitter_cfg.c **** 			const cfg_memcpy_t CYCODE * CYDATA mc = &cfg_memcpy_list[i];
 507:.\Generated_Source\PSoC5/cyfitter_cfg.c **** 			void * CYDATA destPtr = mc->dest;
 508:.\Generated_Source\PSoC5/cyfitter_cfg.c **** 			const void * CYDATA srcPtr = mc->src;
 509:.\Generated_Source\PSoC5/cyfitter_cfg.c **** 			uint16 CYDATA numBytes = mc->size;
 510:.\Generated_Source\PSoC5/cyfitter_cfg.c **** 			CYCONFIGCPY(destPtr, srcPtr, numBytes);
 511:.\Generated_Source\PSoC5/cyfitter_cfg.c **** 		}
 512:.\Generated_Source\PSoC5/cyfitter_cfg.c **** 
 513:.\Generated_Source\PSoC5/cyfitter_cfg.c **** 		cfg_write_bytes32(cy_cfg_addr_table, cy_cfg_data_table);
 514              		.loc 1 513 0 discriminator 3
 515 011e 5F4F     		ldr	r7, .L48+76
 516              	.LBB65:
 517              	.LBB64:
 518              	.LBB63:
  80:.\Generated_Source\PSoC5/cyfitter_cfg.c **** }
 519              		.loc 1 80 0 discriminator 3
 520 0120 FFF7FEFF 		bl	memcpy
 521              	.LVL25:
 522              	.LBE63:
 523              	.LBE64:
 524              	.LBE65:
 525              	.LBB66:
 526              	.LBB67:
 180:.\Generated_Source\PSoC5/cyfitter_cfg.c **** 	for (i = 0u; i < CY_CFG_BASE_ADDR_COUNT; i++)
 527              		.loc 1 180 0 discriminator 3
 528 0124 0025     		movs	r5, #0
 529 0126 06F18C0E 		add	lr, r6, #140
 530              	.LVL26:
 531              	.L33:
 532              	.LBB68:
ARM GAS  C:\Users\Patrick\AppData\Local\Temp\ccy4Y7jA.s 			page 21


 183:.\Generated_Source\PSoC5/cyfitter_cfg.c **** 		uint8 count = (uint8)baseAddr;
 533              		.loc 1 183 0
 534 012a 56F8043F 		ldr	r3, [r6, #4]!
 535              	.LVL27:
 186:.\Generated_Source\PSoC5/cyfitter_cfg.c **** 		{
 536              		.loc 1 186 0
 537 012e 13F0FF0C 		ands	ip, r3, #255
 185:.\Generated_Source\PSoC5/cyfitter_cfg.c **** 		while (count != 0u)
 538              		.loc 1 185 0
 539 0132 23F0FF04 		bic	r4, r3, #255
 540              	.LVL28:
 186:.\Generated_Source\PSoC5/cyfitter_cfg.c **** 		{
 541              		.loc 1 186 0
 542 0136 18D0     		beq	.L31
 543 0138 0CF1FF3C 		add	ip, ip, #-1
 544 013c 5FFA8CFC 		uxtb	ip, ip
 545 0140 0CEB0500 		add	r0, ip, r5
 546 0144 07EB4000 		add	r0, r7, r0, lsl #1
 547 0148 07EB4503 		add	r3, r7, r5, lsl #1
 548              	.LVL29:
 549 014c 00F19040 		add	r0, r0, #1207959552
 550 0150 03F19043 		add	r3, r3, #1207959552
 551 0154 8F30     		adds	r0, r0, #143
 552 0156 8D33     		adds	r3, r3, #141
 553              	.LVL30:
 554              	.L32:
 188:.\Generated_Source\PSoC5/cyfitter_cfg.c **** 			j++;
 555              		.loc 1 188 0
 556 0158 13F8012C 		ldrb	r2, [r3, #-1]	@ zero_extendqisi2
 557 015c 13F8021B 		ldrb	r1, [r3], #2	@ zero_extendqisi2
 186:.\Generated_Source\PSoC5/cyfitter_cfg.c **** 		{
 558              		.loc 1 186 0
 559 0160 8342     		cmp	r3, r0
 188:.\Generated_Source\PSoC5/cyfitter_cfg.c **** 			j++;
 560              		.loc 1 188 0
 561 0162 1155     		strb	r1, [r2, r4]
 186:.\Generated_Source\PSoC5/cyfitter_cfg.c **** 		{
 562              		.loc 1 186 0
 563 0164 F8D1     		bne	.L32
 564 0166 0135     		adds	r5, r5, #1
 565 0168 6544     		add	r5, r5, ip
 566              	.L31:
 567              	.LVL31:
 568              	.LBE68:
 181:.\Generated_Source\PSoC5/cyfitter_cfg.c **** 	{
 569              		.loc 1 181 0
 570 016a 7645     		cmp	r6, lr
 571 016c DDD1     		bne	.L33
 572              	.LBE67:
 573              	.LBE66:
 514:.\Generated_Source\PSoC5/cyfitter_cfg.c **** 
 515:.\Generated_Source\PSoC5/cyfitter_cfg.c **** 		/* Enable digital routing */
 516:.\Generated_Source\PSoC5/cyfitter_cfg.c **** 		CY_SET_XTND_REG8((void CYFAR *)CYREG_BCTL0_BANK_CTL, CY_GET_XTND_REG8((void CYFAR *)CYREG_BCTL0_B
 574              		.loc 1 516 0
 575 016e 4C49     		ldr	r1, .L48+80
 517:.\Generated_Source\PSoC5/cyfitter_cfg.c **** 		CY_SET_XTND_REG8((void CYFAR *)CYREG_BCTL1_BANK_CTL, CY_GET_XTND_REG8((void CYFAR *)CYREG_BCTL1_B
 576              		.loc 1 517 0
ARM GAS  C:\Users\Patrick\AppData\Local\Temp\ccy4Y7jA.s 			page 22


 577 0170 4C4A     		ldr	r2, .L48+84
 516:.\Generated_Source\PSoC5/cyfitter_cfg.c **** 		CY_SET_XTND_REG8((void CYFAR *)CYREG_BCTL1_BANK_CTL, CY_GET_XTND_REG8((void CYFAR *)CYREG_BCTL1_B
 578              		.loc 1 516 0
 579 0172 0B78     		ldrb	r3, [r1]	@ zero_extendqisi2
 518:.\Generated_Source\PSoC5/cyfitter_cfg.c **** 
 519:.\Generated_Source\PSoC5/cyfitter_cfg.c **** 		/* Enable UDB array */
 520:.\Generated_Source\PSoC5/cyfitter_cfg.c **** 		CY_SET_XTND_REG8((void CYFAR *)CYREG_PM_ACT_CFG0, CY_GET_XTND_REG8((void CYFAR *)CYREG_PM_ACT_CFG
 580              		.loc 1 520 0
 581 0174 4C4C     		ldr	r4, .L48+88
 582              	.LVL32:
 516:.\Generated_Source\PSoC5/cyfitter_cfg.c **** 		CY_SET_XTND_REG8((void CYFAR *)CYREG_BCTL1_BANK_CTL, CY_GET_XTND_REG8((void CYFAR *)CYREG_BCTL1_B
 583              		.loc 1 516 0
 584 0176 43F00203 		orr	r3, r3, #2
 585 017a 0B70     		strb	r3, [r1]
 517:.\Generated_Source\PSoC5/cyfitter_cfg.c **** 
 586              		.loc 1 517 0
 587 017c 1378     		ldrb	r3, [r2]	@ zero_extendqisi2
 521:.\Generated_Source\PSoC5/cyfitter_cfg.c **** 		CY_SET_XTND_REG8((void CYFAR *)CYREG_PM_AVAIL_CR2, CY_GET_XTND_REG8((void CYFAR *)CYREG_PM_AVAIL_
 588              		.loc 1 521 0
 589 017e A1F58631 		sub	r1, r1, #68608
 517:.\Generated_Source\PSoC5/cyfitter_cfg.c **** 
 590              		.loc 1 517 0
 591 0182 43F00203 		orr	r3, r3, #2
 592 0186 1370     		strb	r3, [r2]
 520:.\Generated_Source\PSoC5/cyfitter_cfg.c **** 		CY_SET_XTND_REG8((void CYFAR *)CYREG_PM_AVAIL_CR2, CY_GET_XTND_REG8((void CYFAR *)CYREG_PM_AVAIL_
 593              		.loc 1 520 0
 594 0188 2278     		ldrb	r2, [r4]	@ zero_extendqisi2
 595              		.loc 1 521 0
 596 018a 4139     		subs	r1, r1, #65
 520:.\Generated_Source\PSoC5/cyfitter_cfg.c **** 		CY_SET_XTND_REG8((void CYFAR *)CYREG_PM_AVAIL_CR2, CY_GET_XTND_REG8((void CYFAR *)CYREG_PM_AVAIL_
 597              		.loc 1 520 0
 598 018c 42F04002 		orr	r2, r2, #64
 599 0190 2270     		strb	r2, [r4]
 600              		.loc 1 521 0
 601 0192 0A78     		ldrb	r2, [r1]	@ zero_extendqisi2
 602              	.LBE55:
 603              	.LBB69:
 604              	.LBB70:
  80:.\Generated_Source\PSoC5/cyfitter_cfg.c **** }
 605              		.loc 1 80 0
 606 0194 454D     		ldr	r5, .L48+92
 607              	.LVL33:
 608              	.LBE70:
 609              	.LBE69:
 610              	.LBB73:
 611              		.loc 1 521 0
 612 0196 42F01002 		orr	r2, r2, #16
 613              	.LBE73:
 614              	.LBB74:
 615              	.LBB71:
  80:.\Generated_Source\PSoC5/cyfitter_cfg.c **** }
 616              		.loc 1 80 0
 617 019a 454B     		ldr	r3, .L48+96
 618              	.LBE71:
 619              	.LBE74:
 620              	.LBB75:
 621              		.loc 1 521 0
ARM GAS  C:\Users\Patrick\AppData\Local\Temp\ccy4Y7jA.s 			page 23


 622 019c 0A70     		strb	r2, [r1]
 623              	.LVL34:
 624              	.LBE75:
 625              	.LBB76:
 626              	.LBB77:
  80:.\Generated_Source\PSoC5/cyfitter_cfg.c **** }
 627              		.loc 1 80 0
 628 019e 454E     		ldr	r6, .L48+100
 629              	.LBE77:
 630              	.LBE76:
 631              	.LBB80:
 632              	.LBB72:
 633 01a0 03CB     		ldmia	r3!, {r0, r1}
 634              	.LVL35:
 635 01a2 2860     		str	r0, [r5]	@ unaligned
 636 01a4 6960     		str	r1, [r5, #4]	@ unaligned
 637              	.LVL36:
 638              	.LBE72:
 639              	.LBE80:
 640              	.LBB81:
 641              	.LBB78:
 642 01a6 93E80700 		ldmia	r3, {r0, r1, r2}
 643 01aa 03C6     		stmia	r6!, {r0, r1}
 644              	.LBE78:
 645              	.LBE81:
 646              	.LBB82:
 647              	.LBB83:
 648 01ac 0E35     		adds	r5, r5, #14
 649              	.LBE83:
 650              	.LBE82:
 651              	.LBB86:
 652              	.LBB79:
 653 01ae 3280     		strh	r2, [r6]	@ movhi
 654              	.LVL37:
 655              	.LBE79:
 656              	.LBE86:
 522:.\Generated_Source\PSoC5/cyfitter_cfg.c **** 	}
 523:.\Generated_Source\PSoC5/cyfitter_cfg.c **** 
 524:.\Generated_Source\PSoC5/cyfitter_cfg.c **** 
 525:.\Generated_Source\PSoC5/cyfitter_cfg.c **** 	/* Perform second pass device configuration. These items must be configured in specific order afte
 526:.\Generated_Source\PSoC5/cyfitter_cfg.c **** 	CYCONFIGCPY((void CYFAR *)(CYREG_PRT0_DM0), (const void CYFAR *)(BS_IOPINS0_0_VAL), 8u);
 527:.\Generated_Source\PSoC5/cyfitter_cfg.c **** 	CYCONFIGCPY((void CYFAR *)(CYREG_PRT12_DR), (const void CYFAR *)(BS_IOPINS0_7_VAL), 10u);
 528:.\Generated_Source\PSoC5/cyfitter_cfg.c **** 	CYCONFIGCPY((void CYFAR *)(CYREG_PRT1_DR), (const void CYFAR *)(BS_IOPINS0_1_VAL), 10u);
 657              		.loc 1 528 0
 658 01b0 03F10C02 		add	r2, r3, #12
 659              	.LBB87:
 660              	.LBB84:
  80:.\Generated_Source\PSoC5/cyfitter_cfg.c **** }
 661              		.loc 1 80 0
 662 01b4 07CA     		ldmia	r2, {r0, r1, r2}
 663 01b6 03C5     		stmia	r5!, {r0, r1}
 664              	.LBE84:
 665              	.LBE87:
 529:.\Generated_Source\PSoC5/cyfitter_cfg.c **** 	CYCONFIGCPY((void CYFAR *)(CYREG_PRT2_DM0), (const void CYFAR *)(BS_IOPINS0_2_VAL), 8u);
 530:.\Generated_Source\PSoC5/cyfitter_cfg.c **** 	/* Switch Boost to the precision bandgap reference from its internal reference */
 531:.\Generated_Source\PSoC5/cyfitter_cfg.c **** 	CY_SET_REG8((void CYXDATA *)CYREG_BOOST_CR2, (CY_GET_REG8((void CYXDATA *)CYREG_BOOST_CR2) | 0x08u
 666              		.loc 1 531 0
ARM GAS  C:\Users\Patrick\AppData\Local\Temp\ccy4Y7jA.s 			page 24


 667 01b8 A6F6A666 		subw	r6, r6, #3750
 668              	.LBB88:
 669              	.LBB85:
  80:.\Generated_Source\PSoC5/cyfitter_cfg.c **** }
 670              		.loc 1 80 0
 671 01bc 2A80     		strh	r2, [r5]	@ movhi
 672              	.LVL38:
 673              	.LBE85:
 674              	.LBE88:
 675              		.loc 1 531 0
 676 01be 3278     		ldrb	r2, [r6]	@ zero_extendqisi2
 677              	.LBB89:
 678              	.LBB90:
 287:.\Generated_Source\PSoC5/cyfitter_cfg.c **** 	uint8 cr4 = CY_GET_XTND_REG8((void CYFAR *)(CYREG_RESET_CR4));
 679              		.loc 1 287 0
 680 01c0 3D4D     		ldr	r5, .L48+104
 681              	.LBE90:
 682              	.LBE89:
 683              		.loc 1 531 0
 684 01c2 42F00802 		orr	r2, r2, #8
 685              	.LBB97:
 686              	.LBB98:
  80:.\Generated_Source\PSoC5/cyfitter_cfg.c **** }
 687              		.loc 1 80 0
 688 01c6 1833     		adds	r3, r3, #24
 689 01c8 03CB     		ldmia	r3!, {r0, r1}
 690              	.LBE98:
 691              	.LBE97:
 692              		.loc 1 531 0
 693 01ca 3270     		strb	r2, [r6]
 694              	.LBB102:
 695              	.LBB91:
 287:.\Generated_Source\PSoC5/cyfitter_cfg.c **** 	uint8 cr4 = CY_GET_XTND_REG8((void CYFAR *)(CYREG_RESET_CR4));
 696              		.loc 1 287 0
 697 01cc 2B78     		ldrb	r3, [r5]	@ zero_extendqisi2
 288:.\Generated_Source\PSoC5/cyfitter_cfg.c **** 	uint8 cr5 = CY_GET_XTND_REG8((void CYFAR *)(CYREG_RESET_CR5));
 698              		.loc 1 288 0
 699 01ce 3B4F     		ldr	r7, .L48+108
 289:.\Generated_Source\PSoC5/cyfitter_cfg.c **** 	CY_SET_XTND_REG8((void CYFAR *)(CYREG_BG_DFT0), (bg_xover_inl_trim & 0x07u));
 700              		.loc 1 289 0
 701 01d0 DFF81081 		ldr	r8, .L48+148
 702              	.LBE91:
 703              	.LBE102:
 704              	.LBB103:
 705              	.LBB99:
  80:.\Generated_Source\PSoC5/cyfitter_cfg.c **** }
 706              		.loc 1 80 0
 707 01d4 3A4A     		ldr	r2, .L48+112
 708              	.LBE99:
 709              	.LBE103:
 710              	.LBB104:
 711              	.LBB92:
 288:.\Generated_Source\PSoC5/cyfitter_cfg.c **** 	uint8 cr5 = CY_GET_XTND_REG8((void CYFAR *)(CYREG_RESET_CR5));
 712              		.loc 1 288 0
 713 01d6 3D78     		ldrb	r5, [r7]	@ zero_extendqisi2
 287:.\Generated_Source\PSoC5/cyfitter_cfg.c **** 	uint8 cr4 = CY_GET_XTND_REG8((void CYFAR *)(CYREG_RESET_CR4));
 714              		.loc 1 287 0
ARM GAS  C:\Users\Patrick\AppData\Local\Temp\ccy4Y7jA.s 			page 25


 715 01d8 DBB2     		uxtb	r3, r3
 716              	.LVL39:
 289:.\Generated_Source\PSoC5/cyfitter_cfg.c **** 	CY_SET_XTND_REG8((void CYFAR *)(CYREG_BG_DFT0), (bg_xover_inl_trim & 0x07u));
 717              		.loc 1 289 0
 718 01da 98F80060 		ldrb	r6, [r8]	@ zero_extendqisi2
 290:.\Generated_Source\PSoC5/cyfitter_cfg.c **** 	CY_SET_XTND_REG8((void CYFAR *)(CYREG_BG_DFT1), ((bg_xover_inl_trim >> 4) & 0x0Fu));
 719              		.loc 1 290 0
 720 01de DFF808A1 		ldr	r10, .L48+152
 291:.\Generated_Source\PSoC5/cyfitter_cfg.c **** 	/* Disable PRES while setting up SAR voltage reference */
 721              		.loc 1 291 0
 722 01e2 DFF80891 		ldr	r9, .L48+156
 723              	.LBE92:
 724              	.LBE104:
 725              	.LBB105:
 726              	.LBB100:
  80:.\Generated_Source\PSoC5/cyfitter_cfg.c **** }
 727              		.loc 1 80 0
 728 01e6 1060     		str	r0, [r2]	@ unaligned
 729              	.LBE100:
 730              	.LBE105:
 731              	.LBB106:
 732              	.LBB93:
 290:.\Generated_Source\PSoC5/cyfitter_cfg.c **** 	CY_SET_XTND_REG8((void CYFAR *)(CYREG_BG_DFT1), ((bg_xover_inl_trim >> 4) & 0x0Fu));
 733              		.loc 1 290 0
 734 01e8 03F00700 		and	r0, r3, #7
 291:.\Generated_Source\PSoC5/cyfitter_cfg.c **** 	/* Disable PRES while setting up SAR voltage reference */
 735              		.loc 1 291 0
 736 01ec 1B09     		lsrs	r3, r3, #4
 737              	.LVL40:
 295:.\Generated_Source\PSoC5/cyfitter_cfg.c **** 	CY_SET_XTND_REG8((void CYFAR *)CYREG_SAR0_CSR3, 0x40u);
 738              		.loc 1 295 0
 739 01ee DFF800C1 		ldr	ip, .L48+160
 296:.\Generated_Source\PSoC5/cyfitter_cfg.c **** 	CY_SET_XTND_REG8((void CYFAR *)CYREG_SAR0_SW3, 0x20u);
 740              		.loc 1 296 0
 741 01f2 DFF800E1 		ldr	lr, .L48+164
 742              	.LBE93:
 743              	.LBE106:
 744              	.LBB107:
 745              	.LBB101:
  80:.\Generated_Source\PSoC5/cyfitter_cfg.c **** }
 746              		.loc 1 80 0
 747 01f6 5160     		str	r1, [r2, #4]	@ unaligned
 748              	.LBE101:
 749              	.LBE107:
 750              	.LBB108:
 751              	.LBB94:
 288:.\Generated_Source\PSoC5/cyfitter_cfg.c **** 	uint8 cr5 = CY_GET_XTND_REG8((void CYFAR *)(CYREG_RESET_CR5));
 752              		.loc 1 288 0
 753 01f8 EDB2     		uxtb	r5, r5
 754              	.LVL41:
 290:.\Generated_Source\PSoC5/cyfitter_cfg.c **** 	CY_SET_XTND_REG8((void CYFAR *)(CYREG_BG_DFT1), ((bg_xover_inl_trim >> 4) & 0x0Fu));
 755              		.loc 1 290 0
 756 01fa 8AF80000 		strb	r0, [r10]
 289:.\Generated_Source\PSoC5/cyfitter_cfg.c **** 	CY_SET_XTND_REG8((void CYFAR *)(CYREG_BG_DFT0), (bg_xover_inl_trim & 0x07u));
 757              		.loc 1 289 0
 758 01fe F6B2     		uxtb	r6, r6
 759              	.LVL42:
ARM GAS  C:\Users\Patrick\AppData\Local\Temp\ccy4Y7jA.s 			page 26


 291:.\Generated_Source\PSoC5/cyfitter_cfg.c **** 	/* Disable PRES while setting up SAR voltage reference */
 760              		.loc 1 291 0
 761 0200 89F80030 		strb	r3, [r9]
 297:.\Generated_Source\PSoC5/cyfitter_cfg.c **** 	CyDelayUs(10u); /* Allow vref to settle before re-enabling PRES */
 762              		.loc 1 297 0
 763 0204 2F4B     		ldr	r3, .L48+116
 293:.\Generated_Source\PSoC5/cyfitter_cfg.c **** 	CY_SET_XTND_REG8((void CYFAR *)(CYREG_RESET_CR5), (cr5 | 0x03u));
 764              		.loc 1 293 0
 765 0206 45F00301 		orr	r1, r5, #3
 294:.\Generated_Source\PSoC5/cyfitter_cfg.c **** 	CY_SET_XTND_REG8((void CYFAR *)CYREG_SAR0_CSR1, 0x40u);
 766              		.loc 1 294 0
 767 020a 46F00302 		orr	r2, r6, #3
 295:.\Generated_Source\PSoC5/cyfitter_cfg.c **** 	CY_SET_XTND_REG8((void CYFAR *)CYREG_SAR0_CSR3, 0x40u);
 768              		.loc 1 295 0
 769 020e 4FF0400A 		mov	r10, #64
 297:.\Generated_Source\PSoC5/cyfitter_cfg.c **** 	CyDelayUs(10u); /* Allow vref to settle before re-enabling PRES */
 770              		.loc 1 297 0
 771 0212 4FF0200B 		mov	fp, #32
 293:.\Generated_Source\PSoC5/cyfitter_cfg.c **** 	CY_SET_XTND_REG8((void CYFAR *)(CYREG_RESET_CR5), (cr5 | 0x03u));
 772              		.loc 1 293 0
 773 0216 3970     		strb	r1, [r7]
 298:.\Generated_Source\PSoC5/cyfitter_cfg.c **** 	CY_SET_XTND_REG8((void CYFAR *)(CYREG_RESET_CR5), (cr5));
 774              		.loc 1 298 0
 775 0218 0A20     		movs	r0, #10
 294:.\Generated_Source\PSoC5/cyfitter_cfg.c **** 	CY_SET_XTND_REG8((void CYFAR *)CYREG_SAR0_CSR1, 0x40u);
 776              		.loc 1 294 0
 777 021a 88F80020 		strb	r2, [r8]
 295:.\Generated_Source\PSoC5/cyfitter_cfg.c **** 	CY_SET_XTND_REG8((void CYFAR *)CYREG_SAR0_CSR3, 0x40u);
 778              		.loc 1 295 0
 779 021e 8CF800A0 		strb	r10, [ip]
 296:.\Generated_Source\PSoC5/cyfitter_cfg.c **** 	CY_SET_XTND_REG8((void CYFAR *)CYREG_SAR0_SW3, 0x20u);
 780              		.loc 1 296 0
 781 0222 8EF800A0 		strb	r10, [lr]
 297:.\Generated_Source\PSoC5/cyfitter_cfg.c **** 	CyDelayUs(10u); /* Allow vref to settle before re-enabling PRES */
 782              		.loc 1 297 0
 783 0226 83F800B0 		strb	fp, [r3]
 298:.\Generated_Source\PSoC5/cyfitter_cfg.c **** 	CY_SET_XTND_REG8((void CYFAR *)(CYREG_RESET_CR5), (cr5));
 784              		.loc 1 298 0
 785 022a FFF7FEFF 		bl	CyDelayUs
 786              	.LVL43:
 787              	.LBE94:
 788              	.LBE108:
 789              	.LBB109:
 790              	.LBB110:
  80:.\Generated_Source\PSoC5/cyfitter_cfg.c **** }
 791              		.loc 1 80 0
 792 022e 94E80F00 		ldmia	r4, {r0, r1, r2, r3}
 793              	.LBE110:
 794              	.LBE109:
 795              	.LBB113:
 796              	.LBB95:
 301:.\Generated_Source\PSoC5/cyfitter_cfg.c **** }
 797              		.loc 1 301 0
 798 0232 DFF8C4E0 		ldr	lr, .L48+168
 799              	.LBE95:
 800              	.LBE113:
 801              	.LBB114:
ARM GAS  C:\Users\Patrick\AppData\Local\Temp\ccy4Y7jA.s 			page 27


 802              	.LBB111:
  80:.\Generated_Source\PSoC5/cyfitter_cfg.c **** }
 803              		.loc 1 80 0
 804 0236 1034     		adds	r4, r4, #16
 805              	.LBE111:
 806              	.LBE114:
 807              	.LBB115:
 808              	.LBB96:
 301:.\Generated_Source\PSoC5/cyfitter_cfg.c **** }
 809              		.loc 1 301 0
 810 0238 4FF0440C 		mov	ip, #68
 299:.\Generated_Source\PSoC5/cyfitter_cfg.c **** 	CY_SET_XTND_REG8((void CYFAR *)(CYREG_RESET_CR4), (cr4));
 811              		.loc 1 299 0
 812 023c 88F80060 		strb	r6, [r8]
 300:.\Generated_Source\PSoC5/cyfitter_cfg.c **** 	CY_SET_XTND_REG8((void CYFAR *)CYREG_PUMP_CR0, 0x44u);
 813              		.loc 1 300 0
 814 0240 3D70     		strb	r5, [r7]
 301:.\Generated_Source\PSoC5/cyfitter_cfg.c **** }
 815              		.loc 1 301 0
 816 0242 8EF800C0 		strb	ip, [lr]
 817              	.LVL44:
 818              	.LBE96:
 819              	.LBE115:
 820              	.LBB116:
 821              	.LBB112:
  80:.\Generated_Source\PSoC5/cyfitter_cfg.c **** }
 822              		.loc 1 80 0
 823 0246 07C4     		stmia	r4!, {r0, r1, r2}
 824 0248 2380     		strh	r3, [r4]	@ movhi
 825 024a BDE8F88F 		pop	{r3, r4, r5, r6, r7, r8, r9, r10, fp, pc}
 826              	.LVL45:
 827              	.L49:
 828 024e 00BF     		.align	2
 829              	.L48:
 830 0250 00480040 		.word	1073760256
 831 0254 80400040 		.word	1073758336
 832 0258 82400040 		.word	1073758338
 833 025c 88400040 		.word	1073758344
 834 0260 8A400040 		.word	1073758346
 835 0264 8C400040 		.word	1073758348
 836 0268 00420040 		.word	1073758720
 837 026c 08010049 		.word	1224737032
 838 0270 20420040 		.word	1073758752
 839 0274 22420040 		.word	1073758754
 840 0278 04400040 		.word	1073758212
 841 027c 08400040 		.word	1073758216
 842 0280 01400040 		.word	1073758209
 843 0284 A2430040 		.word	1073759138
 844 0288 E8460040 		.word	1073759976
 845 028c 20000000 		.word	.LANCHOR1+32
 846 0290 00000000 		.word	.LANCHOR1
 847 0294 FCFFFF47 		.word	CY_ECC_OFFSET+1207959548
 848 0298 80180140 		.word	1073813632
 849 029c 00000000 		.word	CY_ECC_OFFSET
 850 02a0 03500140 		.word	1073827843
 851 02a4 13500140 		.word	1073827859
 852 02a8 A0430040 		.word	1073759136
ARM GAS  C:\Users\Patrick\AppData\Local\Temp\ccy4Y7jA.s 			page 28


 853 02ac 02510040 		.word	1073762562
 854 02b0 7C080048 		.word	CY_ECC_OFFSET+1207961724
 855 02b4 C0510040 		.word	1073762752
 856 02b8 CF010049 		.word	1224737231
 857 02bc F8460040 		.word	1073759992
 858 02c0 22510040 		.word	1073762594
 859 02c4 235B0040 		.word	1073765155
 860 02c8 84400040 		.word	1073758340
 861 02cc 86400040 		.word	1073758342
 862 02d0 8E400040 		.word	1073758350
 863 02d4 90400040 		.word	1073758352
 864 02d8 92400040 		.word	1073758354
 865 02dc 00430040 		.word	1073758976
 866 02e0 06400040 		.word	1073758214
 867 02e4 F9460040 		.word	1073759993
 868 02e8 6E580040 		.word	1073764462
 869 02ec 6F580040 		.word	1073764463
 870 02f0 01590040 		.word	1073764609
 871 02f4 03590040 		.word	1073764611
 872 02f8 76580040 		.word	1073764470
 873              	.LBE112:
 874              	.LBE116:
 875              		.cfi_endproc
 876              	.LFE10:
 877              		.size	cyfitter_cfg, .-cyfitter_cfg
 878              		.section	.rodata
 879              		.align	2
 880              		.set	.LANCHOR1,. + 0
 881              		.type	AMux_1__outerAddr, %object
 882              		.size	AMux_1__outerAddr, 12
 883              	AMux_1__outerAddr:
 884 0000 0D510040 		.word	1073762573
 885 0004 0D510040 		.word	1073762573
 886 0008 0D510040 		.word	1073762573
 887              		.type	AMux_1__outerMask, %object
 888              		.size	AMux_1__outerMask, 3
 889              	AMux_1__outerMask:
 890 000c 04       		.byte	4
 891 000d 40       		.byte	64
 892 000e 20       		.byte	32
 893 000f 00       		.space	1
 894              		.type	AMux_1__innerMap, %object
 895              		.size	AMux_1__innerMap, 3
 896              	AMux_1__innerMap:
 897 0010 00       		.byte	0
 898 0011 00       		.byte	0
 899 0012 01       		.byte	1
 900 0013 00       		.space	1
 901              		.type	AMux_1__innerAddr, %object
 902              		.size	AMux_1__innerAddr, 8
 903              	AMux_1__innerAddr:
 904 0014 205B0040 		.word	1073765152
 905 0018 205B0040 		.word	1073765152
 906              		.type	AMux_1__innerMask, %object
 907              		.size	AMux_1__innerMask, 2
 908              	AMux_1__innerMask:
 909 001c 40       		.byte	64
ARM GAS  C:\Users\Patrick\AppData\Local\Temp\ccy4Y7jA.s 			page 29


 910 001d 20       		.byte	32
 911 001e 0000     		.space	2
 912              		.type	cfg_memset_list.4909, %object
 913              		.size	cfg_memset_list.4909, 48
 914              	cfg_memset_list.4909:
 915 0020 30510040 		.word	1073762608
 916 0024 4000     		.short	64
 917 0026 F0510040 		.4byte	1073762800
 918 002a 1000     		.short	16
 919 002c 00000140 		.word	1073807360
 920 0030 0010     		.short	4096
 921 0032 00140140 		.4byte	1073812480
 922 0036 8004     		.short	1152
 923 0038 00190140 		.word	1073813760
 924 003c 0003     		.short	768
 925 003e 00400140 		.4byte	1073823744
 926 0042 000A     		.short	2560
 927 0044 004C0140 		.word	1073826816
 928 0048 0002     		.short	512
 929 004a 00500140 		.4byte	1073827840
 930 004e 2000     		.short	32
 931              		.type	cfg_memcpy_list.4910, %object
 932              		.size	cfg_memcpy_list.4910, 10
 933              	cfg_memcpy_list.4910:
 934 0050 80180140 		.word	1073813632
 935 0054 FC070048 		.word	CY_ECC_OFFSET+1207961596
 936 0058 8000     		.short	128
 937 005a 0000     		.bss
 938              		.align	2
 939              		.set	.LANCHOR0,. + 0
 940              		.type	AMux_1__armsEnabled, %object
 941              		.size	AMux_1__armsEnabled, 1
 942              	AMux_1__armsEnabled:
 943 0000 00       		.space	1
 944 0001 000000   		.space	3
 945              		.type	AMux_1__refCnt, %object
 946              		.size	AMux_1__refCnt, 2
 947              	AMux_1__refCnt:
 948 0004 0000     		.space	2
 949 0006 0000     		.text
 950              	.Letext0:
 951              		.file 2 "c:\\program files (x86)\\cypress\\psoc creator\\3.3\\psoc creator\\import\\gnu\\arm\\4.9.
 952              		.file 3 ".\\Generated_Source\\PSoC5\\cytypes.h"
 953              		.file 4 ".\\Generated_Source\\PSoC5\\CyLib.h"