ARM GAS  C:\Users\Patrick\AppData\Local\Temp\ccToYH6E.s 			page 1


   1              		.syntax unified
   2              		.cpu cortex-m3
   3              		.fpu softvfp
   4              		.eabi_attribute 20, 1
   5              		.eabi_attribute 21, 1
   6              		.eabi_attribute 23, 3
   7              		.eabi_attribute 24, 1
   8              		.eabi_attribute 25, 1
   9              		.eabi_attribute 26, 1
  10              		.eabi_attribute 30, 2
  11              		.eabi_attribute 34, 1
  12              		.eabi_attribute 18, 4
  13              		.thumb
  14              		.file	"Em_EEPROM_1.c"
  15              		.text
  16              	.Ltext0:
  17              		.cfi_sections	.debug_frame
  18              		.section	.text.Em_EEPROM_1_Start,"ax",%progbits
  19              		.align	2
  20              		.global	Em_EEPROM_1_Start
  21              		.thumb
  22              		.thumb_func
  23              		.type	Em_EEPROM_1_Start, %function
  24              	Em_EEPROM_1_Start:
  25              	.LFB0:
  26              		.file 1 ".\\Generated_Source\\PSoC5\\Em_EEPROM_1.c"
   1:.\Generated_Source\PSoC5/Em_EEPROM_1.c **** /*******************************************************************************
   2:.\Generated_Source\PSoC5/Em_EEPROM_1.c **** * File Name: Em_EEPROM_1.c
   3:.\Generated_Source\PSoC5/Em_EEPROM_1.c **** * Version 1.10
   4:.\Generated_Source\PSoC5/Em_EEPROM_1.c **** *
   5:.\Generated_Source\PSoC5/Em_EEPROM_1.c **** * Description:
   6:.\Generated_Source\PSoC5/Em_EEPROM_1.c **** *  This file provides the source code to API for the Emulated EEPROM Component.
   7:.\Generated_Source\PSoC5/Em_EEPROM_1.c **** *
   8:.\Generated_Source\PSoC5/Em_EEPROM_1.c **** ********************************************************************************
   9:.\Generated_Source\PSoC5/Em_EEPROM_1.c **** * Copyright 2013, Cypress Semiconductor Corporation.  All rights reserved.
  10:.\Generated_Source\PSoC5/Em_EEPROM_1.c **** * You may use this file only in accordance with the license, terms, conditions,
  11:.\Generated_Source\PSoC5/Em_EEPROM_1.c **** * disclaimers, and limitations in the end user license agreement accompanying
  12:.\Generated_Source\PSoC5/Em_EEPROM_1.c **** * the software package with which this file was provided.
  13:.\Generated_Source\PSoC5/Em_EEPROM_1.c **** *******************************************************************************/
  14:.\Generated_Source\PSoC5/Em_EEPROM_1.c **** 
  15:.\Generated_Source\PSoC5/Em_EEPROM_1.c **** #include "Em_EEPROM_1.h"
  16:.\Generated_Source\PSoC5/Em_EEPROM_1.c **** 
  17:.\Generated_Source\PSoC5/Em_EEPROM_1.c **** 
  18:.\Generated_Source\PSoC5/Em_EEPROM_1.c **** /*******************************************************************************
  19:.\Generated_Source\PSoC5/Em_EEPROM_1.c **** * Function Name: Em_EEPROM_1_Start
  20:.\Generated_Source\PSoC5/Em_EEPROM_1.c **** ********************************************************************************
  21:.\Generated_Source\PSoC5/Em_EEPROM_1.c **** *
  22:.\Generated_Source\PSoC5/Em_EEPROM_1.c **** * Summary:
  23:.\Generated_Source\PSoC5/Em_EEPROM_1.c **** *  Empty function. Included for consistency with other
  24:.\Generated_Source\PSoC5/Em_EEPROM_1.c **** *  components.
  25:.\Generated_Source\PSoC5/Em_EEPROM_1.c **** *
  26:.\Generated_Source\PSoC5/Em_EEPROM_1.c **** * Parameters:
  27:.\Generated_Source\PSoC5/Em_EEPROM_1.c **** *  None
  28:.\Generated_Source\PSoC5/Em_EEPROM_1.c **** *
  29:.\Generated_Source\PSoC5/Em_EEPROM_1.c **** * Return:
  30:.\Generated_Source\PSoC5/Em_EEPROM_1.c **** *  None
  31:.\Generated_Source\PSoC5/Em_EEPROM_1.c **** *
ARM GAS  C:\Users\Patrick\AppData\Local\Temp\ccToYH6E.s 			page 2


  32:.\Generated_Source\PSoC5/Em_EEPROM_1.c **** *******************************************************************************/
  33:.\Generated_Source\PSoC5/Em_EEPROM_1.c **** void Em_EEPROM_1_Start(void) 
  34:.\Generated_Source\PSoC5/Em_EEPROM_1.c **** {
  27              		.loc 1 34 0
  28              		.cfi_startproc
  29              		@ args = 0, pretend = 0, frame = 0
  30              		@ frame_needed = 0, uses_anonymous_args = 0
  31              		@ link register save eliminated.
  32 0000 7047     		bx	lr
  33              		.cfi_endproc
  34              	.LFE0:
  35              		.size	Em_EEPROM_1_Start, .-Em_EEPROM_1_Start
  36 0002 00BF     		.section	.text.Em_EEPROM_1_Stop,"ax",%progbits
  37              		.align	2
  38              		.global	Em_EEPROM_1_Stop
  39              		.thumb
  40              		.thumb_func
  41              		.type	Em_EEPROM_1_Stop, %function
  42              	Em_EEPROM_1_Stop:
  43              	.LFB1:
  35:.\Generated_Source\PSoC5/Em_EEPROM_1.c **** 
  36:.\Generated_Source\PSoC5/Em_EEPROM_1.c **** }
  37:.\Generated_Source\PSoC5/Em_EEPROM_1.c **** 
  38:.\Generated_Source\PSoC5/Em_EEPROM_1.c **** 
  39:.\Generated_Source\PSoC5/Em_EEPROM_1.c **** /*******************************************************************************
  40:.\Generated_Source\PSoC5/Em_EEPROM_1.c **** * Function Name: Em_EEPROM_1_Stop
  41:.\Generated_Source\PSoC5/Em_EEPROM_1.c **** ********************************************************************************
  42:.\Generated_Source\PSoC5/Em_EEPROM_1.c **** *
  43:.\Generated_Source\PSoC5/Em_EEPROM_1.c **** * Summary:
  44:.\Generated_Source\PSoC5/Em_EEPROM_1.c **** *  Empty function. Included for consistency with other
  45:.\Generated_Source\PSoC5/Em_EEPROM_1.c **** *  components.
  46:.\Generated_Source\PSoC5/Em_EEPROM_1.c **** *
  47:.\Generated_Source\PSoC5/Em_EEPROM_1.c **** * Parameters:
  48:.\Generated_Source\PSoC5/Em_EEPROM_1.c **** *  None
  49:.\Generated_Source\PSoC5/Em_EEPROM_1.c **** *
  50:.\Generated_Source\PSoC5/Em_EEPROM_1.c **** * Return:
  51:.\Generated_Source\PSoC5/Em_EEPROM_1.c **** *  None
  52:.\Generated_Source\PSoC5/Em_EEPROM_1.c **** *
  53:.\Generated_Source\PSoC5/Em_EEPROM_1.c **** *******************************************************************************/
  54:.\Generated_Source\PSoC5/Em_EEPROM_1.c **** void Em_EEPROM_1_Stop(void) 
  55:.\Generated_Source\PSoC5/Em_EEPROM_1.c **** {
  44              		.loc 1 55 0
  45              		.cfi_startproc
  46              		@ args = 0, pretend = 0, frame = 0
  47              		@ frame_needed = 0, uses_anonymous_args = 0
  48              		@ link register save eliminated.
  49 0000 7047     		bx	lr
  50              		.cfi_endproc
  51              	.LFE1:
  52              		.size	Em_EEPROM_1_Stop, .-Em_EEPROM_1_Stop
  53 0002 00BF     		.section	.text.Em_EEPROM_1_Write,"ax",%progbits
  54              		.align	2
  55              		.global	Em_EEPROM_1_Write
  56              		.thumb
  57              		.thumb_func
  58              		.type	Em_EEPROM_1_Write, %function
  59              	Em_EEPROM_1_Write:
ARM GAS  C:\Users\Patrick\AppData\Local\Temp\ccToYH6E.s 			page 3


  60              	.LFB2:
  56:.\Generated_Source\PSoC5/Em_EEPROM_1.c **** 
  57:.\Generated_Source\PSoC5/Em_EEPROM_1.c **** }
  58:.\Generated_Source\PSoC5/Em_EEPROM_1.c **** 
  59:.\Generated_Source\PSoC5/Em_EEPROM_1.c **** 
  60:.\Generated_Source\PSoC5/Em_EEPROM_1.c **** /*******************************************************************************
  61:.\Generated_Source\PSoC5/Em_EEPROM_1.c **** * Function Name: Em_EEPROM_1_Write
  62:.\Generated_Source\PSoC5/Em_EEPROM_1.c **** ********************************************************************************
  63:.\Generated_Source\PSoC5/Em_EEPROM_1.c **** *
  64:.\Generated_Source\PSoC5/Em_EEPROM_1.c **** * Summary:
  65:.\Generated_Source\PSoC5/Em_EEPROM_1.c **** *  Writes the specified number of bytes from the source buffer in SRAM to the
  66:.\Generated_Source\PSoC5/Em_EEPROM_1.c **** *  emulated EEPROM array in flash, without modifying other data in flash.
  67:.\Generated_Source\PSoC5/Em_EEPROM_1.c **** *
  68:.\Generated_Source\PSoC5/Em_EEPROM_1.c **** * Parameters:
  69:.\Generated_Source\PSoC5/Em_EEPROM_1.c **** *  srcBuf:    Pointer to the SRAM buffer holding the data to write.
  70:.\Generated_Source\PSoC5/Em_EEPROM_1.c **** *  eepromPtr: Pointer to the array or variable in flash representing
  71:.\Generated_Source\PSoC5/Em_EEPROM_1.c **** *             the emulated EEPROM.
  72:.\Generated_Source\PSoC5/Em_EEPROM_1.c **** *  byteCount: Number of bytes to write from srcBuf to eepromPtr.
  73:.\Generated_Source\PSoC5/Em_EEPROM_1.c **** *
  74:.\Generated_Source\PSoC5/Em_EEPROM_1.c **** * Return:
  75:.\Generated_Source\PSoC5/Em_EEPROM_1.c **** *    CYRET_SUCCESS     Successful write.
  76:.\Generated_Source\PSoC5/Em_EEPROM_1.c **** *    CYRET_BAD_PARAM   eepromPtr is out of range of flash memory.
  77:.\Generated_Source\PSoC5/Em_EEPROM_1.c **** *    CYRET_UNKNOWN     Other error in writing flash.
  78:.\Generated_Source\PSoC5/Em_EEPROM_1.c **** *
  79:.\Generated_Source\PSoC5/Em_EEPROM_1.c **** *******************************************************************************/
  80:.\Generated_Source\PSoC5/Em_EEPROM_1.c **** #if (CY_PSOC3)
  81:.\Generated_Source\PSoC5/Em_EEPROM_1.c ****     cystatus Em_EEPROM_1_Write(const uint8 srcBuf[], const uint8 eepromPtr[], uint16 byteCount)
  82:.\Generated_Source\PSoC5/Em_EEPROM_1.c ****                                                                             
  83:.\Generated_Source\PSoC5/Em_EEPROM_1.c **** #else
  84:.\Generated_Source\PSoC5/Em_EEPROM_1.c ****     cystatus Em_EEPROM_1_Write(const uint8 srcBuf[], const uint8 eepromPtr[], uint32 byteCount)
  85:.\Generated_Source\PSoC5/Em_EEPROM_1.c **** #endif /* (!CY_PSOC3) */
  86:.\Generated_Source\PSoC5/Em_EEPROM_1.c **** {
  61              		.loc 1 86 0
  62              		.cfi_startproc
  63              		@ args = 0, pretend = 0, frame = 552
  64              		@ frame_needed = 0, uses_anonymous_args = 0
  65              	.LVL0:
  87:.\Generated_Source\PSoC5/Em_EEPROM_1.c ****     uint8 writeBuffer[CY_FLASH_SIZEOF_ROW];
  88:.\Generated_Source\PSoC5/Em_EEPROM_1.c ****     uint32 arrayId;
  89:.\Generated_Source\PSoC5/Em_EEPROM_1.c ****     uint32 rowId;
  90:.\Generated_Source\PSoC5/Em_EEPROM_1.c ****     uint32 dstIndex;
  91:.\Generated_Source\PSoC5/Em_EEPROM_1.c ****     uint32 srcIndex;
  92:.\Generated_Source\PSoC5/Em_EEPROM_1.c ****     cystatus rc;
  93:.\Generated_Source\PSoC5/Em_EEPROM_1.c ****     uint32 eeOffset;
  94:.\Generated_Source\PSoC5/Em_EEPROM_1.c ****     uint32 byteOffset;
  95:.\Generated_Source\PSoC5/Em_EEPROM_1.c ****     
  96:.\Generated_Source\PSoC5/Em_EEPROM_1.c ****     #if (!CY_PSOC4)
  97:.\Generated_Source\PSoC5/Em_EEPROM_1.c ****         #if (CYDEV_ECC_ENABLE == 0)
  98:.\Generated_Source\PSoC5/Em_EEPROM_1.c ****             uint8 rowBuffer[CY_FLASH_SIZEOF_ROW + CY_FLASH_SIZEOF_ECC_ROW];
  99:.\Generated_Source\PSoC5/Em_EEPROM_1.c ****         #endif /* CYDEV_ECC_ENABLE == 0) */
 100:.\Generated_Source\PSoC5/Em_EEPROM_1.c ****     #endif /* (!CY_PSOC4) */
 101:.\Generated_Source\PSoC5/Em_EEPROM_1.c **** 
 102:.\Generated_Source\PSoC5/Em_EEPROM_1.c ****     eeOffset = (uint32)eepromPtr;
 103:.\Generated_Source\PSoC5/Em_EEPROM_1.c ****     #if (CY_PSOC3)
 104:.\Generated_Source\PSoC5/Em_EEPROM_1.c ****         eeOffset &= Em_EEPROM_1_CODE_ADDR_MASK;
 105:.\Generated_Source\PSoC5/Em_EEPROM_1.c ****     #endif /* (CY_PSOC3) */
 106:.\Generated_Source\PSoC5/Em_EEPROM_1.c **** 
ARM GAS  C:\Users\Patrick\AppData\Local\Temp\ccToYH6E.s 			page 4


 107:.\Generated_Source\PSoC5/Em_EEPROM_1.c ****     /* Make sure, that eepromPtr[] points to ROM */
 108:.\Generated_Source\PSoC5/Em_EEPROM_1.c ****     #if (CY_PSOC3)
 109:.\Generated_Source\PSoC5/Em_EEPROM_1.c ****         if (((uint32)eepromPtr >= Em_EEPROM_1_CODE_ADDR_OFFSET) &&
 110:.\Generated_Source\PSoC5/Em_EEPROM_1.c ****             (((uint32)eepromPtr + byteCount) <= Em_EEPROM_1_CODE_ADDR_END))
 111:.\Generated_Source\PSoC5/Em_EEPROM_1.c ****     #else
 112:.\Generated_Source\PSoC5/Em_EEPROM_1.c ****         if (((uint32)eepromPtr + byteCount) < Em_EEPROM_1_FLASH_END_ADDR)
  66              		.loc 1 112 0
  67 0000 8B18     		adds	r3, r1, r2
  68 0002 B3F5802F 		cmp	r3, #262144
  69 0006 01D3     		bcc	.L25
 113:.\Generated_Source\PSoC5/Em_EEPROM_1.c ****     #endif /* (CY_PSOC3) */
 114:.\Generated_Source\PSoC5/Em_EEPROM_1.c ****     {
 115:.\Generated_Source\PSoC5/Em_EEPROM_1.c ****         #if (!CY_PSOC4)
 116:.\Generated_Source\PSoC5/Em_EEPROM_1.c ****             (void)CySetTemp();
 117:.\Generated_Source\PSoC5/Em_EEPROM_1.c **** 
 118:.\Generated_Source\PSoC5/Em_EEPROM_1.c ****             #if(CYDEV_ECC_ENABLE == 0)
 119:.\Generated_Source\PSoC5/Em_EEPROM_1.c ****                 (void)CySetFlashEEBuffer(rowBuffer);
 120:.\Generated_Source\PSoC5/Em_EEPROM_1.c ****             #endif
 121:.\Generated_Source\PSoC5/Em_EEPROM_1.c ****         #endif /* (!CY_PSOC4) */
 122:.\Generated_Source\PSoC5/Em_EEPROM_1.c **** 
 123:.\Generated_Source\PSoC5/Em_EEPROM_1.c ****         arrayId = eeOffset / CY_FLASH_SIZEOF_ARRAY;
 124:.\Generated_Source\PSoC5/Em_EEPROM_1.c ****         rowId = (eeOffset / CY_FLASH_SIZEOF_ROW) % Em_EEPROM_1_ROWS_IN_ARRAY;
 125:.\Generated_Source\PSoC5/Em_EEPROM_1.c ****         byteOffset = (CY_FLASH_SIZEOF_ARRAY * arrayId) + (CY_FLASH_SIZEOF_ROW * rowId);
 126:.\Generated_Source\PSoC5/Em_EEPROM_1.c ****         srcIndex = 0u;
 127:.\Generated_Source\PSoC5/Em_EEPROM_1.c **** 
 128:.\Generated_Source\PSoC5/Em_EEPROM_1.c ****         rc = CYRET_SUCCESS;
 129:.\Generated_Source\PSoC5/Em_EEPROM_1.c **** 
 130:.\Generated_Source\PSoC5/Em_EEPROM_1.c ****         while ((srcIndex < byteCount) && (CYRET_SUCCESS == rc))
 131:.\Generated_Source\PSoC5/Em_EEPROM_1.c ****         {
 132:.\Generated_Source\PSoC5/Em_EEPROM_1.c ****             /* Copy data to the write buffer either from the source buffer or from the flash */
 133:.\Generated_Source\PSoC5/Em_EEPROM_1.c ****             for (dstIndex = 0u; dstIndex < CY_FLASH_SIZEOF_ROW; dstIndex++)
 134:.\Generated_Source\PSoC5/Em_EEPROM_1.c ****             {
 135:.\Generated_Source\PSoC5/Em_EEPROM_1.c ****                 if ((byteOffset >= eeOffset) && (srcIndex < byteCount))
 136:.\Generated_Source\PSoC5/Em_EEPROM_1.c ****                 {
 137:.\Generated_Source\PSoC5/Em_EEPROM_1.c ****                     writeBuffer[dstIndex] = srcBuf[srcIndex];
 138:.\Generated_Source\PSoC5/Em_EEPROM_1.c ****                     srcIndex++;
 139:.\Generated_Source\PSoC5/Em_EEPROM_1.c ****                 }
 140:.\Generated_Source\PSoC5/Em_EEPROM_1.c ****                 else
 141:.\Generated_Source\PSoC5/Em_EEPROM_1.c ****                 {
 142:.\Generated_Source\PSoC5/Em_EEPROM_1.c ****                     writeBuffer[dstIndex] = CY_GET_XTND_REG8(CYDEV_FLASH_BASE + byteOffset);
 143:.\Generated_Source\PSoC5/Em_EEPROM_1.c ****                 }
 144:.\Generated_Source\PSoC5/Em_EEPROM_1.c ****                 byteOffset++;
 145:.\Generated_Source\PSoC5/Em_EEPROM_1.c ****             }
 146:.\Generated_Source\PSoC5/Em_EEPROM_1.c **** 
 147:.\Generated_Source\PSoC5/Em_EEPROM_1.c ****             /* Write flash row */
 148:.\Generated_Source\PSoC5/Em_EEPROM_1.c ****             #if (CY_PSOC4)
 149:.\Generated_Source\PSoC5/Em_EEPROM_1.c ****                 rc = CySysFlashWriteRow(rowId, writeBuffer);
 150:.\Generated_Source\PSoC5/Em_EEPROM_1.c ****             #else
 151:.\Generated_Source\PSoC5/Em_EEPROM_1.c ****                 rc = CyWriteRowData((uint8)arrayId, (uint16)rowId, writeBuffer);
 152:.\Generated_Source\PSoC5/Em_EEPROM_1.c ****             #endif /* (CY_PSOC4) */
 153:.\Generated_Source\PSoC5/Em_EEPROM_1.c **** 
 154:.\Generated_Source\PSoC5/Em_EEPROM_1.c ****             /* Go to the next row */
 155:.\Generated_Source\PSoC5/Em_EEPROM_1.c ****             rowId++;
 156:.\Generated_Source\PSoC5/Em_EEPROM_1.c ****             #if (CY_FLASH_NUMBER_ARRAYS > 1)
 157:.\Generated_Source\PSoC5/Em_EEPROM_1.c ****                 if (rowId >= Em_EEPROM_1_ROWS_IN_ARRAY)
 158:.\Generated_Source\PSoC5/Em_EEPROM_1.c ****                 {
 159:.\Generated_Source\PSoC5/Em_EEPROM_1.c ****                     arrayId++;
ARM GAS  C:\Users\Patrick\AppData\Local\Temp\ccToYH6E.s 			page 5


 160:.\Generated_Source\PSoC5/Em_EEPROM_1.c ****                     rowId = 0u;
 161:.\Generated_Source\PSoC5/Em_EEPROM_1.c ****                 }
 162:.\Generated_Source\PSoC5/Em_EEPROM_1.c ****             #endif /* (CY_FLASH_NUMBER_ARRAYS > 1) */
 163:.\Generated_Source\PSoC5/Em_EEPROM_1.c ****         }
 164:.\Generated_Source\PSoC5/Em_EEPROM_1.c **** 
 165:.\Generated_Source\PSoC5/Em_EEPROM_1.c ****         /* Flush both Cache and PHUB prefetch buffer */
 166:.\Generated_Source\PSoC5/Em_EEPROM_1.c ****         #if (CY_PSOC5)
 167:.\Generated_Source\PSoC5/Em_EEPROM_1.c ****             CyFlushCache();
 168:.\Generated_Source\PSoC5/Em_EEPROM_1.c ****         #elif (CY_PSOC3)
 169:.\Generated_Source\PSoC5/Em_EEPROM_1.c ****             CY_FLASH_CONTROL_REG |= 6u;
 170:.\Generated_Source\PSoC5/Em_EEPROM_1.c ****         #endif /* (CY_PSOC5) */
 171:.\Generated_Source\PSoC5/Em_EEPROM_1.c ****     }
 172:.\Generated_Source\PSoC5/Em_EEPROM_1.c ****     else
 173:.\Generated_Source\PSoC5/Em_EEPROM_1.c ****     {
 174:.\Generated_Source\PSoC5/Em_EEPROM_1.c ****         rc = CYRET_BAD_PARAM;
  70              		.loc 1 174 0
  71 0008 0120     		movs	r0, #1
  72              	.LVL1:
 175:.\Generated_Source\PSoC5/Em_EEPROM_1.c ****     }
 176:.\Generated_Source\PSoC5/Em_EEPROM_1.c **** 
 177:.\Generated_Source\PSoC5/Em_EEPROM_1.c ****     /* Mask return codes from flash, if they are not supported */
 178:.\Generated_Source\PSoC5/Em_EEPROM_1.c ****     if ((CYRET_SUCCESS != rc) && (CYRET_BAD_PARAM != rc))
 179:.\Generated_Source\PSoC5/Em_EEPROM_1.c ****     {
 180:.\Generated_Source\PSoC5/Em_EEPROM_1.c ****         rc = CYRET_UNKNOWN;
 181:.\Generated_Source\PSoC5/Em_EEPROM_1.c ****     }
 182:.\Generated_Source\PSoC5/Em_EEPROM_1.c ****     
 183:.\Generated_Source\PSoC5/Em_EEPROM_1.c ****     return (rc);
 184:.\Generated_Source\PSoC5/Em_EEPROM_1.c **** }
  73              		.loc 1 184 0
  74 000a 7047     		bx	lr
  75              	.LVL2:
  76              	.L25:
  86:.\Generated_Source\PSoC5/Em_EEPROM_1.c ****     uint8 writeBuffer[CY_FLASH_SIZEOF_ROW];
  77              		.loc 1 86 0
  78 000c 2DE9F047 		push	{r4, r5, r6, r7, r8, r9, r10, lr}
  79              		.cfi_def_cfa_offset 32
  80              		.cfi_offset 4, -32
  81              		.cfi_offset 5, -28
  82              		.cfi_offset 6, -24
  83              		.cfi_offset 7, -20
  84              		.cfi_offset 8, -16
  85              		.cfi_offset 9, -12
  86              		.cfi_offset 10, -8
  87              		.cfi_offset 14, -4
  88 0010 0D46     		mov	r5, r1
  89 0012 1646     		mov	r6, r2
  90 0014 ADF50A7D 		sub	sp, sp, #552
  91              		.cfi_def_cfa_offset 584
  92 0018 0746     		mov	r7, r0
 123:.\Generated_Source\PSoC5/Em_EEPROM_1.c ****         rowId = (eeOffset / CY_FLASH_SIZEOF_ROW) % Em_EEPROM_1_ROWS_IN_ARRAY;
  93              		.loc 1 123 0
  94 001a 4FEA1549 		lsr	r9, r5, #16
 116:.\Generated_Source\PSoC5/Em_EEPROM_1.c **** 
  95              		.loc 1 116 0
  96 001e FFF7FEFF 		bl	CySetTemp
  97              	.LVL3:
 124:.\Generated_Source\PSoC5/Em_EEPROM_1.c ****         byteOffset = (CY_FLASH_SIZEOF_ARRAY * arrayId) + (CY_FLASH_SIZEOF_ROW * rowId);
ARM GAS  C:\Users\Patrick\AppData\Local\Temp\ccToYH6E.s 			page 6


  98              		.loc 1 124 0
  99 0022 C5F30728 		ubfx	r8, r5, #8, #8
 119:.\Generated_Source\PSoC5/Em_EEPROM_1.c ****             #endif
 100              		.loc 1 119 0
 101 0026 42A8     		add	r0, sp, #264
 102 0028 FFF7FEFF 		bl	CySetFlashEEBuffer
 103              	.LVL4:
 125:.\Generated_Source\PSoC5/Em_EEPROM_1.c ****         srcIndex = 0u;
 104              		.loc 1 125 0
 105 002c 08EB0923 		add	r3, r8, r9, lsl #8
 106 0030 1B02     		lsls	r3, r3, #8
 107              	.LVL5:
 130:.\Generated_Source\PSoC5/Em_EEPROM_1.c ****         {
 108              		.loc 1 130 0
 109 0032 0022     		movs	r2, #0
 110 0034 002E     		cmp	r6, #0
 111 0036 3AD0     		beq	.L26
 112              	.LVL6:
 113              	.L12:
  86:.\Generated_Source\PSoC5/Em_EEPROM_1.c ****     uint8 writeBuffer[CY_FLASH_SIZEOF_ROW];
 114              		.loc 1 86 0 discriminator 1
 115 0038 1446     		mov	r4, r2
 116 003a 0DF10701 		add	r1, sp, #7
 117 003e 03F5807A 		add	r10, r3, #256
 118 0042 09E0     		b	.L9
 119              	.LVL7:
 120              	.L28:
 135:.\Generated_Source\PSoC5/Em_EEPROM_1.c ****                 {
 121              		.loc 1 135 0 discriminator 1
 122 0044 A642     		cmp	r6, r4
 123 0046 09D9     		bls	.L7
 137:.\Generated_Source\PSoC5/Em_EEPROM_1.c ****                     srcIndex++;
 124              		.loc 1 137 0
 125 0048 3A5D     		ldrb	r2, [r7, r4]	@ zero_extendqisi2
 144:.\Generated_Source\PSoC5/Em_EEPROM_1.c ****             }
 126              		.loc 1 144 0
 127 004a 0133     		adds	r3, r3, #1
 128              	.LVL8:
 133:.\Generated_Source\PSoC5/Em_EEPROM_1.c ****             {
 129              		.loc 1 133 0
 130 004c 5345     		cmp	r3, r10
 138:.\Generated_Source\PSoC5/Em_EEPROM_1.c ****                 }
 131              		.loc 1 138 0
 132 004e 04F10104 		add	r4, r4, #1
 133              	.LVL9:
 134 0052 01F8012F 		strb	r2, [r1, #1]!
 135              	.LVL10:
 133:.\Generated_Source\PSoC5/Em_EEPROM_1.c ****             {
 136              		.loc 1 133 0
 137 0056 08D0     		beq	.L27
 138              	.LVL11:
 139              	.L9:
 135:.\Generated_Source\PSoC5/Em_EEPROM_1.c ****                 {
 140              		.loc 1 135 0
 141 0058 9D42     		cmp	r5, r3
 142 005a F3D9     		bls	.L28
 143              	.L7:
ARM GAS  C:\Users\Patrick\AppData\Local\Temp\ccToYH6E.s 			page 7


 142:.\Generated_Source\PSoC5/Em_EEPROM_1.c ****                 }
 144              		.loc 1 142 0
 145 005c 1A78     		ldrb	r2, [r3]	@ zero_extendqisi2
 144:.\Generated_Source\PSoC5/Em_EEPROM_1.c ****             }
 146              		.loc 1 144 0
 147 005e 0133     		adds	r3, r3, #1
 148              	.LVL12:
 142:.\Generated_Source\PSoC5/Em_EEPROM_1.c ****                 }
 149              		.loc 1 142 0
 150 0060 D2B2     		uxtb	r2, r2
 133:.\Generated_Source\PSoC5/Em_EEPROM_1.c ****             {
 151              		.loc 1 133 0
 152 0062 5345     		cmp	r3, r10
 153 0064 01F8012F 		strb	r2, [r1, #1]!
 154              	.LVL13:
 155 0068 F6D1     		bne	.L9
 156              	.L27:
 151:.\Generated_Source\PSoC5/Em_EEPROM_1.c ****             #endif /* (CY_PSOC4) */
 157              		.loc 1 151 0
 158 006a 5FFA89F0 		uxtb	r0, r9
 159 006e 1FFA88F1 		uxth	r1, r8
 160 0072 02AA     		add	r2, sp, #8
 155:.\Generated_Source\PSoC5/Em_EEPROM_1.c ****             #if (CY_FLASH_NUMBER_ARRAYS > 1)
 161              		.loc 1 155 0
 162 0074 08F10108 		add	r8, r8, #1
 163              	.LVL14:
 151:.\Generated_Source\PSoC5/Em_EEPROM_1.c ****             #endif /* (CY_PSOC4) */
 164              		.loc 1 151 0
 165 0078 FFF7FEFF 		bl	CyWriteRowData
 166              	.LVL15:
 157:.\Generated_Source\PSoC5/Em_EEPROM_1.c ****                 {
 167              		.loc 1 157 0
 168 007c B8F5807F 		cmp	r8, #256
 159:.\Generated_Source\PSoC5/Em_EEPROM_1.c ****                     rowId = 0u;
 169              		.loc 1 159 0
 170 0080 04BF     		itt	eq
 171 0082 09F10109 		addeq	r9, r9, #1
 172              	.LVL16:
 160:.\Generated_Source\PSoC5/Em_EEPROM_1.c ****                 }
 173              		.loc 1 160 0
 174 0086 4FF00008 		moveq	r8, #0
 175              	.LVL17:
 130:.\Generated_Source\PSoC5/Em_EEPROM_1.c ****         {
 176              		.loc 1 130 0
 177 008a A642     		cmp	r6, r4
 178 008c 2246     		mov	r2, r4
 179 008e 02D9     		bls	.L11
 180              	.LVL18:
 181 0090 5346     		mov	r3, r10
 130:.\Generated_Source\PSoC5/Em_EEPROM_1.c ****         {
 182              		.loc 1 130 0 is_stmt 0 discriminator 1
 183 0092 0028     		cmp	r0, #0
 184 0094 D0D0     		beq	.L12
 185              	.L11:
 186 0096 0190     		str	r0, [sp, #4]
 167:.\Generated_Source\PSoC5/Em_EEPROM_1.c ****         #elif (CY_PSOC3)
 187              		.loc 1 167 0 is_stmt 1
ARM GAS  C:\Users\Patrick\AppData\Local\Temp\ccToYH6E.s 			page 8


 188 0098 FFF7FEFF 		bl	CyFlushCache
 189              	.LVL19:
 180:.\Generated_Source\PSoC5/Em_EEPROM_1.c ****     }
 190              		.loc 1 180 0
 191 009c 0198     		ldr	r0, [sp, #4]
 192 009e 0228     		cmp	r0, #2
 193 00a0 28BF     		it	cs
 194 00a2 4FF0FF30 		movcs	r0, #-1
 195              	.LVL20:
 196              	.L21:
 197              		.loc 1 184 0
 198 00a6 0DF50A7D 		add	sp, sp, #552
 199              		.cfi_remember_state
 200              		.cfi_def_cfa_offset 32
 201              		@ sp needed
 202 00aa BDE8F087 		pop	{r4, r5, r6, r7, r8, r9, r10, pc}
 203              	.LVL21:
 204              	.L26:
 205              		.cfi_restore_state
 167:.\Generated_Source\PSoC5/Em_EEPROM_1.c ****         #elif (CY_PSOC3)
 206              		.loc 1 167 0
 207 00ae FFF7FEFF 		bl	CyFlushCache
 208              	.LVL22:
 128:.\Generated_Source\PSoC5/Em_EEPROM_1.c **** 
 209              		.loc 1 128 0
 210 00b2 3046     		mov	r0, r6
 211              	.LVL23:
 212 00b4 F7E7     		b	.L21
 213              		.cfi_endproc
 214              	.LFE2:
 215              		.size	Em_EEPROM_1_Write, .-Em_EEPROM_1_Write
 216 00b6 00BF     		.text
 217              	.Letext0:
 218              		.file 2 ".\\Generated_Source\\PSoC5\\cytypes.h"
 219              		.file 3 ".\\Generated_Source\\PSoC5\\CyFlash.h"
 220              		.file 4 ".\\Generated_Source\\PSoC5\\CyLib.h"