ARM GAS  C:\Users\Patrick\AppData\Local\Temp\cc1OctCg.s 			page 1


   1              		.syntax unified
   2              		.cpu cortex-m3
   3              		.fpu softvfp
   4              		.eabi_attribute 20, 1
   5              		.eabi_attribute 21, 1
   6              		.eabi_attribute 23, 3
   7              		.eabi_attribute 24, 1
   8              		.eabi_attribute 25, 1
   9              		.eabi_attribute 26, 1
  10              		.eabi_attribute 30, 2
  11              		.eabi_attribute 34, 1
  12              		.eabi_attribute 18, 4
  13              		.thumb
  14              		.file	"main.c"
  15              		.text
  16              	.Ltext0:
  17              		.cfi_sections	.debug_frame
  18              		.section	.text.SysTick_ISR,"ax",%progbits
  19              		.align	2
  20              		.global	SysTick_ISR
  21              		.thumb
  22              		.thumb_func
  23              		.type	SysTick_ISR, %function
  24              	SysTick_ISR:
  25              	.LFB67:
  26              		.file 1 ".\\main.c"
   1:.\main.c      **** /******************************************************************************
   2:.\main.c      **** * Project Name		: CE95277 ADC and UART
   3:.\main.c      **** * File Name			: main.c
   4:.\main.c      **** * Version 			: **
   5:.\main.c      **** * Device Used		: CY8C5888LTI-LP097
   6:.\main.c      **** * Software Used		: PSoC Creator 3.1 SP2
   7:.\main.c      **** * Compiler    		: ARM GCC 4.8.4, ARM RVDS Generic, ARM MDK Generic
   8:.\main.c      **** * Related Hardware	: CY8CKIT059 PSoC 5 LP Prototyping Kit 
   9:.\main.c      **** * Owner				: KLMZ
  10:.\main.c      **** *
  11:.\main.c      **** ********************************************************************************
  12:.\main.c      **** * Copyright (2015), Cypress Semiconductor Corporation. All Rights Reserved.
  13:.\main.c      **** ********************************************************************************
  14:.\main.c      **** * This software is owned by Cypress Semiconductor Corporation (Cypress)
  15:.\main.c      **** * and is protected by and subject to worldwide patent protection (United
  16:.\main.c      **** * States and foreign), United States copyright laws and international treaty
  17:.\main.c      **** * provisions. Cypress hereby grants to licensee a personal, non-exclusive,
  18:.\main.c      **** * non-transferable license to copy, use, modify, create derivative works of,
  19:.\main.c      **** * and compile the Cypress Source Code and derivative works for the sole
  20:.\main.c      **** * purpose of creating custom software in support of licensee product to be
  21:.\main.c      **** * used only in conjunction with a Cypress integrated circuit as specified in
  22:.\main.c      **** * the applicable agreement. Any reproduction, modification, translation,
  23:.\main.c      **** * compilation, or representation of this software except as specified above 
  24:.\main.c      **** * is prohibited without the express written permission of Cypress.
  25:.\main.c      **** *
  26:.\main.c      **** * Disclaimer: CYPRESS MAKES NO WARRANTY OF ANY KIND, EXPRESS OR IMPLIED, WITH 
  27:.\main.c      **** * REGARD TO THIS MATERIAL, INCLUDING, BUT NOT LIMITED TO, THE IMPLIED 
  28:.\main.c      **** * WARRANTIES OF MERCHANTABILITY AND FITNESS FOR A PARTICULAR PURPOSE.
  29:.\main.c      **** * Cypress reserves the right to make changes without further notice to the 
  30:.\main.c      **** * materials described herein. Cypress does not assume any liability arising out 
  31:.\main.c      **** * of the application or use of any product or circuit described herein. Cypress 
ARM GAS  C:\Users\Patrick\AppData\Local\Temp\cc1OctCg.s 			page 2


  32:.\main.c      **** * does not authorize its products for use as critical components in life-support 
  33:.\main.c      **** * systems where a malfunction or failure may reasonably be expected to result in 
  34:.\main.c      **** * significant injury to the user. The inclusion of Cypress' product in a life-
  35:.\main.c      **** * support systems application implies that the manufacturer assumes all risk of 
  36:.\main.c      **** * such use and in doing so indemnifies Cypress against all charges. 
  37:.\main.c      **** *
  38:.\main.c      **** * Use of this Software may be limited by and subject to the applicable Cypress
  39:.\main.c      **** * software license agreement. 
  40:.\main.c      **** *******************************************************************************/
  41:.\main.c      **** 
  42:.\main.c      **** #include <device.h>
  43:.\main.c      **** #include "stdio.h"
  44:.\main.c      **** #include "CAN_1_TX_RX_func.c"
  45:.\main.c      **** 
  46:.\main.c      **** /* Project Defines */
  47:.\main.c      **** #define SYSTICK_INTERRUPT_VECTOR_NUMBER 15u  //SysTick defines
  48:.\main.c      **** #define CLOCK_FREQ BCLK__BUS_CLK__HZ
  49:.\main.c      **** #define INTERRUPT_FREQ 100000u
  50:.\main.c      **** #define FALSE  0
  51:.\main.c      **** #define TRUE   1
  52:.\main.c      **** #define TRANSMIT_BUFFER_SIZE  50
  53:.\main.c      **** #define BUFF 64
  54:.\main.c      ****     uint8 TxMessage1[8];
  55:.\main.c      ****     uint8 RxMessage1[8];
  56:.\main.c      ****     uint8 RXDLC1;
  57:.\main.c      ****     uint8 RxFlag1;
  58:.\main.c      **** #define TIMER_RATE 100000
  59:.\main.c      ****     
  60:.\main.c      **** typedef unsigned char bool;
  61:.\main.c      ****     
  62:.\main.c      **** typedef struct Sensors {
  63:.\main.c      ****     uint16 data[BUFF];
  64:.\main.c      ****     uint32 accumulator;
  65:.\main.c      ****     uint8 number;
  66:.\main.c      ****     uint8 index;
  67:.\main.c      ****     uint8 window;
  68:.\main.c      ****     bool flag;
  69:.\main.c      ****     uint16 rate;
  70:.\main.c      **** }Sensor;
  71:.\main.c      **** 
  72:.\main.c      **** typedef struct Pots {
  73:.\main.c      ****     Sensor sensor;
  74:.\main.c      ****     int16 mV;
  75:.\main.c      **** }Pot;
  76:.\main.c      **** 
  77:.\main.c      **** typedef struct Encoders {
  78:.\main.c      ****     Sensor sensor;
  79:.\main.c      ****     float accumulator;
  80:.\main.c      ****     float rpm;
  81:.\main.c      **** }Encoder;
  82:.\main.c      ****     
  83:.\main.c      **** void GetSample(Pot * pot);
  84:.\main.c      **** void GetRPM(Encoder * encoder);
  85:.\main.c      **** void SensorSet(Sensor * sensor, uint8 number_set, uint8 window_set, uint16 rate_set);
  86:.\main.c      **** void PotInit(Pot * pot);
  87:.\main.c      **** void EncoderInit(Encoder * encoder);
  88:.\main.c      **** void CAN_Send(uint8 zero, uint8 one, uint8 two, uint8 three, uint8 four, uint8 five, uint8 six, uin
ARM GAS  C:\Users\Patrick\AppData\Local\Temp\cc1OctCg.s 			page 3


  89:.\main.c      **** void SetFlag(Sensor * sensor, bool flag_set);
  90:.\main.c      **** uint16 GetRate(Sensor * sensor);
  91:.\main.c      **** 
  92:.\main.c      **** uint32 timer=0;
  93:.\main.c      **** 
  94:.\main.c      **** Pot steering;
  95:.\main.c      **** Pot throttle;
  96:.\main.c      **** Encoder left;
  97:.\main.c      **** Encoder right;
  98:.\main.c      **** 
  99:.\main.c      **** CY_ISR(SysTick_ISR)
 100:.\main.c      **** {
  27              		.loc 1 100 0
  28              		.cfi_startproc
  29              		@ args = 0, pretend = 0, frame = 0
  30              		@ frame_needed = 0, uses_anonymous_args = 0
  31              		@ link register save eliminated.
  32 0000 70B4     		push	{r4, r5, r6}
  33              		.cfi_def_cfa_offset 12
  34              		.cfi_offset 4, -12
  35              		.cfi_offset 5, -8
  36              		.cfi_offset 6, -4
  37              	.LBB40:
  38              	.LBB41:
 101:.\main.c      ****     timer++;
 102:.\main.c      ****     if (timer     % GetRate(&throttle.sensor) == 0) { SetFlag(&throttle.sensor, TRUE); }
 103:.\main.c      ****     if ((timer+1) % GetRate(&steering.sensor) == 0) { SetFlag(&steering.sensor, TRUE); }
 104:.\main.c      ****     if ((timer+2) % GetRate(&left.sensor)    == 0) { SetFlag(&left.sensor, TRUE); }
 105:.\main.c      ****     if ((timer+3) % GetRate(&right.sensor)   == 0) { SetFlag(&right.sensor, TRUE); }
 106:.\main.c      ****     if (timer >= TIMER_RATE)        { timer = 0; }
 107:.\main.c      ****     /* no need to clear interrupt source */
 108:.\main.c      **** }
 109:.\main.c      **** 
 110:.\main.c      **** /*******************************************************************************
 111:.\main.c      **** * Function Name: main
 112:.\main.c      **** ********************************************************************************
 113:.\main.c      **** *
 114:.\main.c      **** * Summary:
 115:.\main.c      **** *  main() performs following functions:
 116:.\main.c      **** *  1: Starts the ADC and UART components.
 117:.\main.c      **** *  2: Checks for ADC end of conversion.  Stores latest result in output
 118:.\main.c      **** *     if conversion complete.
 119:.\main.c      **** *  3: Checks for UART input.
 120:.\main.c      **** *     On 'C' or 'c' received: transmits the last sample via the UART.
 121:.\main.c      **** *     On 'S' or 's' received: continuously transmits samples as they are completed.
 122:.\main.c      **** *     On 'X' or 'x' received: stops continuously transmitting samples.
 123:.\main.c      **** *     On 'E' or 'e' received: transmits a dummy byte of data.
 124:.\main.c      **** *
 125:.\main.c      **** * Parameters:
 126:.\main.c      **** *  None.
 127:.\main.c      **** *
 128:.\main.c      **** * Return:
 129:.\main.c      **** *  None.
 130:.\main.c      **** *
 131:.\main.c      **** *******************************************************************************/
 132:.\main.c      **** void main()
 133:.\main.c      **** {
ARM GAS  C:\Users\Patrick\AppData\Local\Temp\cc1OctCg.s 			page 4


 134:.\main.c      ****     /* Variable to store UART received character */
 135:.\main.c      ****     uint8 Ch;
 136:.\main.c      ****     /* Flags used to store transmit data commands */
 137:.\main.c      ****     uint8 ContinuouslySendData;
 138:.\main.c      ****     uint8 SendSingleByte;
 139:.\main.c      ****     /* Transmit Buffer */
 140:.\main.c      ****     char TransmitBuffer[TRANSMIT_BUFFER_SIZE];
 141:.\main.c      **** 
 142:.\main.c      ****     /* Start the components */
 143:.\main.c      ****     ADC_SAR_1_Start();
 144:.\main.c      ****     UART_1_Start();
 145:.\main.c      ****     AMux_1_Start();
 146:.\main.c      ****     Encoder_Left_Start();
 147:.\main.c      ****     Encoder_Right_Start();
 148:.\main.c      ****     leftEncTimer_Start();
 149:.\main.c      ****     rightEncTimer_Start();
 150:.\main.c      ****     AMux_1_FastSelect(0);
 151:.\main.c      ****     CAN_1_Start();
 152:.\main.c      ****     CAN_ISR_Start();
 153:.\main.c      ****     CAN_TIMER_Start();
 154:.\main.c      ****     
 155:.\main.c      ****     PotInit(&steering);
 156:.\main.c      ****     PotInit(&throttle);
 157:.\main.c      ****     EncoderInit(&left);
 158:.\main.c      ****     EncoderInit(&right);
 159:.\main.c      ****     
 160:.\main.c      ****     /*Point the Systick vector to the ISR in this file */
 161:.\main.c      ****     CyIntSetSysVector(SYSTICK_INTERRUPT_VECTOR_NUMBER, SysTick_ISR);
 162:.\main.c      ****     
 163:.\main.c      ****     /* Set the number of ticks between interrupts.
 164:.\main.c      ****     Ignore the function success/fail return value.
 165:.\main.c      ****     Defined in auto-generated core_cm3.h */
 166:.\main.c      ****     (void)SysTick_Config(CLOCK_FREQ / INTERRUPT_FREQ); 
 167:.\main.c      **** 
 168:.\main.c      ****     
 169:.\main.c      ****     CYGlobalIntEnable;
 170:.\main.c      **** 
 171:.\main.c      ****     
 172:.\main.c      ****     /* Initialize Variables */
 173:.\main.c      ****     ContinuouslySendData = FALSE;
 174:.\main.c      ****     SendSingleByte = FALSE;
 175:.\main.c      **** 
 176:.\main.c      ****     SensorSet(&steering.sensor, 0, 50, 200);
 177:.\main.c      ****     SensorSet(&throttle.sensor, 1, 50, 200);
 178:.\main.c      ****     SensorSet(&left.sensor, 0, 10, 200);
 179:.\main.c      ****     SensorSet(&right.sensor, 1, 10, 200);
 180:.\main.c      ****             
 181:.\main.c      ****     
 182:.\main.c      ****     
 183:.\main.c      ****     /* Send message to verify COM port is connected properly */
 184:.\main.c      ****     UART_1_PutString("\n\rCOM Port Open\n\r");
 185:.\main.c      ****     
 186:.\main.c      ****     for(;;)
 187:.\main.c      ****     {        
 188:.\main.c      ****         /* Non-blocking call to get the latest data recieved  */
 189:.\main.c      ****         Ch = UART_1_GetChar();
 190:.\main.c      ****         
ARM GAS  C:\Users\Patrick\AppData\Local\Temp\cc1OctCg.s 			page 5


 191:.\main.c      ****         /* Set flags based on UART command */
 192:.\main.c      ****         switch(Ch)
 193:.\main.c      ****         {
 194:.\main.c      ****             case 0:
 195:.\main.c      ****                 /* No new data was recieved */
 196:.\main.c      ****                 break;
 197:.\main.c      ****             case 'C':
 198:.\main.c      ****             case 'c':
 199:.\main.c      ****                 SendSingleByte = TRUE;
 200:.\main.c      ****                 break;
 201:.\main.c      ****             case 'S':
 202:.\main.c      ****             case 's':
 203:.\main.c      ****                 ContinuouslySendData = TRUE;
 204:.\main.c      ****                 break;
 205:.\main.c      ****             case 'X':
 206:.\main.c      ****             case 'x':
 207:.\main.c      ****                 ContinuouslySendData = FALSE;
 208:.\main.c      ****                 break;
 209:.\main.c      ****             default:
 210:.\main.c      ****                 /* Place error handling code here */
 211:.\main.c      ****                 break;    
 212:.\main.c      ****         }
 213:.\main.c      ****         
 214:.\main.c      ****         if(steering.sensor.flag==TRUE){
 215:.\main.c      ****             GetSample(&steering);
 216:.\main.c      ****         }
 217:.\main.c      ****         else if(throttle.sensor.flag==TRUE){
 218:.\main.c      ****             GetSample(&throttle);
 219:.\main.c      ****         }
 220:.\main.c      ****         else if(left.sensor.flag==TRUE){
 221:.\main.c      ****             GetRPM(&left);
 222:.\main.c      ****         }
 223:.\main.c      ****         else if(right.sensor.flag==TRUE){
 224:.\main.c      ****             GetRPM(&right);
 225:.\main.c      ****         }
 226:.\main.c      ****         
 227:.\main.c      ****         /* Send data based on last UART command */
 228:.\main.c      ****         if(SendSingleByte || ContinuouslySendData)
 229:.\main.c      ****         {
 230:.\main.c      ****             
 231:.\main.c      ****             /* Format ADC result for transmition */
 232:.\main.c      ****             sprintf(TransmitBuffer, "%d, %d, %d\n\r", steering.mV, (int)left.rpm, (int)right.rpm);
 233:.\main.c      ****             /* Send out the data */
 234:.\main.c      ****             UART_1_PutString(TransmitBuffer);
 235:.\main.c      ****             /* Reset the send once flag */
 236:.\main.c      ****             SendSingleByte = FALSE;        
 237:.\main.c      ****             
 238:.\main.c      ****         }
 239:.\main.c      ****         
 240:.\main.c      ****     }
 241:.\main.c      **** }
 242:.\main.c      **** 
 243:.\main.c      **** void GetSample( Pot * pot){
 244:.\main.c      ****     
 245:.\main.c      ****     /*This function applies a moving average filter to the data read by the ADC. Each sensor
 246:.\main.c      ****     *has an associated sensor struct that contains all necessary variables. The multiplexer
 247:.\main.c      ****     *is switched such that the intended sensor is read by the ADC. The if loop waits for the
ARM GAS  C:\Users\Patrick\AppData\Local\Temp\cc1OctCg.s 			page 6


 248:.\main.c      ****     *ADC to sample and then applies the circular buffer-based moving average.
 249:.\main.c      ****     *
 250:.\main.c      ****     *For serial debugging purposes, this function also converts the averaged sensor reading
 251:.\main.c      ****     *to a millivolt value.
 252:.\main.c      ****     *
 253:.\main.c      ****     */
 254:.\main.c      ****     AMux_1_FastSelect(pot->sensor.number);
 255:.\main.c      ****     ADC_SAR_1_StartConvert();
 256:.\main.c      ****     if(ADC_SAR_1_IsEndConversion(ADC_SAR_1_WAIT_FOR_RESULT))
 257:.\main.c      ****     {
 258:.\main.c      ****         pot->sensor.accumulator -= pot->sensor.data[pot->sensor.index];
 259:.\main.c      ****         pot->sensor.data[pot->sensor.index] = ADC_SAR_1_GetResult16();
 260:.\main.c      ****         pot->sensor.accumulator += pot->sensor.data[pot->sensor.index];
 261:.\main.c      ****     }
 262:.\main.c      ****     pot->sensor.index++;
 263:.\main.c      ****     if(pot->sensor.index==pot->sensor.window){
 264:.\main.c      ****         pot->sensor.index = 0;
 265:.\main.c      ****     }
 266:.\main.c      ****     
 267:.\main.c      ****     pot->mV = ADC_SAR_1_CountsTo_mVolts((pot->sensor.accumulator)/pot->sensor.window);
 268:.\main.c      ****     
 269:.\main.c      ****     pot->sensor.rate = FALSE;
 270:.\main.c      ****     
 271:.\main.c      **** }
 272:.\main.c      **** 
 273:.\main.c      **** void GetRPM(Encoder * encoder){
 274:.\main.c      **** 
 275:.\main.c      ****     /*This function applies a moving average filter to the number of encoder pulses
 276:.\main.c      ****     *counted by an encoder counter. Each encoder has an encoder struct that contains
 277:.\main.c      ****     *all of the relevant variables for an encoder. 
 278:.\main.c      ****     *
 279:.\main.c      ****     *The moving average filter implemented is the "shortcut" version, making use of a circular
 280:.\main.c      ****     *buffer to keep things speeds. 
 281:.\main.c      ****     *
 282:.\main.c      ****     *Each encoder has an associated hardware pulse counter and time counter. As of 8/19/16
 283:.\main.c      ****     *the time counter counts microseconds and the encoders are 600ppr. 
 284:.\main.c      ****     
 285:.\main.c      ****     *RPM is calculated as follows:
 286:.\main.c      ****     *(pulses)*(1 rev/600 pulses)*(1/microseconds)*(10^6 microseconds/second)*(60 seconds/minute)=rp
 287:.\main.c      ****     *
 288:.\main.c      ****     *This simplifies to (pulses * 100000) / (microseconds elapsed)
 289:.\main.c      ****     *
 290:.\main.c      ****     *With the current setup, the time counter does not reset and can only handle ~65milliseconds.
 291:.\main.c      ****     *
 292:.\main.c      ****     */
 293:.\main.c      ****     
 294:.\main.c      ****     
 295:.\main.c      ****     if(encoder->sensor.number == 0){ //calculate left rpm
 296:.\main.c      ****         encoder->sensor.accumulator -= encoder->sensor.data[encoder->sensor.index];
 297:.\main.c      ****         encoder->sensor.data[encoder->sensor.index] = Encoder_Left_ReadCounter();
 298:.\main.c      ****         Encoder_Left_WriteCounter(0); //clear the pulse counter
 299:.\main.c      ****         encoder->accumulator += encoder->sensor.data[encoder->sensor.index];
 300:.\main.c      ****         
 301:.\main.c      ****         
 302:.\main.c      ****         
 303:.\main.c      ****         encoder->rpm = (encoder->accumulator/encoder->sensor.window) * 100000 / (leftEncTimer_ReadC
 304:.\main.c      ****         leftEncTimer_WriteCounter(0); //clear the microsecond counter
ARM GAS  C:\Users\Patrick\AppData\Local\Temp\cc1OctCg.s 			page 7


 305:.\main.c      ****     }
 306:.\main.c      ****     
 307:.\main.c      ****     if(encoder->sensor.number == 1){ //calculate right rpm
 308:.\main.c      ****         encoder->sensor.accumulator -= encoder->sensor.data[encoder->sensor.index];
 309:.\main.c      ****         encoder->sensor.data[encoder->sensor.index] = Encoder_Right_ReadCounter();
 310:.\main.c      ****         Encoder_Right_WriteCounter(0); //clear the pulse counter
 311:.\main.c      ****         encoder->accumulator += encoder->sensor.data[encoder->sensor.index];
 312:.\main.c      ****         
 313:.\main.c      ****         encoder->rpm = (encoder->accumulator/encoder->sensor.window) * 100000 / (rightEncTimer_Read
 314:.\main.c      ****         rightEncTimer_WriteCounter(0); //clear the microsecond counter
 315:.\main.c      ****     }
 316:.\main.c      ****     
 317:.\main.c      ****     encoder->sensor.index++;
 318:.\main.c      ****     if(encoder->sensor.index >= encoder->sensor.window){
 319:.\main.c      ****         encoder->sensor.index = 0;
 320:.\main.c      ****     }
 321:.\main.c      ****     
 322:.\main.c      ****     encoder->sensor.flag = FALSE;
 323:.\main.c      **** 
 324:.\main.c      **** }
 325:.\main.c      **** 
 326:.\main.c      **** void SensorSet(Sensor * sensor, uint8 number_set, uint8 window_set, uint16 rate_set){
 327:.\main.c      ****     sensor->number = number_set;
 328:.\main.c      ****     sensor->window = window_set;
 329:.\main.c      ****     sensor->rate = rate_set;
 330:.\main.c      ****     if(window_set>=BUFF){
 331:.\main.c      ****         sensor->window = BUFF;
 332:.\main.c      ****     }
 333:.\main.c      **** }
 334:.\main.c      **** 
 335:.\main.c      **** void PotInit(Pot * pot){
 336:.\main.c      ****     int i = 0;
 337:.\main.c      ****     pot->sensor.accumulator = 0;
 338:.\main.c      ****     pot->mV = 0;
 339:.\main.c      ****     pot->sensor.index = 0;
 340:.\main.c      ****     pot->sensor.flag = 0;
 341:.\main.c      ****     for(i=0;i<BUFF;i++){
 342:.\main.c      ****         pot->sensor.data[i]=0;
 343:.\main.c      ****     }
 344:.\main.c      **** }
 345:.\main.c      **** 
 346:.\main.c      **** void EncoderInit(Encoder * encoder){
 347:.\main.c      ****     int i = 0;
 348:.\main.c      ****     encoder->accumulator = 0;
 349:.\main.c      ****     encoder->rpm = 0;
 350:.\main.c      ****     encoder->sensor.index = 0;
 351:.\main.c      ****     encoder->sensor.flag = 0;
 352:.\main.c      ****     for(i=0;i<BUFF;i++){
 353:.\main.c      ****         encoder->sensor.data[i]=0;
 354:.\main.c      ****     }
 355:.\main.c      **** }
 356:.\main.c      **** 
 357:.\main.c      **** void CAN_Send(uint8 zero, uint8 one, uint8 two, uint8 three, uint8 four, uint8 five, uint8 six, uin
 358:.\main.c      ****     TxMessage1[0] = zero;
 359:.\main.c      ****     TxMessage1[1] = one;
 360:.\main.c      ****     TxMessage1[2] = two;
 361:.\main.c      ****     TxMessage1[3] = three;
ARM GAS  C:\Users\Patrick\AppData\Local\Temp\cc1OctCg.s 			page 8


 362:.\main.c      ****     TxMessage1[4] = four;
 363:.\main.c      ****     TxMessage1[5] = five;
 364:.\main.c      ****     TxMessage1[6] = six;
 365:.\main.c      ****     TxMessage1[7] = seven;
 366:.\main.c      **** }
 367:.\main.c      ****     
 368:.\main.c      **** void SetFlag(Sensor * sensor, bool flag_set){
 369:.\main.c      ****     sensor->flag = flag_set;
 370:.\main.c      **** }
 371:.\main.c      **** 
 372:.\main.c      **** uint16 GetRate(Sensor * sensor){
 373:.\main.c      ****     return INTERRUPT_FREQ/(sensor->rate);
  39              		.loc 1 373 0
  40 0002 264D     		ldr	r5, .L9
  41 0004 264B     		ldr	r3, .L9+4
  42 0006 B5F88820 		ldrh	r2, [r5, #136]
  43              	.LBE41:
  44              	.LBE40:
 101:.\main.c      ****     timer++;
  45              		.loc 1 101 0
  46 000a 2648     		ldr	r0, .L9+8
  47              	.LBB43:
  48              	.LBB42:
  49              		.loc 1 373 0
  50 000c B3FBF2F2 		udiv	r2, r3, r2
  51              	.LBE42:
  52              	.LBE43:
 101:.\main.c      ****     timer++;
  53              		.loc 1 101 0
  54 0010 0368     		ldr	r3, [r0]
 102:.\main.c      ****     if ((timer+1) % GetRate(&steering.sensor) == 0) { SetFlag(&steering.sensor, TRUE); }
  55              		.loc 1 102 0
  56 0012 92B2     		uxth	r2, r2
 101:.\main.c      ****     timer++;
  57              		.loc 1 101 0
  58 0014 5C1C     		adds	r4, r3, #1
 102:.\main.c      ****     if ((timer+1) % GetRate(&steering.sensor) == 0) { SetFlag(&steering.sensor, TRUE); }
  59              		.loc 1 102 0
  60 0016 B4FBF2F1 		udiv	r1, r4, r2
  61 001a 02FB1142 		mls	r2, r2, r1, r4
 101:.\main.c      ****     timer++;
  62              		.loc 1 101 0
  63 001e 0460     		str	r4, [r0]
  64              	.LVL0:
 102:.\main.c      ****     if ((timer+1) % GetRate(&steering.sensor) == 0) { SetFlag(&steering.sensor, TRUE); }
  65              		.loc 1 102 0
  66 0020 12B9     		cbnz	r2, .L2
  67              	.LVL1:
  68              	.LBB44:
  69              	.LBB45:
 369:.\main.c      **** }
  70              		.loc 1 369 0
  71 0022 0122     		movs	r2, #1
  72 0024 85F88720 		strb	r2, [r5, #135]
  73              	.LVL2:
  74              	.L2:
  75              	.LBE45:
ARM GAS  C:\Users\Patrick\AppData\Local\Temp\cc1OctCg.s 			page 9


  76              	.LBE44:
  77              	.LBB46:
  78              	.LBB47:
  79              		.loc 1 373 0
  80 0028 1F4E     		ldr	r6, .L9+12
  81 002a 1D49     		ldr	r1, .L9+4
  82 002c B6F88820 		ldrh	r2, [r6, #136]
  83              	.LBE47:
  84              	.LBE46:
 103:.\main.c      ****     if ((timer+2) % GetRate(&left.sensor)    == 0) { SetFlag(&left.sensor, TRUE); }
  85              		.loc 1 103 0
  86 0030 9D1C     		adds	r5, r3, #2
  87              	.LBB49:
  88              	.LBB48:
  89              		.loc 1 373 0
  90 0032 B1FBF2F2 		udiv	r2, r1, r2
  91              	.LBE48:
  92              	.LBE49:
 103:.\main.c      ****     if ((timer+2) % GetRate(&left.sensor)    == 0) { SetFlag(&left.sensor, TRUE); }
  93              		.loc 1 103 0
  94 0036 92B2     		uxth	r2, r2
  95 0038 2946     		mov	r1, r5
  96 003a B5FBF2F5 		udiv	r5, r5, r2
  97 003e 02FB1512 		mls	r2, r2, r5, r1
  98 0042 12B9     		cbnz	r2, .L3
  99              	.LVL3:
 100              	.LBB50:
 101              	.LBB51:
 369:.\main.c      **** }
 102              		.loc 1 369 0
 103 0044 0122     		movs	r2, #1
 104 0046 86F88720 		strb	r2, [r6, #135]
 105              	.LVL4:
 106              	.L3:
 107              	.LBE51:
 108              	.LBE50:
 109              	.LBB52:
 110              	.LBB53:
 111              		.loc 1 373 0
 112 004a 184E     		ldr	r6, .L9+16
 113 004c 1449     		ldr	r1, .L9+4
 114 004e B6F88820 		ldrh	r2, [r6, #136]
 115              	.LBE53:
 116              	.LBE52:
 104:.\main.c      ****     if ((timer+3) % GetRate(&right.sensor)   == 0) { SetFlag(&right.sensor, TRUE); }
 117              		.loc 1 104 0
 118 0052 DD1C     		adds	r5, r3, #3
 119              	.LBB55:
 120              	.LBB54:
 121              		.loc 1 373 0
 122 0054 B1FBF2F2 		udiv	r2, r1, r2
 123              	.LBE54:
 124              	.LBE55:
 104:.\main.c      ****     if ((timer+3) % GetRate(&right.sensor)   == 0) { SetFlag(&right.sensor, TRUE); }
 125              		.loc 1 104 0
 126 0058 92B2     		uxth	r2, r2
 127 005a 2946     		mov	r1, r5
ARM GAS  C:\Users\Patrick\AppData\Local\Temp\cc1OctCg.s 			page 10


 128 005c B5FBF2F5 		udiv	r5, r5, r2
 129 0060 02FB1512 		mls	r2, r2, r5, r1
 130 0064 12B9     		cbnz	r2, .L4
 131              	.LVL5:
 132              	.LBB56:
 133              	.LBB57:
 369:.\main.c      **** }
 134              		.loc 1 369 0
 135 0066 0122     		movs	r2, #1
 136 0068 86F88720 		strb	r2, [r6, #135]
 137              	.LVL6:
 138              	.L4:
 139              	.LBE57:
 140              	.LBE56:
 141              	.LBB58:
 142              	.LBB59:
 143              		.loc 1 373 0
 144 006c 104D     		ldr	r5, .L9+20
 145 006e 0C4A     		ldr	r2, .L9+4
 146 0070 B5F88810 		ldrh	r1, [r5, #136]
 147              	.LBE59:
 148              	.LBE58:
 105:.\main.c      ****     if (timer >= TIMER_RATE)        { timer = 0; }
 149              		.loc 1 105 0
 150 0074 0433     		adds	r3, r3, #4
 151              	.LBB61:
 152              	.LBB60:
 153              		.loc 1 373 0
 154 0076 B2FBF1F2 		udiv	r2, r2, r1
 155              	.LBE60:
 156              	.LBE61:
 105:.\main.c      ****     if (timer >= TIMER_RATE)        { timer = 0; }
 157              		.loc 1 105 0
 158 007a 92B2     		uxth	r2, r2
 159 007c B3FBF2F1 		udiv	r1, r3, r2
 160 0080 02FB1133 		mls	r3, r2, r1, r3
 161 0084 13B9     		cbnz	r3, .L5
 162              	.LVL7:
 163              	.LBB62:
 164              	.LBB63:
 369:.\main.c      **** }
 165              		.loc 1 369 0
 166 0086 0123     		movs	r3, #1
 167 0088 85F88730 		strb	r3, [r5, #135]
 168              	.LVL8:
 169              	.L5:
 170              	.LBE63:
 171              	.LBE62:
 106:.\main.c      ****     /* no need to clear interrupt source */
 172              		.loc 1 106 0
 173 008c 094B     		ldr	r3, .L9+24
 174 008e 9C42     		cmp	r4, r3
 175 0090 84BF     		itt	hi
 176 0092 0023     		movhi	r3, #0
 177 0094 0360     		strhi	r3, [r0]
 108:.\main.c      **** 
 178              		.loc 1 108 0
ARM GAS  C:\Users\Patrick\AppData\Local\Temp\cc1OctCg.s 			page 11


 179 0096 70BC     		pop	{r4, r5, r6}
 180              		.cfi_restore 6
 181              		.cfi_restore 5
 182              		.cfi_restore 4
 183              		.cfi_def_cfa_offset 0
 184 0098 7047     		bx	lr
 185              	.L10:
 186 009a 00BF     		.align	2
 187              	.L9:
 188 009c 00000000 		.word	throttle
 189 00a0 A0860100 		.word	100000
 190 00a4 00000000 		.word	.LANCHOR0
 191 00a8 00000000 		.word	steering
 192 00ac 00000000 		.word	left
 193 00b0 00000000 		.word	right
 194 00b4 9F860100 		.word	99999
 195              		.cfi_endproc
 196              	.LFE67:
 197              		.size	SysTick_ISR, .-SysTick_ISR
 198              		.section	.text.CAN_1_SendMsg,"ax",%progbits
 199              		.align	2
 200              		.global	CAN_1_SendMsg
 201              		.thumb
 202              		.thumb_func
 203              		.type	CAN_1_SendMsg, %function
 204              	CAN_1_SendMsg:
 205              	.LFB63:
 206              		.file 2 "Generated_Source\\PSoC5/CAN_1_TX_RX_func.c"
   1:Generated_Source\PSoC5/CAN_1_TX_RX_func.c **** /*******************************************************************************
   2:Generated_Source\PSoC5/CAN_1_TX_RX_func.c **** * File Name: CAN_1_TX_RX_func.c
   3:Generated_Source\PSoC5/CAN_1_TX_RX_func.c **** * Version 3.0
   4:Generated_Source\PSoC5/CAN_1_TX_RX_func.c **** *
   5:Generated_Source\PSoC5/CAN_1_TX_RX_func.c **** * Description:
   6:Generated_Source\PSoC5/CAN_1_TX_RX_func.c **** *  There are functions process "Full" Receive and Transmit mailboxes:
   7:Generated_Source\PSoC5/CAN_1_TX_RX_func.c **** *     - CAN_1_SendMsg0-7();
   8:Generated_Source\PSoC5/CAN_1_TX_RX_func.c **** *     - CAN_1_ReceiveMsg0-15();
   9:Generated_Source\PSoC5/CAN_1_TX_RX_func.c **** *  Transmission of message, and receive routine for "Basic" mailboxes:
  10:Generated_Source\PSoC5/CAN_1_TX_RX_func.c **** *     - CAN_1_SendMsg();
  11:Generated_Source\PSoC5/CAN_1_TX_RX_func.c **** *     - CAN_1_TxCancel();
  12:Generated_Source\PSoC5/CAN_1_TX_RX_func.c **** *     - CAN_1_ReceiveMsg();
  13:Generated_Source\PSoC5/CAN_1_TX_RX_func.c **** *
  14:Generated_Source\PSoC5/CAN_1_TX_RX_func.c **** *  Note:
  15:Generated_Source\PSoC5/CAN_1_TX_RX_func.c **** *   None
  16:Generated_Source\PSoC5/CAN_1_TX_RX_func.c **** *
  17:Generated_Source\PSoC5/CAN_1_TX_RX_func.c **** ********************************************************************************
  18:Generated_Source\PSoC5/CAN_1_TX_RX_func.c **** * Copyright 2008-2015, Cypress Semiconductor Corporation.  All rights reserved.
  19:Generated_Source\PSoC5/CAN_1_TX_RX_func.c **** * You may use this file only in accordance with the license, terms, conditions,
  20:Generated_Source\PSoC5/CAN_1_TX_RX_func.c **** * disclaimers, and limitations in the end user license agreement accompanying
  21:Generated_Source\PSoC5/CAN_1_TX_RX_func.c **** * the software package with which this file was provided.
  22:Generated_Source\PSoC5/CAN_1_TX_RX_func.c **** *******************************************************************************/
  23:Generated_Source\PSoC5/CAN_1_TX_RX_func.c **** 
  24:Generated_Source\PSoC5/CAN_1_TX_RX_func.c **** #include "CAN_1.h"
  25:Generated_Source\PSoC5/CAN_1_TX_RX_func.c **** 
  26:Generated_Source\PSoC5/CAN_1_TX_RX_func.c **** 
  27:Generated_Source\PSoC5/CAN_1_TX_RX_func.c **** /* `#START TX_RX_FUNCTION` */
  28:Generated_Source\PSoC5/CAN_1_TX_RX_func.c **** 
  29:Generated_Source\PSoC5/CAN_1_TX_RX_func.c **** #define DATALENGTH1 0x08
ARM GAS  C:\Users\Patrick\AppData\Local\Temp\cc1OctCg.s 			page 12


  30:Generated_Source\PSoC5/CAN_1_TX_RX_func.c **** extern uint8 TxMessage1[8];
  31:Generated_Source\PSoC5/CAN_1_TX_RX_func.c **** extern uint8 RxMessage1[8];
  32:Generated_Source\PSoC5/CAN_1_TX_RX_func.c **** extern uint8 RXDLC1;
  33:Generated_Source\PSoC5/CAN_1_TX_RX_func.c **** extern uint8 RxFlag1;
  34:Generated_Source\PSoC5/CAN_1_TX_RX_func.c **** uint8 bIndex;
  35:Generated_Source\PSoC5/CAN_1_TX_RX_func.c **** 
  36:Generated_Source\PSoC5/CAN_1_TX_RX_func.c **** /* `#END` */
  37:Generated_Source\PSoC5/CAN_1_TX_RX_func.c **** 
  38:Generated_Source\PSoC5/CAN_1_TX_RX_func.c **** 
  39:Generated_Source\PSoC5/CAN_1_TX_RX_func.c **** /*******************************************************************************
  40:Generated_Source\PSoC5/CAN_1_TX_RX_func.c **** * FUNCTION NAME:   CAN_1_SendMsg
  41:Generated_Source\PSoC5/CAN_1_TX_RX_func.c **** ********************************************************************************
  42:Generated_Source\PSoC5/CAN_1_TX_RX_func.c **** *
  43:Generated_Source\PSoC5/CAN_1_TX_RX_func.c **** * Summary:
  44:Generated_Source\PSoC5/CAN_1_TX_RX_func.c **** *  This function is Send Message from one of Basic mailboxes. The function loops
  45:Generated_Source\PSoC5/CAN_1_TX_RX_func.c **** *  through the transmit message buffer designed as Basic CAN mailboxes for the
  46:Generated_Source\PSoC5/CAN_1_TX_RX_func.c **** *  first free available and sends from it. The number of retries is limited.
  47:Generated_Source\PSoC5/CAN_1_TX_RX_func.c **** *
  48:Generated_Source\PSoC5/CAN_1_TX_RX_func.c **** * Parameters:
  49:Generated_Source\PSoC5/CAN_1_TX_RX_func.c **** *  message: The pointer to a structure that contains all required data to send
  50:Generated_Source\PSoC5/CAN_1_TX_RX_func.c **** *           messages.
  51:Generated_Source\PSoC5/CAN_1_TX_RX_func.c **** *
  52:Generated_Source\PSoC5/CAN_1_TX_RX_func.c **** * Return:
  53:Generated_Source\PSoC5/CAN_1_TX_RX_func.c **** *  Indication if message has been sent.
  54:Generated_Source\PSoC5/CAN_1_TX_RX_func.c **** *   Define                             Description
  55:Generated_Source\PSoC5/CAN_1_TX_RX_func.c **** *    CYRET_SUCCESS                      The function passed successfully
  56:Generated_Source\PSoC5/CAN_1_TX_RX_func.c **** *    CAN_1_FAIL              The function failed
  57:Generated_Source\PSoC5/CAN_1_TX_RX_func.c **** *
  58:Generated_Source\PSoC5/CAN_1_TX_RX_func.c **** *******************************************************************************/
  59:Generated_Source\PSoC5/CAN_1_TX_RX_func.c **** uint8 CAN_1_SendMsg(const CAN_1_TX_MSG *message) 
  60:Generated_Source\PSoC5/CAN_1_TX_RX_func.c **** {
 207              		.loc 2 60 0
 208              		.cfi_startproc
 209              		@ args = 0, pretend = 0, frame = 0
 210              		@ frame_needed = 0, uses_anonymous_args = 0
 211              		@ link register save eliminated.
 212              	.LVL9:
 213 0000 30B4     		push	{r4, r5}
 214              		.cfi_def_cfa_offset 8
 215              		.cfi_offset 4, -8
 216              		.cfi_offset 5, -4
  61:Generated_Source\PSoC5/CAN_1_TX_RX_func.c ****     uint8 i, j, shift;
  62:Generated_Source\PSoC5/CAN_1_TX_RX_func.c ****     uint8 retry = 0u;
  63:Generated_Source\PSoC5/CAN_1_TX_RX_func.c ****     uint8 result = CAN_1_FAIL;
  64:Generated_Source\PSoC5/CAN_1_TX_RX_func.c ****     uint32 regTemp;
  65:Generated_Source\PSoC5/CAN_1_TX_RX_func.c **** 
  66:Generated_Source\PSoC5/CAN_1_TX_RX_func.c ****     while (retry < CAN_1_RETRY_NUMBER)
  67:Generated_Source\PSoC5/CAN_1_TX_RX_func.c ****     {
  68:Generated_Source\PSoC5/CAN_1_TX_RX_func.c ****         shift = 1u;    /* Start from first mailbox */
  69:Generated_Source\PSoC5/CAN_1_TX_RX_func.c ****         for (i = 0u; i < CAN_1_NUMBER_OF_TX_MAILBOXES; i++)
  70:Generated_Source\PSoC5/CAN_1_TX_RX_func.c ****         {
  71:Generated_Source\PSoC5/CAN_1_TX_RX_func.c ****             /* Find Basic TX mailboxes */
  72:Generated_Source\PSoC5/CAN_1_TX_RX_func.c ****             if ((CAN_1_TX_MAILBOX_TYPE & shift) == 0u)
  73:Generated_Source\PSoC5/CAN_1_TX_RX_func.c ****             {
  74:Generated_Source\PSoC5/CAN_1_TX_RX_func.c ****                 /* Find free mailbox */
  75:Generated_Source\PSoC5/CAN_1_TX_RX_func.c ****                 #if (CY_PSOC3 || CY_PSOC5)
  76:Generated_Source\PSoC5/CAN_1_TX_RX_func.c ****                     if ((CAN_1_BUF_SR_REG.byte[2] & shift) == 0u)
ARM GAS  C:\Users\Patrick\AppData\Local\Temp\cc1OctCg.s 			page 13


 217              		.loc 2 76 0
 218 0002 5B4B     		ldr	r3, .L51
 219 0004 9A78     		ldrb	r2, [r3, #2]	@ zero_extendqisi2
 220 0006 9107     		lsls	r1, r2, #30
 221 0008 68D5     		bpl	.L31
 222              	.LVL10:
 223 000a 9A78     		ldrb	r2, [r3, #2]	@ zero_extendqisi2
 224 000c 5207     		lsls	r2, r2, #29
 225 000e 67D4     		bmi	.L49
 226              	.L39:
  69:Generated_Source\PSoC5/CAN_1_TX_RX_func.c ****         {
 227              		.loc 2 69 0
 228 0010 0221     		movs	r1, #2
 229              	.LVL11:
 230              	.L12:
  77:Generated_Source\PSoC5/CAN_1_TX_RX_func.c ****                 #else  /* CY_PSOC4 */
  78:Generated_Source\PSoC5/CAN_1_TX_RX_func.c ****                     if ((CAN_1_BUF_SR_REG &
  79:Generated_Source\PSoC5/CAN_1_TX_RX_func.c ****                         (uint32) ((uint32) shift << CAN_1_TWO_BYTE_OFFSET)) == 0u)
  80:Generated_Source\PSoC5/CAN_1_TX_RX_func.c ****                 #endif /* CY_PSOC3 || CY_PSOC5 */
  81:Generated_Source\PSoC5/CAN_1_TX_RX_func.c ****                     {
  82:Generated_Source\PSoC5/CAN_1_TX_RX_func.c ****                         regTemp = 0u;
  83:Generated_Source\PSoC5/CAN_1_TX_RX_func.c **** 
  84:Generated_Source\PSoC5/CAN_1_TX_RX_func.c ****                         /* Set message parameters */
  85:Generated_Source\PSoC5/CAN_1_TX_RX_func.c ****                         if (message->rtr != CAN_1_STANDARD_MESSAGE)
 231              		.loc 2 85 0
 232 0012 0279     		ldrb	r2, [r0, #4]	@ zero_extendqisi2
  86:Generated_Source\PSoC5/CAN_1_TX_RX_func.c ****                         {
  87:Generated_Source\PSoC5/CAN_1_TX_RX_func.c ****                             regTemp = CAN_1_TX_RTR_MASK;    /* RTR message Enable */
  88:Generated_Source\PSoC5/CAN_1_TX_RX_func.c ****                         }
  89:Generated_Source\PSoC5/CAN_1_TX_RX_func.c **** 
  90:Generated_Source\PSoC5/CAN_1_TX_RX_func.c ****                         if (message->ide == CAN_1_STANDARD_MESSAGE)
 233              		.loc 2 90 0
 234 0014 4379     		ldrb	r3, [r0, #5]	@ zero_extendqisi2
  85:Generated_Source\PSoC5/CAN_1_TX_RX_func.c ****                         {
 235              		.loc 2 85 0
 236 0016 002A     		cmp	r2, #0
 237 0018 0BBF     		itete	eq
 238 001a 4FF48014 		moveq	r4, #1048576
 239 001e 4FF44014 		movne	r4, #3145728
 240 0022 0022     		moveq	r2, #0
 241 0024 4FF40012 		movne	r2, #2097152
 242              	.LVL12:
 243              		.loc 2 90 0
 244 0028 002B     		cmp	r3, #0
 245 002a 4FD1     		bne	.L15
  91:Generated_Source\PSoC5/CAN_1_TX_RX_func.c ****                         {
  92:Generated_Source\PSoC5/CAN_1_TX_RX_func.c ****                             CAN_1_SET_TX_ID_STANDARD_MSG(i, message->id);
 246              		.loc 2 92 0
 247 002c 0468     		ldr	r4, [r0]
 248 002e 514B     		ldr	r3, .L51+4
 249 0030 0901     		lsls	r1, r1, #4
 250 0032 0B44     		add	r3, r3, r1
 251 0034 6405     		lsls	r4, r4, #21
 252 0036 5C60     		str	r4, [r3, #4]
 253              	.L16:
  93:Generated_Source\PSoC5/CAN_1_TX_RX_func.c ****                         }
  94:Generated_Source\PSoC5/CAN_1_TX_RX_func.c ****                         else
ARM GAS  C:\Users\Patrick\AppData\Local\Temp\cc1OctCg.s 			page 14


  95:Generated_Source\PSoC5/CAN_1_TX_RX_func.c ****                         {
  96:Generated_Source\PSoC5/CAN_1_TX_RX_func.c ****                             regTemp |= CAN_1_TX_IDE_MASK;
  97:Generated_Source\PSoC5/CAN_1_TX_RX_func.c ****                             CAN_1_SET_TX_ID_EXTENDED_MSG(i, message->id);
  98:Generated_Source\PSoC5/CAN_1_TX_RX_func.c ****                         }
  99:Generated_Source\PSoC5/CAN_1_TX_RX_func.c **** 
 100:Generated_Source\PSoC5/CAN_1_TX_RX_func.c ****                         if (message->dlc < CAN_1_TX_DLC_MAX_VALUE)
 254              		.loc 2 100 0
 255 0038 8179     		ldrb	r1, [r0, #6]	@ zero_extendqisi2
 101:Generated_Source\PSoC5/CAN_1_TX_RX_func.c ****                         {
 102:Generated_Source\PSoC5/CAN_1_TX_RX_func.c ****                             regTemp |= ((uint32) message->dlc) << CAN_1_TWO_BYTE_OFFSET;
 103:Generated_Source\PSoC5/CAN_1_TX_RX_func.c ****                         }
 104:Generated_Source\PSoC5/CAN_1_TX_RX_func.c ****                         else
 105:Generated_Source\PSoC5/CAN_1_TX_RX_func.c ****                         {
 106:Generated_Source\PSoC5/CAN_1_TX_RX_func.c ****                             regTemp |= CAN_1_TX_DLC_UPPER_VALUE;
 107:Generated_Source\PSoC5/CAN_1_TX_RX_func.c ****                         }
 108:Generated_Source\PSoC5/CAN_1_TX_RX_func.c **** 
 109:Generated_Source\PSoC5/CAN_1_TX_RX_func.c ****                         if (message->irq != CAN_1_TRANSMIT_INT_DISABLE)
 256              		.loc 2 109 0
 257 003a C479     		ldrb	r4, [r0, #7]	@ zero_extendqisi2
 100:Generated_Source\PSoC5/CAN_1_TX_RX_func.c ****                         {
 258              		.loc 2 100 0
 259 003c 0729     		cmp	r1, #7
 102:Generated_Source\PSoC5/CAN_1_TX_RX_func.c ****                         }
 260              		.loc 2 102 0
 261 003e 94BF     		ite	ls
 262 0040 42EA0142 		orrls	r2, r2, r1, lsl #16
 263              	.LVL13:
 106:Generated_Source\PSoC5/CAN_1_TX_RX_func.c ****                         }
 264              		.loc 2 106 0
 265 0044 42F40022 		orrhi	r2, r2, #524288
 266              	.LVL14:
 267              		.loc 2 109 0
 268 0048 0CB1     		cbz	r4, .L19
 110:Generated_Source\PSoC5/CAN_1_TX_RX_func.c ****                         {
 111:Generated_Source\PSoC5/CAN_1_TX_RX_func.c ****                             regTemp |= CAN_1_TX_INT_ENABLE_MASK;    /* Transmit Interrupt Enable */
 269              		.loc 2 111 0
 270 004a 42F00402 		orr	r2, r2, #4
 271              	.LVL15:
 272              	.L19:
 112:Generated_Source\PSoC5/CAN_1_TX_RX_func.c ****                         }
 113:Generated_Source\PSoC5/CAN_1_TX_RX_func.c **** 
 114:Generated_Source\PSoC5/CAN_1_TX_RX_func.c ****                         for (j = 0u; (j < message->dlc) && (j < CAN_1_TX_DLC_MAX_VALUE); j++)
 273              		.loc 2 114 0
 274 004e 0029     		cmp	r1, #0
 275 0050 2CD0     		beq	.L21
 115:Generated_Source\PSoC5/CAN_1_TX_RX_func.c ****                         {
 116:Generated_Source\PSoC5/CAN_1_TX_RX_func.c ****                             #if (CY_PSOC3 || CY_PSOC5)
 117:Generated_Source\PSoC5/CAN_1_TX_RX_func.c ****                                 CAN_1_TX_DATA_BYTE(i, j) = message->msg->byte[j];
 276              		.loc 2 117 0
 277 0052 8168     		ldr	r1, [r0, #8]
 278 0054 0978     		ldrb	r1, [r1]	@ zero_extendqisi2
 279 0056 D972     		strb	r1, [r3, #11]
 280              	.LVL16:
 114:Generated_Source\PSoC5/CAN_1_TX_RX_func.c ****                         {
 281              		.loc 2 114 0
 282 0058 8179     		ldrb	r1, [r0, #6]	@ zero_extendqisi2
 283 005a 0129     		cmp	r1, #1
ARM GAS  C:\Users\Patrick\AppData\Local\Temp\cc1OctCg.s 			page 15


 284 005c 26D9     		bls	.L21
 285              		.loc 2 117 0
 286 005e 8168     		ldr	r1, [r0, #8]
 287 0060 4978     		ldrb	r1, [r1, #1]	@ zero_extendqisi2
 288 0062 9972     		strb	r1, [r3, #10]
 289              	.LVL17:
 114:Generated_Source\PSoC5/CAN_1_TX_RX_func.c ****                         {
 290              		.loc 2 114 0
 291 0064 8179     		ldrb	r1, [r0, #6]	@ zero_extendqisi2
 292 0066 0229     		cmp	r1, #2
 293 0068 20D9     		bls	.L21
 294              		.loc 2 117 0
 295 006a 8168     		ldr	r1, [r0, #8]
 296 006c 8978     		ldrb	r1, [r1, #2]	@ zero_extendqisi2
 297 006e 5972     		strb	r1, [r3, #9]
 298              	.LVL18:
 114:Generated_Source\PSoC5/CAN_1_TX_RX_func.c ****                         {
 299              		.loc 2 114 0
 300 0070 8179     		ldrb	r1, [r0, #6]	@ zero_extendqisi2
 301 0072 0329     		cmp	r1, #3
 302 0074 1AD9     		bls	.L21
 303              		.loc 2 117 0
 304 0076 8168     		ldr	r1, [r0, #8]
 305 0078 C978     		ldrb	r1, [r1, #3]	@ zero_extendqisi2
 306 007a 1972     		strb	r1, [r3, #8]
 307              	.LVL19:
 114:Generated_Source\PSoC5/CAN_1_TX_RX_func.c ****                         {
 308              		.loc 2 114 0
 309 007c 8179     		ldrb	r1, [r0, #6]	@ zero_extendqisi2
 310 007e 0429     		cmp	r1, #4
 311 0080 14D9     		bls	.L21
 312              		.loc 2 117 0
 313 0082 8168     		ldr	r1, [r0, #8]
 314 0084 0979     		ldrb	r1, [r1, #4]	@ zero_extendqisi2
 315 0086 D973     		strb	r1, [r3, #15]
 316              	.LVL20:
 114:Generated_Source\PSoC5/CAN_1_TX_RX_func.c ****                         {
 317              		.loc 2 114 0
 318 0088 8179     		ldrb	r1, [r0, #6]	@ zero_extendqisi2
 319 008a 0529     		cmp	r1, #5
 320 008c 0ED9     		bls	.L21
 321              		.loc 2 117 0
 322 008e 8168     		ldr	r1, [r0, #8]
 323 0090 4979     		ldrb	r1, [r1, #5]	@ zero_extendqisi2
 324 0092 9973     		strb	r1, [r3, #14]
 325              	.LVL21:
 114:Generated_Source\PSoC5/CAN_1_TX_RX_func.c ****                         {
 326              		.loc 2 114 0
 327 0094 8179     		ldrb	r1, [r0, #6]	@ zero_extendqisi2
 328 0096 0629     		cmp	r1, #6
 329 0098 08D9     		bls	.L21
 330              		.loc 2 117 0
 331 009a 8168     		ldr	r1, [r0, #8]
 332 009c 8979     		ldrb	r1, [r1, #6]	@ zero_extendqisi2
 333 009e 5973     		strb	r1, [r3, #13]
 334              	.LVL22:
 114:Generated_Source\PSoC5/CAN_1_TX_RX_func.c ****                         {
ARM GAS  C:\Users\Patrick\AppData\Local\Temp\cc1OctCg.s 			page 16


 335              		.loc 2 114 0
 336 00a0 8179     		ldrb	r1, [r0, #6]	@ zero_extendqisi2
 337 00a2 0729     		cmp	r1, #7
 338 00a4 02D9     		bls	.L21
 339              		.loc 2 117 0
 340 00a6 8168     		ldr	r1, [r0, #8]
 341 00a8 C979     		ldrb	r1, [r1, #7]	@ zero_extendqisi2
 342 00aa 1973     		strb	r1, [r3, #12]
 343              	.LVL23:
 344              	.L21:
 118:Generated_Source\PSoC5/CAN_1_TX_RX_func.c ****                             #else /* CY_PSOC4 */
 119:Generated_Source\PSoC5/CAN_1_TX_RX_func.c ****                                 CAN_1_TX_DATA_BYTE(i, j, message->msg->byte[j]);
 120:Generated_Source\PSoC5/CAN_1_TX_RX_func.c ****                             #endif /* CY_PSOC3 || CY_PSOC5 */
 121:Generated_Source\PSoC5/CAN_1_TX_RX_func.c ****                         }
 122:Generated_Source\PSoC5/CAN_1_TX_RX_func.c **** 
 123:Generated_Source\PSoC5/CAN_1_TX_RX_func.c ****                         /* Disable isr */
 124:Generated_Source\PSoC5/CAN_1_TX_RX_func.c ****     CyIntDisable(CAN_1_ISR_NUMBER);
 345              		.loc 2 124 0
 346 00ac 3248     		ldr	r0, .L51+8
 347              	.LVL24:
 125:Generated_Source\PSoC5/CAN_1_TX_RX_func.c **** 
 126:Generated_Source\PSoC5/CAN_1_TX_RX_func.c ****                         /* WPN[23] and WPN[3] set to 1 for write to CAN Control reg */
 127:Generated_Source\PSoC5/CAN_1_TX_RX_func.c ****                         CY_SET_REG32(CAN_1_TX_CMD_PTR(i), (regTemp | CAN_1_TX_WPN_SET));
 348              		.loc 2 127 0
 349 00ae 42F40002 		orr	r2, r2, #8388608
 350              	.LVL25:
 128:Generated_Source\PSoC5/CAN_1_TX_RX_func.c **** 
 129:Generated_Source\PSoC5/CAN_1_TX_RX_func.c ****                         #if (CY_PSOC3 || CY_PSOC5)
 130:Generated_Source\PSoC5/CAN_1_TX_RX_func.c ****                             CY_SET_REG32(CAN_1_TX_CMD_PTR(i), CAN_1_SEND_MESSAGE);
 131:Generated_Source\PSoC5/CAN_1_TX_RX_func.c ****                         #else /* CY_PSOC4 */
 132:Generated_Source\PSoC5/CAN_1_TX_RX_func.c ****                             if (message->sst != CAN_1_STANDARD_MESSAGE)
 133:Generated_Source\PSoC5/CAN_1_TX_RX_func.c ****                             {
 134:Generated_Source\PSoC5/CAN_1_TX_RX_func.c ****                                 /* Single Shot Transmission */
 135:Generated_Source\PSoC5/CAN_1_TX_RX_func.c ****                                 CAN_1_TX_CMD_REG(i) |= CAN_1_SEND_MESSAGE |
 136:Generated_Source\PSoC5/CAN_1_TX_RX_func.c ****                                 CAN_1_TX_ABORT_MASK;
 137:Generated_Source\PSoC5/CAN_1_TX_RX_func.c ****                             }
 138:Generated_Source\PSoC5/CAN_1_TX_RX_func.c ****                             else
 139:Generated_Source\PSoC5/CAN_1_TX_RX_func.c ****                             {
 140:Generated_Source\PSoC5/CAN_1_TX_RX_func.c ****                                 CAN_1_TX_CMD_REG(i) |= CAN_1_SEND_MESSAGE;
 141:Generated_Source\PSoC5/CAN_1_TX_RX_func.c ****                             }
 142:Generated_Source\PSoC5/CAN_1_TX_RX_func.c ****                         #endif /* CY_PSOC3 || CY_PSOC5 */
 143:Generated_Source\PSoC5/CAN_1_TX_RX_func.c **** 
 144:Generated_Source\PSoC5/CAN_1_TX_RX_func.c ****                         /* Enable isr */
 145:Generated_Source\PSoC5/CAN_1_TX_RX_func.c ****     CyIntEnable(CAN_1_ISR_NUMBER);
 351              		.loc 2 145 0
 352 00b2 324C     		ldr	r4, .L51+12
 124:Generated_Source\PSoC5/CAN_1_TX_RX_func.c **** 
 353              		.loc 2 124 0
 354 00b4 4FF48031 		mov	r1, #65536
 127:Generated_Source\PSoC5/CAN_1_TX_RX_func.c **** 
 355              		.loc 2 127 0
 356 00b8 42F00802 		orr	r2, r2, #8
 130:Generated_Source\PSoC5/CAN_1_TX_RX_func.c ****                         #else /* CY_PSOC4 */
 357              		.loc 2 130 0
 358 00bc 0125     		movs	r5, #1
 124:Generated_Source\PSoC5/CAN_1_TX_RX_func.c **** 
 359              		.loc 2 124 0
ARM GAS  C:\Users\Patrick\AppData\Local\Temp\cc1OctCg.s 			page 17


 360 00be 0160     		str	r1, [r0]
 127:Generated_Source\PSoC5/CAN_1_TX_RX_func.c **** 
 361              		.loc 2 127 0
 362 00c0 1A60     		str	r2, [r3]
 363              		.loc 2 145 0
 364 00c2 0020     		movs	r0, #0
 130:Generated_Source\PSoC5/CAN_1_TX_RX_func.c ****                         #else /* CY_PSOC4 */
 365              		.loc 2 130 0
 366 00c4 1D60     		str	r5, [r3]
 367              		.loc 2 145 0
 368 00c6 2160     		str	r1, [r4]
 369              	.LVL26:
 370              	.L23:
 146:Generated_Source\PSoC5/CAN_1_TX_RX_func.c **** 
 147:Generated_Source\PSoC5/CAN_1_TX_RX_func.c ****                         result = CYRET_SUCCESS;
 148:Generated_Source\PSoC5/CAN_1_TX_RX_func.c ****                     }
 149:Generated_Source\PSoC5/CAN_1_TX_RX_func.c ****             }
 150:Generated_Source\PSoC5/CAN_1_TX_RX_func.c ****             shift <<= 1u;
 151:Generated_Source\PSoC5/CAN_1_TX_RX_func.c ****             if (result == CYRET_SUCCESS)
 152:Generated_Source\PSoC5/CAN_1_TX_RX_func.c ****             {
 153:Generated_Source\PSoC5/CAN_1_TX_RX_func.c ****                 break;
 154:Generated_Source\PSoC5/CAN_1_TX_RX_func.c ****             }
 155:Generated_Source\PSoC5/CAN_1_TX_RX_func.c ****         }
 156:Generated_Source\PSoC5/CAN_1_TX_RX_func.c ****         if (result == CYRET_SUCCESS)
 157:Generated_Source\PSoC5/CAN_1_TX_RX_func.c ****         {
 158:Generated_Source\PSoC5/CAN_1_TX_RX_func.c ****             break;
 159:Generated_Source\PSoC5/CAN_1_TX_RX_func.c ****         }
 160:Generated_Source\PSoC5/CAN_1_TX_RX_func.c ****         else
 161:Generated_Source\PSoC5/CAN_1_TX_RX_func.c ****         {
 162:Generated_Source\PSoC5/CAN_1_TX_RX_func.c ****             retry++;
 163:Generated_Source\PSoC5/CAN_1_TX_RX_func.c ****         }
 164:Generated_Source\PSoC5/CAN_1_TX_RX_func.c ****     }
 165:Generated_Source\PSoC5/CAN_1_TX_RX_func.c **** 
 166:Generated_Source\PSoC5/CAN_1_TX_RX_func.c ****     return (result);
 167:Generated_Source\PSoC5/CAN_1_TX_RX_func.c **** }
 371              		.loc 2 167 0
 372 00c8 30BC     		pop	{r4, r5}
 373              		.cfi_remember_state
 374              		.cfi_restore 5
 375              		.cfi_restore 4
 376              		.cfi_def_cfa_offset 0
 377 00ca 7047     		bx	lr
 378              	.LVL27:
 379              	.L15:
 380              		.cfi_restore_state
  96:Generated_Source\PSoC5/CAN_1_TX_RX_func.c ****                             CAN_1_SET_TX_ID_EXTENDED_MSG(i, message->id);
 381              		.loc 2 96 0
 382 00cc 2246     		mov	r2, r4
  97:Generated_Source\PSoC5/CAN_1_TX_RX_func.c ****                         }
 383              		.loc 2 97 0
 384 00ce 294B     		ldr	r3, .L51+4
 385 00d0 0468     		ldr	r4, [r0]
 386              	.LVL28:
 387 00d2 0901     		lsls	r1, r1, #4
 388 00d4 0B44     		add	r3, r3, r1
 389 00d6 E400     		lsls	r4, r4, #3
 390 00d8 5C60     		str	r4, [r3, #4]
ARM GAS  C:\Users\Patrick\AppData\Local\Temp\cc1OctCg.s 			page 18


 391 00da ADE7     		b	.L16
 392              	.LVL29:
 393              	.L31:
  69:Generated_Source\PSoC5/CAN_1_TX_RX_func.c ****         {
 394              		.loc 2 69 0
 395 00dc 0121     		movs	r1, #1
 396 00de 98E7     		b	.L12
 397              	.LVL30:
 398              	.L49:
  76:Generated_Source\PSoC5/CAN_1_TX_RX_func.c ****                 #else  /* CY_PSOC4 */
 399              		.loc 2 76 0
 400 00e0 9A78     		ldrb	r2, [r3, #2]	@ zero_extendqisi2
 401 00e2 1507     		lsls	r5, r2, #28
 402 00e4 01D4     		bmi	.L50
 403              	.L40:
  69:Generated_Source\PSoC5/CAN_1_TX_RX_func.c ****         {
 404              		.loc 2 69 0
 405 00e6 0321     		movs	r1, #3
 406 00e8 93E7     		b	.L12
 407              	.L50:
 408              	.LVL31:
  76:Generated_Source\PSoC5/CAN_1_TX_RX_func.c ****                 #else  /* CY_PSOC4 */
 409              		.loc 2 76 0
 410 00ea 9A78     		ldrb	r2, [r3, #2]	@ zero_extendqisi2
 411 00ec D106     		lsls	r1, r2, #27
 412 00ee 37D5     		bpl	.L41
 413              	.LVL32:
 414 00f0 9A78     		ldrb	r2, [r3, #2]	@ zero_extendqisi2
 415 00f2 9206     		lsls	r2, r2, #26
 416 00f4 36D5     		bpl	.L42
 417              	.LVL33:
 418 00f6 9A78     		ldrb	r2, [r3, #2]	@ zero_extendqisi2
 419 00f8 5506     		lsls	r5, r2, #25
 420 00fa 35D5     		bpl	.L43
 421              	.LVL34:
 422 00fc 9A78     		ldrb	r2, [r3, #2]	@ zero_extendqisi2
 423 00fe 1106     		lsls	r1, r2, #24
 424 0100 34D5     		bpl	.L44
 425              	.LVL35:
 426 0102 9A78     		ldrb	r2, [r3, #2]	@ zero_extendqisi2
 427 0104 9207     		lsls	r2, r2, #30
 428 0106 E9D5     		bpl	.L31
 429              	.LVL36:
 430 0108 9A78     		ldrb	r2, [r3, #2]	@ zero_extendqisi2
 431 010a 5507     		lsls	r5, r2, #29
 432 010c 80D5     		bpl	.L39
 433              	.LVL37:
 434 010e 9B78     		ldrb	r3, [r3, #2]	@ zero_extendqisi2
 435 0110 1907     		lsls	r1, r3, #28
 436 0112 E8D5     		bpl	.L40
 437              	.LVL38:
 438 0114 164B     		ldr	r3, .L51
 439 0116 9A78     		ldrb	r2, [r3, #2]	@ zero_extendqisi2
 440 0118 D206     		lsls	r2, r2, #27
 441 011a 21D5     		bpl	.L41
 442              	.LVL39:
 443 011c 9A78     		ldrb	r2, [r3, #2]	@ zero_extendqisi2
ARM GAS  C:\Users\Patrick\AppData\Local\Temp\cc1OctCg.s 			page 19


 444 011e 9506     		lsls	r5, r2, #26
 445 0120 20D5     		bpl	.L42
 446              	.LVL40:
 447 0122 9A78     		ldrb	r2, [r3, #2]	@ zero_extendqisi2
 448 0124 5106     		lsls	r1, r2, #25
 449 0126 1FD5     		bpl	.L43
 450              	.LVL41:
 451 0128 9A78     		ldrb	r2, [r3, #2]	@ zero_extendqisi2
 452 012a 1206     		lsls	r2, r2, #24
 453 012c 1ED5     		bpl	.L44
 454              	.LVL42:
 455 012e 9A78     		ldrb	r2, [r3, #2]	@ zero_extendqisi2
 456 0130 9507     		lsls	r5, r2, #30
 457 0132 D3D5     		bpl	.L31
 458              	.LVL43:
 459 0134 9A78     		ldrb	r2, [r3, #2]	@ zero_extendqisi2
 460 0136 5107     		lsls	r1, r2, #29
 461 0138 7FF56AAF 		bpl	.L39
 462              	.LVL44:
 463 013c 9A78     		ldrb	r2, [r3, #2]	@ zero_extendqisi2
 464 013e 1207     		lsls	r2, r2, #28
 465 0140 D1D5     		bpl	.L40
 466              	.LVL45:
 467 0142 9A78     		ldrb	r2, [r3, #2]	@ zero_extendqisi2
 468 0144 D506     		lsls	r5, r2, #27
 469 0146 0BD5     		bpl	.L41
 470              	.LVL46:
 471 0148 9A78     		ldrb	r2, [r3, #2]	@ zero_extendqisi2
 472 014a 9106     		lsls	r1, r2, #26
 473 014c 0AD5     		bpl	.L42
 474              	.LVL47:
 475 014e 9B78     		ldrb	r3, [r3, #2]	@ zero_extendqisi2
 476 0150 5A06     		lsls	r2, r3, #25
 477 0152 09D5     		bpl	.L43
 478              	.LVL48:
 479 0154 064B     		ldr	r3, .L51
 480 0156 9B78     		ldrb	r3, [r3, #2]	@ zero_extendqisi2
 481 0158 1B06     		lsls	r3, r3, #24
 482 015a 07D5     		bpl	.L44
 483 015c 0120     		movs	r0, #1
 484              	.LVL49:
 485 015e B3E7     		b	.L23
 486              	.LVL50:
 487              	.L41:
  69:Generated_Source\PSoC5/CAN_1_TX_RX_func.c ****         {
 488              		.loc 2 69 0
 489 0160 0421     		movs	r1, #4
 490 0162 56E7     		b	.L12
 491              	.LVL51:
 492              	.L42:
 493 0164 0521     		movs	r1, #5
 494 0166 54E7     		b	.L12
 495              	.LVL52:
 496              	.L43:
 497 0168 0621     		movs	r1, #6
 498 016a 52E7     		b	.L12
 499              	.LVL53:
ARM GAS  C:\Users\Patrick\AppData\Local\Temp\cc1OctCg.s 			page 20


 500              	.L44:
 501 016c 0721     		movs	r1, #7
 502 016e 50E7     		b	.L12
 503              	.L52:
 504              		.align	2
 505              	.L51:
 506 0170 08A00040 		.word	1073782792
 507 0174 20A00040 		.word	1073782816
 508 0178 80E100E0 		.word	-536813184
 509 017c 00E100E0 		.word	-536813312
 510              		.cfi_endproc
 511              	.LFE63:
 512              		.size	CAN_1_SendMsg, .-CAN_1_SendMsg
 513              		.section	.text.CAN_1_TxCancel,"ax",%progbits
 514              		.align	2
 515              		.global	CAN_1_TxCancel
 516              		.thumb
 517              		.thumb_func
 518              		.type	CAN_1_TxCancel, %function
 519              	CAN_1_TxCancel:
 520              	.LFB64:
 168:Generated_Source\PSoC5/CAN_1_TX_RX_func.c **** 
 169:Generated_Source\PSoC5/CAN_1_TX_RX_func.c **** 
 170:Generated_Source\PSoC5/CAN_1_TX_RX_func.c **** /*******************************************************************************
 171:Generated_Source\PSoC5/CAN_1_TX_RX_func.c **** * FUNCTION NAME:   CAN_1_TxCancel
 172:Generated_Source\PSoC5/CAN_1_TX_RX_func.c **** ********************************************************************************
 173:Generated_Source\PSoC5/CAN_1_TX_RX_func.c **** *
 174:Generated_Source\PSoC5/CAN_1_TX_RX_func.c **** * Summary:
 175:Generated_Source\PSoC5/CAN_1_TX_RX_func.c **** *  This function cancels transmission of a message that has been queued to be
 176:Generated_Source\PSoC5/CAN_1_TX_RX_func.c **** *  transmitted. Values between 0 and 7 are valid.
 177:Generated_Source\PSoC5/CAN_1_TX_RX_func.c **** *
 178:Generated_Source\PSoC5/CAN_1_TX_RX_func.c **** * Parameters:
 179:Generated_Source\PSoC5/CAN_1_TX_RX_func.c **** *  bufferId: The mailbox number.
 180:Generated_Source\PSoC5/CAN_1_TX_RX_func.c **** *
 181:Generated_Source\PSoC5/CAN_1_TX_RX_func.c **** * Return:
 182:Generated_Source\PSoC5/CAN_1_TX_RX_func.c **** *  None.
 183:Generated_Source\PSoC5/CAN_1_TX_RX_func.c **** *
 184:Generated_Source\PSoC5/CAN_1_TX_RX_func.c **** *******************************************************************************/
 185:Generated_Source\PSoC5/CAN_1_TX_RX_func.c **** void CAN_1_TxCancel(uint8 bufferId) 
 186:Generated_Source\PSoC5/CAN_1_TX_RX_func.c **** {
 521              		.loc 2 186 0
 522              		.cfi_startproc
 523              		@ args = 0, pretend = 0, frame = 0
 524              		@ frame_needed = 0, uses_anonymous_args = 0
 525              		@ link register save eliminated.
 526              	.LVL54:
 187:Generated_Source\PSoC5/CAN_1_TX_RX_func.c ****     if (bufferId < CAN_1_NUMBER_OF_TX_MAILBOXES)
 527              		.loc 2 187 0
 528 0000 0728     		cmp	r0, #7
 529 0002 07D8     		bhi	.L53
 188:Generated_Source\PSoC5/CAN_1_TX_RX_func.c ****     {
 189:Generated_Source\PSoC5/CAN_1_TX_RX_func.c ****         CAN_1_TX_ABORT_MESSAGE(bufferId);
 530              		.loc 2 189 0
 531 0004 044A     		ldr	r2, .L55
 532 0006 0001     		lsls	r0, r0, #4
 533              	.LVL55:
 534 0008 835C     		ldrb	r3, [r0, r2]	@ zero_extendqisi2
ARM GAS  C:\Users\Patrick\AppData\Local\Temp\cc1OctCg.s 			page 21


 535 000a 03F0FC03 		and	r3, r3, #252
 536 000e 43F00203 		orr	r3, r3, #2
 537 0012 8354     		strb	r3, [r0, r2]
 538              	.L53:
 539 0014 7047     		bx	lr
 540              	.L56:
 541 0016 00BF     		.align	2
 542              	.L55:
 543 0018 20A00040 		.word	1073782816
 544              		.cfi_endproc
 545              	.LFE64:
 546              		.size	CAN_1_TxCancel, .-CAN_1_TxCancel
 547              		.section	.text.CAN_1_SendMsg0,"ax",%progbits
 548              		.align	2
 549              		.global	CAN_1_SendMsg0
 550              		.thumb
 551              		.thumb_func
 552              		.type	CAN_1_SendMsg0, %function
 553              	CAN_1_SendMsg0:
 554              	.LFB65:
 190:Generated_Source\PSoC5/CAN_1_TX_RX_func.c ****     }
 191:Generated_Source\PSoC5/CAN_1_TX_RX_func.c **** }
 192:Generated_Source\PSoC5/CAN_1_TX_RX_func.c **** 
 193:Generated_Source\PSoC5/CAN_1_TX_RX_func.c **** 
 194:Generated_Source\PSoC5/CAN_1_TX_RX_func.c **** #if (CAN_1_TX0_FUNC_ENABLE)
 195:Generated_Source\PSoC5/CAN_1_TX_RX_func.c ****     /*******************************************************************************
 196:Generated_Source\PSoC5/CAN_1_TX_RX_func.c ****     * FUNCTION NAME:   CAN_1_SendMsg0
 197:Generated_Source\PSoC5/CAN_1_TX_RX_func.c ****     ********************************************************************************
 198:Generated_Source\PSoC5/CAN_1_TX_RX_func.c ****     *
 199:Generated_Source\PSoC5/CAN_1_TX_RX_func.c ****     * Summary:
 200:Generated_Source\PSoC5/CAN_1_TX_RX_func.c ****     *  This function is the entry point to Transmit Message 0. The function checks
 201:Generated_Source\PSoC5/CAN_1_TX_RX_func.c ****     *  if mailbox 0 doesn't already have un-transmitted messages waiting for
 202:Generated_Source\PSoC5/CAN_1_TX_RX_func.c ****     *  arbitration. If not initiate transmission of the message.
 203:Generated_Source\PSoC5/CAN_1_TX_RX_func.c ****     *  Generated only for the Transmit mailbox designed as Full.
 204:Generated_Source\PSoC5/CAN_1_TX_RX_func.c ****     *
 205:Generated_Source\PSoC5/CAN_1_TX_RX_func.c ****     * Parameters:
 206:Generated_Source\PSoC5/CAN_1_TX_RX_func.c ****     *  None.
 207:Generated_Source\PSoC5/CAN_1_TX_RX_func.c ****     *
 208:Generated_Source\PSoC5/CAN_1_TX_RX_func.c ****     * Return:
 209:Generated_Source\PSoC5/CAN_1_TX_RX_func.c ****     *  Indication if Message has been sent.
 210:Generated_Source\PSoC5/CAN_1_TX_RX_func.c ****     *   Define                             Description
 211:Generated_Source\PSoC5/CAN_1_TX_RX_func.c ****     *    CYRET_SUCCESS                      The function passed successfully
 212:Generated_Source\PSoC5/CAN_1_TX_RX_func.c ****     *    CAN_1_FAIL              The function failed
 213:Generated_Source\PSoC5/CAN_1_TX_RX_func.c ****     *
 214:Generated_Source\PSoC5/CAN_1_TX_RX_func.c ****     *******************************************************************************/
 215:Generated_Source\PSoC5/CAN_1_TX_RX_func.c ****     uint8 CAN_1_SendMsg0(void) 
 216:Generated_Source\PSoC5/CAN_1_TX_RX_func.c ****     {
 555              		.loc 2 216 0
 556              		.cfi_startproc
 557              		@ args = 0, pretend = 0, frame = 0
 558              		@ frame_needed = 0, uses_anonymous_args = 0
 559              	.LVL56:
 217:Generated_Source\PSoC5/CAN_1_TX_RX_func.c ****         uint8 result = CYRET_SUCCESS;
 218:Generated_Source\PSoC5/CAN_1_TX_RX_func.c **** 
 219:Generated_Source\PSoC5/CAN_1_TX_RX_func.c ****         #if (CY_PSOC3 || CY_PSOC5)
 220:Generated_Source\PSoC5/CAN_1_TX_RX_func.c ****             if ((CAN_1_TX[0u].txcmd.byte[0u] & CAN_1_TX_REQUEST_PENDING) != 0u)
 560              		.loc 2 220 0
ARM GAS  C:\Users\Patrick\AppData\Local\Temp\cc1OctCg.s 			page 22


 561 0000 154B     		ldr	r3, .L62
 562 0002 1878     		ldrb	r0, [r3]	@ zero_extendqisi2
 563 0004 10F00100 		ands	r0, r0, #1
 564 0008 23D1     		bne	.L59
 216:Generated_Source\PSoC5/CAN_1_TX_RX_func.c ****         uint8 result = CYRET_SUCCESS;
 565              		.loc 2 216 0
 566 000a 2DE9F043 		push	{r4, r5, r6, r7, r8, r9, lr}
 567              		.cfi_def_cfa_offset 28
 568              		.cfi_offset 4, -28
 569              		.cfi_offset 5, -24
 570              		.cfi_offset 6, -20
 571              		.cfi_offset 7, -16
 572              		.cfi_offset 8, -12
 573              		.cfi_offset 9, -8
 574              		.cfi_offset 14, -4
 221:Generated_Source\PSoC5/CAN_1_TX_RX_func.c ****         #else  /* CY_PSOC4 */
 222:Generated_Source\PSoC5/CAN_1_TX_RX_func.c ****             if ((CAN_1_TX_CMD_REG(0u) & CAN_1_TX_REQUEST_PENDING) != 0u)
 223:Generated_Source\PSoC5/CAN_1_TX_RX_func.c ****         #endif /* CY_PSOC3 || CY_PSOC5 */
 224:Generated_Source\PSoC5/CAN_1_TX_RX_func.c ****             {
 225:Generated_Source\PSoC5/CAN_1_TX_RX_func.c ****                 result = CAN_1_FAIL;
 226:Generated_Source\PSoC5/CAN_1_TX_RX_func.c ****             }
 227:Generated_Source\PSoC5/CAN_1_TX_RX_func.c ****             else
 228:Generated_Source\PSoC5/CAN_1_TX_RX_func.c ****             {
 229:Generated_Source\PSoC5/CAN_1_TX_RX_func.c ****                 /* `#START MESSAGE_0_TRASMITTED` */
 230:Generated_Source\PSoC5/CAN_1_TX_RX_func.c ****                 for(bIndex=0;bIndex<DATALENGTH1;bIndex++){
 231:Generated_Source\PSoC5/CAN_1_TX_RX_func.c ****                     CAN_1_TX_DATA_BYTE(0,bIndex) = TxMessage1[bIndex];
 575              		.loc 2 231 0
 576 000e 134A     		ldr	r2, .L62+4
 577 0010 1349     		ldr	r1, .L62+8
 578 0012 92F80090 		ldrb	r9, [r2]	@ zero_extendqisi2
 579 0016 92F80180 		ldrb	r8, [r2, #1]	@ zero_extendqisi2
 580 001a 92F802C0 		ldrb	ip, [r2, #2]	@ zero_extendqisi2
 581 001e 92F803E0 		ldrb	lr, [r2, #3]	@ zero_extendqisi2
 582 0022 1779     		ldrb	r7, [r2, #4]	@ zero_extendqisi2
 583 0024 5679     		ldrb	r6, [r2, #5]	@ zero_extendqisi2
 584 0026 9579     		ldrb	r5, [r2, #6]	@ zero_extendqisi2
 585 0028 D479     		ldrb	r4, [r2, #7]	@ zero_extendqisi2
 586 002a 0822     		movs	r2, #8
 587 002c 83F80B90 		strb	r9, [r3, #11]
 588 0030 83F80A80 		strb	r8, [r3, #10]
 589 0034 83F809C0 		strb	ip, [r3, #9]
 590 0038 83F808E0 		strb	lr, [r3, #8]
 591 003c DF73     		strb	r7, [r3, #15]
 592 003e 9E73     		strb	r6, [r3, #14]
 593 0040 5D73     		strb	r5, [r3, #13]
 594 0042 1C73     		strb	r4, [r3, #12]
 595 0044 0A70     		strb	r2, [r1]
 232:Generated_Source\PSoC5/CAN_1_TX_RX_func.c ****                 }
 233:Generated_Source\PSoC5/CAN_1_TX_RX_func.c ****                 /* `#END` */
 234:Generated_Source\PSoC5/CAN_1_TX_RX_func.c **** 
 235:Generated_Source\PSoC5/CAN_1_TX_RX_func.c ****                 #ifdef CAN_1_SEND_MSG_0_CALLBACK
 236:Generated_Source\PSoC5/CAN_1_TX_RX_func.c ****                     CAN_1_SendMsg_0_Callback();
 237:Generated_Source\PSoC5/CAN_1_TX_RX_func.c ****                 #endif /* CAN_1_SEND_MSG_0_CALLBACK */
 238:Generated_Source\PSoC5/CAN_1_TX_RX_func.c **** 
 239:Generated_Source\PSoC5/CAN_1_TX_RX_func.c ****                 CY_SET_REG32(CAN_1_TX_CMD_PTR(0u),
 596              		.loc 2 239 0
 597 0046 1A68     		ldr	r2, [r3]
ARM GAS  C:\Users\Patrick\AppData\Local\Temp\cc1OctCg.s 			page 23


 598 0048 42F00102 		orr	r2, r2, #1
 599 004c 1A60     		str	r2, [r3]
 600 004e BDE8F083 		pop	{r4, r5, r6, r7, r8, r9, pc}
 601              	.L59:
 602              		.cfi_def_cfa_offset 0
 603              		.cfi_restore 4
 604              		.cfi_restore 5
 605              		.cfi_restore 6
 606              		.cfi_restore 7
 607              		.cfi_restore 8
 608              		.cfi_restore 9
 609              		.cfi_restore 14
 225:Generated_Source\PSoC5/CAN_1_TX_RX_func.c ****             }
 610              		.loc 2 225 0
 611 0052 0120     		movs	r0, #1
 612 0054 7047     		bx	lr
 613              	.L63:
 614 0056 00BF     		.align	2
 615              	.L62:
 616 0058 20A00040 		.word	1073782816
 617 005c 00000000 		.word	TxMessage1
 618 0060 00000000 		.word	bIndex
 619              		.cfi_endproc
 620              	.LFE65:
 621              		.size	CAN_1_SendMsg0, .-CAN_1_SendMsg0
 622              		.section	.text.CAN_1_ReceiveMsg,"ax",%progbits
 623              		.align	2
 624              		.global	CAN_1_ReceiveMsg
 625              		.thumb
 626              		.thumb_func
 627              		.type	CAN_1_ReceiveMsg, %function
 628              	CAN_1_ReceiveMsg:
 629              	.LFB66:
 240:Generated_Source\PSoC5/CAN_1_TX_RX_func.c ****                 CY_GET_REG32(CAN_1_TX_CMD_PTR(0u)) | CAN_1_SEND_MESSAGE);
 241:Generated_Source\PSoC5/CAN_1_TX_RX_func.c ****             }
 242:Generated_Source\PSoC5/CAN_1_TX_RX_func.c **** 
 243:Generated_Source\PSoC5/CAN_1_TX_RX_func.c ****         return (result);
 244:Generated_Source\PSoC5/CAN_1_TX_RX_func.c ****     }
 245:Generated_Source\PSoC5/CAN_1_TX_RX_func.c **** #endif /* CAN_1_TX0_FUNC_ENABLE */
 246:Generated_Source\PSoC5/CAN_1_TX_RX_func.c **** 
 247:Generated_Source\PSoC5/CAN_1_TX_RX_func.c **** 
 248:Generated_Source\PSoC5/CAN_1_TX_RX_func.c **** #if (CAN_1_TX1_FUNC_ENABLE)
 249:Generated_Source\PSoC5/CAN_1_TX_RX_func.c ****     /*******************************************************************************
 250:Generated_Source\PSoC5/CAN_1_TX_RX_func.c ****     * FUNCTION NAME:   CAN_1_SendMsg1
 251:Generated_Source\PSoC5/CAN_1_TX_RX_func.c ****     ********************************************************************************
 252:Generated_Source\PSoC5/CAN_1_TX_RX_func.c ****     *
 253:Generated_Source\PSoC5/CAN_1_TX_RX_func.c ****     * Summary:
 254:Generated_Source\PSoC5/CAN_1_TX_RX_func.c ****     *  This function is the entry point to Transmit Message 1. The function checks
 255:Generated_Source\PSoC5/CAN_1_TX_RX_func.c ****     *  if mailbox 1 doesn't already have un-transmitted messages waiting for
 256:Generated_Source\PSoC5/CAN_1_TX_RX_func.c ****     *  arbitration. If not initiate transmission of the message.
 257:Generated_Source\PSoC5/CAN_1_TX_RX_func.c ****     *  Generated only for the Transmit mailbox designed as Full.
 258:Generated_Source\PSoC5/CAN_1_TX_RX_func.c ****     *
 259:Generated_Source\PSoC5/CAN_1_TX_RX_func.c ****     * Parameters:
 260:Generated_Source\PSoC5/CAN_1_TX_RX_func.c ****     *  None.
 261:Generated_Source\PSoC5/CAN_1_TX_RX_func.c ****     *
 262:Generated_Source\PSoC5/CAN_1_TX_RX_func.c ****     * Return:
 263:Generated_Source\PSoC5/CAN_1_TX_RX_func.c ****     *  Indication if Message has been sent.
ARM GAS  C:\Users\Patrick\AppData\Local\Temp\cc1OctCg.s 			page 24


 264:Generated_Source\PSoC5/CAN_1_TX_RX_func.c ****     *   Define                             Description
 265:Generated_Source\PSoC5/CAN_1_TX_RX_func.c ****     *    CYRET_SUCCESS                      The function passed successfully
 266:Generated_Source\PSoC5/CAN_1_TX_RX_func.c ****     *    CAN_1_FAIL              The function failed
 267:Generated_Source\PSoC5/CAN_1_TX_RX_func.c ****     *
 268:Generated_Source\PSoC5/CAN_1_TX_RX_func.c ****     *******************************************************************************/
 269:Generated_Source\PSoC5/CAN_1_TX_RX_func.c ****     uint8 CAN_1_SendMsg1(void) 
 270:Generated_Source\PSoC5/CAN_1_TX_RX_func.c ****     {
 271:Generated_Source\PSoC5/CAN_1_TX_RX_func.c ****         uint8 result = CYRET_SUCCESS;
 272:Generated_Source\PSoC5/CAN_1_TX_RX_func.c **** 
 273:Generated_Source\PSoC5/CAN_1_TX_RX_func.c ****         #if (CY_PSOC3 || CY_PSOC5)
 274:Generated_Source\PSoC5/CAN_1_TX_RX_func.c ****             if ((CAN_1_TX[1u].txcmd.byte[0u] & CAN_1_TX_REQUEST_PENDING) != 0u)
 275:Generated_Source\PSoC5/CAN_1_TX_RX_func.c ****         #else  /* CY_PSOC4 */
 276:Generated_Source\PSoC5/CAN_1_TX_RX_func.c ****             if ((CAN_1_TX_CMD_REG(1u) & CAN_1_TX_REQUEST_PENDING) != 0u)
 277:Generated_Source\PSoC5/CAN_1_TX_RX_func.c ****         #endif /* CY_PSOC3 || CY_PSOC5 */
 278:Generated_Source\PSoC5/CAN_1_TX_RX_func.c ****             {
 279:Generated_Source\PSoC5/CAN_1_TX_RX_func.c ****                 result = CAN_1_FAIL;
 280:Generated_Source\PSoC5/CAN_1_TX_RX_func.c ****             }
 281:Generated_Source\PSoC5/CAN_1_TX_RX_func.c ****             else
 282:Generated_Source\PSoC5/CAN_1_TX_RX_func.c ****             {
 283:Generated_Source\PSoC5/CAN_1_TX_RX_func.c ****                 /* `#START MESSAGE_1_TRASMITTED` */
 284:Generated_Source\PSoC5/CAN_1_TX_RX_func.c **** 
 285:Generated_Source\PSoC5/CAN_1_TX_RX_func.c ****                 /* `#END` */
 286:Generated_Source\PSoC5/CAN_1_TX_RX_func.c **** 
 287:Generated_Source\PSoC5/CAN_1_TX_RX_func.c ****                 #ifdef CAN_1_SEND_MSG_1_CALLBACK
 288:Generated_Source\PSoC5/CAN_1_TX_RX_func.c ****                     CAN_1_SendMsg_1_Callback();
 289:Generated_Source\PSoC5/CAN_1_TX_RX_func.c ****                 #endif /* CAN_1_SEND_MSG_1_CALLBACK */
 290:Generated_Source\PSoC5/CAN_1_TX_RX_func.c **** 
 291:Generated_Source\PSoC5/CAN_1_TX_RX_func.c ****                 CY_SET_REG32(CAN_1_TX_CMD_PTR(1u),
 292:Generated_Source\PSoC5/CAN_1_TX_RX_func.c ****                 CY_GET_REG32(CAN_1_TX_CMD_PTR(1u)) | CAN_1_SEND_MESSAGE);
 293:Generated_Source\PSoC5/CAN_1_TX_RX_func.c ****             }
 294:Generated_Source\PSoC5/CAN_1_TX_RX_func.c **** 
 295:Generated_Source\PSoC5/CAN_1_TX_RX_func.c ****         return (result);
 296:Generated_Source\PSoC5/CAN_1_TX_RX_func.c ****     }
 297:Generated_Source\PSoC5/CAN_1_TX_RX_func.c **** #endif /* CAN_1_TX1_FUNC_ENABLE */
 298:Generated_Source\PSoC5/CAN_1_TX_RX_func.c **** 
 299:Generated_Source\PSoC5/CAN_1_TX_RX_func.c **** 
 300:Generated_Source\PSoC5/CAN_1_TX_RX_func.c **** #if (CAN_1_TX2_FUNC_ENABLE)
 301:Generated_Source\PSoC5/CAN_1_TX_RX_func.c ****     /*******************************************************************************
 302:Generated_Source\PSoC5/CAN_1_TX_RX_func.c ****     * FUNCTION NAME:   CAN_1_SendMsg2
 303:Generated_Source\PSoC5/CAN_1_TX_RX_func.c ****     ********************************************************************************
 304:Generated_Source\PSoC5/CAN_1_TX_RX_func.c ****     *
 305:Generated_Source\PSoC5/CAN_1_TX_RX_func.c ****     * Summary:
 306:Generated_Source\PSoC5/CAN_1_TX_RX_func.c ****     *  This function is the entry point to Transmit Message 2. The function checks
 307:Generated_Source\PSoC5/CAN_1_TX_RX_func.c ****     *  if mailbox 2 doesn't already have un-transmitted messages waiting for
 308:Generated_Source\PSoC5/CAN_1_TX_RX_func.c ****     *  arbitration. If not initiate transmission of the message.
 309:Generated_Source\PSoC5/CAN_1_TX_RX_func.c ****     *  Generated only for the Transmit mailbox designed as Full.
 310:Generated_Source\PSoC5/CAN_1_TX_RX_func.c ****     *
 311:Generated_Source\PSoC5/CAN_1_TX_RX_func.c ****     * Parameters:
 312:Generated_Source\PSoC5/CAN_1_TX_RX_func.c ****     *  None.
 313:Generated_Source\PSoC5/CAN_1_TX_RX_func.c ****     *
 314:Generated_Source\PSoC5/CAN_1_TX_RX_func.c ****     * Return:
 315:Generated_Source\PSoC5/CAN_1_TX_RX_func.c ****     *  Indication if Message has been sent.
 316:Generated_Source\PSoC5/CAN_1_TX_RX_func.c ****     *   Define                             Description
 317:Generated_Source\PSoC5/CAN_1_TX_RX_func.c ****     *    CYRET_SUCCESS                      The function passed successfully
 318:Generated_Source\PSoC5/CAN_1_TX_RX_func.c ****     *    CAN_1_FAIL              The function failed
 319:Generated_Source\PSoC5/CAN_1_TX_RX_func.c ****     *
 320:Generated_Source\PSoC5/CAN_1_TX_RX_func.c ****     *******************************************************************************/
ARM GAS  C:\Users\Patrick\AppData\Local\Temp\cc1OctCg.s 			page 25


 321:Generated_Source\PSoC5/CAN_1_TX_RX_func.c ****     uint8 CAN_1_SendMsg2(void) 
 322:Generated_Source\PSoC5/CAN_1_TX_RX_func.c ****     {
 323:Generated_Source\PSoC5/CAN_1_TX_RX_func.c ****         uint8 result = CYRET_SUCCESS;
 324:Generated_Source\PSoC5/CAN_1_TX_RX_func.c **** 
 325:Generated_Source\PSoC5/CAN_1_TX_RX_func.c ****         #if (CY_PSOC3 || CY_PSOC5)
 326:Generated_Source\PSoC5/CAN_1_TX_RX_func.c ****             if ((CAN_1_TX[2u].txcmd.byte[0u] & CAN_1_TX_REQUEST_PENDING) != 0u)
 327:Generated_Source\PSoC5/CAN_1_TX_RX_func.c ****         #else  /* CY_PSOC4 */
 328:Generated_Source\PSoC5/CAN_1_TX_RX_func.c ****             if ((CAN_1_TX_CMD_REG(2u) & CAN_1_TX_REQUEST_PENDING) != 0u)
 329:Generated_Source\PSoC5/CAN_1_TX_RX_func.c ****         #endif /* CY_PSOC3 || CY_PSOC5 */
 330:Generated_Source\PSoC5/CAN_1_TX_RX_func.c ****             {
 331:Generated_Source\PSoC5/CAN_1_TX_RX_func.c ****                 result = CAN_1_FAIL;
 332:Generated_Source\PSoC5/CAN_1_TX_RX_func.c ****             }
 333:Generated_Source\PSoC5/CAN_1_TX_RX_func.c ****             else
 334:Generated_Source\PSoC5/CAN_1_TX_RX_func.c ****             {
 335:Generated_Source\PSoC5/CAN_1_TX_RX_func.c ****                 /* `#START MESSAGE_2_TRASMITTED` */
 336:Generated_Source\PSoC5/CAN_1_TX_RX_func.c **** 
 337:Generated_Source\PSoC5/CAN_1_TX_RX_func.c ****                 /* `#END` */
 338:Generated_Source\PSoC5/CAN_1_TX_RX_func.c **** 
 339:Generated_Source\PSoC5/CAN_1_TX_RX_func.c ****                 #ifdef CAN_1_SEND_MSG_2_CALLBACK
 340:Generated_Source\PSoC5/CAN_1_TX_RX_func.c ****                     CAN_1_SendMsg_2_Callback();
 341:Generated_Source\PSoC5/CAN_1_TX_RX_func.c ****                 #endif /* CAN_1_SEND_MSG_2_CALLBACK */
 342:Generated_Source\PSoC5/CAN_1_TX_RX_func.c **** 
 343:Generated_Source\PSoC5/CAN_1_TX_RX_func.c ****                 CY_SET_REG32(CAN_1_TX_CMD_PTR(2u),
 344:Generated_Source\PSoC5/CAN_1_TX_RX_func.c ****                 CY_GET_REG32(CAN_1_TX_CMD_PTR(2u)) | CAN_1_SEND_MESSAGE);
 345:Generated_Source\PSoC5/CAN_1_TX_RX_func.c ****             }
 346:Generated_Source\PSoC5/CAN_1_TX_RX_func.c **** 
 347:Generated_Source\PSoC5/CAN_1_TX_RX_func.c ****         return (result);
 348:Generated_Source\PSoC5/CAN_1_TX_RX_func.c ****     }
 349:Generated_Source\PSoC5/CAN_1_TX_RX_func.c **** #endif /* CAN_1_TX2_FUNC_ENABLE */
 350:Generated_Source\PSoC5/CAN_1_TX_RX_func.c **** 
 351:Generated_Source\PSoC5/CAN_1_TX_RX_func.c **** 
 352:Generated_Source\PSoC5/CAN_1_TX_RX_func.c **** #if (CAN_1_TX3_FUNC_ENABLE)
 353:Generated_Source\PSoC5/CAN_1_TX_RX_func.c ****     /*******************************************************************************
 354:Generated_Source\PSoC5/CAN_1_TX_RX_func.c ****     * FUNCTION NAME:   CAN_1_SendMsg3
 355:Generated_Source\PSoC5/CAN_1_TX_RX_func.c ****     ********************************************************************************
 356:Generated_Source\PSoC5/CAN_1_TX_RX_func.c ****     *
 357:Generated_Source\PSoC5/CAN_1_TX_RX_func.c ****     * Summary:
 358:Generated_Source\PSoC5/CAN_1_TX_RX_func.c ****     *  This function is the entry point to Transmit Message 3. The function checks
 359:Generated_Source\PSoC5/CAN_1_TX_RX_func.c ****     *  if mailbox 3 doesn't already have un-transmitted messages waiting for
 360:Generated_Source\PSoC5/CAN_1_TX_RX_func.c ****     *  arbitration. If not initiate transmission of the message.
 361:Generated_Source\PSoC5/CAN_1_TX_RX_func.c ****     *  Generated only for the Transmit mailbox designed as Full.
 362:Generated_Source\PSoC5/CAN_1_TX_RX_func.c ****     *
 363:Generated_Source\PSoC5/CAN_1_TX_RX_func.c ****     * Parameters:
 364:Generated_Source\PSoC5/CAN_1_TX_RX_func.c ****     *  None.
 365:Generated_Source\PSoC5/CAN_1_TX_RX_func.c ****     *
 366:Generated_Source\PSoC5/CAN_1_TX_RX_func.c ****     * Return:
 367:Generated_Source\PSoC5/CAN_1_TX_RX_func.c ****     *  Indication if Message has been sent.
 368:Generated_Source\PSoC5/CAN_1_TX_RX_func.c ****     *   Define                             Description
 369:Generated_Source\PSoC5/CAN_1_TX_RX_func.c ****     *    CYRET_SUCCESS                      The function passed successfully
 370:Generated_Source\PSoC5/CAN_1_TX_RX_func.c ****     *    CAN_1_FAIL              The function failed
 371:Generated_Source\PSoC5/CAN_1_TX_RX_func.c ****     *
 372:Generated_Source\PSoC5/CAN_1_TX_RX_func.c ****     *******************************************************************************/
 373:Generated_Source\PSoC5/CAN_1_TX_RX_func.c ****     uint8 CAN_1_SendMsg3(void) 
 374:Generated_Source\PSoC5/CAN_1_TX_RX_func.c ****     {
 375:Generated_Source\PSoC5/CAN_1_TX_RX_func.c ****         uint8 result = CYRET_SUCCESS;
 376:Generated_Source\PSoC5/CAN_1_TX_RX_func.c **** 
 377:Generated_Source\PSoC5/CAN_1_TX_RX_func.c ****         #if (CY_PSOC3 || CY_PSOC5)
ARM GAS  C:\Users\Patrick\AppData\Local\Temp\cc1OctCg.s 			page 26


 378:Generated_Source\PSoC5/CAN_1_TX_RX_func.c ****             if ((CAN_1_TX[3u].txcmd.byte[0u] & CAN_1_TX_REQUEST_PENDING) != 0u)
 379:Generated_Source\PSoC5/CAN_1_TX_RX_func.c ****         #else  /* CY_PSOC4 */
 380:Generated_Source\PSoC5/CAN_1_TX_RX_func.c ****             if ((CAN_1_TX_CMD_REG(3u) & CAN_1_TX_REQUEST_PENDING) != 0u)
 381:Generated_Source\PSoC5/CAN_1_TX_RX_func.c ****         #endif /* CY_PSOC3 || CY_PSOC5 */
 382:Generated_Source\PSoC5/CAN_1_TX_RX_func.c ****             {
 383:Generated_Source\PSoC5/CAN_1_TX_RX_func.c ****                 result = CAN_1_FAIL;
 384:Generated_Source\PSoC5/CAN_1_TX_RX_func.c ****             }
 385:Generated_Source\PSoC5/CAN_1_TX_RX_func.c ****             else
 386:Generated_Source\PSoC5/CAN_1_TX_RX_func.c ****             {
 387:Generated_Source\PSoC5/CAN_1_TX_RX_func.c ****                 /* `#START MESSAGE_3_TRASMITTED` */
 388:Generated_Source\PSoC5/CAN_1_TX_RX_func.c **** 
 389:Generated_Source\PSoC5/CAN_1_TX_RX_func.c ****                 /* `#END` */
 390:Generated_Source\PSoC5/CAN_1_TX_RX_func.c **** 
 391:Generated_Source\PSoC5/CAN_1_TX_RX_func.c ****                 #ifdef CAN_1_SEND_MSG_3_CALLBACK
 392:Generated_Source\PSoC5/CAN_1_TX_RX_func.c ****                     CAN_1_SendMsg_3_Callback();
 393:Generated_Source\PSoC5/CAN_1_TX_RX_func.c ****                 #endif /* CAN_1_SEND_MSG_3_CALLBACK */
 394:Generated_Source\PSoC5/CAN_1_TX_RX_func.c **** 
 395:Generated_Source\PSoC5/CAN_1_TX_RX_func.c ****                 CY_SET_REG32(CAN_1_TX_CMD_PTR(3u),
 396:Generated_Source\PSoC5/CAN_1_TX_RX_func.c ****                 CY_GET_REG32(CAN_1_TX_CMD_PTR(3u)) | CAN_1_SEND_MESSAGE);
 397:Generated_Source\PSoC5/CAN_1_TX_RX_func.c ****             }
 398:Generated_Source\PSoC5/CAN_1_TX_RX_func.c **** 
 399:Generated_Source\PSoC5/CAN_1_TX_RX_func.c ****         return (result);
 400:Generated_Source\PSoC5/CAN_1_TX_RX_func.c ****     }
 401:Generated_Source\PSoC5/CAN_1_TX_RX_func.c **** #endif /* CAN_1_TX3_FUNC_ENABLE */
 402:Generated_Source\PSoC5/CAN_1_TX_RX_func.c **** 
 403:Generated_Source\PSoC5/CAN_1_TX_RX_func.c **** 
 404:Generated_Source\PSoC5/CAN_1_TX_RX_func.c **** #if (CAN_1_TX4_FUNC_ENABLE)
 405:Generated_Source\PSoC5/CAN_1_TX_RX_func.c ****     /*******************************************************************************
 406:Generated_Source\PSoC5/CAN_1_TX_RX_func.c ****     * FUNCTION NAME:   CAN_1_SendMsg4
 407:Generated_Source\PSoC5/CAN_1_TX_RX_func.c ****     ********************************************************************************
 408:Generated_Source\PSoC5/CAN_1_TX_RX_func.c ****     *
 409:Generated_Source\PSoC5/CAN_1_TX_RX_func.c ****     * Summary:
 410:Generated_Source\PSoC5/CAN_1_TX_RX_func.c ****     *  This function is the entry point to Transmit Message 4. The function checks
 411:Generated_Source\PSoC5/CAN_1_TX_RX_func.c ****     *  if mailbox 4 doesn't already have un-transmitted messages waiting for
 412:Generated_Source\PSoC5/CAN_1_TX_RX_func.c ****     *  arbitration. If not initiate transmission of the message.
 413:Generated_Source\PSoC5/CAN_1_TX_RX_func.c ****     *  Generated only for the Transmit mailbox designed as Full.
 414:Generated_Source\PSoC5/CAN_1_TX_RX_func.c ****     *
 415:Generated_Source\PSoC5/CAN_1_TX_RX_func.c ****     * Parameters:
 416:Generated_Source\PSoC5/CAN_1_TX_RX_func.c ****     *  None.
 417:Generated_Source\PSoC5/CAN_1_TX_RX_func.c ****     *
 418:Generated_Source\PSoC5/CAN_1_TX_RX_func.c ****     * Return:
 419:Generated_Source\PSoC5/CAN_1_TX_RX_func.c ****     *  Indication if Message has been sent.
 420:Generated_Source\PSoC5/CAN_1_TX_RX_func.c ****     *   Define                             Description
 421:Generated_Source\PSoC5/CAN_1_TX_RX_func.c ****     *    CYRET_SUCCESS                      The function passed successfully
 422:Generated_Source\PSoC5/CAN_1_TX_RX_func.c ****     *    CAN_1_FAIL              The function failed
 423:Generated_Source\PSoC5/CAN_1_TX_RX_func.c ****     *
 424:Generated_Source\PSoC5/CAN_1_TX_RX_func.c ****     *******************************************************************************/
 425:Generated_Source\PSoC5/CAN_1_TX_RX_func.c ****     uint8 CAN_1_SendMsg4(void) 
 426:Generated_Source\PSoC5/CAN_1_TX_RX_func.c ****     {
 427:Generated_Source\PSoC5/CAN_1_TX_RX_func.c ****         uint8 result = CYRET_SUCCESS;
 428:Generated_Source\PSoC5/CAN_1_TX_RX_func.c **** 
 429:Generated_Source\PSoC5/CAN_1_TX_RX_func.c ****         #if (CY_PSOC3 || CY_PSOC5)
 430:Generated_Source\PSoC5/CAN_1_TX_RX_func.c ****             if ((CAN_1_TX[4u].txcmd.byte[0u] & CAN_1_TX_REQUEST_PENDING) != 0u)
 431:Generated_Source\PSoC5/CAN_1_TX_RX_func.c ****         #else  /* CY_PSOC4 */
 432:Generated_Source\PSoC5/CAN_1_TX_RX_func.c ****             if ((CAN_1_TX_CMD_REG(4u) & CAN_1_TX_REQUEST_PENDING) != 0u)
 433:Generated_Source\PSoC5/CAN_1_TX_RX_func.c ****         #endif /* CY_PSOC3 || CY_PSOC5 */
 434:Generated_Source\PSoC5/CAN_1_TX_RX_func.c ****             {
ARM GAS  C:\Users\Patrick\AppData\Local\Temp\cc1OctCg.s 			page 27


 435:Generated_Source\PSoC5/CAN_1_TX_RX_func.c ****                 result = CAN_1_FAIL;
 436:Generated_Source\PSoC5/CAN_1_TX_RX_func.c ****             }
 437:Generated_Source\PSoC5/CAN_1_TX_RX_func.c ****             else
 438:Generated_Source\PSoC5/CAN_1_TX_RX_func.c ****             {
 439:Generated_Source\PSoC5/CAN_1_TX_RX_func.c ****                 /* `#START MESSAGE_4_TRASMITTED` */
 440:Generated_Source\PSoC5/CAN_1_TX_RX_func.c **** 
 441:Generated_Source\PSoC5/CAN_1_TX_RX_func.c ****                 /* `#END` */
 442:Generated_Source\PSoC5/CAN_1_TX_RX_func.c **** 
 443:Generated_Source\PSoC5/CAN_1_TX_RX_func.c ****                 #ifdef CAN_1_SEND_MSG_4_CALLBACK
 444:Generated_Source\PSoC5/CAN_1_TX_RX_func.c ****                     CAN_1_SendMsg_4_Callback();
 445:Generated_Source\PSoC5/CAN_1_TX_RX_func.c ****                 #endif /* CAN_1_SEND_MSG_4_CALLBACK */
 446:Generated_Source\PSoC5/CAN_1_TX_RX_func.c **** 
 447:Generated_Source\PSoC5/CAN_1_TX_RX_func.c ****                 CY_SET_REG32(CAN_1_TX_CMD_PTR(4u),
 448:Generated_Source\PSoC5/CAN_1_TX_RX_func.c ****                 CY_GET_REG32(CAN_1_TX_CMD_PTR(4u)) | CAN_1_SEND_MESSAGE);
 449:Generated_Source\PSoC5/CAN_1_TX_RX_func.c ****             }
 450:Generated_Source\PSoC5/CAN_1_TX_RX_func.c **** 
 451:Generated_Source\PSoC5/CAN_1_TX_RX_func.c ****         return (result);
 452:Generated_Source\PSoC5/CAN_1_TX_RX_func.c ****     }
 453:Generated_Source\PSoC5/CAN_1_TX_RX_func.c **** #endif /* CAN_1_TX4_FUNC_ENABLE */
 454:Generated_Source\PSoC5/CAN_1_TX_RX_func.c **** 
 455:Generated_Source\PSoC5/CAN_1_TX_RX_func.c **** 
 456:Generated_Source\PSoC5/CAN_1_TX_RX_func.c **** #if (CAN_1_TX5_FUNC_ENABLE)
 457:Generated_Source\PSoC5/CAN_1_TX_RX_func.c ****     /*******************************************************************************
 458:Generated_Source\PSoC5/CAN_1_TX_RX_func.c ****     * FUNCTION NAME:   CAN_1_SendMsg5
 459:Generated_Source\PSoC5/CAN_1_TX_RX_func.c ****     ********************************************************************************
 460:Generated_Source\PSoC5/CAN_1_TX_RX_func.c ****     *
 461:Generated_Source\PSoC5/CAN_1_TX_RX_func.c ****     * Summary:
 462:Generated_Source\PSoC5/CAN_1_TX_RX_func.c ****     *  This function is the entry point to Transmit Message 5. The function checks
 463:Generated_Source\PSoC5/CAN_1_TX_RX_func.c ****     *  if mailbox 5 doesn't already have un-transmitted messages waiting for
 464:Generated_Source\PSoC5/CAN_1_TX_RX_func.c ****     *  arbitration. If not initiate transmission of the message.
 465:Generated_Source\PSoC5/CAN_1_TX_RX_func.c ****     *  Generated only for the Transmit mailbox designed as Full.
 466:Generated_Source\PSoC5/CAN_1_TX_RX_func.c ****     *
 467:Generated_Source\PSoC5/CAN_1_TX_RX_func.c ****     * Parameters:
 468:Generated_Source\PSoC5/CAN_1_TX_RX_func.c ****     *  None.
 469:Generated_Source\PSoC5/CAN_1_TX_RX_func.c ****     *
 470:Generated_Source\PSoC5/CAN_1_TX_RX_func.c ****     * Return:
 471:Generated_Source\PSoC5/CAN_1_TX_RX_func.c ****     *  Indication if Message has been sent.
 472:Generated_Source\PSoC5/CAN_1_TX_RX_func.c ****     *   Define                             Description
 473:Generated_Source\PSoC5/CAN_1_TX_RX_func.c ****     *    CYRET_SUCCESS                      The function passed successfully
 474:Generated_Source\PSoC5/CAN_1_TX_RX_func.c ****     *    CAN_1_FAIL              The function failed
 475:Generated_Source\PSoC5/CAN_1_TX_RX_func.c ****     *
 476:Generated_Source\PSoC5/CAN_1_TX_RX_func.c ****     *******************************************************************************/
 477:Generated_Source\PSoC5/CAN_1_TX_RX_func.c ****     uint8 CAN_1_SendMsg5(void) 
 478:Generated_Source\PSoC5/CAN_1_TX_RX_func.c ****     {
 479:Generated_Source\PSoC5/CAN_1_TX_RX_func.c ****         uint8 result = CYRET_SUCCESS;
 480:Generated_Source\PSoC5/CAN_1_TX_RX_func.c **** 
 481:Generated_Source\PSoC5/CAN_1_TX_RX_func.c ****         #if (CY_PSOC3 || CY_PSOC5)
 482:Generated_Source\PSoC5/CAN_1_TX_RX_func.c ****             if ((CAN_1_TX[5u].txcmd.byte[0u] & CAN_1_TX_REQUEST_PENDING) != 0u)
 483:Generated_Source\PSoC5/CAN_1_TX_RX_func.c ****         #else  /* CY_PSOC4 */
 484:Generated_Source\PSoC5/CAN_1_TX_RX_func.c ****             if ((CAN_1_TX_CMD_REG(5u) & CAN_1_TX_REQUEST_PENDING) != 0u)
 485:Generated_Source\PSoC5/CAN_1_TX_RX_func.c ****         #endif /* CY_PSOC3 || CY_PSOC5 */
 486:Generated_Source\PSoC5/CAN_1_TX_RX_func.c ****             {
 487:Generated_Source\PSoC5/CAN_1_TX_RX_func.c ****                 result = CAN_1_FAIL;
 488:Generated_Source\PSoC5/CAN_1_TX_RX_func.c ****             }
 489:Generated_Source\PSoC5/CAN_1_TX_RX_func.c ****             else
 490:Generated_Source\PSoC5/CAN_1_TX_RX_func.c ****             {
 491:Generated_Source\PSoC5/CAN_1_TX_RX_func.c ****                 /* `#START MESSAGE_5_TRASMITTED` */
ARM GAS  C:\Users\Patrick\AppData\Local\Temp\cc1OctCg.s 			page 28


 492:Generated_Source\PSoC5/CAN_1_TX_RX_func.c **** 
 493:Generated_Source\PSoC5/CAN_1_TX_RX_func.c ****                 /* `#END` */
 494:Generated_Source\PSoC5/CAN_1_TX_RX_func.c **** 
 495:Generated_Source\PSoC5/CAN_1_TX_RX_func.c ****                 #ifdef CAN_1_SEND_MSG_5_CALLBACK
 496:Generated_Source\PSoC5/CAN_1_TX_RX_func.c ****                     CAN_1_SendMsg_5_Callback();
 497:Generated_Source\PSoC5/CAN_1_TX_RX_func.c ****                 #endif /* CAN_1_SEND_MSG_5_CALLBACK */
 498:Generated_Source\PSoC5/CAN_1_TX_RX_func.c **** 
 499:Generated_Source\PSoC5/CAN_1_TX_RX_func.c ****                 CY_SET_REG32(CAN_1_TX_CMD_PTR(5u),
 500:Generated_Source\PSoC5/CAN_1_TX_RX_func.c ****                 CY_GET_REG32(CAN_1_TX_CMD_PTR(5u)) | CAN_1_SEND_MESSAGE);
 501:Generated_Source\PSoC5/CAN_1_TX_RX_func.c ****             }
 502:Generated_Source\PSoC5/CAN_1_TX_RX_func.c **** 
 503:Generated_Source\PSoC5/CAN_1_TX_RX_func.c ****         return (result);
 504:Generated_Source\PSoC5/CAN_1_TX_RX_func.c ****     }
 505:Generated_Source\PSoC5/CAN_1_TX_RX_func.c **** #endif /* CAN_1_TX5_FUNC_ENABLE */
 506:Generated_Source\PSoC5/CAN_1_TX_RX_func.c **** 
 507:Generated_Source\PSoC5/CAN_1_TX_RX_func.c **** 
 508:Generated_Source\PSoC5/CAN_1_TX_RX_func.c **** #if (CAN_1_TX6_FUNC_ENABLE)
 509:Generated_Source\PSoC5/CAN_1_TX_RX_func.c ****     /*******************************************************************************
 510:Generated_Source\PSoC5/CAN_1_TX_RX_func.c ****     * FUNCTION NAME:   CAN_1_SendMsg6
 511:Generated_Source\PSoC5/CAN_1_TX_RX_func.c ****     ********************************************************************************
 512:Generated_Source\PSoC5/CAN_1_TX_RX_func.c ****     *
 513:Generated_Source\PSoC5/CAN_1_TX_RX_func.c ****     * Summary:
 514:Generated_Source\PSoC5/CAN_1_TX_RX_func.c ****     *  This function is the entry point to Transmit Message 6. The function checks
 515:Generated_Source\PSoC5/CAN_1_TX_RX_func.c ****     *  if mailbox 6 doesn't already have un-transmitted messages waiting for
 516:Generated_Source\PSoC5/CAN_1_TX_RX_func.c ****     *  arbitration. If not initiate transmission of the message.
 517:Generated_Source\PSoC5/CAN_1_TX_RX_func.c ****     *  Generated only for the Transmit mailbox designed as Full.
 518:Generated_Source\PSoC5/CAN_1_TX_RX_func.c ****     *
 519:Generated_Source\PSoC5/CAN_1_TX_RX_func.c ****     * Parameters:
 520:Generated_Source\PSoC5/CAN_1_TX_RX_func.c ****     *  None.
 521:Generated_Source\PSoC5/CAN_1_TX_RX_func.c ****     *
 522:Generated_Source\PSoC5/CAN_1_TX_RX_func.c ****     * Return:
 523:Generated_Source\PSoC5/CAN_1_TX_RX_func.c ****     *  Indication if Message has been sent.
 524:Generated_Source\PSoC5/CAN_1_TX_RX_func.c ****     *   Define                             Description
 525:Generated_Source\PSoC5/CAN_1_TX_RX_func.c ****     *    CYRET_SUCCESS                      The function passed successfully
 526:Generated_Source\PSoC5/CAN_1_TX_RX_func.c ****     *    CAN_1_FAIL              The function failed
 527:Generated_Source\PSoC5/CAN_1_TX_RX_func.c ****     *
 528:Generated_Source\PSoC5/CAN_1_TX_RX_func.c ****     *******************************************************************************/
 529:Generated_Source\PSoC5/CAN_1_TX_RX_func.c ****     uint8 CAN_1_SendMsg6(void) 
 530:Generated_Source\PSoC5/CAN_1_TX_RX_func.c ****     {
 531:Generated_Source\PSoC5/CAN_1_TX_RX_func.c ****         uint8 result = CYRET_SUCCESS;
 532:Generated_Source\PSoC5/CAN_1_TX_RX_func.c **** 
 533:Generated_Source\PSoC5/CAN_1_TX_RX_func.c ****         #if (CY_PSOC3 || CY_PSOC5)
 534:Generated_Source\PSoC5/CAN_1_TX_RX_func.c ****             if ((CAN_1_TX[6u].txcmd.byte[0u] & CAN_1_TX_REQUEST_PENDING) != 0u)
 535:Generated_Source\PSoC5/CAN_1_TX_RX_func.c ****         #else  /* CY_PSOC4 */
 536:Generated_Source\PSoC5/CAN_1_TX_RX_func.c ****             if ((CAN_1_TX_CMD_REG(6u) & CAN_1_TX_REQUEST_PENDING) != 0u)
 537:Generated_Source\PSoC5/CAN_1_TX_RX_func.c ****         #endif /* CY_PSOC3 || CY_PSOC5 */
 538:Generated_Source\PSoC5/CAN_1_TX_RX_func.c ****             {
 539:Generated_Source\PSoC5/CAN_1_TX_RX_func.c ****                 result = CAN_1_FAIL;
 540:Generated_Source\PSoC5/CAN_1_TX_RX_func.c ****             }
 541:Generated_Source\PSoC5/CAN_1_TX_RX_func.c ****             else
 542:Generated_Source\PSoC5/CAN_1_TX_RX_func.c ****             {
 543:Generated_Source\PSoC5/CAN_1_TX_RX_func.c ****                 /* `#START MESSAGE_6_TRASMITTED` */
 544:Generated_Source\PSoC5/CAN_1_TX_RX_func.c **** 
 545:Generated_Source\PSoC5/CAN_1_TX_RX_func.c ****                 /* `#END` */
 546:Generated_Source\PSoC5/CAN_1_TX_RX_func.c **** 
 547:Generated_Source\PSoC5/CAN_1_TX_RX_func.c ****                 #ifdef CAN_1_SEND_MSG_6_CALLBACK
 548:Generated_Source\PSoC5/CAN_1_TX_RX_func.c ****                     CAN_1_SendMsg_6_Callback();
ARM GAS  C:\Users\Patrick\AppData\Local\Temp\cc1OctCg.s 			page 29


 549:Generated_Source\PSoC5/CAN_1_TX_RX_func.c ****                 #endif /* CAN_1_SEND_MSG_6_CALLBACK */
 550:Generated_Source\PSoC5/CAN_1_TX_RX_func.c **** 
 551:Generated_Source\PSoC5/CAN_1_TX_RX_func.c ****                 CY_SET_REG32(CAN_1_TX_CMD_PTR(6u),
 552:Generated_Source\PSoC5/CAN_1_TX_RX_func.c ****                 CY_GET_REG32(CAN_1_TX_CMD_PTR(6u)) | CAN_1_SEND_MESSAGE);
 553:Generated_Source\PSoC5/CAN_1_TX_RX_func.c ****             }
 554:Generated_Source\PSoC5/CAN_1_TX_RX_func.c **** 
 555:Generated_Source\PSoC5/CAN_1_TX_RX_func.c ****         return (result);
 556:Generated_Source\PSoC5/CAN_1_TX_RX_func.c ****     }
 557:Generated_Source\PSoC5/CAN_1_TX_RX_func.c **** #endif /* CAN_1_TX6_FUNC_ENABLE */
 558:Generated_Source\PSoC5/CAN_1_TX_RX_func.c **** 
 559:Generated_Source\PSoC5/CAN_1_TX_RX_func.c **** 
 560:Generated_Source\PSoC5/CAN_1_TX_RX_func.c **** #if (CAN_1_TX7_FUNC_ENABLE)
 561:Generated_Source\PSoC5/CAN_1_TX_RX_func.c ****     /*******************************************************************************
 562:Generated_Source\PSoC5/CAN_1_TX_RX_func.c ****     * FUNCTION NAME:   CAN_1_SendMsg7)
 563:Generated_Source\PSoC5/CAN_1_TX_RX_func.c ****     ********************************************************************************
 564:Generated_Source\PSoC5/CAN_1_TX_RX_func.c ****     *
 565:Generated_Source\PSoC5/CAN_1_TX_RX_func.c ****     * Summary:
 566:Generated_Source\PSoC5/CAN_1_TX_RX_func.c ****     *  This function is the entry point to Transmit Message 7. The function checks
 567:Generated_Source\PSoC5/CAN_1_TX_RX_func.c ****     *  if mailbox 7 doesn't already have un-transmitted messages waiting for
 568:Generated_Source\PSoC5/CAN_1_TX_RX_func.c ****     *  arbitration. If not initiate transmission of the message.
 569:Generated_Source\PSoC5/CAN_1_TX_RX_func.c ****     *  Generated only for the Transmit mailbox designed as Full.
 570:Generated_Source\PSoC5/CAN_1_TX_RX_func.c ****     *
 571:Generated_Source\PSoC5/CAN_1_TX_RX_func.c ****     * Parameters:
 572:Generated_Source\PSoC5/CAN_1_TX_RX_func.c ****     *  None.
 573:Generated_Source\PSoC5/CAN_1_TX_RX_func.c ****     *
 574:Generated_Source\PSoC5/CAN_1_TX_RX_func.c ****     * Return:
 575:Generated_Source\PSoC5/CAN_1_TX_RX_func.c ****     *  Indication if Message has been sent.
 576:Generated_Source\PSoC5/CAN_1_TX_RX_func.c ****     *   Define                             Description
 577:Generated_Source\PSoC5/CAN_1_TX_RX_func.c ****     *    CYRET_SUCCESS                      The function passed successfully
 578:Generated_Source\PSoC5/CAN_1_TX_RX_func.c ****     *    CAN_1_FAIL              The function failed
 579:Generated_Source\PSoC5/CAN_1_TX_RX_func.c ****     *
 580:Generated_Source\PSoC5/CAN_1_TX_RX_func.c ****     *******************************************************************************/
 581:Generated_Source\PSoC5/CAN_1_TX_RX_func.c ****     uint8 CAN_1_SendMsg7(void) 
 582:Generated_Source\PSoC5/CAN_1_TX_RX_func.c ****     {
 583:Generated_Source\PSoC5/CAN_1_TX_RX_func.c ****         uint8 result = CYRET_SUCCESS;
 584:Generated_Source\PSoC5/CAN_1_TX_RX_func.c **** 
 585:Generated_Source\PSoC5/CAN_1_TX_RX_func.c ****         #if (CY_PSOC3 || CY_PSOC5)
 586:Generated_Source\PSoC5/CAN_1_TX_RX_func.c ****             if ((CAN_1_TX[7u].txcmd.byte[0u] & CAN_1_TX_REQUEST_PENDING) != 0u)
 587:Generated_Source\PSoC5/CAN_1_TX_RX_func.c ****         #else  /* CY_PSOC4 */
 588:Generated_Source\PSoC5/CAN_1_TX_RX_func.c ****             if ((CAN_1_TX_CMD_REG(7u) & CAN_1_TX_REQUEST_PENDING) != 0u)
 589:Generated_Source\PSoC5/CAN_1_TX_RX_func.c ****         #endif /* CY_PSOC3 || CY_PSOC5 */
 590:Generated_Source\PSoC5/CAN_1_TX_RX_func.c ****             {
 591:Generated_Source\PSoC5/CAN_1_TX_RX_func.c ****                 result = CAN_1_FAIL;
 592:Generated_Source\PSoC5/CAN_1_TX_RX_func.c ****             }
 593:Generated_Source\PSoC5/CAN_1_TX_RX_func.c ****             else
 594:Generated_Source\PSoC5/CAN_1_TX_RX_func.c ****             {
 595:Generated_Source\PSoC5/CAN_1_TX_RX_func.c ****                 /* `#START MESSAGE_7_TRASMITTED` */
 596:Generated_Source\PSoC5/CAN_1_TX_RX_func.c **** 
 597:Generated_Source\PSoC5/CAN_1_TX_RX_func.c ****                 /* `#END` */
 598:Generated_Source\PSoC5/CAN_1_TX_RX_func.c **** 
 599:Generated_Source\PSoC5/CAN_1_TX_RX_func.c ****                 #ifdef CAN_1_SEND_MSG_7_CALLBACK
 600:Generated_Source\PSoC5/CAN_1_TX_RX_func.c ****                     CAN_1_SendMsg_7_Callback();
 601:Generated_Source\PSoC5/CAN_1_TX_RX_func.c ****                 #endif /* CAN_1_SEND_MSG_7_CALLBACK */
 602:Generated_Source\PSoC5/CAN_1_TX_RX_func.c **** 
 603:Generated_Source\PSoC5/CAN_1_TX_RX_func.c ****                 CY_SET_REG32(CAN_1_TX_CMD_PTR(7u),
 604:Generated_Source\PSoC5/CAN_1_TX_RX_func.c ****                 CY_GET_REG32(CAN_1_TX_CMD_PTR(7u)) | CAN_1_SEND_MESSAGE);
 605:Generated_Source\PSoC5/CAN_1_TX_RX_func.c ****             }
ARM GAS  C:\Users\Patrick\AppData\Local\Temp\cc1OctCg.s 			page 30


 606:Generated_Source\PSoC5/CAN_1_TX_RX_func.c **** 
 607:Generated_Source\PSoC5/CAN_1_TX_RX_func.c ****         return (result);
 608:Generated_Source\PSoC5/CAN_1_TX_RX_func.c ****     }
 609:Generated_Source\PSoC5/CAN_1_TX_RX_func.c **** #endif /* CAN_1_TX7_FUNC_ENABLE */
 610:Generated_Source\PSoC5/CAN_1_TX_RX_func.c **** 
 611:Generated_Source\PSoC5/CAN_1_TX_RX_func.c **** 
 612:Generated_Source\PSoC5/CAN_1_TX_RX_func.c **** /*******************************************************************************
 613:Generated_Source\PSoC5/CAN_1_TX_RX_func.c **** * FUNCTION NAME:   CAN_1_ReceiveMsg
 614:Generated_Source\PSoC5/CAN_1_TX_RX_func.c **** ********************************************************************************
 615:Generated_Source\PSoC5/CAN_1_TX_RX_func.c **** *
 616:Generated_Source\PSoC5/CAN_1_TX_RX_func.c **** * Summary:
 617:Generated_Source\PSoC5/CAN_1_TX_RX_func.c **** *  This function is the entry point to Receive Message Interrupt for Basic
 618:Generated_Source\PSoC5/CAN_1_TX_RX_func.c **** *  mailboxes. Clears the Receive particular Message interrupt flag. Generated
 619:Generated_Source\PSoC5/CAN_1_TX_RX_func.c **** *  only if one of the Receive mailboxes is designed as Basic.
 620:Generated_Source\PSoC5/CAN_1_TX_RX_func.c **** *
 621:Generated_Source\PSoC5/CAN_1_TX_RX_func.c **** * Parameters:
 622:Generated_Source\PSoC5/CAN_1_TX_RX_func.c **** *  rxMailbox: The mailbox number that trig Receive Message Interrupt.
 623:Generated_Source\PSoC5/CAN_1_TX_RX_func.c **** *
 624:Generated_Source\PSoC5/CAN_1_TX_RX_func.c **** * Return:
 625:Generated_Source\PSoC5/CAN_1_TX_RX_func.c **** *  None.
 626:Generated_Source\PSoC5/CAN_1_TX_RX_func.c **** *
 627:Generated_Source\PSoC5/CAN_1_TX_RX_func.c **** * Reentrant:
 628:Generated_Source\PSoC5/CAN_1_TX_RX_func.c **** *  Depends on the Customer code.
 629:Generated_Source\PSoC5/CAN_1_TX_RX_func.c **** *
 630:Generated_Source\PSoC5/CAN_1_TX_RX_func.c **** *******************************************************************************/
 631:Generated_Source\PSoC5/CAN_1_TX_RX_func.c **** void CAN_1_ReceiveMsg(uint8 rxMailbox) 
 632:Generated_Source\PSoC5/CAN_1_TX_RX_func.c **** {
 630              		.loc 2 632 0
 631              		.cfi_startproc
 632              		@ args = 0, pretend = 0, frame = 0
 633              		@ frame_needed = 0, uses_anonymous_args = 0
 634              		@ link register save eliminated.
 635              	.LVL57:
 633:Generated_Source\PSoC5/CAN_1_TX_RX_func.c ****     #if (CY_PSOC3 || CY_PSOC5)
 634:Generated_Source\PSoC5/CAN_1_TX_RX_func.c ****         if ((CAN_1_RX[rxMailbox].rxcmd.byte[0u] & CAN_1_RX_ACK_MSG) != 0u)
 636              		.loc 2 634 0
 637 0000 044B     		ldr	r3, .L69
 638 0002 4001     		lsls	r0, r0, #5
 639              	.LVL58:
 640 0004 C25C     		ldrb	r2, [r0, r3]	@ zero_extendqisi2
 641 0006 D207     		lsls	r2, r2, #31
 642 0008 03D5     		bpl	.L64
 635:Generated_Source\PSoC5/CAN_1_TX_RX_func.c ****     #else  /* CY_PSOC4 */
 636:Generated_Source\PSoC5/CAN_1_TX_RX_func.c ****         if ((CAN_1_RX_CMD_REG(rxMailbox) & CAN_1_RX_ACK_MSG) != 0u)
 637:Generated_Source\PSoC5/CAN_1_TX_RX_func.c ****     #endif /* CY_PSOC3 || CY_PSOC5 */
 638:Generated_Source\PSoC5/CAN_1_TX_RX_func.c ****         {
 639:Generated_Source\PSoC5/CAN_1_TX_RX_func.c ****             /* `#START MESSAGE_BASIC_RECEIVED` */
 640:Generated_Source\PSoC5/CAN_1_TX_RX_func.c ****             
 641:Generated_Source\PSoC5/CAN_1_TX_RX_func.c ****             /* `#END` */
 642:Generated_Source\PSoC5/CAN_1_TX_RX_func.c **** 
 643:Generated_Source\PSoC5/CAN_1_TX_RX_func.c ****             #ifdef CAN_1_RECEIVE_MSG_CALLBACK
 644:Generated_Source\PSoC5/CAN_1_TX_RX_func.c ****                 CAN_1_ReceiveMsg_Callback();
 645:Generated_Source\PSoC5/CAN_1_TX_RX_func.c ****             #endif /* CAN_1_RECEIVE_MSG_CALLBACK */
 646:Generated_Source\PSoC5/CAN_1_TX_RX_func.c **** 
 647:Generated_Source\PSoC5/CAN_1_TX_RX_func.c ****             #if (CY_PSOC3 || CY_PSOC5)
 648:Generated_Source\PSoC5/CAN_1_TX_RX_func.c ****                 CAN_1_RX[rxMailbox].rxcmd.byte[0u] |= CAN_1_RX_ACK_MSG;
 643              		.loc 2 648 0
ARM GAS  C:\Users\Patrick\AppData\Local\Temp\cc1OctCg.s 			page 31


 644 000a C25C     		ldrb	r2, [r0, r3]	@ zero_extendqisi2
 645 000c 42F00102 		orr	r2, r2, #1
 646 0010 C254     		strb	r2, [r0, r3]
 647              	.L64:
 648 0012 7047     		bx	lr
 649              	.L70:
 650              		.align	2
 651              	.L69:
 652 0014 A0A00040 		.word	1073782944
 653              		.cfi_endproc
 654              	.LFE66:
 655              		.size	CAN_1_ReceiveMsg, .-CAN_1_ReceiveMsg
 656              		.global	__aeabi_i2f
 657              		.global	__aeabi_fadd
 658              		.global	__aeabi_fdiv
 659              		.global	__aeabi_fmul
 660              		.global	__aeabi_f2iz
 661              		.section	.text.startup.main,"ax",%progbits
 662              		.align	2
 663              		.global	main
 664              		.thumb
 665              		.thumb_func
 666              		.type	main, %function
 667              	main:
 668              	.LFB68:
 133:.\main.c      ****     /* Variable to store UART received character */
 669              		.loc 1 133 0
 670              		.cfi_startproc
 671              		@ args = 0, pretend = 0, frame = 64
 672              		@ frame_needed = 0, uses_anonymous_args = 0
 673 0000 2DE9F04F 		push	{r4, r5, r6, r7, r8, r9, r10, fp, lr}
 674              		.cfi_def_cfa_offset 36
 675              		.cfi_offset 4, -36
 676              		.cfi_offset 5, -32
 677              		.cfi_offset 6, -28
 678              		.cfi_offset 7, -24
 679              		.cfi_offset 8, -20
 680              		.cfi_offset 9, -16
 681              		.cfi_offset 10, -12
 682              		.cfi_offset 11, -8
 683              		.cfi_offset 14, -4
 684              	.LBB92:
 685              	.LBB93:
 337:.\main.c      ****     pot->mV = 0;
 686              		.loc 1 337 0
 687 0004 0025     		movs	r5, #0
 688              	.LBE93:
 689              	.LBE92:
 133:.\main.c      ****     /* Variable to store UART received character */
 690              		.loc 1 133 0
 691 0006 93B0     		sub	sp, sp, #76
 692              		.cfi_def_cfa_offset 112
 693              	.LBB96:
 694              	.LBB94:
 337:.\main.c      ****     pot->mV = 0;
 695              		.loc 1 337 0
 696 0008 AF4C     		ldr	r4, .L109
ARM GAS  C:\Users\Patrick\AppData\Local\Temp\cc1OctCg.s 			page 32


 697              	.LBE94:
 698              	.LBE96:
 143:.\main.c      ****     UART_1_Start();
 699              		.loc 1 143 0
 700 000a FFF7FEFF 		bl	ADC_SAR_1_Start
 701              	.LVL59:
 702              	.LBB97:
 703              	.LBB98:
 337:.\main.c      ****     pot->mV = 0;
 704              		.loc 1 337 0
 705 000e DFF8D882 		ldr	r8, .L109+32
 706              	.LBE98:
 707              	.LBE97:
 144:.\main.c      ****     AMux_1_Start();
 708              		.loc 1 144 0
 709 0012 FFF7FEFF 		bl	UART_1_Start
 710              	.LVL60:
 145:.\main.c      ****     Encoder_Left_Start();
 711              		.loc 1 145 0
 712 0016 FFF7FEFF 		bl	AMux_1_Start
 713              	.LVL61:
 146:.\main.c      ****     Encoder_Right_Start();
 714              		.loc 1 146 0
 715 001a FFF7FEFF 		bl	Encoder_Left_Start
 716              	.LVL62:
 147:.\main.c      ****     leftEncTimer_Start();
 717              		.loc 1 147 0
 718 001e FFF7FEFF 		bl	Encoder_Right_Start
 719              	.LVL63:
 148:.\main.c      ****     rightEncTimer_Start();
 720              		.loc 1 148 0
 721 0022 FFF7FEFF 		bl	leftEncTimer_Start
 722              	.LVL64:
 149:.\main.c      ****     AMux_1_FastSelect(0);
 723              		.loc 1 149 0
 724 0026 FFF7FEFF 		bl	rightEncTimer_Start
 725              	.LVL65:
 150:.\main.c      ****     CAN_1_Start();
 726              		.loc 1 150 0
 727 002a 2846     		mov	r0, r5
 728 002c FFF7FEFF 		bl	AMux_1_FastSelect
 729              	.LVL66:
 730              	.LBB100:
 731              	.LBB101:
 348:.\main.c      ****     encoder->rpm = 0;
 732              		.loc 1 348 0
 733 0030 A64E     		ldr	r6, .L109+4
 734              	.LBE101:
 735              	.LBE100:
 151:.\main.c      ****     CAN_ISR_Start();
 736              		.loc 1 151 0
 737 0032 FFF7FEFF 		bl	CAN_1_Start
 738              	.LVL67:
 152:.\main.c      ****     CAN_TIMER_Start();
 739              		.loc 1 152 0
 740 0036 FFF7FEFF 		bl	CAN_ISR_Start
 741              	.LVL68:
ARM GAS  C:\Users\Patrick\AppData\Local\Temp\cc1OctCg.s 			page 33


 153:.\main.c      ****     
 742              		.loc 1 153 0
 743 003a FFF7FEFF 		bl	CAN_TIMER_Start
 744              	.LVL69:
 745 003e 2946     		mov	r1, r5
 746 0040 2046     		mov	r0, r4
 747 0042 8022     		movs	r2, #128
 748              	.LBB104:
 749              	.LBB105:
 348:.\main.c      ****     encoder->rpm = 0;
 750              		.loc 1 348 0
 751 0044 A24F     		ldr	r7, .L109+8
 752              	.LBE105:
 753              	.LBE104:
 754              	.LBB107:
 755              	.LBB95:
 337:.\main.c      ****     pot->mV = 0;
 756              		.loc 1 337 0
 757 0046 C4F88050 		str	r5, [r4, #128]
 338:.\main.c      ****     pot->sensor.index = 0;
 758              		.loc 1 338 0
 759 004a A4F88C50 		strh	r5, [r4, #140]	@ movhi
 339:.\main.c      ****     pot->sensor.flag = 0;
 760              		.loc 1 339 0
 761 004e 84F88550 		strb	r5, [r4, #133]
 340:.\main.c      ****     for(i=0;i<BUFF;i++){
 762              		.loc 1 340 0
 763 0052 84F88750 		strb	r5, [r4, #135]
 764 0056 FFF7FEFF 		bl	memset
 765              	.LVL70:
 766 005a 2946     		mov	r1, r5
 767 005c 4046     		mov	r0, r8
 768 005e 8022     		movs	r2, #128
 769              	.LBE95:
 770              	.LBE107:
 771              	.LBB108:
 772              	.LBB102:
 348:.\main.c      ****     encoder->rpm = 0;
 773              		.loc 1 348 0
 774 0060 4FF00009 		mov	r9, #0
 775              	.LBE102:
 776              	.LBE108:
 777              	.LBB109:
 778              	.LBB99:
 337:.\main.c      ****     pot->mV = 0;
 779              		.loc 1 337 0
 780 0064 C8F88050 		str	r5, [r8, #128]
 338:.\main.c      ****     pot->sensor.index = 0;
 781              		.loc 1 338 0
 782 0068 A8F88C50 		strh	r5, [r8, #140]	@ movhi
 339:.\main.c      ****     pot->sensor.flag = 0;
 783              		.loc 1 339 0
 784 006c 88F88550 		strb	r5, [r8, #133]
 340:.\main.c      ****     for(i=0;i<BUFF;i++){
 785              		.loc 1 340 0
 786 0070 88F88750 		strb	r5, [r8, #135]
 787 0074 FFF7FEFF 		bl	memset
ARM GAS  C:\Users\Patrick\AppData\Local\Temp\cc1OctCg.s 			page 34


 788              	.LVL71:
 789 0078 2946     		mov	r1, r5
 790 007a 3046     		mov	r0, r6
 791 007c 8022     		movs	r2, #128
 792              	.LBE99:
 793              	.LBE109:
 794              	.LBB110:
 795              	.LBB103:
 350:.\main.c      ****     encoder->sensor.flag = 0;
 796              		.loc 1 350 0
 797 007e 86F88550 		strb	r5, [r6, #133]
 351:.\main.c      ****     for(i=0;i<BUFF;i++){
 798              		.loc 1 351 0
 799 0082 86F88750 		strb	r5, [r6, #135]
 348:.\main.c      ****     encoder->rpm = 0;
 800              		.loc 1 348 0
 801 0086 C6F88C90 		str	r9, [r6, #140]	@ float
 349:.\main.c      ****     encoder->sensor.index = 0;
 802              		.loc 1 349 0
 803 008a C6F89090 		str	r9, [r6, #144]	@ float
 804 008e FFF7FEFF 		bl	memset
 805              	.LVL72:
 806 0092 2946     		mov	r1, r5
 807 0094 8022     		movs	r2, #128
 808 0096 3846     		mov	r0, r7
 809              	.LBE103:
 810              	.LBE110:
 811              	.LBB111:
 812              	.LBB106:
 348:.\main.c      ****     encoder->rpm = 0;
 813              		.loc 1 348 0
 814 0098 C7F88C90 		str	r9, [r7, #140]	@ float
 349:.\main.c      ****     encoder->sensor.index = 0;
 815              		.loc 1 349 0
 816 009c C7F89090 		str	r9, [r7, #144]	@ float
 350:.\main.c      ****     encoder->sensor.flag = 0;
 817              		.loc 1 350 0
 818 00a0 87F88550 		strb	r5, [r7, #133]
 351:.\main.c      ****     for(i=0;i<BUFF;i++){
 819              		.loc 1 351 0
 820 00a4 87F88750 		strb	r5, [r7, #135]
 821 00a8 FFF7FEFF 		bl	memset
 822              	.LVL73:
 823              	.LBE106:
 824              	.LBE111:
 161:.\main.c      ****     
 825              		.loc 1 161 0
 826 00ac 8949     		ldr	r1, .L109+12
 827 00ae 0F20     		movs	r0, #15
 828 00b0 FFF7FEFF 		bl	CyIntSetSysVector
 829              	.LVL74:
 830              	.LBB112:
 831              	.LBB113:
 832              		.file 3 "Generated_Source\\PSoC5/core_cm3.h"
   1:Generated_Source\PSoC5/core_cm3.h **** /**************************************************************************//**
   2:Generated_Source\PSoC5/core_cm3.h ****  * @file     core_cm3.h
   3:Generated_Source\PSoC5/core_cm3.h ****  * @brief    CMSIS Cortex-M3 Core Peripheral Access Layer Header File
ARM GAS  C:\Users\Patrick\AppData\Local\Temp\cc1OctCg.s 			page 35


   4:Generated_Source\PSoC5/core_cm3.h ****  * @version  V4.30
   5:Generated_Source\PSoC5/core_cm3.h ****  * @date     20. October 2015
   6:Generated_Source\PSoC5/core_cm3.h ****  ******************************************************************************/
   7:Generated_Source\PSoC5/core_cm3.h **** /* Copyright (c) 2009 - 2015 ARM LIMITED
   8:Generated_Source\PSoC5/core_cm3.h **** 
   9:Generated_Source\PSoC5/core_cm3.h ****    All rights reserved.
  10:Generated_Source\PSoC5/core_cm3.h ****    Redistribution and use in source and binary forms, with or without
  11:Generated_Source\PSoC5/core_cm3.h ****    modification, are permitted provided that the following conditions are met:
  12:Generated_Source\PSoC5/core_cm3.h ****    - Redistributions of source code must retain the above copyright
  13:Generated_Source\PSoC5/core_cm3.h ****      notice, this list of conditions and the following disclaimer.
  14:Generated_Source\PSoC5/core_cm3.h ****    - Redistributions in binary form must reproduce the above copyright
  15:Generated_Source\PSoC5/core_cm3.h ****      notice, this list of conditions and the following disclaimer in the
  16:Generated_Source\PSoC5/core_cm3.h ****      documentation and/or other materials provided with the distribution.
  17:Generated_Source\PSoC5/core_cm3.h ****    - Neither the name of ARM nor the names of its contributors may be used
  18:Generated_Source\PSoC5/core_cm3.h ****      to endorse or promote products derived from this software without
  19:Generated_Source\PSoC5/core_cm3.h ****      specific prior written permission.
  20:Generated_Source\PSoC5/core_cm3.h ****    *
  21:Generated_Source\PSoC5/core_cm3.h ****    THIS SOFTWARE IS PROVIDED BY THE COPYRIGHT HOLDERS AND CONTRIBUTORS "AS IS"
  22:Generated_Source\PSoC5/core_cm3.h ****    AND ANY EXPRESS OR IMPLIED WARRANTIES, INCLUDING, BUT NOT LIMITED TO, THE
  23:Generated_Source\PSoC5/core_cm3.h ****    IMPLIED WARRANTIES OF MERCHANTABILITY AND FITNESS FOR A PARTICULAR PURPOSE
  24:Generated_Source\PSoC5/core_cm3.h ****    ARE DISCLAIMED. IN NO EVENT SHALL COPYRIGHT HOLDERS AND CONTRIBUTORS BE
  25:Generated_Source\PSoC5/core_cm3.h ****    LIABLE FOR ANY DIRECT, INDIRECT, INCIDENTAL, SPECIAL, EXEMPLARY, OR
  26:Generated_Source\PSoC5/core_cm3.h ****    CONSEQUENTIAL DAMAGES (INCLUDING, BUT NOT LIMITED TO, PROCUREMENT OF
  27:Generated_Source\PSoC5/core_cm3.h ****    SUBSTITUTE GOODS OR SERVICES; LOSS OF USE, DATA, OR PROFITS; OR BUSINESS
  28:Generated_Source\PSoC5/core_cm3.h ****    INTERRUPTION) HOWEVER CAUSED AND ON ANY THEORY OF LIABILITY, WHETHER IN
  29:Generated_Source\PSoC5/core_cm3.h ****    CONTRACT, STRICT LIABILITY, OR TORT (INCLUDING NEGLIGENCE OR OTHERWISE)
  30:Generated_Source\PSoC5/core_cm3.h ****    ARISING IN ANY WAY OUT OF THE USE OF THIS SOFTWARE, EVEN IF ADVISED OF THE
  31:Generated_Source\PSoC5/core_cm3.h ****    POSSIBILITY OF SUCH DAMAGE.
  32:Generated_Source\PSoC5/core_cm3.h ****    ---------------------------------------------------------------------------*/
  33:Generated_Source\PSoC5/core_cm3.h **** 
  34:Generated_Source\PSoC5/core_cm3.h **** 
  35:Generated_Source\PSoC5/core_cm3.h **** #if   defined ( __ICCARM__ )
  36:Generated_Source\PSoC5/core_cm3.h ****  #pragma system_include         /* treat file as system include file for MISRA check */
  37:Generated_Source\PSoC5/core_cm3.h **** #elif defined(__ARMCC_VERSION) && (__ARMCC_VERSION >= 6010050)
  38:Generated_Source\PSoC5/core_cm3.h ****   #pragma clang system_header   /* treat file as system include file */
  39:Generated_Source\PSoC5/core_cm3.h **** #endif
  40:Generated_Source\PSoC5/core_cm3.h **** 
  41:Generated_Source\PSoC5/core_cm3.h **** #ifndef __CORE_CM3_H_GENERIC
  42:Generated_Source\PSoC5/core_cm3.h **** #define __CORE_CM3_H_GENERIC
  43:Generated_Source\PSoC5/core_cm3.h **** 
  44:Generated_Source\PSoC5/core_cm3.h **** #include <stdint.h>
  45:Generated_Source\PSoC5/core_cm3.h **** 
  46:Generated_Source\PSoC5/core_cm3.h **** #ifdef __cplusplus
  47:Generated_Source\PSoC5/core_cm3.h ****  extern "C" {
  48:Generated_Source\PSoC5/core_cm3.h **** #endif
  49:Generated_Source\PSoC5/core_cm3.h **** 
  50:Generated_Source\PSoC5/core_cm3.h **** /**
  51:Generated_Source\PSoC5/core_cm3.h ****   \page CMSIS_MISRA_Exceptions  MISRA-C:2004 Compliance Exceptions
  52:Generated_Source\PSoC5/core_cm3.h ****   CMSIS violates the following MISRA-C:2004 rules:
  53:Generated_Source\PSoC5/core_cm3.h **** 
  54:Generated_Source\PSoC5/core_cm3.h ****    \li Required Rule 8.5, object/function definition in header file.<br>
  55:Generated_Source\PSoC5/core_cm3.h ****      Function definitions in header files are used to allow 'inlining'.
  56:Generated_Source\PSoC5/core_cm3.h **** 
  57:Generated_Source\PSoC5/core_cm3.h ****    \li Required Rule 18.4, declaration of union type or object of union type: '{...}'.<br>
  58:Generated_Source\PSoC5/core_cm3.h ****      Unions are used for effective representation of core registers.
  59:Generated_Source\PSoC5/core_cm3.h **** 
  60:Generated_Source\PSoC5/core_cm3.h ****    \li Advisory Rule 19.7, Function-like macro defined.<br>
ARM GAS  C:\Users\Patrick\AppData\Local\Temp\cc1OctCg.s 			page 36


  61:Generated_Source\PSoC5/core_cm3.h ****      Function-like macros are used to allow more efficient code.
  62:Generated_Source\PSoC5/core_cm3.h ****  */
  63:Generated_Source\PSoC5/core_cm3.h **** 
  64:Generated_Source\PSoC5/core_cm3.h **** 
  65:Generated_Source\PSoC5/core_cm3.h **** /*******************************************************************************
  66:Generated_Source\PSoC5/core_cm3.h ****  *                 CMSIS definitions
  67:Generated_Source\PSoC5/core_cm3.h ****  ******************************************************************************/
  68:Generated_Source\PSoC5/core_cm3.h **** /**
  69:Generated_Source\PSoC5/core_cm3.h ****   \ingroup Cortex_M3
  70:Generated_Source\PSoC5/core_cm3.h ****   @{
  71:Generated_Source\PSoC5/core_cm3.h ****  */
  72:Generated_Source\PSoC5/core_cm3.h **** 
  73:Generated_Source\PSoC5/core_cm3.h **** /*  CMSIS CM3 definitions */
  74:Generated_Source\PSoC5/core_cm3.h **** #define __CM3_CMSIS_VERSION_MAIN  (0x04U)                                      /*!< [31:16] CMSIS H
  75:Generated_Source\PSoC5/core_cm3.h **** #define __CM3_CMSIS_VERSION_SUB   (0x1EU)                                      /*!< [15:0]  CMSIS H
  76:Generated_Source\PSoC5/core_cm3.h **** #define __CM3_CMSIS_VERSION       ((__CM3_CMSIS_VERSION_MAIN << 16U) | \
  77:Generated_Source\PSoC5/core_cm3.h ****                                     __CM3_CMSIS_VERSION_SUB           )        /*!< CMSIS HAL versi
  78:Generated_Source\PSoC5/core_cm3.h **** 
  79:Generated_Source\PSoC5/core_cm3.h **** #define __CORTEX_M                (0x03U)                                      /*!< Cortex-M Core *
  80:Generated_Source\PSoC5/core_cm3.h **** 
  81:Generated_Source\PSoC5/core_cm3.h **** 
  82:Generated_Source\PSoC5/core_cm3.h **** #if   defined ( __CC_ARM )
  83:Generated_Source\PSoC5/core_cm3.h ****   #define __ASM            __asm                                      /*!< asm keyword for ARM Comp
  84:Generated_Source\PSoC5/core_cm3.h ****   #define __INLINE         __inline                                   /*!< inline keyword for ARM C
  85:Generated_Source\PSoC5/core_cm3.h ****   #define __STATIC_INLINE  static __inline
  86:Generated_Source\PSoC5/core_cm3.h **** 
  87:Generated_Source\PSoC5/core_cm3.h **** #elif defined(__ARMCC_VERSION) && (__ARMCC_VERSION >= 6010050)
  88:Generated_Source\PSoC5/core_cm3.h ****   #define __ASM            __asm                                      /*!< asm keyword for ARM Comp
  89:Generated_Source\PSoC5/core_cm3.h ****   #define __INLINE         __inline                                   /*!< inline keyword for ARM C
  90:Generated_Source\PSoC5/core_cm3.h ****   #define __STATIC_INLINE  static __inline
  91:Generated_Source\PSoC5/core_cm3.h **** 
  92:Generated_Source\PSoC5/core_cm3.h **** #elif defined ( __GNUC__ )
  93:Generated_Source\PSoC5/core_cm3.h ****   #define __ASM            __asm                                      /*!< asm keyword for GNU Comp
  94:Generated_Source\PSoC5/core_cm3.h ****   #define __INLINE         inline                                     /*!< inline keyword for GNU C
  95:Generated_Source\PSoC5/core_cm3.h ****   #define __STATIC_INLINE  static inline
  96:Generated_Source\PSoC5/core_cm3.h **** 
  97:Generated_Source\PSoC5/core_cm3.h **** #elif defined ( __ICCARM__ )
  98:Generated_Source\PSoC5/core_cm3.h ****   #define __ASM            __asm                                      /*!< asm keyword for IAR Comp
  99:Generated_Source\PSoC5/core_cm3.h ****   #define __INLINE         inline                                     /*!< inline keyword for IAR C
 100:Generated_Source\PSoC5/core_cm3.h ****   #define __STATIC_INLINE  static inline
 101:Generated_Source\PSoC5/core_cm3.h **** 
 102:Generated_Source\PSoC5/core_cm3.h **** #elif defined ( __TMS470__ )
 103:Generated_Source\PSoC5/core_cm3.h ****   #define __ASM            __asm                                      /*!< asm keyword for TI CCS C
 104:Generated_Source\PSoC5/core_cm3.h ****   #define __STATIC_INLINE  static inline
 105:Generated_Source\PSoC5/core_cm3.h **** 
 106:Generated_Source\PSoC5/core_cm3.h **** #elif defined ( __TASKING__ )
 107:Generated_Source\PSoC5/core_cm3.h ****   #define __ASM            __asm                                      /*!< asm keyword for TASKING 
 108:Generated_Source\PSoC5/core_cm3.h ****   #define __INLINE         inline                                     /*!< inline keyword for TASKI
 109:Generated_Source\PSoC5/core_cm3.h ****   #define __STATIC_INLINE  static inline
 110:Generated_Source\PSoC5/core_cm3.h **** 
 111:Generated_Source\PSoC5/core_cm3.h **** #elif defined ( __CSMC__ )
 112:Generated_Source\PSoC5/core_cm3.h ****   #define __packed
 113:Generated_Source\PSoC5/core_cm3.h ****   #define __ASM            _asm                                      /*!< asm keyword for COSMIC Co
 114:Generated_Source\PSoC5/core_cm3.h ****   #define __INLINE         inline                                    /*!< inline keyword for COSMIC
 115:Generated_Source\PSoC5/core_cm3.h ****   #define __STATIC_INLINE  static inline
 116:Generated_Source\PSoC5/core_cm3.h **** 
 117:Generated_Source\PSoC5/core_cm3.h **** #else
ARM GAS  C:\Users\Patrick\AppData\Local\Temp\cc1OctCg.s 			page 37


 118:Generated_Source\PSoC5/core_cm3.h ****   #error Unknown compiler
 119:Generated_Source\PSoC5/core_cm3.h **** #endif
 120:Generated_Source\PSoC5/core_cm3.h **** 
 121:Generated_Source\PSoC5/core_cm3.h **** /** __FPU_USED indicates whether an FPU is used or not.
 122:Generated_Source\PSoC5/core_cm3.h ****     This core does not support an FPU at all
 123:Generated_Source\PSoC5/core_cm3.h **** */
 124:Generated_Source\PSoC5/core_cm3.h **** #define __FPU_USED       0U
 125:Generated_Source\PSoC5/core_cm3.h **** 
 126:Generated_Source\PSoC5/core_cm3.h **** #if defined ( __CC_ARM )
 127:Generated_Source\PSoC5/core_cm3.h ****   #if defined __TARGET_FPU_VFP
 128:Generated_Source\PSoC5/core_cm3.h ****     #error "Compiler generates FPU instructions for a device without an FPU (check __FPU_PRESENT)"
 129:Generated_Source\PSoC5/core_cm3.h ****   #endif
 130:Generated_Source\PSoC5/core_cm3.h **** 
 131:Generated_Source\PSoC5/core_cm3.h **** #elif defined(__ARMCC_VERSION) && (__ARMCC_VERSION >= 6010050)
 132:Generated_Source\PSoC5/core_cm3.h ****   #if defined __ARM_PCS_VFP
 133:Generated_Source\PSoC5/core_cm3.h ****     #error "Compiler generates FPU instructions for a device without an FPU (check __FPU_PRESENT)"
 134:Generated_Source\PSoC5/core_cm3.h ****   #endif
 135:Generated_Source\PSoC5/core_cm3.h **** 
 136:Generated_Source\PSoC5/core_cm3.h **** #elif defined ( __GNUC__ )
 137:Generated_Source\PSoC5/core_cm3.h ****   #if defined (__VFP_FP__) && !defined(__SOFTFP__)
 138:Generated_Source\PSoC5/core_cm3.h ****     #error "Compiler generates FPU instructions for a device without an FPU (check __FPU_PRESENT)"
 139:Generated_Source\PSoC5/core_cm3.h ****   #endif
 140:Generated_Source\PSoC5/core_cm3.h **** 
 141:Generated_Source\PSoC5/core_cm3.h **** #elif defined ( __ICCARM__ )
 142:Generated_Source\PSoC5/core_cm3.h ****   #if defined __ARMVFP__
 143:Generated_Source\PSoC5/core_cm3.h ****     #error "Compiler generates FPU instructions for a device without an FPU (check __FPU_PRESENT)"
 144:Generated_Source\PSoC5/core_cm3.h ****   #endif
 145:Generated_Source\PSoC5/core_cm3.h **** 
 146:Generated_Source\PSoC5/core_cm3.h **** #elif defined ( __TMS470__ )
 147:Generated_Source\PSoC5/core_cm3.h ****   #if defined __TI_VFP_SUPPORT__
 148:Generated_Source\PSoC5/core_cm3.h ****     #error "Compiler generates FPU instructions for a device without an FPU (check __FPU_PRESENT)"
 149:Generated_Source\PSoC5/core_cm3.h ****   #endif
 150:Generated_Source\PSoC5/core_cm3.h **** 
 151:Generated_Source\PSoC5/core_cm3.h **** #elif defined ( __TASKING__ )
 152:Generated_Source\PSoC5/core_cm3.h ****   #if defined __FPU_VFP__
 153:Generated_Source\PSoC5/core_cm3.h ****     #error "Compiler generates FPU instructions for a device without an FPU (check __FPU_PRESENT)"
 154:Generated_Source\PSoC5/core_cm3.h ****   #endif
 155:Generated_Source\PSoC5/core_cm3.h **** 
 156:Generated_Source\PSoC5/core_cm3.h **** #elif defined ( __CSMC__ )
 157:Generated_Source\PSoC5/core_cm3.h ****   #if ( __CSMC__ & 0x400U)
 158:Generated_Source\PSoC5/core_cm3.h ****     #error "Compiler generates FPU instructions for a device without an FPU (check __FPU_PRESENT)"
 159:Generated_Source\PSoC5/core_cm3.h ****   #endif
 160:Generated_Source\PSoC5/core_cm3.h **** 
 161:Generated_Source\PSoC5/core_cm3.h **** #endif
 162:Generated_Source\PSoC5/core_cm3.h **** 
 163:Generated_Source\PSoC5/core_cm3.h **** #include "core_cmInstr.h"                /* Core Instruction Access */
 164:Generated_Source\PSoC5/core_cm3.h **** #include "core_cmFunc.h"                 /* Core Function Access */
 165:Generated_Source\PSoC5/core_cm3.h **** 
 166:Generated_Source\PSoC5/core_cm3.h **** #ifdef __cplusplus
 167:Generated_Source\PSoC5/core_cm3.h **** }
 168:Generated_Source\PSoC5/core_cm3.h **** #endif
 169:Generated_Source\PSoC5/core_cm3.h **** 
 170:Generated_Source\PSoC5/core_cm3.h **** #endif /* __CORE_CM3_H_GENERIC */
 171:Generated_Source\PSoC5/core_cm3.h **** 
 172:Generated_Source\PSoC5/core_cm3.h **** #ifndef __CMSIS_GENERIC
 173:Generated_Source\PSoC5/core_cm3.h **** 
 174:Generated_Source\PSoC5/core_cm3.h **** #ifndef __CORE_CM3_H_DEPENDANT
ARM GAS  C:\Users\Patrick\AppData\Local\Temp\cc1OctCg.s 			page 38


 175:Generated_Source\PSoC5/core_cm3.h **** #define __CORE_CM3_H_DEPENDANT
 176:Generated_Source\PSoC5/core_cm3.h **** 
 177:Generated_Source\PSoC5/core_cm3.h **** #ifdef __cplusplus
 178:Generated_Source\PSoC5/core_cm3.h ****  extern "C" {
 179:Generated_Source\PSoC5/core_cm3.h **** #endif
 180:Generated_Source\PSoC5/core_cm3.h **** 
 181:Generated_Source\PSoC5/core_cm3.h **** /* check device defines and use defaults */
 182:Generated_Source\PSoC5/core_cm3.h **** #if defined __CHECK_DEVICE_DEFINES
 183:Generated_Source\PSoC5/core_cm3.h ****   #ifndef __CM3_REV
 184:Generated_Source\PSoC5/core_cm3.h ****     #define __CM3_REV               0x0200U
 185:Generated_Source\PSoC5/core_cm3.h ****     #warning "__CM3_REV not defined in device header file; using default!"
 186:Generated_Source\PSoC5/core_cm3.h ****   #endif
 187:Generated_Source\PSoC5/core_cm3.h **** 
 188:Generated_Source\PSoC5/core_cm3.h ****   #ifndef __MPU_PRESENT
 189:Generated_Source\PSoC5/core_cm3.h ****     #define __MPU_PRESENT             0U
 190:Generated_Source\PSoC5/core_cm3.h ****     #warning "__MPU_PRESENT not defined in device header file; using default!"
 191:Generated_Source\PSoC5/core_cm3.h ****   #endif
 192:Generated_Source\PSoC5/core_cm3.h **** 
 193:Generated_Source\PSoC5/core_cm3.h ****   #ifndef __NVIC_PRIO_BITS
 194:Generated_Source\PSoC5/core_cm3.h ****     #define __NVIC_PRIO_BITS          4U
 195:Generated_Source\PSoC5/core_cm3.h ****     #warning "__NVIC_PRIO_BITS not defined in device header file; using default!"
 196:Generated_Source\PSoC5/core_cm3.h ****   #endif
 197:Generated_Source\PSoC5/core_cm3.h **** 
 198:Generated_Source\PSoC5/core_cm3.h ****   #ifndef __Vendor_SysTickConfig
 199:Generated_Source\PSoC5/core_cm3.h ****     #define __Vendor_SysTickConfig    0U
 200:Generated_Source\PSoC5/core_cm3.h ****     #warning "__Vendor_SysTickConfig not defined in device header file; using default!"
 201:Generated_Source\PSoC5/core_cm3.h ****   #endif
 202:Generated_Source\PSoC5/core_cm3.h **** #endif
 203:Generated_Source\PSoC5/core_cm3.h **** 
 204:Generated_Source\PSoC5/core_cm3.h **** /* IO definitions (access restrictions to peripheral registers) */
 205:Generated_Source\PSoC5/core_cm3.h **** /**
 206:Generated_Source\PSoC5/core_cm3.h ****     \defgroup CMSIS_glob_defs CMSIS Global Defines
 207:Generated_Source\PSoC5/core_cm3.h **** 
 208:Generated_Source\PSoC5/core_cm3.h ****     <strong>IO Type Qualifiers</strong> are used
 209:Generated_Source\PSoC5/core_cm3.h ****     \li to specify the access to peripheral variables.
 210:Generated_Source\PSoC5/core_cm3.h ****     \li for automatic generation of peripheral register debug information.
 211:Generated_Source\PSoC5/core_cm3.h **** */
 212:Generated_Source\PSoC5/core_cm3.h **** #ifdef __cplusplus
 213:Generated_Source\PSoC5/core_cm3.h ****   #define   __I     volatile             /*!< Defines 'read only' permissions */
 214:Generated_Source\PSoC5/core_cm3.h **** #else
 215:Generated_Source\PSoC5/core_cm3.h ****   #define   __I     volatile const       /*!< Defines 'read only' permissions */
 216:Generated_Source\PSoC5/core_cm3.h **** #endif
 217:Generated_Source\PSoC5/core_cm3.h **** #define     __O     volatile             /*!< Defines 'write only' permissions */
 218:Generated_Source\PSoC5/core_cm3.h **** #define     __IO    volatile             /*!< Defines 'read / write' permissions */
 219:Generated_Source\PSoC5/core_cm3.h **** 
 220:Generated_Source\PSoC5/core_cm3.h **** /* following defines should be used for structure members */
 221:Generated_Source\PSoC5/core_cm3.h **** #define     __IM     volatile const      /*! Defines 'read only' structure member permissions */
 222:Generated_Source\PSoC5/core_cm3.h **** #define     __OM     volatile            /*! Defines 'write only' structure member permissions */
 223:Generated_Source\PSoC5/core_cm3.h **** #define     __IOM    volatile            /*! Defines 'read / write' structure member permissions */
 224:Generated_Source\PSoC5/core_cm3.h **** 
 225:Generated_Source\PSoC5/core_cm3.h **** /*@} end of group Cortex_M3 */
 226:Generated_Source\PSoC5/core_cm3.h **** 
 227:Generated_Source\PSoC5/core_cm3.h **** 
 228:Generated_Source\PSoC5/core_cm3.h **** 
 229:Generated_Source\PSoC5/core_cm3.h **** /*******************************************************************************
 230:Generated_Source\PSoC5/core_cm3.h ****  *                 Register Abstraction
 231:Generated_Source\PSoC5/core_cm3.h ****   Core Register contain:
ARM GAS  C:\Users\Patrick\AppData\Local\Temp\cc1OctCg.s 			page 39


 232:Generated_Source\PSoC5/core_cm3.h ****   - Core Register
 233:Generated_Source\PSoC5/core_cm3.h ****   - Core NVIC Register
 234:Generated_Source\PSoC5/core_cm3.h ****   - Core SCB Register
 235:Generated_Source\PSoC5/core_cm3.h ****   - Core SysTick Register
 236:Generated_Source\PSoC5/core_cm3.h ****   - Core Debug Register
 237:Generated_Source\PSoC5/core_cm3.h ****   - Core MPU Register
 238:Generated_Source\PSoC5/core_cm3.h ****  ******************************************************************************/
 239:Generated_Source\PSoC5/core_cm3.h **** /**
 240:Generated_Source\PSoC5/core_cm3.h ****   \defgroup CMSIS_core_register Defines and Type Definitions
 241:Generated_Source\PSoC5/core_cm3.h ****   \brief Type definitions and defines for Cortex-M processor based devices.
 242:Generated_Source\PSoC5/core_cm3.h **** */
 243:Generated_Source\PSoC5/core_cm3.h **** 
 244:Generated_Source\PSoC5/core_cm3.h **** /**
 245:Generated_Source\PSoC5/core_cm3.h ****   \ingroup    CMSIS_core_register
 246:Generated_Source\PSoC5/core_cm3.h ****   \defgroup   CMSIS_CORE  Status and Control Registers
 247:Generated_Source\PSoC5/core_cm3.h ****   \brief      Core Register type definitions.
 248:Generated_Source\PSoC5/core_cm3.h ****   @{
 249:Generated_Source\PSoC5/core_cm3.h ****  */
 250:Generated_Source\PSoC5/core_cm3.h **** 
 251:Generated_Source\PSoC5/core_cm3.h **** /**
 252:Generated_Source\PSoC5/core_cm3.h ****   \brief  Union type to access the Application Program Status Register (APSR).
 253:Generated_Source\PSoC5/core_cm3.h ****  */
 254:Generated_Source\PSoC5/core_cm3.h **** typedef union
 255:Generated_Source\PSoC5/core_cm3.h **** {
 256:Generated_Source\PSoC5/core_cm3.h ****   struct
 257:Generated_Source\PSoC5/core_cm3.h ****   {
 258:Generated_Source\PSoC5/core_cm3.h ****     uint32_t _reserved0:27;              /*!< bit:  0..26  Reserved */
 259:Generated_Source\PSoC5/core_cm3.h ****     uint32_t Q:1;                        /*!< bit:     27  Saturation condition flag */
 260:Generated_Source\PSoC5/core_cm3.h ****     uint32_t V:1;                        /*!< bit:     28  Overflow condition code flag */
 261:Generated_Source\PSoC5/core_cm3.h ****     uint32_t C:1;                        /*!< bit:     29  Carry condition code flag */
 262:Generated_Source\PSoC5/core_cm3.h ****     uint32_t Z:1;                        /*!< bit:     30  Zero condition code flag */
 263:Generated_Source\PSoC5/core_cm3.h ****     uint32_t N:1;                        /*!< bit:     31  Negative condition code flag */
 264:Generated_Source\PSoC5/core_cm3.h ****   } b;                                   /*!< Structure used for bit  access */
 265:Generated_Source\PSoC5/core_cm3.h ****   uint32_t w;                            /*!< Type      used for word access */
 266:Generated_Source\PSoC5/core_cm3.h **** } APSR_Type;
 267:Generated_Source\PSoC5/core_cm3.h **** 
 268:Generated_Source\PSoC5/core_cm3.h **** /* APSR Register Definitions */
 269:Generated_Source\PSoC5/core_cm3.h **** #define APSR_N_Pos                         31U                                            /*!< APSR
 270:Generated_Source\PSoC5/core_cm3.h **** #define APSR_N_Msk                         (1UL << APSR_N_Pos)                            /*!< APSR
 271:Generated_Source\PSoC5/core_cm3.h **** 
 272:Generated_Source\PSoC5/core_cm3.h **** #define APSR_Z_Pos                         30U                                            /*!< APSR
 273:Generated_Source\PSoC5/core_cm3.h **** #define APSR_Z_Msk                         (1UL << APSR_Z_Pos)                            /*!< APSR
 274:Generated_Source\PSoC5/core_cm3.h **** 
 275:Generated_Source\PSoC5/core_cm3.h **** #define APSR_C_Pos                         29U                                            /*!< APSR
 276:Generated_Source\PSoC5/core_cm3.h **** #define APSR_C_Msk                         (1UL << APSR_C_Pos)                            /*!< APSR
 277:Generated_Source\PSoC5/core_cm3.h **** 
 278:Generated_Source\PSoC5/core_cm3.h **** #define APSR_V_Pos                         28U                                            /*!< APSR
 279:Generated_Source\PSoC5/core_cm3.h **** #define APSR_V_Msk                         (1UL << APSR_V_Pos)                            /*!< APSR
 280:Generated_Source\PSoC5/core_cm3.h **** 
 281:Generated_Source\PSoC5/core_cm3.h **** #define APSR_Q_Pos                         27U                                            /*!< APSR
 282:Generated_Source\PSoC5/core_cm3.h **** #define APSR_Q_Msk                         (1UL << APSR_Q_Pos)                            /*!< APSR
 283:Generated_Source\PSoC5/core_cm3.h **** 
 284:Generated_Source\PSoC5/core_cm3.h **** 
 285:Generated_Source\PSoC5/core_cm3.h **** /**
 286:Generated_Source\PSoC5/core_cm3.h ****   \brief  Union type to access the Interrupt Program Status Register (IPSR).
 287:Generated_Source\PSoC5/core_cm3.h ****  */
 288:Generated_Source\PSoC5/core_cm3.h **** typedef union
ARM GAS  C:\Users\Patrick\AppData\Local\Temp\cc1OctCg.s 			page 40


 289:Generated_Source\PSoC5/core_cm3.h **** {
 290:Generated_Source\PSoC5/core_cm3.h ****   struct
 291:Generated_Source\PSoC5/core_cm3.h ****   {
 292:Generated_Source\PSoC5/core_cm3.h ****     uint32_t ISR:9;                      /*!< bit:  0.. 8  Exception number */
 293:Generated_Source\PSoC5/core_cm3.h ****     uint32_t _reserved0:23;              /*!< bit:  9..31  Reserved */
 294:Generated_Source\PSoC5/core_cm3.h ****   } b;                                   /*!< Structure used for bit  access */
 295:Generated_Source\PSoC5/core_cm3.h ****   uint32_t w;                            /*!< Type      used for word access */
 296:Generated_Source\PSoC5/core_cm3.h **** } IPSR_Type;
 297:Generated_Source\PSoC5/core_cm3.h **** 
 298:Generated_Source\PSoC5/core_cm3.h **** /* IPSR Register Definitions */
 299:Generated_Source\PSoC5/core_cm3.h **** #define IPSR_ISR_Pos                        0U                                            /*!< IPSR
 300:Generated_Source\PSoC5/core_cm3.h **** #define IPSR_ISR_Msk                       (0x1FFUL /*<< IPSR_ISR_Pos*/)                  /*!< IPSR
 301:Generated_Source\PSoC5/core_cm3.h **** 
 302:Generated_Source\PSoC5/core_cm3.h **** 
 303:Generated_Source\PSoC5/core_cm3.h **** /**
 304:Generated_Source\PSoC5/core_cm3.h ****   \brief  Union type to access the Special-Purpose Program Status Registers (xPSR).
 305:Generated_Source\PSoC5/core_cm3.h ****  */
 306:Generated_Source\PSoC5/core_cm3.h **** typedef union
 307:Generated_Source\PSoC5/core_cm3.h **** {
 308:Generated_Source\PSoC5/core_cm3.h ****   struct
 309:Generated_Source\PSoC5/core_cm3.h ****   {
 310:Generated_Source\PSoC5/core_cm3.h ****     uint32_t ISR:9;                      /*!< bit:  0.. 8  Exception number */
 311:Generated_Source\PSoC5/core_cm3.h ****     uint32_t _reserved0:15;              /*!< bit:  9..23  Reserved */
 312:Generated_Source\PSoC5/core_cm3.h ****     uint32_t T:1;                        /*!< bit:     24  Thumb bit        (read 0) */
 313:Generated_Source\PSoC5/core_cm3.h ****     uint32_t IT:2;                       /*!< bit: 25..26  saved IT state   (read 0) */
 314:Generated_Source\PSoC5/core_cm3.h ****     uint32_t Q:1;                        /*!< bit:     27  Saturation condition flag */
 315:Generated_Source\PSoC5/core_cm3.h ****     uint32_t V:1;                        /*!< bit:     28  Overflow condition code flag */
 316:Generated_Source\PSoC5/core_cm3.h ****     uint32_t C:1;                        /*!< bit:     29  Carry condition code flag */
 317:Generated_Source\PSoC5/core_cm3.h ****     uint32_t Z:1;                        /*!< bit:     30  Zero condition code flag */
 318:Generated_Source\PSoC5/core_cm3.h ****     uint32_t N:1;                        /*!< bit:     31  Negative condition code flag */
 319:Generated_Source\PSoC5/core_cm3.h ****   } b;                                   /*!< Structure used for bit  access */
 320:Generated_Source\PSoC5/core_cm3.h ****   uint32_t w;                            /*!< Type      used for word access */
 321:Generated_Source\PSoC5/core_cm3.h **** } xPSR_Type;
 322:Generated_Source\PSoC5/core_cm3.h **** 
 323:Generated_Source\PSoC5/core_cm3.h **** /* xPSR Register Definitions */
 324:Generated_Source\PSoC5/core_cm3.h **** #define xPSR_N_Pos                         31U                                            /*!< xPSR
 325:Generated_Source\PSoC5/core_cm3.h **** #define xPSR_N_Msk                         (1UL << xPSR_N_Pos)                            /*!< xPSR
 326:Generated_Source\PSoC5/core_cm3.h **** 
 327:Generated_Source\PSoC5/core_cm3.h **** #define xPSR_Z_Pos                         30U                                            /*!< xPSR
 328:Generated_Source\PSoC5/core_cm3.h **** #define xPSR_Z_Msk                         (1UL << xPSR_Z_Pos)                            /*!< xPSR
 329:Generated_Source\PSoC5/core_cm3.h **** 
 330:Generated_Source\PSoC5/core_cm3.h **** #define xPSR_C_Pos                         29U                                            /*!< xPSR
 331:Generated_Source\PSoC5/core_cm3.h **** #define xPSR_C_Msk                         (1UL << xPSR_C_Pos)                            /*!< xPSR
 332:Generated_Source\PSoC5/core_cm3.h **** 
 333:Generated_Source\PSoC5/core_cm3.h **** #define xPSR_V_Pos                         28U                                            /*!< xPSR
 334:Generated_Source\PSoC5/core_cm3.h **** #define xPSR_V_Msk                         (1UL << xPSR_V_Pos)                            /*!< xPSR
 335:Generated_Source\PSoC5/core_cm3.h **** 
 336:Generated_Source\PSoC5/core_cm3.h **** #define xPSR_Q_Pos                         27U                                            /*!< xPSR
 337:Generated_Source\PSoC5/core_cm3.h **** #define xPSR_Q_Msk                         (1UL << xPSR_Q_Pos)                            /*!< xPSR
 338:Generated_Source\PSoC5/core_cm3.h **** 
 339:Generated_Source\PSoC5/core_cm3.h **** #define xPSR_IT_Pos                        25U                                            /*!< xPSR
 340:Generated_Source\PSoC5/core_cm3.h **** #define xPSR_IT_Msk                        (3UL << xPSR_IT_Pos)                           /*!< xPSR
 341:Generated_Source\PSoC5/core_cm3.h **** 
 342:Generated_Source\PSoC5/core_cm3.h **** #define xPSR_T_Pos                         24U                                            /*!< xPSR
 343:Generated_Source\PSoC5/core_cm3.h **** #define xPSR_T_Msk                         (1UL << xPSR_T_Pos)                            /*!< xPSR
 344:Generated_Source\PSoC5/core_cm3.h **** 
 345:Generated_Source\PSoC5/core_cm3.h **** #define xPSR_ISR_Pos                        0U                                            /*!< xPSR
ARM GAS  C:\Users\Patrick\AppData\Local\Temp\cc1OctCg.s 			page 41


 346:Generated_Source\PSoC5/core_cm3.h **** #define xPSR_ISR_Msk                       (0x1FFUL /*<< xPSR_ISR_Pos*/)                  /*!< xPSR
 347:Generated_Source\PSoC5/core_cm3.h **** 
 348:Generated_Source\PSoC5/core_cm3.h **** 
 349:Generated_Source\PSoC5/core_cm3.h **** /**
 350:Generated_Source\PSoC5/core_cm3.h ****   \brief  Union type to access the Control Registers (CONTROL).
 351:Generated_Source\PSoC5/core_cm3.h ****  */
 352:Generated_Source\PSoC5/core_cm3.h **** typedef union
 353:Generated_Source\PSoC5/core_cm3.h **** {
 354:Generated_Source\PSoC5/core_cm3.h ****   struct
 355:Generated_Source\PSoC5/core_cm3.h ****   {
 356:Generated_Source\PSoC5/core_cm3.h ****     uint32_t nPRIV:1;                    /*!< bit:      0  Execution privilege in Thread mode */
 357:Generated_Source\PSoC5/core_cm3.h ****     uint32_t SPSEL:1;                    /*!< bit:      1  Stack to be used */
 358:Generated_Source\PSoC5/core_cm3.h ****     uint32_t _reserved1:30;              /*!< bit:  2..31  Reserved */
 359:Generated_Source\PSoC5/core_cm3.h ****   } b;                                   /*!< Structure used for bit  access */
 360:Generated_Source\PSoC5/core_cm3.h ****   uint32_t w;                            /*!< Type      used for word access */
 361:Generated_Source\PSoC5/core_cm3.h **** } CONTROL_Type;
 362:Generated_Source\PSoC5/core_cm3.h **** 
 363:Generated_Source\PSoC5/core_cm3.h **** /* CONTROL Register Definitions */
 364:Generated_Source\PSoC5/core_cm3.h **** #define CONTROL_SPSEL_Pos                   1U                                            /*!< CONT
 365:Generated_Source\PSoC5/core_cm3.h **** #define CONTROL_SPSEL_Msk                  (1UL << CONTROL_SPSEL_Pos)                     /*!< CONT
 366:Generated_Source\PSoC5/core_cm3.h **** 
 367:Generated_Source\PSoC5/core_cm3.h **** #define CONTROL_nPRIV_Pos                   0U                                            /*!< CONT
 368:Generated_Source\PSoC5/core_cm3.h **** #define CONTROL_nPRIV_Msk                  (1UL /*<< CONTROL_nPRIV_Pos*/)                 /*!< CONT
 369:Generated_Source\PSoC5/core_cm3.h **** 
 370:Generated_Source\PSoC5/core_cm3.h **** /*@} end of group CMSIS_CORE */
 371:Generated_Source\PSoC5/core_cm3.h **** 
 372:Generated_Source\PSoC5/core_cm3.h **** 
 373:Generated_Source\PSoC5/core_cm3.h **** /**
 374:Generated_Source\PSoC5/core_cm3.h ****   \ingroup    CMSIS_core_register
 375:Generated_Source\PSoC5/core_cm3.h ****   \defgroup   CMSIS_NVIC  Nested Vectored Interrupt Controller (NVIC)
 376:Generated_Source\PSoC5/core_cm3.h ****   \brief      Type definitions for the NVIC Registers
 377:Generated_Source\PSoC5/core_cm3.h ****   @{
 378:Generated_Source\PSoC5/core_cm3.h ****  */
 379:Generated_Source\PSoC5/core_cm3.h **** 
 380:Generated_Source\PSoC5/core_cm3.h **** /**
 381:Generated_Source\PSoC5/core_cm3.h ****   \brief  Structure type to access the Nested Vectored Interrupt Controller (NVIC).
 382:Generated_Source\PSoC5/core_cm3.h ****  */
 383:Generated_Source\PSoC5/core_cm3.h **** typedef struct
 384:Generated_Source\PSoC5/core_cm3.h **** {
 385:Generated_Source\PSoC5/core_cm3.h ****   __IOM uint32_t ISER[8U];               /*!< Offset: 0x000 (R/W)  Interrupt Set Enable Register */
 386:Generated_Source\PSoC5/core_cm3.h ****         uint32_t RESERVED0[24U];
 387:Generated_Source\PSoC5/core_cm3.h ****   __IOM uint32_t ICER[8U];               /*!< Offset: 0x080 (R/W)  Interrupt Clear Enable Register 
 388:Generated_Source\PSoC5/core_cm3.h ****         uint32_t RSERVED1[24U];
 389:Generated_Source\PSoC5/core_cm3.h ****   __IOM uint32_t ISPR[8U];               /*!< Offset: 0x100 (R/W)  Interrupt Set Pending Register *
 390:Generated_Source\PSoC5/core_cm3.h ****         uint32_t RESERVED2[24U];
 391:Generated_Source\PSoC5/core_cm3.h ****   __IOM uint32_t ICPR[8U];               /*!< Offset: 0x180 (R/W)  Interrupt Clear Pending Register
 392:Generated_Source\PSoC5/core_cm3.h ****         uint32_t RESERVED3[24U];
 393:Generated_Source\PSoC5/core_cm3.h ****   __IOM uint32_t IABR[8U];               /*!< Offset: 0x200 (R/W)  Interrupt Active bit Register */
 394:Generated_Source\PSoC5/core_cm3.h ****         uint32_t RESERVED4[56U];
 395:Generated_Source\PSoC5/core_cm3.h ****   __IOM uint8_t  IP[240U];               /*!< Offset: 0x300 (R/W)  Interrupt Priority Register (8Bi
 396:Generated_Source\PSoC5/core_cm3.h ****         uint32_t RESERVED5[644U];
 397:Generated_Source\PSoC5/core_cm3.h ****   __OM  uint32_t STIR;                   /*!< Offset: 0xE00 ( /W)  Software Trigger Interrupt Regis
 398:Generated_Source\PSoC5/core_cm3.h **** }  NVIC_Type;
 399:Generated_Source\PSoC5/core_cm3.h **** 
 400:Generated_Source\PSoC5/core_cm3.h **** /* Software Triggered Interrupt Register Definitions */
 401:Generated_Source\PSoC5/core_cm3.h **** #define NVIC_STIR_INTID_Pos                 0U                                         /*!< STIR: I
 402:Generated_Source\PSoC5/core_cm3.h **** #define NVIC_STIR_INTID_Msk                (0x1FFUL /*<< NVIC_STIR_INTID_Pos*/)        /*!< STIR: I
ARM GAS  C:\Users\Patrick\AppData\Local\Temp\cc1OctCg.s 			page 42


 403:Generated_Source\PSoC5/core_cm3.h **** 
 404:Generated_Source\PSoC5/core_cm3.h **** /*@} end of group CMSIS_NVIC */
 405:Generated_Source\PSoC5/core_cm3.h **** 
 406:Generated_Source\PSoC5/core_cm3.h **** 
 407:Generated_Source\PSoC5/core_cm3.h **** /**
 408:Generated_Source\PSoC5/core_cm3.h ****   \ingroup  CMSIS_core_register
 409:Generated_Source\PSoC5/core_cm3.h ****   \defgroup CMSIS_SCB     System Control Block (SCB)
 410:Generated_Source\PSoC5/core_cm3.h ****   \brief    Type definitions for the System Control Block Registers
 411:Generated_Source\PSoC5/core_cm3.h ****   @{
 412:Generated_Source\PSoC5/core_cm3.h ****  */
 413:Generated_Source\PSoC5/core_cm3.h **** 
 414:Generated_Source\PSoC5/core_cm3.h **** /**
 415:Generated_Source\PSoC5/core_cm3.h ****   \brief  Structure type to access the System Control Block (SCB).
 416:Generated_Source\PSoC5/core_cm3.h ****  */
 417:Generated_Source\PSoC5/core_cm3.h **** typedef struct
 418:Generated_Source\PSoC5/core_cm3.h **** {
 419:Generated_Source\PSoC5/core_cm3.h ****   __IM  uint32_t CPUID;                  /*!< Offset: 0x000 (R/ )  CPUID Base Register */
 420:Generated_Source\PSoC5/core_cm3.h ****   __IOM uint32_t ICSR;                   /*!< Offset: 0x004 (R/W)  Interrupt Control and State Regi
 421:Generated_Source\PSoC5/core_cm3.h ****   __IOM uint32_t VTOR;                   /*!< Offset: 0x008 (R/W)  Vector Table Offset Register */
 422:Generated_Source\PSoC5/core_cm3.h ****   __IOM uint32_t AIRCR;                  /*!< Offset: 0x00C (R/W)  Application Interrupt and Reset 
 423:Generated_Source\PSoC5/core_cm3.h ****   __IOM uint32_t SCR;                    /*!< Offset: 0x010 (R/W)  System Control Register */
 424:Generated_Source\PSoC5/core_cm3.h ****   __IOM uint32_t CCR;                    /*!< Offset: 0x014 (R/W)  Configuration Control Register *
 425:Generated_Source\PSoC5/core_cm3.h ****   __IOM uint8_t  SHP[12U];               /*!< Offset: 0x018 (R/W)  System Handlers Priority Registe
 426:Generated_Source\PSoC5/core_cm3.h ****   __IOM uint32_t SHCSR;                  /*!< Offset: 0x024 (R/W)  System Handler Control and State
 427:Generated_Source\PSoC5/core_cm3.h ****   __IOM uint32_t CFSR;                   /*!< Offset: 0x028 (R/W)  Configurable Fault Status Regist
 428:Generated_Source\PSoC5/core_cm3.h ****   __IOM uint32_t HFSR;                   /*!< Offset: 0x02C (R/W)  HardFault Status Register */
 429:Generated_Source\PSoC5/core_cm3.h ****   __IOM uint32_t DFSR;                   /*!< Offset: 0x030 (R/W)  Debug Fault Status Register */
 430:Generated_Source\PSoC5/core_cm3.h ****   __IOM uint32_t MMFAR;                  /*!< Offset: 0x034 (R/W)  MemManage Fault Address Register
 431:Generated_Source\PSoC5/core_cm3.h ****   __IOM uint32_t BFAR;                   /*!< Offset: 0x038 (R/W)  BusFault Address Register */
 432:Generated_Source\PSoC5/core_cm3.h ****   __IOM uint32_t AFSR;                   /*!< Offset: 0x03C (R/W)  Auxiliary Fault Status Register 
 433:Generated_Source\PSoC5/core_cm3.h ****   __IM  uint32_t PFR[2U];                /*!< Offset: 0x040 (R/ )  Processor Feature Register */
 434:Generated_Source\PSoC5/core_cm3.h ****   __IM  uint32_t DFR;                    /*!< Offset: 0x048 (R/ )  Debug Feature Register */
 435:Generated_Source\PSoC5/core_cm3.h ****   __IM  uint32_t ADR;                    /*!< Offset: 0x04C (R/ )  Auxiliary Feature Register */
 436:Generated_Source\PSoC5/core_cm3.h ****   __IM  uint32_t MMFR[4U];               /*!< Offset: 0x050 (R/ )  Memory Model Feature Register */
 437:Generated_Source\PSoC5/core_cm3.h ****   __IM  uint32_t ISAR[5U];               /*!< Offset: 0x060 (R/ )  Instruction Set Attributes Regis
 438:Generated_Source\PSoC5/core_cm3.h ****         uint32_t RESERVED0[5U];
 439:Generated_Source\PSoC5/core_cm3.h ****   __IOM uint32_t CPACR;                  /*!< Offset: 0x088 (R/W)  Coprocessor Access Control Regis
 440:Generated_Source\PSoC5/core_cm3.h **** } SCB_Type;
 441:Generated_Source\PSoC5/core_cm3.h **** 
 442:Generated_Source\PSoC5/core_cm3.h **** /* SCB CPUID Register Definitions */
 443:Generated_Source\PSoC5/core_cm3.h **** #define SCB_CPUID_IMPLEMENTER_Pos          24U                                            /*!< SCB 
 444:Generated_Source\PSoC5/core_cm3.h **** #define SCB_CPUID_IMPLEMENTER_Msk          (0xFFUL << SCB_CPUID_IMPLEMENTER_Pos)          /*!< SCB 
 445:Generated_Source\PSoC5/core_cm3.h **** 
 446:Generated_Source\PSoC5/core_cm3.h **** #define SCB_CPUID_VARIANT_Pos              20U                                            /*!< SCB 
 447:Generated_Source\PSoC5/core_cm3.h **** #define SCB_CPUID_VARIANT_Msk              (0xFUL << SCB_CPUID_VARIANT_Pos)               /*!< SCB 
 448:Generated_Source\PSoC5/core_cm3.h **** 
 449:Generated_Source\PSoC5/core_cm3.h **** #define SCB_CPUID_ARCHITECTURE_Pos         16U                                            /*!< SCB 
 450:Generated_Source\PSoC5/core_cm3.h **** #define SCB_CPUID_ARCHITECTURE_Msk         (0xFUL << SCB_CPUID_ARCHITECTURE_Pos)          /*!< SCB 
 451:Generated_Source\PSoC5/core_cm3.h **** 
 452:Generated_Source\PSoC5/core_cm3.h **** #define SCB_CPUID_PARTNO_Pos                4U                                            /*!< SCB 
 453:Generated_Source\PSoC5/core_cm3.h **** #define SCB_CPUID_PARTNO_Msk               (0xFFFUL << SCB_CPUID_PARTNO_Pos)              /*!< SCB 
 454:Generated_Source\PSoC5/core_cm3.h **** 
 455:Generated_Source\PSoC5/core_cm3.h **** #define SCB_CPUID_REVISION_Pos              0U                                            /*!< SCB 
 456:Generated_Source\PSoC5/core_cm3.h **** #define SCB_CPUID_REVISION_Msk             (0xFUL /*<< SCB_CPUID_REVISION_Pos*/)          /*!< SCB 
 457:Generated_Source\PSoC5/core_cm3.h **** 
 458:Generated_Source\PSoC5/core_cm3.h **** /* SCB Interrupt Control State Register Definitions */
 459:Generated_Source\PSoC5/core_cm3.h **** #define SCB_ICSR_NMIPENDSET_Pos            31U                                            /*!< SCB 
ARM GAS  C:\Users\Patrick\AppData\Local\Temp\cc1OctCg.s 			page 43


 460:Generated_Source\PSoC5/core_cm3.h **** #define SCB_ICSR_NMIPENDSET_Msk            (1UL << SCB_ICSR_NMIPENDSET_Pos)               /*!< SCB 
 461:Generated_Source\PSoC5/core_cm3.h **** 
 462:Generated_Source\PSoC5/core_cm3.h **** #define SCB_ICSR_PENDSVSET_Pos             28U                                            /*!< SCB 
 463:Generated_Source\PSoC5/core_cm3.h **** #define SCB_ICSR_PENDSVSET_Msk             (1UL << SCB_ICSR_PENDSVSET_Pos)                /*!< SCB 
 464:Generated_Source\PSoC5/core_cm3.h **** 
 465:Generated_Source\PSoC5/core_cm3.h **** #define SCB_ICSR_PENDSVCLR_Pos             27U                                            /*!< SCB 
 466:Generated_Source\PSoC5/core_cm3.h **** #define SCB_ICSR_PENDSVCLR_Msk             (1UL << SCB_ICSR_PENDSVCLR_Pos)                /*!< SCB 
 467:Generated_Source\PSoC5/core_cm3.h **** 
 468:Generated_Source\PSoC5/core_cm3.h **** #define SCB_ICSR_PENDSTSET_Pos             26U                                            /*!< SCB 
 469:Generated_Source\PSoC5/core_cm3.h **** #define SCB_ICSR_PENDSTSET_Msk             (1UL << SCB_ICSR_PENDSTSET_Pos)                /*!< SCB 
 470:Generated_Source\PSoC5/core_cm3.h **** 
 471:Generated_Source\PSoC5/core_cm3.h **** #define SCB_ICSR_PENDSTCLR_Pos             25U                                            /*!< SCB 
 472:Generated_Source\PSoC5/core_cm3.h **** #define SCB_ICSR_PENDSTCLR_Msk             (1UL << SCB_ICSR_PENDSTCLR_Pos)                /*!< SCB 
 473:Generated_Source\PSoC5/core_cm3.h **** 
 474:Generated_Source\PSoC5/core_cm3.h **** #define SCB_ICSR_ISRPREEMPT_Pos            23U                                            /*!< SCB 
 475:Generated_Source\PSoC5/core_cm3.h **** #define SCB_ICSR_ISRPREEMPT_Msk            (1UL << SCB_ICSR_ISRPREEMPT_Pos)               /*!< SCB 
 476:Generated_Source\PSoC5/core_cm3.h **** 
 477:Generated_Source\PSoC5/core_cm3.h **** #define SCB_ICSR_ISRPENDING_Pos            22U                                            /*!< SCB 
 478:Generated_Source\PSoC5/core_cm3.h **** #define SCB_ICSR_ISRPENDING_Msk            (1UL << SCB_ICSR_ISRPENDING_Pos)               /*!< SCB 
 479:Generated_Source\PSoC5/core_cm3.h **** 
 480:Generated_Source\PSoC5/core_cm3.h **** #define SCB_ICSR_VECTPENDING_Pos           12U                                            /*!< SCB 
 481:Generated_Source\PSoC5/core_cm3.h **** #define SCB_ICSR_VECTPENDING_Msk           (0x1FFUL << SCB_ICSR_VECTPENDING_Pos)          /*!< SCB 
 482:Generated_Source\PSoC5/core_cm3.h **** 
 483:Generated_Source\PSoC5/core_cm3.h **** #define SCB_ICSR_RETTOBASE_Pos             11U                                            /*!< SCB 
 484:Generated_Source\PSoC5/core_cm3.h **** #define SCB_ICSR_RETTOBASE_Msk             (1UL << SCB_ICSR_RETTOBASE_Pos)                /*!< SCB 
 485:Generated_Source\PSoC5/core_cm3.h **** 
 486:Generated_Source\PSoC5/core_cm3.h **** #define SCB_ICSR_VECTACTIVE_Pos             0U                                            /*!< SCB 
 487:Generated_Source\PSoC5/core_cm3.h **** #define SCB_ICSR_VECTACTIVE_Msk            (0x1FFUL /*<< SCB_ICSR_VECTACTIVE_Pos*/)       /*!< SCB 
 488:Generated_Source\PSoC5/core_cm3.h **** 
 489:Generated_Source\PSoC5/core_cm3.h **** /* SCB Vector Table Offset Register Definitions */
 490:Generated_Source\PSoC5/core_cm3.h **** #if (__CM3_REV < 0x0201U)                   /* core r2p1 */
 491:Generated_Source\PSoC5/core_cm3.h **** #define SCB_VTOR_TBLBASE_Pos               29U                                            /*!< SCB 
 492:Generated_Source\PSoC5/core_cm3.h **** #define SCB_VTOR_TBLBASE_Msk               (1UL << SCB_VTOR_TBLBASE_Pos)                  /*!< SCB 
 493:Generated_Source\PSoC5/core_cm3.h **** 
 494:Generated_Source\PSoC5/core_cm3.h **** #define SCB_VTOR_TBLOFF_Pos                 7U                                            /*!< SCB 
 495:Generated_Source\PSoC5/core_cm3.h **** #define SCB_VTOR_TBLOFF_Msk                (0x3FFFFFUL << SCB_VTOR_TBLOFF_Pos)            /*!< SCB 
 496:Generated_Source\PSoC5/core_cm3.h **** #else
 497:Generated_Source\PSoC5/core_cm3.h **** #define SCB_VTOR_TBLOFF_Pos                 7U                                            /*!< SCB 
 498:Generated_Source\PSoC5/core_cm3.h **** #define SCB_VTOR_TBLOFF_Msk                (0x1FFFFFFUL << SCB_VTOR_TBLOFF_Pos)           /*!< SCB 
 499:Generated_Source\PSoC5/core_cm3.h **** #endif
 500:Generated_Source\PSoC5/core_cm3.h **** 
 501:Generated_Source\PSoC5/core_cm3.h **** /* SCB Application Interrupt and Reset Control Register Definitions */
 502:Generated_Source\PSoC5/core_cm3.h **** #define SCB_AIRCR_VECTKEY_Pos              16U                                            /*!< SCB 
 503:Generated_Source\PSoC5/core_cm3.h **** #define SCB_AIRCR_VECTKEY_Msk              (0xFFFFUL << SCB_AIRCR_VECTKEY_Pos)            /*!< SCB 
 504:Generated_Source\PSoC5/core_cm3.h **** 
 505:Generated_Source\PSoC5/core_cm3.h **** #define SCB_AIRCR_VECTKEYSTAT_Pos          16U                                            /*!< SCB 
 506:Generated_Source\PSoC5/core_cm3.h **** #define SCB_AIRCR_VECTKEYSTAT_Msk          (0xFFFFUL << SCB_AIRCR_VECTKEYSTAT_Pos)        /*!< SCB 
 507:Generated_Source\PSoC5/core_cm3.h **** 
 508:Generated_Source\PSoC5/core_cm3.h **** #define SCB_AIRCR_ENDIANESS_Pos            15U                                            /*!< SCB 
 509:Generated_Source\PSoC5/core_cm3.h **** #define SCB_AIRCR_ENDIANESS_Msk            (1UL << SCB_AIRCR_ENDIANESS_Pos)               /*!< SCB 
 510:Generated_Source\PSoC5/core_cm3.h **** 
 511:Generated_Source\PSoC5/core_cm3.h **** #define SCB_AIRCR_PRIGROUP_Pos              8U                                            /*!< SCB 
 512:Generated_Source\PSoC5/core_cm3.h **** #define SCB_AIRCR_PRIGROUP_Msk             (7UL << SCB_AIRCR_PRIGROUP_Pos)                /*!< SCB 
 513:Generated_Source\PSoC5/core_cm3.h **** 
 514:Generated_Source\PSoC5/core_cm3.h **** #define SCB_AIRCR_SYSRESETREQ_Pos           2U                                            /*!< SCB 
 515:Generated_Source\PSoC5/core_cm3.h **** #define SCB_AIRCR_SYSRESETREQ_Msk          (1UL << SCB_AIRCR_SYSRESETREQ_Pos)             /*!< SCB 
 516:Generated_Source\PSoC5/core_cm3.h **** 
ARM GAS  C:\Users\Patrick\AppData\Local\Temp\cc1OctCg.s 			page 44


 517:Generated_Source\PSoC5/core_cm3.h **** #define SCB_AIRCR_VECTCLRACTIVE_Pos         1U                                            /*!< SCB 
 518:Generated_Source\PSoC5/core_cm3.h **** #define SCB_AIRCR_VECTCLRACTIVE_Msk        (1UL << SCB_AIRCR_VECTCLRACTIVE_Pos)           /*!< SCB 
 519:Generated_Source\PSoC5/core_cm3.h **** 
 520:Generated_Source\PSoC5/core_cm3.h **** #define SCB_AIRCR_VECTRESET_Pos             0U                                            /*!< SCB 
 521:Generated_Source\PSoC5/core_cm3.h **** #define SCB_AIRCR_VECTRESET_Msk            (1UL /*<< SCB_AIRCR_VECTRESET_Pos*/)           /*!< SCB 
 522:Generated_Source\PSoC5/core_cm3.h **** 
 523:Generated_Source\PSoC5/core_cm3.h **** /* SCB System Control Register Definitions */
 524:Generated_Source\PSoC5/core_cm3.h **** #define SCB_SCR_SEVONPEND_Pos               4U                                            /*!< SCB 
 525:Generated_Source\PSoC5/core_cm3.h **** #define SCB_SCR_SEVONPEND_Msk              (1UL << SCB_SCR_SEVONPEND_Pos)                 /*!< SCB 
 526:Generated_Source\PSoC5/core_cm3.h **** 
 527:Generated_Source\PSoC5/core_cm3.h **** #define SCB_SCR_SLEEPDEEP_Pos               2U                                            /*!< SCB 
 528:Generated_Source\PSoC5/core_cm3.h **** #define SCB_SCR_SLEEPDEEP_Msk              (1UL << SCB_SCR_SLEEPDEEP_Pos)                 /*!< SCB 
 529:Generated_Source\PSoC5/core_cm3.h **** 
 530:Generated_Source\PSoC5/core_cm3.h **** #define SCB_SCR_SLEEPONEXIT_Pos             1U                                            /*!< SCB 
 531:Generated_Source\PSoC5/core_cm3.h **** #define SCB_SCR_SLEEPONEXIT_Msk            (1UL << SCB_SCR_SLEEPONEXIT_Pos)               /*!< SCB 
 532:Generated_Source\PSoC5/core_cm3.h **** 
 533:Generated_Source\PSoC5/core_cm3.h **** /* SCB Configuration Control Register Definitions */
 534:Generated_Source\PSoC5/core_cm3.h **** #define SCB_CCR_STKALIGN_Pos                9U                                            /*!< SCB 
 535:Generated_Source\PSoC5/core_cm3.h **** #define SCB_CCR_STKALIGN_Msk               (1UL << SCB_CCR_STKALIGN_Pos)                  /*!< SCB 
 536:Generated_Source\PSoC5/core_cm3.h **** 
 537:Generated_Source\PSoC5/core_cm3.h **** #define SCB_CCR_BFHFNMIGN_Pos               8U                                            /*!< SCB 
 538:Generated_Source\PSoC5/core_cm3.h **** #define SCB_CCR_BFHFNMIGN_Msk              (1UL << SCB_CCR_BFHFNMIGN_Pos)                 /*!< SCB 
 539:Generated_Source\PSoC5/core_cm3.h **** 
 540:Generated_Source\PSoC5/core_cm3.h **** #define SCB_CCR_DIV_0_TRP_Pos               4U                                            /*!< SCB 
 541:Generated_Source\PSoC5/core_cm3.h **** #define SCB_CCR_DIV_0_TRP_Msk              (1UL << SCB_CCR_DIV_0_TRP_Pos)                 /*!< SCB 
 542:Generated_Source\PSoC5/core_cm3.h **** 
 543:Generated_Source\PSoC5/core_cm3.h **** #define SCB_CCR_UNALIGN_TRP_Pos             3U                                            /*!< SCB 
 544:Generated_Source\PSoC5/core_cm3.h **** #define SCB_CCR_UNALIGN_TRP_Msk            (1UL << SCB_CCR_UNALIGN_TRP_Pos)               /*!< SCB 
 545:Generated_Source\PSoC5/core_cm3.h **** 
 546:Generated_Source\PSoC5/core_cm3.h **** #define SCB_CCR_USERSETMPEND_Pos            1U                                            /*!< SCB 
 547:Generated_Source\PSoC5/core_cm3.h **** #define SCB_CCR_USERSETMPEND_Msk           (1UL << SCB_CCR_USERSETMPEND_Pos)              /*!< SCB 
 548:Generated_Source\PSoC5/core_cm3.h **** 
 549:Generated_Source\PSoC5/core_cm3.h **** #define SCB_CCR_NONBASETHRDENA_Pos          0U                                            /*!< SCB 
 550:Generated_Source\PSoC5/core_cm3.h **** #define SCB_CCR_NONBASETHRDENA_Msk         (1UL /*<< SCB_CCR_NONBASETHRDENA_Pos*/)        /*!< SCB 
 551:Generated_Source\PSoC5/core_cm3.h **** 
 552:Generated_Source\PSoC5/core_cm3.h **** /* SCB System Handler Control and State Register Definitions */
 553:Generated_Source\PSoC5/core_cm3.h **** #define SCB_SHCSR_USGFAULTENA_Pos          18U                                            /*!< SCB 
 554:Generated_Source\PSoC5/core_cm3.h **** #define SCB_SHCSR_USGFAULTENA_Msk          (1UL << SCB_SHCSR_USGFAULTENA_Pos)             /*!< SCB 
 555:Generated_Source\PSoC5/core_cm3.h **** 
 556:Generated_Source\PSoC5/core_cm3.h **** #define SCB_SHCSR_BUSFAULTENA_Pos          17U                                            /*!< SCB 
 557:Generated_Source\PSoC5/core_cm3.h **** #define SCB_SHCSR_BUSFAULTENA_Msk          (1UL << SCB_SHCSR_BUSFAULTENA_Pos)             /*!< SCB 
 558:Generated_Source\PSoC5/core_cm3.h **** 
 559:Generated_Source\PSoC5/core_cm3.h **** #define SCB_SHCSR_MEMFAULTENA_Pos          16U                                            /*!< SCB 
 560:Generated_Source\PSoC5/core_cm3.h **** #define SCB_SHCSR_MEMFAULTENA_Msk          (1UL << SCB_SHCSR_MEMFAULTENA_Pos)             /*!< SCB 
 561:Generated_Source\PSoC5/core_cm3.h **** 
 562:Generated_Source\PSoC5/core_cm3.h **** #define SCB_SHCSR_SVCALLPENDED_Pos         15U                                            /*!< SCB 
 563:Generated_Source\PSoC5/core_cm3.h **** #define SCB_SHCSR_SVCALLPENDED_Msk         (1UL << SCB_SHCSR_SVCALLPENDED_Pos)            /*!< SCB 
 564:Generated_Source\PSoC5/core_cm3.h **** 
 565:Generated_Source\PSoC5/core_cm3.h **** #define SCB_SHCSR_BUSFAULTPENDED_Pos       14U                                            /*!< SCB 
 566:Generated_Source\PSoC5/core_cm3.h **** #define SCB_SHCSR_BUSFAULTPENDED_Msk       (1UL << SCB_SHCSR_BUSFAULTPENDED_Pos)          /*!< SCB 
 567:Generated_Source\PSoC5/core_cm3.h **** 
 568:Generated_Source\PSoC5/core_cm3.h **** #define SCB_SHCSR_MEMFAULTPENDED_Pos       13U                                            /*!< SCB 
 569:Generated_Source\PSoC5/core_cm3.h **** #define SCB_SHCSR_MEMFAULTPENDED_Msk       (1UL << SCB_SHCSR_MEMFAULTPENDED_Pos)          /*!< SCB 
 570:Generated_Source\PSoC5/core_cm3.h **** 
 571:Generated_Source\PSoC5/core_cm3.h **** #define SCB_SHCSR_USGFAULTPENDED_Pos       12U                                            /*!< SCB 
 572:Generated_Source\PSoC5/core_cm3.h **** #define SCB_SHCSR_USGFAULTPENDED_Msk       (1UL << SCB_SHCSR_USGFAULTPENDED_Pos)          /*!< SCB 
 573:Generated_Source\PSoC5/core_cm3.h **** 
ARM GAS  C:\Users\Patrick\AppData\Local\Temp\cc1OctCg.s 			page 45


 574:Generated_Source\PSoC5/core_cm3.h **** #define SCB_SHCSR_SYSTICKACT_Pos           11U                                            /*!< SCB 
 575:Generated_Source\PSoC5/core_cm3.h **** #define SCB_SHCSR_SYSTICKACT_Msk           (1UL << SCB_SHCSR_SYSTICKACT_Pos)              /*!< SCB 
 576:Generated_Source\PSoC5/core_cm3.h **** 
 577:Generated_Source\PSoC5/core_cm3.h **** #define SCB_SHCSR_PENDSVACT_Pos            10U                                            /*!< SCB 
 578:Generated_Source\PSoC5/core_cm3.h **** #define SCB_SHCSR_PENDSVACT_Msk            (1UL << SCB_SHCSR_PENDSVACT_Pos)               /*!< SCB 
 579:Generated_Source\PSoC5/core_cm3.h **** 
 580:Generated_Source\PSoC5/core_cm3.h **** #define SCB_SHCSR_MONITORACT_Pos            8U                                            /*!< SCB 
 581:Generated_Source\PSoC5/core_cm3.h **** #define SCB_SHCSR_MONITORACT_Msk           (1UL << SCB_SHCSR_MONITORACT_Pos)              /*!< SCB 
 582:Generated_Source\PSoC5/core_cm3.h **** 
 583:Generated_Source\PSoC5/core_cm3.h **** #define SCB_SHCSR_SVCALLACT_Pos             7U                                            /*!< SCB 
 584:Generated_Source\PSoC5/core_cm3.h **** #define SCB_SHCSR_SVCALLACT_Msk            (1UL << SCB_SHCSR_SVCALLACT_Pos)               /*!< SCB 
 585:Generated_Source\PSoC5/core_cm3.h **** 
 586:Generated_Source\PSoC5/core_cm3.h **** #define SCB_SHCSR_USGFAULTACT_Pos           3U                                            /*!< SCB 
 587:Generated_Source\PSoC5/core_cm3.h **** #define SCB_SHCSR_USGFAULTACT_Msk          (1UL << SCB_SHCSR_USGFAULTACT_Pos)             /*!< SCB 
 588:Generated_Source\PSoC5/core_cm3.h **** 
 589:Generated_Source\PSoC5/core_cm3.h **** #define SCB_SHCSR_BUSFAULTACT_Pos           1U                                            /*!< SCB 
 590:Generated_Source\PSoC5/core_cm3.h **** #define SCB_SHCSR_BUSFAULTACT_Msk          (1UL << SCB_SHCSR_BUSFAULTACT_Pos)             /*!< SCB 
 591:Generated_Source\PSoC5/core_cm3.h **** 
 592:Generated_Source\PSoC5/core_cm3.h **** #define SCB_SHCSR_MEMFAULTACT_Pos           0U                                            /*!< SCB 
 593:Generated_Source\PSoC5/core_cm3.h **** #define SCB_SHCSR_MEMFAULTACT_Msk          (1UL /*<< SCB_SHCSR_MEMFAULTACT_Pos*/)         /*!< SCB 
 594:Generated_Source\PSoC5/core_cm3.h **** 
 595:Generated_Source\PSoC5/core_cm3.h **** /* SCB Configurable Fault Status Register Definitions */
 596:Generated_Source\PSoC5/core_cm3.h **** #define SCB_CFSR_USGFAULTSR_Pos            16U                                            /*!< SCB 
 597:Generated_Source\PSoC5/core_cm3.h **** #define SCB_CFSR_USGFAULTSR_Msk            (0xFFFFUL << SCB_CFSR_USGFAULTSR_Pos)          /*!< SCB 
 598:Generated_Source\PSoC5/core_cm3.h **** 
 599:Generated_Source\PSoC5/core_cm3.h **** #define SCB_CFSR_BUSFAULTSR_Pos             8U                                            /*!< SCB 
 600:Generated_Source\PSoC5/core_cm3.h **** #define SCB_CFSR_BUSFAULTSR_Msk            (0xFFUL << SCB_CFSR_BUSFAULTSR_Pos)            /*!< SCB 
 601:Generated_Source\PSoC5/core_cm3.h **** 
 602:Generated_Source\PSoC5/core_cm3.h **** #define SCB_CFSR_MEMFAULTSR_Pos             0U                                            /*!< SCB 
 603:Generated_Source\PSoC5/core_cm3.h **** #define SCB_CFSR_MEMFAULTSR_Msk            (0xFFUL /*<< SCB_CFSR_MEMFAULTSR_Pos*/)        /*!< SCB 
 604:Generated_Source\PSoC5/core_cm3.h **** 
 605:Generated_Source\PSoC5/core_cm3.h **** /* SCB Hard Fault Status Register Definitions */
 606:Generated_Source\PSoC5/core_cm3.h **** #define SCB_HFSR_DEBUGEVT_Pos              31U                                            /*!< SCB 
 607:Generated_Source\PSoC5/core_cm3.h **** #define SCB_HFSR_DEBUGEVT_Msk              (1UL << SCB_HFSR_DEBUGEVT_Pos)                 /*!< SCB 
 608:Generated_Source\PSoC5/core_cm3.h **** 
 609:Generated_Source\PSoC5/core_cm3.h **** #define SCB_HFSR_FORCED_Pos                30U                                            /*!< SCB 
 610:Generated_Source\PSoC5/core_cm3.h **** #define SCB_HFSR_FORCED_Msk                (1UL << SCB_HFSR_FORCED_Pos)                   /*!< SCB 
 611:Generated_Source\PSoC5/core_cm3.h **** 
 612:Generated_Source\PSoC5/core_cm3.h **** #define SCB_HFSR_VECTTBL_Pos                1U                                            /*!< SCB 
 613:Generated_Source\PSoC5/core_cm3.h **** #define SCB_HFSR_VECTTBL_Msk               (1UL << SCB_HFSR_VECTTBL_Pos)                  /*!< SCB 
 614:Generated_Source\PSoC5/core_cm3.h **** 
 615:Generated_Source\PSoC5/core_cm3.h **** /* SCB Debug Fault Status Register Definitions */
 616:Generated_Source\PSoC5/core_cm3.h **** #define SCB_DFSR_EXTERNAL_Pos               4U                                            /*!< SCB 
 617:Generated_Source\PSoC5/core_cm3.h **** #define SCB_DFSR_EXTERNAL_Msk              (1UL << SCB_DFSR_EXTERNAL_Pos)                 /*!< SCB 
 618:Generated_Source\PSoC5/core_cm3.h **** 
 619:Generated_Source\PSoC5/core_cm3.h **** #define SCB_DFSR_VCATCH_Pos                 3U                                            /*!< SCB 
 620:Generated_Source\PSoC5/core_cm3.h **** #define SCB_DFSR_VCATCH_Msk                (1UL << SCB_DFSR_VCATCH_Pos)                   /*!< SCB 
 621:Generated_Source\PSoC5/core_cm3.h **** 
 622:Generated_Source\PSoC5/core_cm3.h **** #define SCB_DFSR_DWTTRAP_Pos                2U                                            /*!< SCB 
 623:Generated_Source\PSoC5/core_cm3.h **** #define SCB_DFSR_DWTTRAP_Msk               (1UL << SCB_DFSR_DWTTRAP_Pos)                  /*!< SCB 
 624:Generated_Source\PSoC5/core_cm3.h **** 
 625:Generated_Source\PSoC5/core_cm3.h **** #define SCB_DFSR_BKPT_Pos                   1U                                            /*!< SCB 
 626:Generated_Source\PSoC5/core_cm3.h **** #define SCB_DFSR_BKPT_Msk                  (1UL << SCB_DFSR_BKPT_Pos)                     /*!< SCB 
 627:Generated_Source\PSoC5/core_cm3.h **** 
 628:Generated_Source\PSoC5/core_cm3.h **** #define SCB_DFSR_HALTED_Pos                 0U                                            /*!< SCB 
 629:Generated_Source\PSoC5/core_cm3.h **** #define SCB_DFSR_HALTED_Msk                (1UL /*<< SCB_DFSR_HALTED_Pos*/)               /*!< SCB 
 630:Generated_Source\PSoC5/core_cm3.h **** 
ARM GAS  C:\Users\Patrick\AppData\Local\Temp\cc1OctCg.s 			page 46


 631:Generated_Source\PSoC5/core_cm3.h **** /*@} end of group CMSIS_SCB */
 632:Generated_Source\PSoC5/core_cm3.h **** 
 633:Generated_Source\PSoC5/core_cm3.h **** 
 634:Generated_Source\PSoC5/core_cm3.h **** /**
 635:Generated_Source\PSoC5/core_cm3.h ****   \ingroup  CMSIS_core_register
 636:Generated_Source\PSoC5/core_cm3.h ****   \defgroup CMSIS_SCnSCB System Controls not in SCB (SCnSCB)
 637:Generated_Source\PSoC5/core_cm3.h ****   \brief    Type definitions for the System Control and ID Register not in the SCB
 638:Generated_Source\PSoC5/core_cm3.h ****   @{
 639:Generated_Source\PSoC5/core_cm3.h ****  */
 640:Generated_Source\PSoC5/core_cm3.h **** 
 641:Generated_Source\PSoC5/core_cm3.h **** /**
 642:Generated_Source\PSoC5/core_cm3.h ****   \brief  Structure type to access the System Control and ID Register not in the SCB.
 643:Generated_Source\PSoC5/core_cm3.h ****  */
 644:Generated_Source\PSoC5/core_cm3.h **** typedef struct
 645:Generated_Source\PSoC5/core_cm3.h **** {
 646:Generated_Source\PSoC5/core_cm3.h ****         uint32_t RESERVED0[1U];
 647:Generated_Source\PSoC5/core_cm3.h ****   __IM  uint32_t ICTR;                   /*!< Offset: 0x004 (R/ )  Interrupt Controller Type Regist
 648:Generated_Source\PSoC5/core_cm3.h **** #if ((defined __CM3_REV) && (__CM3_REV >= 0x200U))
 649:Generated_Source\PSoC5/core_cm3.h ****   __IOM uint32_t ACTLR;                  /*!< Offset: 0x008 (R/W)  Auxiliary Control Register */
 650:Generated_Source\PSoC5/core_cm3.h **** #else
 651:Generated_Source\PSoC5/core_cm3.h ****         uint32_t RESERVED1[1U];
 652:Generated_Source\PSoC5/core_cm3.h **** #endif
 653:Generated_Source\PSoC5/core_cm3.h **** } SCnSCB_Type;
 654:Generated_Source\PSoC5/core_cm3.h **** 
 655:Generated_Source\PSoC5/core_cm3.h **** /* Interrupt Controller Type Register Definitions */
 656:Generated_Source\PSoC5/core_cm3.h **** #define SCnSCB_ICTR_INTLINESNUM_Pos         0U                                         /*!< ICTR: I
 657:Generated_Source\PSoC5/core_cm3.h **** #define SCnSCB_ICTR_INTLINESNUM_Msk        (0xFUL /*<< SCnSCB_ICTR_INTLINESNUM_Pos*/)  /*!< ICTR: I
 658:Generated_Source\PSoC5/core_cm3.h **** 
 659:Generated_Source\PSoC5/core_cm3.h **** /* Auxiliary Control Register Definitions */
 660:Generated_Source\PSoC5/core_cm3.h **** 
 661:Generated_Source\PSoC5/core_cm3.h **** #define SCnSCB_ACTLR_DISFOLD_Pos            2U                                         /*!< ACTLR: 
 662:Generated_Source\PSoC5/core_cm3.h **** #define SCnSCB_ACTLR_DISFOLD_Msk           (1UL << SCnSCB_ACTLR_DISFOLD_Pos)           /*!< ACTLR: 
 663:Generated_Source\PSoC5/core_cm3.h **** 
 664:Generated_Source\PSoC5/core_cm3.h **** #define SCnSCB_ACTLR_DISDEFWBUF_Pos         1U                                         /*!< ACTLR: 
 665:Generated_Source\PSoC5/core_cm3.h **** #define SCnSCB_ACTLR_DISDEFWBUF_Msk        (1UL << SCnSCB_ACTLR_DISDEFWBUF_Pos)        /*!< ACTLR: 
 666:Generated_Source\PSoC5/core_cm3.h **** 
 667:Generated_Source\PSoC5/core_cm3.h **** #define SCnSCB_ACTLR_DISMCYCINT_Pos         0U                                         /*!< ACTLR: 
 668:Generated_Source\PSoC5/core_cm3.h **** #define SCnSCB_ACTLR_DISMCYCINT_Msk        (1UL /*<< SCnSCB_ACTLR_DISMCYCINT_Pos*/)    /*!< ACTLR: 
 669:Generated_Source\PSoC5/core_cm3.h **** 
 670:Generated_Source\PSoC5/core_cm3.h **** /*@} end of group CMSIS_SCnotSCB */
 671:Generated_Source\PSoC5/core_cm3.h **** 
 672:Generated_Source\PSoC5/core_cm3.h **** 
 673:Generated_Source\PSoC5/core_cm3.h **** /**
 674:Generated_Source\PSoC5/core_cm3.h ****   \ingroup  CMSIS_core_register
 675:Generated_Source\PSoC5/core_cm3.h ****   \defgroup CMSIS_SysTick     System Tick Timer (SysTick)
 676:Generated_Source\PSoC5/core_cm3.h ****   \brief    Type definitions for the System Timer Registers.
 677:Generated_Source\PSoC5/core_cm3.h ****   @{
 678:Generated_Source\PSoC5/core_cm3.h ****  */
 679:Generated_Source\PSoC5/core_cm3.h **** 
 680:Generated_Source\PSoC5/core_cm3.h **** /**
 681:Generated_Source\PSoC5/core_cm3.h ****   \brief  Structure type to access the System Timer (SysTick).
 682:Generated_Source\PSoC5/core_cm3.h ****  */
 683:Generated_Source\PSoC5/core_cm3.h **** typedef struct
 684:Generated_Source\PSoC5/core_cm3.h **** {
 685:Generated_Source\PSoC5/core_cm3.h ****   __IOM uint32_t CTRL;                   /*!< Offset: 0x000 (R/W)  SysTick Control and Status Regis
 686:Generated_Source\PSoC5/core_cm3.h ****   __IOM uint32_t LOAD;                   /*!< Offset: 0x004 (R/W)  SysTick Reload Value Register */
 687:Generated_Source\PSoC5/core_cm3.h ****   __IOM uint32_t VAL;                    /*!< Offset: 0x008 (R/W)  SysTick Current Value Register *
ARM GAS  C:\Users\Patrick\AppData\Local\Temp\cc1OctCg.s 			page 47


 688:Generated_Source\PSoC5/core_cm3.h ****   __IM  uint32_t CALIB;                  /*!< Offset: 0x00C (R/ )  SysTick Calibration Register */
 689:Generated_Source\PSoC5/core_cm3.h **** } SysTick_Type;
 690:Generated_Source\PSoC5/core_cm3.h **** 
 691:Generated_Source\PSoC5/core_cm3.h **** /* SysTick Control / Status Register Definitions */
 692:Generated_Source\PSoC5/core_cm3.h **** #define SysTick_CTRL_COUNTFLAG_Pos         16U                                            /*!< SysT
 693:Generated_Source\PSoC5/core_cm3.h **** #define SysTick_CTRL_COUNTFLAG_Msk         (1UL << SysTick_CTRL_COUNTFLAG_Pos)            /*!< SysT
 694:Generated_Source\PSoC5/core_cm3.h **** 
 695:Generated_Source\PSoC5/core_cm3.h **** #define SysTick_CTRL_CLKSOURCE_Pos          2U                                            /*!< SysT
 696:Generated_Source\PSoC5/core_cm3.h **** #define SysTick_CTRL_CLKSOURCE_Msk         (1UL << SysTick_CTRL_CLKSOURCE_Pos)            /*!< SysT
 697:Generated_Source\PSoC5/core_cm3.h **** 
 698:Generated_Source\PSoC5/core_cm3.h **** #define SysTick_CTRL_TICKINT_Pos            1U                                            /*!< SysT
 699:Generated_Source\PSoC5/core_cm3.h **** #define SysTick_CTRL_TICKINT_Msk           (1UL << SysTick_CTRL_TICKINT_Pos)              /*!< SysT
 700:Generated_Source\PSoC5/core_cm3.h **** 
 701:Generated_Source\PSoC5/core_cm3.h **** #define SysTick_CTRL_ENABLE_Pos             0U                                            /*!< SysT
 702:Generated_Source\PSoC5/core_cm3.h **** #define SysTick_CTRL_ENABLE_Msk            (1UL /*<< SysTick_CTRL_ENABLE_Pos*/)           /*!< SysT
 703:Generated_Source\PSoC5/core_cm3.h **** 
 704:Generated_Source\PSoC5/core_cm3.h **** /* SysTick Reload Register Definitions */
 705:Generated_Source\PSoC5/core_cm3.h **** #define SysTick_LOAD_RELOAD_Pos             0U                                            /*!< SysT
 706:Generated_Source\PSoC5/core_cm3.h **** #define SysTick_LOAD_RELOAD_Msk            (0xFFFFFFUL /*<< SysTick_LOAD_RELOAD_Pos*/)    /*!< SysT
 707:Generated_Source\PSoC5/core_cm3.h **** 
 708:Generated_Source\PSoC5/core_cm3.h **** /* SysTick Current Register Definitions */
 709:Generated_Source\PSoC5/core_cm3.h **** #define SysTick_VAL_CURRENT_Pos             0U                                            /*!< SysT
 710:Generated_Source\PSoC5/core_cm3.h **** #define SysTick_VAL_CURRENT_Msk            (0xFFFFFFUL /*<< SysTick_VAL_CURRENT_Pos*/)    /*!< SysT
 711:Generated_Source\PSoC5/core_cm3.h **** 
 712:Generated_Source\PSoC5/core_cm3.h **** /* SysTick Calibration Register Definitions */
 713:Generated_Source\PSoC5/core_cm3.h **** #define SysTick_CALIB_NOREF_Pos            31U                                            /*!< SysT
 714:Generated_Source\PSoC5/core_cm3.h **** #define SysTick_CALIB_NOREF_Msk            (1UL << SysTick_CALIB_NOREF_Pos)               /*!< SysT
 715:Generated_Source\PSoC5/core_cm3.h **** 
 716:Generated_Source\PSoC5/core_cm3.h **** #define SysTick_CALIB_SKEW_Pos             30U                                            /*!< SysT
 717:Generated_Source\PSoC5/core_cm3.h **** #define SysTick_CALIB_SKEW_Msk             (1UL << SysTick_CALIB_SKEW_Pos)                /*!< SysT
 718:Generated_Source\PSoC5/core_cm3.h **** 
 719:Generated_Source\PSoC5/core_cm3.h **** #define SysTick_CALIB_TENMS_Pos             0U                                            /*!< SysT
 720:Generated_Source\PSoC5/core_cm3.h **** #define SysTick_CALIB_TENMS_Msk            (0xFFFFFFUL /*<< SysTick_CALIB_TENMS_Pos*/)    /*!< SysT
 721:Generated_Source\PSoC5/core_cm3.h **** 
 722:Generated_Source\PSoC5/core_cm3.h **** /*@} end of group CMSIS_SysTick */
 723:Generated_Source\PSoC5/core_cm3.h **** 
 724:Generated_Source\PSoC5/core_cm3.h **** 
 725:Generated_Source\PSoC5/core_cm3.h **** /**
 726:Generated_Source\PSoC5/core_cm3.h ****   \ingroup  CMSIS_core_register
 727:Generated_Source\PSoC5/core_cm3.h ****   \defgroup CMSIS_ITM     Instrumentation Trace Macrocell (ITM)
 728:Generated_Source\PSoC5/core_cm3.h ****   \brief    Type definitions for the Instrumentation Trace Macrocell (ITM)
 729:Generated_Source\PSoC5/core_cm3.h ****   @{
 730:Generated_Source\PSoC5/core_cm3.h ****  */
 731:Generated_Source\PSoC5/core_cm3.h **** 
 732:Generated_Source\PSoC5/core_cm3.h **** /**
 733:Generated_Source\PSoC5/core_cm3.h ****   \brief  Structure type to access the Instrumentation Trace Macrocell Register (ITM).
 734:Generated_Source\PSoC5/core_cm3.h ****  */
 735:Generated_Source\PSoC5/core_cm3.h **** typedef struct
 736:Generated_Source\PSoC5/core_cm3.h **** {
 737:Generated_Source\PSoC5/core_cm3.h ****   __OM  union
 738:Generated_Source\PSoC5/core_cm3.h ****   {
 739:Generated_Source\PSoC5/core_cm3.h ****     __OM  uint8_t    u8;                 /*!< Offset: 0x000 ( /W)  ITM Stimulus Port 8-bit */
 740:Generated_Source\PSoC5/core_cm3.h ****     __OM  uint16_t   u16;                /*!< Offset: 0x000 ( /W)  ITM Stimulus Port 16-bit */
 741:Generated_Source\PSoC5/core_cm3.h ****     __OM  uint32_t   u32;                /*!< Offset: 0x000 ( /W)  ITM Stimulus Port 32-bit */
 742:Generated_Source\PSoC5/core_cm3.h ****   }  PORT [32U];                         /*!< Offset: 0x000 ( /W)  ITM Stimulus Port Registers */
 743:Generated_Source\PSoC5/core_cm3.h ****         uint32_t RESERVED0[864U];
 744:Generated_Source\PSoC5/core_cm3.h ****   __IOM uint32_t TER;                    /*!< Offset: 0xE00 (R/W)  ITM Trace Enable Register */
ARM GAS  C:\Users\Patrick\AppData\Local\Temp\cc1OctCg.s 			page 48


 745:Generated_Source\PSoC5/core_cm3.h ****         uint32_t RESERVED1[15U];
 746:Generated_Source\PSoC5/core_cm3.h ****   __IOM uint32_t TPR;                    /*!< Offset: 0xE40 (R/W)  ITM Trace Privilege Register */
 747:Generated_Source\PSoC5/core_cm3.h ****         uint32_t RESERVED2[15U];
 748:Generated_Source\PSoC5/core_cm3.h ****   __IOM uint32_t TCR;                    /*!< Offset: 0xE80 (R/W)  ITM Trace Control Register */
 749:Generated_Source\PSoC5/core_cm3.h ****         uint32_t RESERVED3[29U];
 750:Generated_Source\PSoC5/core_cm3.h ****   __OM  uint32_t IWR;                    /*!< Offset: 0xEF8 ( /W)  ITM Integration Write Register *
 751:Generated_Source\PSoC5/core_cm3.h ****   __IM  uint32_t IRR;                    /*!< Offset: 0xEFC (R/ )  ITM Integration Read Register */
 752:Generated_Source\PSoC5/core_cm3.h ****   __IOM uint32_t IMCR;                   /*!< Offset: 0xF00 (R/W)  ITM Integration Mode Control Reg
 753:Generated_Source\PSoC5/core_cm3.h ****         uint32_t RESERVED4[43U];
 754:Generated_Source\PSoC5/core_cm3.h ****   __OM  uint32_t LAR;                    /*!< Offset: 0xFB0 ( /W)  ITM Lock Access Register */
 755:Generated_Source\PSoC5/core_cm3.h ****   __IM  uint32_t LSR;                    /*!< Offset: 0xFB4 (R/ )  ITM Lock Status Register */
 756:Generated_Source\PSoC5/core_cm3.h ****         uint32_t RESERVED5[6U];
 757:Generated_Source\PSoC5/core_cm3.h ****   __IM  uint32_t PID4;                   /*!< Offset: 0xFD0 (R/ )  ITM Peripheral Identification Re
 758:Generated_Source\PSoC5/core_cm3.h ****   __IM  uint32_t PID5;                   /*!< Offset: 0xFD4 (R/ )  ITM Peripheral Identification Re
 759:Generated_Source\PSoC5/core_cm3.h ****   __IM  uint32_t PID6;                   /*!< Offset: 0xFD8 (R/ )  ITM Peripheral Identification Re
 760:Generated_Source\PSoC5/core_cm3.h ****   __IM  uint32_t PID7;                   /*!< Offset: 0xFDC (R/ )  ITM Peripheral Identification Re
 761:Generated_Source\PSoC5/core_cm3.h ****   __IM  uint32_t PID0;                   /*!< Offset: 0xFE0 (R/ )  ITM Peripheral Identification Re
 762:Generated_Source\PSoC5/core_cm3.h ****   __IM  uint32_t PID1;                   /*!< Offset: 0xFE4 (R/ )  ITM Peripheral Identification Re
 763:Generated_Source\PSoC5/core_cm3.h ****   __IM  uint32_t PID2;                   /*!< Offset: 0xFE8 (R/ )  ITM Peripheral Identification Re
 764:Generated_Source\PSoC5/core_cm3.h ****   __IM  uint32_t PID3;                   /*!< Offset: 0xFEC (R/ )  ITM Peripheral Identification Re
 765:Generated_Source\PSoC5/core_cm3.h ****   __IM  uint32_t CID0;                   /*!< Offset: 0xFF0 (R/ )  ITM Component  Identification Re
 766:Generated_Source\PSoC5/core_cm3.h ****   __IM  uint32_t CID1;                   /*!< Offset: 0xFF4 (R/ )  ITM Component  Identification Re
 767:Generated_Source\PSoC5/core_cm3.h ****   __IM  uint32_t CID2;                   /*!< Offset: 0xFF8 (R/ )  ITM Component  Identification Re
 768:Generated_Source\PSoC5/core_cm3.h ****   __IM  uint32_t CID3;                   /*!< Offset: 0xFFC (R/ )  ITM Component  Identification Re
 769:Generated_Source\PSoC5/core_cm3.h **** } ITM_Type;
 770:Generated_Source\PSoC5/core_cm3.h **** 
 771:Generated_Source\PSoC5/core_cm3.h **** /* ITM Trace Privilege Register Definitions */
 772:Generated_Source\PSoC5/core_cm3.h **** #define ITM_TPR_PRIVMASK_Pos                0U                                            /*!< ITM 
 773:Generated_Source\PSoC5/core_cm3.h **** #define ITM_TPR_PRIVMASK_Msk               (0xFUL /*<< ITM_TPR_PRIVMASK_Pos*/)            /*!< ITM 
 774:Generated_Source\PSoC5/core_cm3.h **** 
 775:Generated_Source\PSoC5/core_cm3.h **** /* ITM Trace Control Register Definitions */
 776:Generated_Source\PSoC5/core_cm3.h **** #define ITM_TCR_BUSY_Pos                   23U                                            /*!< ITM 
 777:Generated_Source\PSoC5/core_cm3.h **** #define ITM_TCR_BUSY_Msk                   (1UL << ITM_TCR_BUSY_Pos)                      /*!< ITM 
 778:Generated_Source\PSoC5/core_cm3.h **** 
 779:Generated_Source\PSoC5/core_cm3.h **** #define ITM_TCR_TraceBusID_Pos             16U                                            /*!< ITM 
 780:Generated_Source\PSoC5/core_cm3.h **** #define ITM_TCR_TraceBusID_Msk             (0x7FUL << ITM_TCR_TraceBusID_Pos)             /*!< ITM 
 781:Generated_Source\PSoC5/core_cm3.h **** 
 782:Generated_Source\PSoC5/core_cm3.h **** #define ITM_TCR_GTSFREQ_Pos                10U                                            /*!< ITM 
 783:Generated_Source\PSoC5/core_cm3.h **** #define ITM_TCR_GTSFREQ_Msk                (3UL << ITM_TCR_GTSFREQ_Pos)                   /*!< ITM 
 784:Generated_Source\PSoC5/core_cm3.h **** 
 785:Generated_Source\PSoC5/core_cm3.h **** #define ITM_TCR_TSPrescale_Pos              8U                                            /*!< ITM 
 786:Generated_Source\PSoC5/core_cm3.h **** #define ITM_TCR_TSPrescale_Msk             (3UL << ITM_TCR_TSPrescale_Pos)                /*!< ITM 
 787:Generated_Source\PSoC5/core_cm3.h **** 
 788:Generated_Source\PSoC5/core_cm3.h **** #define ITM_TCR_SWOENA_Pos                  4U                                            /*!< ITM 
 789:Generated_Source\PSoC5/core_cm3.h **** #define ITM_TCR_SWOENA_Msk                 (1UL << ITM_TCR_SWOENA_Pos)                    /*!< ITM 
 790:Generated_Source\PSoC5/core_cm3.h **** 
 791:Generated_Source\PSoC5/core_cm3.h **** #define ITM_TCR_DWTENA_Pos                  3U                                            /*!< ITM 
 792:Generated_Source\PSoC5/core_cm3.h **** #define ITM_TCR_DWTENA_Msk                 (1UL << ITM_TCR_DWTENA_Pos)                    /*!< ITM 
 793:Generated_Source\PSoC5/core_cm3.h **** 
 794:Generated_Source\PSoC5/core_cm3.h **** #define ITM_TCR_SYNCENA_Pos                 2U                                            /*!< ITM 
 795:Generated_Source\PSoC5/core_cm3.h **** #define ITM_TCR_SYNCENA_Msk                (1UL << ITM_TCR_SYNCENA_Pos)                   /*!< ITM 
 796:Generated_Source\PSoC5/core_cm3.h **** 
 797:Generated_Source\PSoC5/core_cm3.h **** #define ITM_TCR_TSENA_Pos                   1U                                            /*!< ITM 
 798:Generated_Source\PSoC5/core_cm3.h **** #define ITM_TCR_TSENA_Msk                  (1UL << ITM_TCR_TSENA_Pos)                     /*!< ITM 
 799:Generated_Source\PSoC5/core_cm3.h **** 
 800:Generated_Source\PSoC5/core_cm3.h **** #define ITM_TCR_ITMENA_Pos                  0U                                            /*!< ITM 
 801:Generated_Source\PSoC5/core_cm3.h **** #define ITM_TCR_ITMENA_Msk                 (1UL /*<< ITM_TCR_ITMENA_Pos*/)                /*!< ITM 
ARM GAS  C:\Users\Patrick\AppData\Local\Temp\cc1OctCg.s 			page 49


 802:Generated_Source\PSoC5/core_cm3.h **** 
 803:Generated_Source\PSoC5/core_cm3.h **** /* ITM Integration Write Register Definitions */
 804:Generated_Source\PSoC5/core_cm3.h **** #define ITM_IWR_ATVALIDM_Pos                0U                                            /*!< ITM 
 805:Generated_Source\PSoC5/core_cm3.h **** #define ITM_IWR_ATVALIDM_Msk               (1UL /*<< ITM_IWR_ATVALIDM_Pos*/)              /*!< ITM 
 806:Generated_Source\PSoC5/core_cm3.h **** 
 807:Generated_Source\PSoC5/core_cm3.h **** /* ITM Integration Read Register Definitions */
 808:Generated_Source\PSoC5/core_cm3.h **** #define ITM_IRR_ATREADYM_Pos                0U                                            /*!< ITM 
 809:Generated_Source\PSoC5/core_cm3.h **** #define ITM_IRR_ATREADYM_Msk               (1UL /*<< ITM_IRR_ATREADYM_Pos*/)              /*!< ITM 
 810:Generated_Source\PSoC5/core_cm3.h **** 
 811:Generated_Source\PSoC5/core_cm3.h **** /* ITM Integration Mode Control Register Definitions */
 812:Generated_Source\PSoC5/core_cm3.h **** #define ITM_IMCR_INTEGRATION_Pos            0U                                            /*!< ITM 
 813:Generated_Source\PSoC5/core_cm3.h **** #define ITM_IMCR_INTEGRATION_Msk           (1UL /*<< ITM_IMCR_INTEGRATION_Pos*/)          /*!< ITM 
 814:Generated_Source\PSoC5/core_cm3.h **** 
 815:Generated_Source\PSoC5/core_cm3.h **** /* ITM Lock Status Register Definitions */
 816:Generated_Source\PSoC5/core_cm3.h **** #define ITM_LSR_ByteAcc_Pos                 2U                                            /*!< ITM 
 817:Generated_Source\PSoC5/core_cm3.h **** #define ITM_LSR_ByteAcc_Msk                (1UL << ITM_LSR_ByteAcc_Pos)                   /*!< ITM 
 818:Generated_Source\PSoC5/core_cm3.h **** 
 819:Generated_Source\PSoC5/core_cm3.h **** #define ITM_LSR_Access_Pos                  1U                                            /*!< ITM 
 820:Generated_Source\PSoC5/core_cm3.h **** #define ITM_LSR_Access_Msk                 (1UL << ITM_LSR_Access_Pos)                    /*!< ITM 
 821:Generated_Source\PSoC5/core_cm3.h **** 
 822:Generated_Source\PSoC5/core_cm3.h **** #define ITM_LSR_Present_Pos                 0U                                            /*!< ITM 
 823:Generated_Source\PSoC5/core_cm3.h **** #define ITM_LSR_Present_Msk                (1UL /*<< ITM_LSR_Present_Pos*/)               /*!< ITM 
 824:Generated_Source\PSoC5/core_cm3.h **** 
 825:Generated_Source\PSoC5/core_cm3.h **** /*@}*/ /* end of group CMSIS_ITM */
 826:Generated_Source\PSoC5/core_cm3.h **** 
 827:Generated_Source\PSoC5/core_cm3.h **** 
 828:Generated_Source\PSoC5/core_cm3.h **** /**
 829:Generated_Source\PSoC5/core_cm3.h ****   \ingroup  CMSIS_core_register
 830:Generated_Source\PSoC5/core_cm3.h ****   \defgroup CMSIS_DWT     Data Watchpoint and Trace (DWT)
 831:Generated_Source\PSoC5/core_cm3.h ****   \brief    Type definitions for the Data Watchpoint and Trace (DWT)
 832:Generated_Source\PSoC5/core_cm3.h ****   @{
 833:Generated_Source\PSoC5/core_cm3.h ****  */
 834:Generated_Source\PSoC5/core_cm3.h **** 
 835:Generated_Source\PSoC5/core_cm3.h **** /**
 836:Generated_Source\PSoC5/core_cm3.h ****   \brief  Structure type to access the Data Watchpoint and Trace Register (DWT).
 837:Generated_Source\PSoC5/core_cm3.h ****  */
 838:Generated_Source\PSoC5/core_cm3.h **** typedef struct
 839:Generated_Source\PSoC5/core_cm3.h **** {
 840:Generated_Source\PSoC5/core_cm3.h ****   __IOM uint32_t CTRL;                   /*!< Offset: 0x000 (R/W)  Control Register */
 841:Generated_Source\PSoC5/core_cm3.h ****   __IOM uint32_t CYCCNT;                 /*!< Offset: 0x004 (R/W)  Cycle Count Register */
 842:Generated_Source\PSoC5/core_cm3.h ****   __IOM uint32_t CPICNT;                 /*!< Offset: 0x008 (R/W)  CPI Count Register */
 843:Generated_Source\PSoC5/core_cm3.h ****   __IOM uint32_t EXCCNT;                 /*!< Offset: 0x00C (R/W)  Exception Overhead Count Registe
 844:Generated_Source\PSoC5/core_cm3.h ****   __IOM uint32_t SLEEPCNT;               /*!< Offset: 0x010 (R/W)  Sleep Count Register */
 845:Generated_Source\PSoC5/core_cm3.h ****   __IOM uint32_t LSUCNT;                 /*!< Offset: 0x014 (R/W)  LSU Count Register */
 846:Generated_Source\PSoC5/core_cm3.h ****   __IOM uint32_t FOLDCNT;                /*!< Offset: 0x018 (R/W)  Folded-instruction Count Registe
 847:Generated_Source\PSoC5/core_cm3.h ****   __IM  uint32_t PCSR;                   /*!< Offset: 0x01C (R/ )  Program Counter Sample Register 
 848:Generated_Source\PSoC5/core_cm3.h ****   __IOM uint32_t COMP0;                  /*!< Offset: 0x020 (R/W)  Comparator Register 0 */
 849:Generated_Source\PSoC5/core_cm3.h ****   __IOM uint32_t MASK0;                  /*!< Offset: 0x024 (R/W)  Mask Register 0 */
 850:Generated_Source\PSoC5/core_cm3.h ****   __IOM uint32_t FUNCTION0;              /*!< Offset: 0x028 (R/W)  Function Register 0 */
 851:Generated_Source\PSoC5/core_cm3.h ****         uint32_t RESERVED0[1U];
 852:Generated_Source\PSoC5/core_cm3.h ****   __IOM uint32_t COMP1;                  /*!< Offset: 0x030 (R/W)  Comparator Register 1 */
 853:Generated_Source\PSoC5/core_cm3.h ****   __IOM uint32_t MASK1;                  /*!< Offset: 0x034 (R/W)  Mask Register 1 */
 854:Generated_Source\PSoC5/core_cm3.h ****   __IOM uint32_t FUNCTION1;              /*!< Offset: 0x038 (R/W)  Function Register 1 */
 855:Generated_Source\PSoC5/core_cm3.h ****         uint32_t RESERVED1[1U];
 856:Generated_Source\PSoC5/core_cm3.h ****   __IOM uint32_t COMP2;                  /*!< Offset: 0x040 (R/W)  Comparator Register 2 */
 857:Generated_Source\PSoC5/core_cm3.h ****   __IOM uint32_t MASK2;                  /*!< Offset: 0x044 (R/W)  Mask Register 2 */
 858:Generated_Source\PSoC5/core_cm3.h ****   __IOM uint32_t FUNCTION2;              /*!< Offset: 0x048 (R/W)  Function Register 2 */
ARM GAS  C:\Users\Patrick\AppData\Local\Temp\cc1OctCg.s 			page 50


 859:Generated_Source\PSoC5/core_cm3.h ****         uint32_t RESERVED2[1U];
 860:Generated_Source\PSoC5/core_cm3.h ****   __IOM uint32_t COMP3;                  /*!< Offset: 0x050 (R/W)  Comparator Register 3 */
 861:Generated_Source\PSoC5/core_cm3.h ****   __IOM uint32_t MASK3;                  /*!< Offset: 0x054 (R/W)  Mask Register 3 */
 862:Generated_Source\PSoC5/core_cm3.h ****   __IOM uint32_t FUNCTION3;              /*!< Offset: 0x058 (R/W)  Function Register 3 */
 863:Generated_Source\PSoC5/core_cm3.h **** } DWT_Type;
 864:Generated_Source\PSoC5/core_cm3.h **** 
 865:Generated_Source\PSoC5/core_cm3.h **** /* DWT Control Register Definitions */
 866:Generated_Source\PSoC5/core_cm3.h **** #define DWT_CTRL_NUMCOMP_Pos               28U                                         /*!< DWT CTR
 867:Generated_Source\PSoC5/core_cm3.h **** #define DWT_CTRL_NUMCOMP_Msk               (0xFUL << DWT_CTRL_NUMCOMP_Pos)             /*!< DWT CTR
 868:Generated_Source\PSoC5/core_cm3.h **** 
 869:Generated_Source\PSoC5/core_cm3.h **** #define DWT_CTRL_NOTRCPKT_Pos              27U                                         /*!< DWT CTR
 870:Generated_Source\PSoC5/core_cm3.h **** #define DWT_CTRL_NOTRCPKT_Msk              (0x1UL << DWT_CTRL_NOTRCPKT_Pos)            /*!< DWT CTR
 871:Generated_Source\PSoC5/core_cm3.h **** 
 872:Generated_Source\PSoC5/core_cm3.h **** #define DWT_CTRL_NOEXTTRIG_Pos             26U                                         /*!< DWT CTR
 873:Generated_Source\PSoC5/core_cm3.h **** #define DWT_CTRL_NOEXTTRIG_Msk             (0x1UL << DWT_CTRL_NOEXTTRIG_Pos)           /*!< DWT CTR
 874:Generated_Source\PSoC5/core_cm3.h **** 
 875:Generated_Source\PSoC5/core_cm3.h **** #define DWT_CTRL_NOCYCCNT_Pos              25U                                         /*!< DWT CTR
 876:Generated_Source\PSoC5/core_cm3.h **** #define DWT_CTRL_NOCYCCNT_Msk              (0x1UL << DWT_CTRL_NOCYCCNT_Pos)            /*!< DWT CTR
 877:Generated_Source\PSoC5/core_cm3.h **** 
 878:Generated_Source\PSoC5/core_cm3.h **** #define DWT_CTRL_NOPRFCNT_Pos              24U                                         /*!< DWT CTR
 879:Generated_Source\PSoC5/core_cm3.h **** #define DWT_CTRL_NOPRFCNT_Msk              (0x1UL << DWT_CTRL_NOPRFCNT_Pos)            /*!< DWT CTR
 880:Generated_Source\PSoC5/core_cm3.h **** 
 881:Generated_Source\PSoC5/core_cm3.h **** #define DWT_CTRL_CYCEVTENA_Pos             22U                                         /*!< DWT CTR
 882:Generated_Source\PSoC5/core_cm3.h **** #define DWT_CTRL_CYCEVTENA_Msk             (0x1UL << DWT_CTRL_CYCEVTENA_Pos)           /*!< DWT CTR
 883:Generated_Source\PSoC5/core_cm3.h **** 
 884:Generated_Source\PSoC5/core_cm3.h **** #define DWT_CTRL_FOLDEVTENA_Pos            21U                                         /*!< DWT CTR
 885:Generated_Source\PSoC5/core_cm3.h **** #define DWT_CTRL_FOLDEVTENA_Msk            (0x1UL << DWT_CTRL_FOLDEVTENA_Pos)          /*!< DWT CTR
 886:Generated_Source\PSoC5/core_cm3.h **** 
 887:Generated_Source\PSoC5/core_cm3.h **** #define DWT_CTRL_LSUEVTENA_Pos             20U                                         /*!< DWT CTR
 888:Generated_Source\PSoC5/core_cm3.h **** #define DWT_CTRL_LSUEVTENA_Msk             (0x1UL << DWT_CTRL_LSUEVTENA_Pos)           /*!< DWT CTR
 889:Generated_Source\PSoC5/core_cm3.h **** 
 890:Generated_Source\PSoC5/core_cm3.h **** #define DWT_CTRL_SLEEPEVTENA_Pos           19U                                         /*!< DWT CTR
 891:Generated_Source\PSoC5/core_cm3.h **** #define DWT_CTRL_SLEEPEVTENA_Msk           (0x1UL << DWT_CTRL_SLEEPEVTENA_Pos)         /*!< DWT CTR
 892:Generated_Source\PSoC5/core_cm3.h **** 
 893:Generated_Source\PSoC5/core_cm3.h **** #define DWT_CTRL_EXCEVTENA_Pos             18U                                         /*!< DWT CTR
 894:Generated_Source\PSoC5/core_cm3.h **** #define DWT_CTRL_EXCEVTENA_Msk             (0x1UL << DWT_CTRL_EXCEVTENA_Pos)           /*!< DWT CTR
 895:Generated_Source\PSoC5/core_cm3.h **** 
 896:Generated_Source\PSoC5/core_cm3.h **** #define DWT_CTRL_CPIEVTENA_Pos             17U                                         /*!< DWT CTR
 897:Generated_Source\PSoC5/core_cm3.h **** #define DWT_CTRL_CPIEVTENA_Msk             (0x1UL << DWT_CTRL_CPIEVTENA_Pos)           /*!< DWT CTR
 898:Generated_Source\PSoC5/core_cm3.h **** 
 899:Generated_Source\PSoC5/core_cm3.h **** #define DWT_CTRL_EXCTRCENA_Pos             16U                                         /*!< DWT CTR
 900:Generated_Source\PSoC5/core_cm3.h **** #define DWT_CTRL_EXCTRCENA_Msk             (0x1UL << DWT_CTRL_EXCTRCENA_Pos)           /*!< DWT CTR
 901:Generated_Source\PSoC5/core_cm3.h **** 
 902:Generated_Source\PSoC5/core_cm3.h **** #define DWT_CTRL_PCSAMPLENA_Pos            12U                                         /*!< DWT CTR
 903:Generated_Source\PSoC5/core_cm3.h **** #define DWT_CTRL_PCSAMPLENA_Msk            (0x1UL << DWT_CTRL_PCSAMPLENA_Pos)          /*!< DWT CTR
 904:Generated_Source\PSoC5/core_cm3.h **** 
 905:Generated_Source\PSoC5/core_cm3.h **** #define DWT_CTRL_SYNCTAP_Pos               10U                                         /*!< DWT CTR
 906:Generated_Source\PSoC5/core_cm3.h **** #define DWT_CTRL_SYNCTAP_Msk               (0x3UL << DWT_CTRL_SYNCTAP_Pos)             /*!< DWT CTR
 907:Generated_Source\PSoC5/core_cm3.h **** 
 908:Generated_Source\PSoC5/core_cm3.h **** #define DWT_CTRL_CYCTAP_Pos                 9U                                         /*!< DWT CTR
 909:Generated_Source\PSoC5/core_cm3.h **** #define DWT_CTRL_CYCTAP_Msk                (0x1UL << DWT_CTRL_CYCTAP_Pos)              /*!< DWT CTR
 910:Generated_Source\PSoC5/core_cm3.h **** 
 911:Generated_Source\PSoC5/core_cm3.h **** #define DWT_CTRL_POSTINIT_Pos               5U                                         /*!< DWT CTR
 912:Generated_Source\PSoC5/core_cm3.h **** #define DWT_CTRL_POSTINIT_Msk              (0xFUL << DWT_CTRL_POSTINIT_Pos)            /*!< DWT CTR
 913:Generated_Source\PSoC5/core_cm3.h **** 
 914:Generated_Source\PSoC5/core_cm3.h **** #define DWT_CTRL_POSTPRESET_Pos             1U                                         /*!< DWT CTR
 915:Generated_Source\PSoC5/core_cm3.h **** #define DWT_CTRL_POSTPRESET_Msk            (0xFUL << DWT_CTRL_POSTPRESET_Pos)          /*!< DWT CTR
ARM GAS  C:\Users\Patrick\AppData\Local\Temp\cc1OctCg.s 			page 51


 916:Generated_Source\PSoC5/core_cm3.h **** 
 917:Generated_Source\PSoC5/core_cm3.h **** #define DWT_CTRL_CYCCNTENA_Pos              0U                                         /*!< DWT CTR
 918:Generated_Source\PSoC5/core_cm3.h **** #define DWT_CTRL_CYCCNTENA_Msk             (0x1UL /*<< DWT_CTRL_CYCCNTENA_Pos*/)       /*!< DWT CTR
 919:Generated_Source\PSoC5/core_cm3.h **** 
 920:Generated_Source\PSoC5/core_cm3.h **** /* DWT CPI Count Register Definitions */
 921:Generated_Source\PSoC5/core_cm3.h **** #define DWT_CPICNT_CPICNT_Pos               0U                                         /*!< DWT CPI
 922:Generated_Source\PSoC5/core_cm3.h **** #define DWT_CPICNT_CPICNT_Msk              (0xFFUL /*<< DWT_CPICNT_CPICNT_Pos*/)       /*!< DWT CPI
 923:Generated_Source\PSoC5/core_cm3.h **** 
 924:Generated_Source\PSoC5/core_cm3.h **** /* DWT Exception Overhead Count Register Definitions */
 925:Generated_Source\PSoC5/core_cm3.h **** #define DWT_EXCCNT_EXCCNT_Pos               0U                                         /*!< DWT EXC
 926:Generated_Source\PSoC5/core_cm3.h **** #define DWT_EXCCNT_EXCCNT_Msk              (0xFFUL /*<< DWT_EXCCNT_EXCCNT_Pos*/)       /*!< DWT EXC
 927:Generated_Source\PSoC5/core_cm3.h **** 
 928:Generated_Source\PSoC5/core_cm3.h **** /* DWT Sleep Count Register Definitions */
 929:Generated_Source\PSoC5/core_cm3.h **** #define DWT_SLEEPCNT_SLEEPCNT_Pos           0U                                         /*!< DWT SLE
 930:Generated_Source\PSoC5/core_cm3.h **** #define DWT_SLEEPCNT_SLEEPCNT_Msk          (0xFFUL /*<< DWT_SLEEPCNT_SLEEPCNT_Pos*/)   /*!< DWT SLE
 931:Generated_Source\PSoC5/core_cm3.h **** 
 932:Generated_Source\PSoC5/core_cm3.h **** /* DWT LSU Count Register Definitions */
 933:Generated_Source\PSoC5/core_cm3.h **** #define DWT_LSUCNT_LSUCNT_Pos               0U                                         /*!< DWT LSU
 934:Generated_Source\PSoC5/core_cm3.h **** #define DWT_LSUCNT_LSUCNT_Msk              (0xFFUL /*<< DWT_LSUCNT_LSUCNT_Pos*/)       /*!< DWT LSU
 935:Generated_Source\PSoC5/core_cm3.h **** 
 936:Generated_Source\PSoC5/core_cm3.h **** /* DWT Folded-instruction Count Register Definitions */
 937:Generated_Source\PSoC5/core_cm3.h **** #define DWT_FOLDCNT_FOLDCNT_Pos             0U                                         /*!< DWT FOL
 938:Generated_Source\PSoC5/core_cm3.h **** #define DWT_FOLDCNT_FOLDCNT_Msk            (0xFFUL /*<< DWT_FOLDCNT_FOLDCNT_Pos*/)     /*!< DWT FOL
 939:Generated_Source\PSoC5/core_cm3.h **** 
 940:Generated_Source\PSoC5/core_cm3.h **** /* DWT Comparator Mask Register Definitions */
 941:Generated_Source\PSoC5/core_cm3.h **** #define DWT_MASK_MASK_Pos                   0U                                         /*!< DWT MAS
 942:Generated_Source\PSoC5/core_cm3.h **** #define DWT_MASK_MASK_Msk                  (0x1FUL /*<< DWT_MASK_MASK_Pos*/)           /*!< DWT MAS
 943:Generated_Source\PSoC5/core_cm3.h **** 
 944:Generated_Source\PSoC5/core_cm3.h **** /* DWT Comparator Function Register Definitions */
 945:Generated_Source\PSoC5/core_cm3.h **** #define DWT_FUNCTION_MATCHED_Pos           24U                                         /*!< DWT FUN
 946:Generated_Source\PSoC5/core_cm3.h **** #define DWT_FUNCTION_MATCHED_Msk           (0x1UL << DWT_FUNCTION_MATCHED_Pos)         /*!< DWT FUN
 947:Generated_Source\PSoC5/core_cm3.h **** 
 948:Generated_Source\PSoC5/core_cm3.h **** #define DWT_FUNCTION_DATAVADDR1_Pos        16U                                         /*!< DWT FUN
 949:Generated_Source\PSoC5/core_cm3.h **** #define DWT_FUNCTION_DATAVADDR1_Msk        (0xFUL << DWT_FUNCTION_DATAVADDR1_Pos)      /*!< DWT FUN
 950:Generated_Source\PSoC5/core_cm3.h **** 
 951:Generated_Source\PSoC5/core_cm3.h **** #define DWT_FUNCTION_DATAVADDR0_Pos        12U                                         /*!< DWT FUN
 952:Generated_Source\PSoC5/core_cm3.h **** #define DWT_FUNCTION_DATAVADDR0_Msk        (0xFUL << DWT_FUNCTION_DATAVADDR0_Pos)      /*!< DWT FUN
 953:Generated_Source\PSoC5/core_cm3.h **** 
 954:Generated_Source\PSoC5/core_cm3.h **** #define DWT_FUNCTION_DATAVSIZE_Pos         10U                                         /*!< DWT FUN
 955:Generated_Source\PSoC5/core_cm3.h **** #define DWT_FUNCTION_DATAVSIZE_Msk         (0x3UL << DWT_FUNCTION_DATAVSIZE_Pos)       /*!< DWT FUN
 956:Generated_Source\PSoC5/core_cm3.h **** 
 957:Generated_Source\PSoC5/core_cm3.h **** #define DWT_FUNCTION_LNK1ENA_Pos            9U                                         /*!< DWT FUN
 958:Generated_Source\PSoC5/core_cm3.h **** #define DWT_FUNCTION_LNK1ENA_Msk           (0x1UL << DWT_FUNCTION_LNK1ENA_Pos)         /*!< DWT FUN
 959:Generated_Source\PSoC5/core_cm3.h **** 
 960:Generated_Source\PSoC5/core_cm3.h **** #define DWT_FUNCTION_DATAVMATCH_Pos         8U                                         /*!< DWT FUN
 961:Generated_Source\PSoC5/core_cm3.h **** #define DWT_FUNCTION_DATAVMATCH_Msk        (0x1UL << DWT_FUNCTION_DATAVMATCH_Pos)      /*!< DWT FUN
 962:Generated_Source\PSoC5/core_cm3.h **** 
 963:Generated_Source\PSoC5/core_cm3.h **** #define DWT_FUNCTION_CYCMATCH_Pos           7U                                         /*!< DWT FUN
 964:Generated_Source\PSoC5/core_cm3.h **** #define DWT_FUNCTION_CYCMATCH_Msk          (0x1UL << DWT_FUNCTION_CYCMATCH_Pos)        /*!< DWT FUN
 965:Generated_Source\PSoC5/core_cm3.h **** 
 966:Generated_Source\PSoC5/core_cm3.h **** #define DWT_FUNCTION_EMITRANGE_Pos          5U                                         /*!< DWT FUN
 967:Generated_Source\PSoC5/core_cm3.h **** #define DWT_FUNCTION_EMITRANGE_Msk         (0x1UL << DWT_FUNCTION_EMITRANGE_Pos)       /*!< DWT FUN
 968:Generated_Source\PSoC5/core_cm3.h **** 
 969:Generated_Source\PSoC5/core_cm3.h **** #define DWT_FUNCTION_FUNCTION_Pos           0U                                         /*!< DWT FUN
 970:Generated_Source\PSoC5/core_cm3.h **** #define DWT_FUNCTION_FUNCTION_Msk          (0xFUL /*<< DWT_FUNCTION_FUNCTION_Pos*/)    /*!< DWT FUN
 971:Generated_Source\PSoC5/core_cm3.h **** 
 972:Generated_Source\PSoC5/core_cm3.h **** /*@}*/ /* end of group CMSIS_DWT */
ARM GAS  C:\Users\Patrick\AppData\Local\Temp\cc1OctCg.s 			page 52


 973:Generated_Source\PSoC5/core_cm3.h **** 
 974:Generated_Source\PSoC5/core_cm3.h **** 
 975:Generated_Source\PSoC5/core_cm3.h **** /**
 976:Generated_Source\PSoC5/core_cm3.h ****   \ingroup  CMSIS_core_register
 977:Generated_Source\PSoC5/core_cm3.h ****   \defgroup CMSIS_TPI     Trace Port Interface (TPI)
 978:Generated_Source\PSoC5/core_cm3.h ****   \brief    Type definitions for the Trace Port Interface (TPI)
 979:Generated_Source\PSoC5/core_cm3.h ****   @{
 980:Generated_Source\PSoC5/core_cm3.h ****  */
 981:Generated_Source\PSoC5/core_cm3.h **** 
 982:Generated_Source\PSoC5/core_cm3.h **** /**
 983:Generated_Source\PSoC5/core_cm3.h ****   \brief  Structure type to access the Trace Port Interface Register (TPI).
 984:Generated_Source\PSoC5/core_cm3.h ****  */
 985:Generated_Source\PSoC5/core_cm3.h **** typedef struct
 986:Generated_Source\PSoC5/core_cm3.h **** {
 987:Generated_Source\PSoC5/core_cm3.h ****   __IOM uint32_t SSPSR;                  /*!< Offset: 0x000 (R/ )  Supported Parallel Port Size Reg
 988:Generated_Source\PSoC5/core_cm3.h ****   __IOM uint32_t CSPSR;                  /*!< Offset: 0x004 (R/W)  Current Parallel Port Size Regis
 989:Generated_Source\PSoC5/core_cm3.h ****         uint32_t RESERVED0[2U];
 990:Generated_Source\PSoC5/core_cm3.h ****   __IOM uint32_t ACPR;                   /*!< Offset: 0x010 (R/W)  Asynchronous Clock Prescaler Reg
 991:Generated_Source\PSoC5/core_cm3.h ****         uint32_t RESERVED1[55U];
 992:Generated_Source\PSoC5/core_cm3.h ****   __IOM uint32_t SPPR;                   /*!< Offset: 0x0F0 (R/W)  Selected Pin Protocol Register *
 993:Generated_Source\PSoC5/core_cm3.h ****         uint32_t RESERVED2[131U];
 994:Generated_Source\PSoC5/core_cm3.h ****   __IM  uint32_t FFSR;                   /*!< Offset: 0x300 (R/ )  Formatter and Flush Status Regis
 995:Generated_Source\PSoC5/core_cm3.h ****   __IOM uint32_t FFCR;                   /*!< Offset: 0x304 (R/W)  Formatter and Flush Control Regi
 996:Generated_Source\PSoC5/core_cm3.h ****   __IM  uint32_t FSCR;                   /*!< Offset: 0x308 (R/ )  Formatter Synchronization Counte
 997:Generated_Source\PSoC5/core_cm3.h ****         uint32_t RESERVED3[759U];
 998:Generated_Source\PSoC5/core_cm3.h ****   __IM  uint32_t TRIGGER;                /*!< Offset: 0xEE8 (R/ )  TRIGGER */
 999:Generated_Source\PSoC5/core_cm3.h ****   __IM  uint32_t FIFO0;                  /*!< Offset: 0xEEC (R/ )  Integration ETM Data */
1000:Generated_Source\PSoC5/core_cm3.h ****   __IM  uint32_t ITATBCTR2;              /*!< Offset: 0xEF0 (R/ )  ITATBCTR2 */
1001:Generated_Source\PSoC5/core_cm3.h ****         uint32_t RESERVED4[1U];
1002:Generated_Source\PSoC5/core_cm3.h ****   __IM  uint32_t ITATBCTR0;              /*!< Offset: 0xEF8 (R/ )  ITATBCTR0 */
1003:Generated_Source\PSoC5/core_cm3.h ****   __IM  uint32_t FIFO1;                  /*!< Offset: 0xEFC (R/ )  Integration ITM Data */
1004:Generated_Source\PSoC5/core_cm3.h ****   __IOM uint32_t ITCTRL;                 /*!< Offset: 0xF00 (R/W)  Integration Mode Control */
1005:Generated_Source\PSoC5/core_cm3.h ****         uint32_t RESERVED5[39U];
1006:Generated_Source\PSoC5/core_cm3.h ****   __IOM uint32_t CLAIMSET;               /*!< Offset: 0xFA0 (R/W)  Claim tag set */
1007:Generated_Source\PSoC5/core_cm3.h ****   __IOM uint32_t CLAIMCLR;               /*!< Offset: 0xFA4 (R/W)  Claim tag clear */
1008:Generated_Source\PSoC5/core_cm3.h ****         uint32_t RESERVED7[8U];
1009:Generated_Source\PSoC5/core_cm3.h ****   __IM  uint32_t DEVID;                  /*!< Offset: 0xFC8 (R/ )  TPIU_DEVID */
1010:Generated_Source\PSoC5/core_cm3.h ****   __IM  uint32_t DEVTYPE;                /*!< Offset: 0xFCC (R/ )  TPIU_DEVTYPE */
1011:Generated_Source\PSoC5/core_cm3.h **** } TPI_Type;
1012:Generated_Source\PSoC5/core_cm3.h **** 
1013:Generated_Source\PSoC5/core_cm3.h **** /* TPI Asynchronous Clock Prescaler Register Definitions */
1014:Generated_Source\PSoC5/core_cm3.h **** #define TPI_ACPR_PRESCALER_Pos              0U                                         /*!< TPI ACP
1015:Generated_Source\PSoC5/core_cm3.h **** #define TPI_ACPR_PRESCALER_Msk             (0x1FFFUL /*<< TPI_ACPR_PRESCALER_Pos*/)    /*!< TPI ACP
1016:Generated_Source\PSoC5/core_cm3.h **** 
1017:Generated_Source\PSoC5/core_cm3.h **** /* TPI Selected Pin Protocol Register Definitions */
1018:Generated_Source\PSoC5/core_cm3.h **** #define TPI_SPPR_TXMODE_Pos                 0U                                         /*!< TPI SPP
1019:Generated_Source\PSoC5/core_cm3.h **** #define TPI_SPPR_TXMODE_Msk                (0x3UL /*<< TPI_SPPR_TXMODE_Pos*/)          /*!< TPI SPP
1020:Generated_Source\PSoC5/core_cm3.h **** 
1021:Generated_Source\PSoC5/core_cm3.h **** /* TPI Formatter and Flush Status Register Definitions */
1022:Generated_Source\PSoC5/core_cm3.h **** #define TPI_FFSR_FtNonStop_Pos              3U                                         /*!< TPI FFS
1023:Generated_Source\PSoC5/core_cm3.h **** #define TPI_FFSR_FtNonStop_Msk             (0x1UL << TPI_FFSR_FtNonStop_Pos)           /*!< TPI FFS
1024:Generated_Source\PSoC5/core_cm3.h **** 
1025:Generated_Source\PSoC5/core_cm3.h **** #define TPI_FFSR_TCPresent_Pos              2U                                         /*!< TPI FFS
1026:Generated_Source\PSoC5/core_cm3.h **** #define TPI_FFSR_TCPresent_Msk             (0x1UL << TPI_FFSR_TCPresent_Pos)           /*!< TPI FFS
1027:Generated_Source\PSoC5/core_cm3.h **** 
1028:Generated_Source\PSoC5/core_cm3.h **** #define TPI_FFSR_FtStopped_Pos              1U                                         /*!< TPI FFS
1029:Generated_Source\PSoC5/core_cm3.h **** #define TPI_FFSR_FtStopped_Msk             (0x1UL << TPI_FFSR_FtStopped_Pos)           /*!< TPI FFS
ARM GAS  C:\Users\Patrick\AppData\Local\Temp\cc1OctCg.s 			page 53


1030:Generated_Source\PSoC5/core_cm3.h **** 
1031:Generated_Source\PSoC5/core_cm3.h **** #define TPI_FFSR_FlInProg_Pos               0U                                         /*!< TPI FFS
1032:Generated_Source\PSoC5/core_cm3.h **** #define TPI_FFSR_FlInProg_Msk              (0x1UL /*<< TPI_FFSR_FlInProg_Pos*/)        /*!< TPI FFS
1033:Generated_Source\PSoC5/core_cm3.h **** 
1034:Generated_Source\PSoC5/core_cm3.h **** /* TPI Formatter and Flush Control Register Definitions */
1035:Generated_Source\PSoC5/core_cm3.h **** #define TPI_FFCR_TrigIn_Pos                 8U                                         /*!< TPI FFC
1036:Generated_Source\PSoC5/core_cm3.h **** #define TPI_FFCR_TrigIn_Msk                (0x1UL << TPI_FFCR_TrigIn_Pos)              /*!< TPI FFC
1037:Generated_Source\PSoC5/core_cm3.h **** 
1038:Generated_Source\PSoC5/core_cm3.h **** #define TPI_FFCR_EnFCont_Pos                1U                                         /*!< TPI FFC
1039:Generated_Source\PSoC5/core_cm3.h **** #define TPI_FFCR_EnFCont_Msk               (0x1UL << TPI_FFCR_EnFCont_Pos)             /*!< TPI FFC
1040:Generated_Source\PSoC5/core_cm3.h **** 
1041:Generated_Source\PSoC5/core_cm3.h **** /* TPI TRIGGER Register Definitions */
1042:Generated_Source\PSoC5/core_cm3.h **** #define TPI_TRIGGER_TRIGGER_Pos             0U                                         /*!< TPI TRI
1043:Generated_Source\PSoC5/core_cm3.h **** #define TPI_TRIGGER_TRIGGER_Msk            (0x1UL /*<< TPI_TRIGGER_TRIGGER_Pos*/)      /*!< TPI TRI
1044:Generated_Source\PSoC5/core_cm3.h **** 
1045:Generated_Source\PSoC5/core_cm3.h **** /* TPI Integration ETM Data Register Definitions (FIFO0) */
1046:Generated_Source\PSoC5/core_cm3.h **** #define TPI_FIFO0_ITM_ATVALID_Pos          29U                                         /*!< TPI FIF
1047:Generated_Source\PSoC5/core_cm3.h **** #define TPI_FIFO0_ITM_ATVALID_Msk          (0x3UL << TPI_FIFO0_ITM_ATVALID_Pos)        /*!< TPI FIF
1048:Generated_Source\PSoC5/core_cm3.h **** 
1049:Generated_Source\PSoC5/core_cm3.h **** #define TPI_FIFO0_ITM_bytecount_Pos        27U                                         /*!< TPI FIF
1050:Generated_Source\PSoC5/core_cm3.h **** #define TPI_FIFO0_ITM_bytecount_Msk        (0x3UL << TPI_FIFO0_ITM_bytecount_Pos)      /*!< TPI FIF
1051:Generated_Source\PSoC5/core_cm3.h **** 
1052:Generated_Source\PSoC5/core_cm3.h **** #define TPI_FIFO0_ETM_ATVALID_Pos          26U                                         /*!< TPI FIF
1053:Generated_Source\PSoC5/core_cm3.h **** #define TPI_FIFO0_ETM_ATVALID_Msk          (0x3UL << TPI_FIFO0_ETM_ATVALID_Pos)        /*!< TPI FIF
1054:Generated_Source\PSoC5/core_cm3.h **** 
1055:Generated_Source\PSoC5/core_cm3.h **** #define TPI_FIFO0_ETM_bytecount_Pos        24U                                         /*!< TPI FIF
1056:Generated_Source\PSoC5/core_cm3.h **** #define TPI_FIFO0_ETM_bytecount_Msk        (0x3UL << TPI_FIFO0_ETM_bytecount_Pos)      /*!< TPI FIF
1057:Generated_Source\PSoC5/core_cm3.h **** 
1058:Generated_Source\PSoC5/core_cm3.h **** #define TPI_FIFO0_ETM2_Pos                 16U                                         /*!< TPI FIF
1059:Generated_Source\PSoC5/core_cm3.h **** #define TPI_FIFO0_ETM2_Msk                 (0xFFUL << TPI_FIFO0_ETM2_Pos)              /*!< TPI FIF
1060:Generated_Source\PSoC5/core_cm3.h **** 
1061:Generated_Source\PSoC5/core_cm3.h **** #define TPI_FIFO0_ETM1_Pos                  8U                                         /*!< TPI FIF
1062:Generated_Source\PSoC5/core_cm3.h **** #define TPI_FIFO0_ETM1_Msk                 (0xFFUL << TPI_FIFO0_ETM1_Pos)              /*!< TPI FIF
1063:Generated_Source\PSoC5/core_cm3.h **** 
1064:Generated_Source\PSoC5/core_cm3.h **** #define TPI_FIFO0_ETM0_Pos                  0U                                         /*!< TPI FIF
1065:Generated_Source\PSoC5/core_cm3.h **** #define TPI_FIFO0_ETM0_Msk                 (0xFFUL /*<< TPI_FIFO0_ETM0_Pos*/)          /*!< TPI FIF
1066:Generated_Source\PSoC5/core_cm3.h **** 
1067:Generated_Source\PSoC5/core_cm3.h **** /* TPI ITATBCTR2 Register Definitions */
1068:Generated_Source\PSoC5/core_cm3.h **** #define TPI_ITATBCTR2_ATREADY_Pos           0U                                         /*!< TPI ITA
1069:Generated_Source\PSoC5/core_cm3.h **** #define TPI_ITATBCTR2_ATREADY_Msk          (0x1UL /*<< TPI_ITATBCTR2_ATREADY_Pos*/)    /*!< TPI ITA
1070:Generated_Source\PSoC5/core_cm3.h **** 
1071:Generated_Source\PSoC5/core_cm3.h **** /* TPI Integration ITM Data Register Definitions (FIFO1) */
1072:Generated_Source\PSoC5/core_cm3.h **** #define TPI_FIFO1_ITM_ATVALID_Pos          29U                                         /*!< TPI FIF
1073:Generated_Source\PSoC5/core_cm3.h **** #define TPI_FIFO1_ITM_ATVALID_Msk          (0x3UL << TPI_FIFO1_ITM_ATVALID_Pos)        /*!< TPI FIF
1074:Generated_Source\PSoC5/core_cm3.h **** 
1075:Generated_Source\PSoC5/core_cm3.h **** #define TPI_FIFO1_ITM_bytecount_Pos        27U                                         /*!< TPI FIF
1076:Generated_Source\PSoC5/core_cm3.h **** #define TPI_FIFO1_ITM_bytecount_Msk        (0x3UL << TPI_FIFO1_ITM_bytecount_Pos)      /*!< TPI FIF
1077:Generated_Source\PSoC5/core_cm3.h **** 
1078:Generated_Source\PSoC5/core_cm3.h **** #define TPI_FIFO1_ETM_ATVALID_Pos          26U                                         /*!< TPI FIF
1079:Generated_Source\PSoC5/core_cm3.h **** #define TPI_FIFO1_ETM_ATVALID_Msk          (0x3UL << TPI_FIFO1_ETM_ATVALID_Pos)        /*!< TPI FIF
1080:Generated_Source\PSoC5/core_cm3.h **** 
1081:Generated_Source\PSoC5/core_cm3.h **** #define TPI_FIFO1_ETM_bytecount_Pos        24U                                         /*!< TPI FIF
1082:Generated_Source\PSoC5/core_cm3.h **** #define TPI_FIFO1_ETM_bytecount_Msk        (0x3UL << TPI_FIFO1_ETM_bytecount_Pos)      /*!< TPI FIF
1083:Generated_Source\PSoC5/core_cm3.h **** 
1084:Generated_Source\PSoC5/core_cm3.h **** #define TPI_FIFO1_ITM2_Pos                 16U                                         /*!< TPI FIF
1085:Generated_Source\PSoC5/core_cm3.h **** #define TPI_FIFO1_ITM2_Msk                 (0xFFUL << TPI_FIFO1_ITM2_Pos)              /*!< TPI FIF
1086:Generated_Source\PSoC5/core_cm3.h **** 
ARM GAS  C:\Users\Patrick\AppData\Local\Temp\cc1OctCg.s 			page 54


1087:Generated_Source\PSoC5/core_cm3.h **** #define TPI_FIFO1_ITM1_Pos                  8U                                         /*!< TPI FIF
1088:Generated_Source\PSoC5/core_cm3.h **** #define TPI_FIFO1_ITM1_Msk                 (0xFFUL << TPI_FIFO1_ITM1_Pos)              /*!< TPI FIF
1089:Generated_Source\PSoC5/core_cm3.h **** 
1090:Generated_Source\PSoC5/core_cm3.h **** #define TPI_FIFO1_ITM0_Pos                  0U                                         /*!< TPI FIF
1091:Generated_Source\PSoC5/core_cm3.h **** #define TPI_FIFO1_ITM0_Msk                 (0xFFUL /*<< TPI_FIFO1_ITM0_Pos*/)          /*!< TPI FIF
1092:Generated_Source\PSoC5/core_cm3.h **** 
1093:Generated_Source\PSoC5/core_cm3.h **** /* TPI ITATBCTR0 Register Definitions */
1094:Generated_Source\PSoC5/core_cm3.h **** #define TPI_ITATBCTR0_ATREADY_Pos           0U                                         /*!< TPI ITA
1095:Generated_Source\PSoC5/core_cm3.h **** #define TPI_ITATBCTR0_ATREADY_Msk          (0x1UL /*<< TPI_ITATBCTR0_ATREADY_Pos*/)    /*!< TPI ITA
1096:Generated_Source\PSoC5/core_cm3.h **** 
1097:Generated_Source\PSoC5/core_cm3.h **** /* TPI Integration Mode Control Register Definitions */
1098:Generated_Source\PSoC5/core_cm3.h **** #define TPI_ITCTRL_Mode_Pos                 0U                                         /*!< TPI ITC
1099:Generated_Source\PSoC5/core_cm3.h **** #define TPI_ITCTRL_Mode_Msk                (0x1UL /*<< TPI_ITCTRL_Mode_Pos*/)          /*!< TPI ITC
1100:Generated_Source\PSoC5/core_cm3.h **** 
1101:Generated_Source\PSoC5/core_cm3.h **** /* TPI DEVID Register Definitions */
1102:Generated_Source\PSoC5/core_cm3.h **** #define TPI_DEVID_NRZVALID_Pos             11U                                         /*!< TPI DEV
1103:Generated_Source\PSoC5/core_cm3.h **** #define TPI_DEVID_NRZVALID_Msk             (0x1UL << TPI_DEVID_NRZVALID_Pos)           /*!< TPI DEV
1104:Generated_Source\PSoC5/core_cm3.h **** 
1105:Generated_Source\PSoC5/core_cm3.h **** #define TPI_DEVID_MANCVALID_Pos            10U                                         /*!< TPI DEV
1106:Generated_Source\PSoC5/core_cm3.h **** #define TPI_DEVID_MANCVALID_Msk            (0x1UL << TPI_DEVID_MANCVALID_Pos)          /*!< TPI DEV
1107:Generated_Source\PSoC5/core_cm3.h **** 
1108:Generated_Source\PSoC5/core_cm3.h **** #define TPI_DEVID_PTINVALID_Pos             9U                                         /*!< TPI DEV
1109:Generated_Source\PSoC5/core_cm3.h **** #define TPI_DEVID_PTINVALID_Msk            (0x1UL << TPI_DEVID_PTINVALID_Pos)          /*!< TPI DEV
1110:Generated_Source\PSoC5/core_cm3.h **** 
1111:Generated_Source\PSoC5/core_cm3.h **** #define TPI_DEVID_MinBufSz_Pos              6U                                         /*!< TPI DEV
1112:Generated_Source\PSoC5/core_cm3.h **** #define TPI_DEVID_MinBufSz_Msk             (0x7UL << TPI_DEVID_MinBufSz_Pos)           /*!< TPI DEV
1113:Generated_Source\PSoC5/core_cm3.h **** 
1114:Generated_Source\PSoC5/core_cm3.h **** #define TPI_DEVID_AsynClkIn_Pos             5U                                         /*!< TPI DEV
1115:Generated_Source\PSoC5/core_cm3.h **** #define TPI_DEVID_AsynClkIn_Msk            (0x1UL << TPI_DEVID_AsynClkIn_Pos)          /*!< TPI DEV
1116:Generated_Source\PSoC5/core_cm3.h **** 
1117:Generated_Source\PSoC5/core_cm3.h **** #define TPI_DEVID_NrTraceInput_Pos          0U                                         /*!< TPI DEV
1118:Generated_Source\PSoC5/core_cm3.h **** #define TPI_DEVID_NrTraceInput_Msk         (0x1FUL /*<< TPI_DEVID_NrTraceInput_Pos*/)  /*!< TPI DEV
1119:Generated_Source\PSoC5/core_cm3.h **** 
1120:Generated_Source\PSoC5/core_cm3.h **** /* TPI DEVTYPE Register Definitions */
1121:Generated_Source\PSoC5/core_cm3.h **** #define TPI_DEVTYPE_MajorType_Pos           4U                                         /*!< TPI DEV
1122:Generated_Source\PSoC5/core_cm3.h **** #define TPI_DEVTYPE_MajorType_Msk          (0xFUL << TPI_DEVTYPE_MajorType_Pos)        /*!< TPI DEV
1123:Generated_Source\PSoC5/core_cm3.h **** 
1124:Generated_Source\PSoC5/core_cm3.h **** #define TPI_DEVTYPE_SubType_Pos             0U                                         /*!< TPI DEV
1125:Generated_Source\PSoC5/core_cm3.h **** #define TPI_DEVTYPE_SubType_Msk            (0xFUL /*<< TPI_DEVTYPE_SubType_Pos*/)      /*!< TPI DEV
1126:Generated_Source\PSoC5/core_cm3.h **** 
1127:Generated_Source\PSoC5/core_cm3.h **** /*@}*/ /* end of group CMSIS_TPI */
1128:Generated_Source\PSoC5/core_cm3.h **** 
1129:Generated_Source\PSoC5/core_cm3.h **** 
1130:Generated_Source\PSoC5/core_cm3.h **** #if (__MPU_PRESENT == 1U)
1131:Generated_Source\PSoC5/core_cm3.h **** /**
1132:Generated_Source\PSoC5/core_cm3.h ****   \ingroup  CMSIS_core_register
1133:Generated_Source\PSoC5/core_cm3.h ****   \defgroup CMSIS_MPU     Memory Protection Unit (MPU)
1134:Generated_Source\PSoC5/core_cm3.h ****   \brief    Type definitions for the Memory Protection Unit (MPU)
1135:Generated_Source\PSoC5/core_cm3.h ****   @{
1136:Generated_Source\PSoC5/core_cm3.h ****  */
1137:Generated_Source\PSoC5/core_cm3.h **** 
1138:Generated_Source\PSoC5/core_cm3.h **** /**
1139:Generated_Source\PSoC5/core_cm3.h ****   \brief  Structure type to access the Memory Protection Unit (MPU).
1140:Generated_Source\PSoC5/core_cm3.h ****  */
1141:Generated_Source\PSoC5/core_cm3.h **** typedef struct
1142:Generated_Source\PSoC5/core_cm3.h **** {
1143:Generated_Source\PSoC5/core_cm3.h ****   __IM  uint32_t TYPE;                   /*!< Offset: 0x000 (R/ )  MPU Type Register */
ARM GAS  C:\Users\Patrick\AppData\Local\Temp\cc1OctCg.s 			page 55


1144:Generated_Source\PSoC5/core_cm3.h ****   __IOM uint32_t CTRL;                   /*!< Offset: 0x004 (R/W)  MPU Control Register */
1145:Generated_Source\PSoC5/core_cm3.h ****   __IOM uint32_t RNR;                    /*!< Offset: 0x008 (R/W)  MPU Region RNRber Register */
1146:Generated_Source\PSoC5/core_cm3.h ****   __IOM uint32_t RBAR;                   /*!< Offset: 0x00C (R/W)  MPU Region Base Address Register
1147:Generated_Source\PSoC5/core_cm3.h ****   __IOM uint32_t RASR;                   /*!< Offset: 0x010 (R/W)  MPU Region Attribute and Size Re
1148:Generated_Source\PSoC5/core_cm3.h ****   __IOM uint32_t RBAR_A1;                /*!< Offset: 0x014 (R/W)  MPU Alias 1 Region Base Address 
1149:Generated_Source\PSoC5/core_cm3.h ****   __IOM uint32_t RASR_A1;                /*!< Offset: 0x018 (R/W)  MPU Alias 1 Region Attribute and
1150:Generated_Source\PSoC5/core_cm3.h ****   __IOM uint32_t RBAR_A2;                /*!< Offset: 0x01C (R/W)  MPU Alias 2 Region Base Address 
1151:Generated_Source\PSoC5/core_cm3.h ****   __IOM uint32_t RASR_A2;                /*!< Offset: 0x020 (R/W)  MPU Alias 2 Region Attribute and
1152:Generated_Source\PSoC5/core_cm3.h ****   __IOM uint32_t RBAR_A3;                /*!< Offset: 0x024 (R/W)  MPU Alias 3 Region Base Address 
1153:Generated_Source\PSoC5/core_cm3.h ****   __IOM uint32_t RASR_A3;                /*!< Offset: 0x028 (R/W)  MPU Alias 3 Region Attribute and
1154:Generated_Source\PSoC5/core_cm3.h **** } MPU_Type;
1155:Generated_Source\PSoC5/core_cm3.h **** 
1156:Generated_Source\PSoC5/core_cm3.h **** /* MPU Type Register Definitions */
1157:Generated_Source\PSoC5/core_cm3.h **** #define MPU_TYPE_IREGION_Pos               16U                                            /*!< MPU 
1158:Generated_Source\PSoC5/core_cm3.h **** #define MPU_TYPE_IREGION_Msk               (0xFFUL << MPU_TYPE_IREGION_Pos)               /*!< MPU 
1159:Generated_Source\PSoC5/core_cm3.h **** 
1160:Generated_Source\PSoC5/core_cm3.h **** #define MPU_TYPE_DREGION_Pos                8U                                            /*!< MPU 
1161:Generated_Source\PSoC5/core_cm3.h **** #define MPU_TYPE_DREGION_Msk               (0xFFUL << MPU_TYPE_DREGION_Pos)               /*!< MPU 
1162:Generated_Source\PSoC5/core_cm3.h **** 
1163:Generated_Source\PSoC5/core_cm3.h **** #define MPU_TYPE_SEPARATE_Pos               0U                                            /*!< MPU 
1164:Generated_Source\PSoC5/core_cm3.h **** #define MPU_TYPE_SEPARATE_Msk              (1UL /*<< MPU_TYPE_SEPARATE_Pos*/)             /*!< MPU 
1165:Generated_Source\PSoC5/core_cm3.h **** 
1166:Generated_Source\PSoC5/core_cm3.h **** /* MPU Control Register Definitions */
1167:Generated_Source\PSoC5/core_cm3.h **** #define MPU_CTRL_PRIVDEFENA_Pos             2U                                            /*!< MPU 
1168:Generated_Source\PSoC5/core_cm3.h **** #define MPU_CTRL_PRIVDEFENA_Msk            (1UL << MPU_CTRL_PRIVDEFENA_Pos)               /*!< MPU 
1169:Generated_Source\PSoC5/core_cm3.h **** 
1170:Generated_Source\PSoC5/core_cm3.h **** #define MPU_CTRL_HFNMIENA_Pos               1U                                            /*!< MPU 
1171:Generated_Source\PSoC5/core_cm3.h **** #define MPU_CTRL_HFNMIENA_Msk              (1UL << MPU_CTRL_HFNMIENA_Pos)                 /*!< MPU 
1172:Generated_Source\PSoC5/core_cm3.h **** 
1173:Generated_Source\PSoC5/core_cm3.h **** #define MPU_CTRL_ENABLE_Pos                 0U                                            /*!< MPU 
1174:Generated_Source\PSoC5/core_cm3.h **** #define MPU_CTRL_ENABLE_Msk                (1UL /*<< MPU_CTRL_ENABLE_Pos*/)               /*!< MPU 
1175:Generated_Source\PSoC5/core_cm3.h **** 
1176:Generated_Source\PSoC5/core_cm3.h **** /* MPU Region Number Register Definitions */
1177:Generated_Source\PSoC5/core_cm3.h **** #define MPU_RNR_REGION_Pos                  0U                                            /*!< MPU 
1178:Generated_Source\PSoC5/core_cm3.h **** #define MPU_RNR_REGION_Msk                 (0xFFUL /*<< MPU_RNR_REGION_Pos*/)             /*!< MPU 
1179:Generated_Source\PSoC5/core_cm3.h **** 
1180:Generated_Source\PSoC5/core_cm3.h **** /* MPU Region Base Address Register Definitions */
1181:Generated_Source\PSoC5/core_cm3.h **** #define MPU_RBAR_ADDR_Pos                   5U                                            /*!< MPU 
1182:Generated_Source\PSoC5/core_cm3.h **** #define MPU_RBAR_ADDR_Msk                  (0x7FFFFFFUL << MPU_RBAR_ADDR_Pos)             /*!< MPU 
1183:Generated_Source\PSoC5/core_cm3.h **** 
1184:Generated_Source\PSoC5/core_cm3.h **** #define MPU_RBAR_VALID_Pos                  4U                                            /*!< MPU 
1185:Generated_Source\PSoC5/core_cm3.h **** #define MPU_RBAR_VALID_Msk                 (1UL << MPU_RBAR_VALID_Pos)                    /*!< MPU 
1186:Generated_Source\PSoC5/core_cm3.h **** 
1187:Generated_Source\PSoC5/core_cm3.h **** #define MPU_RBAR_REGION_Pos                 0U                                            /*!< MPU 
1188:Generated_Source\PSoC5/core_cm3.h **** #define MPU_RBAR_REGION_Msk                (0xFUL /*<< MPU_RBAR_REGION_Pos*/)             /*!< MPU 
1189:Generated_Source\PSoC5/core_cm3.h **** 
1190:Generated_Source\PSoC5/core_cm3.h **** /* MPU Region Attribute and Size Register Definitions */
1191:Generated_Source\PSoC5/core_cm3.h **** #define MPU_RASR_ATTRS_Pos                 16U                                            /*!< MPU 
1192:Generated_Source\PSoC5/core_cm3.h **** #define MPU_RASR_ATTRS_Msk                 (0xFFFFUL << MPU_RASR_ATTRS_Pos)               /*!< MPU 
1193:Generated_Source\PSoC5/core_cm3.h **** 
1194:Generated_Source\PSoC5/core_cm3.h **** #define MPU_RASR_XN_Pos                    28U                                            /*!< MPU 
1195:Generated_Source\PSoC5/core_cm3.h **** #define MPU_RASR_XN_Msk                    (1UL << MPU_RASR_XN_Pos)                       /*!< MPU 
1196:Generated_Source\PSoC5/core_cm3.h **** 
1197:Generated_Source\PSoC5/core_cm3.h **** #define MPU_RASR_AP_Pos                    24U                                            /*!< MPU 
1198:Generated_Source\PSoC5/core_cm3.h **** #define MPU_RASR_AP_Msk                    (0x7UL << MPU_RASR_AP_Pos)                     /*!< MPU 
1199:Generated_Source\PSoC5/core_cm3.h **** 
1200:Generated_Source\PSoC5/core_cm3.h **** #define MPU_RASR_TEX_Pos                   19U                                            /*!< MPU 
ARM GAS  C:\Users\Patrick\AppData\Local\Temp\cc1OctCg.s 			page 56


1201:Generated_Source\PSoC5/core_cm3.h **** #define MPU_RASR_TEX_Msk                   (0x7UL << MPU_RASR_TEX_Pos)                    /*!< MPU 
1202:Generated_Source\PSoC5/core_cm3.h **** 
1203:Generated_Source\PSoC5/core_cm3.h **** #define MPU_RASR_S_Pos                     18U                                            /*!< MPU 
1204:Generated_Source\PSoC5/core_cm3.h **** #define MPU_RASR_S_Msk                     (1UL << MPU_RASR_S_Pos)                        /*!< MPU 
1205:Generated_Source\PSoC5/core_cm3.h **** 
1206:Generated_Source\PSoC5/core_cm3.h **** #define MPU_RASR_C_Pos                     17U                                            /*!< MPU 
1207:Generated_Source\PSoC5/core_cm3.h **** #define MPU_RASR_C_Msk                     (1UL << MPU_RASR_C_Pos)                        /*!< MPU 
1208:Generated_Source\PSoC5/core_cm3.h **** 
1209:Generated_Source\PSoC5/core_cm3.h **** #define MPU_RASR_B_Pos                     16U                                            /*!< MPU 
1210:Generated_Source\PSoC5/core_cm3.h **** #define MPU_RASR_B_Msk                     (1UL << MPU_RASR_B_Pos)                        /*!< MPU 
1211:Generated_Source\PSoC5/core_cm3.h **** 
1212:Generated_Source\PSoC5/core_cm3.h **** #define MPU_RASR_SRD_Pos                    8U                                            /*!< MPU 
1213:Generated_Source\PSoC5/core_cm3.h **** #define MPU_RASR_SRD_Msk                   (0xFFUL << MPU_RASR_SRD_Pos)                   /*!< MPU 
1214:Generated_Source\PSoC5/core_cm3.h **** 
1215:Generated_Source\PSoC5/core_cm3.h **** #define MPU_RASR_SIZE_Pos                   1U                                            /*!< MPU 
1216:Generated_Source\PSoC5/core_cm3.h **** #define MPU_RASR_SIZE_Msk                  (0x1FUL << MPU_RASR_SIZE_Pos)                  /*!< MPU 
1217:Generated_Source\PSoC5/core_cm3.h **** 
1218:Generated_Source\PSoC5/core_cm3.h **** #define MPU_RASR_ENABLE_Pos                 0U                                            /*!< MPU 
1219:Generated_Source\PSoC5/core_cm3.h **** #define MPU_RASR_ENABLE_Msk                (1UL /*<< MPU_RASR_ENABLE_Pos*/)               /*!< MPU 
1220:Generated_Source\PSoC5/core_cm3.h **** 
1221:Generated_Source\PSoC5/core_cm3.h **** /*@} end of group CMSIS_MPU */
1222:Generated_Source\PSoC5/core_cm3.h **** #endif
1223:Generated_Source\PSoC5/core_cm3.h **** 
1224:Generated_Source\PSoC5/core_cm3.h **** 
1225:Generated_Source\PSoC5/core_cm3.h **** /**
1226:Generated_Source\PSoC5/core_cm3.h ****   \ingroup  CMSIS_core_register
1227:Generated_Source\PSoC5/core_cm3.h ****   \defgroup CMSIS_CoreDebug       Core Debug Registers (CoreDebug)
1228:Generated_Source\PSoC5/core_cm3.h ****   \brief    Type definitions for the Core Debug Registers
1229:Generated_Source\PSoC5/core_cm3.h ****   @{
1230:Generated_Source\PSoC5/core_cm3.h ****  */
1231:Generated_Source\PSoC5/core_cm3.h **** 
1232:Generated_Source\PSoC5/core_cm3.h **** /**
1233:Generated_Source\PSoC5/core_cm3.h ****   \brief  Structure type to access the Core Debug Register (CoreDebug).
1234:Generated_Source\PSoC5/core_cm3.h ****  */
1235:Generated_Source\PSoC5/core_cm3.h **** typedef struct
1236:Generated_Source\PSoC5/core_cm3.h **** {
1237:Generated_Source\PSoC5/core_cm3.h ****   __IOM uint32_t DHCSR;                  /*!< Offset: 0x000 (R/W)  Debug Halting Control and Status
1238:Generated_Source\PSoC5/core_cm3.h ****   __OM  uint32_t DCRSR;                  /*!< Offset: 0x004 ( /W)  Debug Core Register Selector Reg
1239:Generated_Source\PSoC5/core_cm3.h ****   __IOM uint32_t DCRDR;                  /*!< Offset: 0x008 (R/W)  Debug Core Register Data Registe
1240:Generated_Source\PSoC5/core_cm3.h ****   __IOM uint32_t DEMCR;                  /*!< Offset: 0x00C (R/W)  Debug Exception and Monitor Cont
1241:Generated_Source\PSoC5/core_cm3.h **** } CoreDebug_Type;
1242:Generated_Source\PSoC5/core_cm3.h **** 
1243:Generated_Source\PSoC5/core_cm3.h **** /* Debug Halting Control and Status Register Definitions */
1244:Generated_Source\PSoC5/core_cm3.h **** #define CoreDebug_DHCSR_DBGKEY_Pos         16U                                            /*!< Core
1245:Generated_Source\PSoC5/core_cm3.h **** #define CoreDebug_DHCSR_DBGKEY_Msk         (0xFFFFUL << CoreDebug_DHCSR_DBGKEY_Pos)       /*!< Core
1246:Generated_Source\PSoC5/core_cm3.h **** 
1247:Generated_Source\PSoC5/core_cm3.h **** #define CoreDebug_DHCSR_S_RESET_ST_Pos     25U                                            /*!< Core
1248:Generated_Source\PSoC5/core_cm3.h **** #define CoreDebug_DHCSR_S_RESET_ST_Msk     (1UL << CoreDebug_DHCSR_S_RESET_ST_Pos)        /*!< Core
1249:Generated_Source\PSoC5/core_cm3.h **** 
1250:Generated_Source\PSoC5/core_cm3.h **** #define CoreDebug_DHCSR_S_RETIRE_ST_Pos    24U                                            /*!< Core
1251:Generated_Source\PSoC5/core_cm3.h **** #define CoreDebug_DHCSR_S_RETIRE_ST_Msk    (1UL << CoreDebug_DHCSR_S_RETIRE_ST_Pos)       /*!< Core
1252:Generated_Source\PSoC5/core_cm3.h **** 
1253:Generated_Source\PSoC5/core_cm3.h **** #define CoreDebug_DHCSR_S_LOCKUP_Pos       19U                                            /*!< Core
1254:Generated_Source\PSoC5/core_cm3.h **** #define CoreDebug_DHCSR_S_LOCKUP_Msk       (1UL << CoreDebug_DHCSR_S_LOCKUP_Pos)          /*!< Core
1255:Generated_Source\PSoC5/core_cm3.h **** 
1256:Generated_Source\PSoC5/core_cm3.h **** #define CoreDebug_DHCSR_S_SLEEP_Pos        18U                                            /*!< Core
1257:Generated_Source\PSoC5/core_cm3.h **** #define CoreDebug_DHCSR_S_SLEEP_Msk        (1UL << CoreDebug_DHCSR_S_SLEEP_Pos)           /*!< Core
ARM GAS  C:\Users\Patrick\AppData\Local\Temp\cc1OctCg.s 			page 57


1258:Generated_Source\PSoC5/core_cm3.h **** 
1259:Generated_Source\PSoC5/core_cm3.h **** #define CoreDebug_DHCSR_S_HALT_Pos         17U                                            /*!< Core
1260:Generated_Source\PSoC5/core_cm3.h **** #define CoreDebug_DHCSR_S_HALT_Msk         (1UL << CoreDebug_DHCSR_S_HALT_Pos)            /*!< Core
1261:Generated_Source\PSoC5/core_cm3.h **** 
1262:Generated_Source\PSoC5/core_cm3.h **** #define CoreDebug_DHCSR_S_REGRDY_Pos       16U                                            /*!< Core
1263:Generated_Source\PSoC5/core_cm3.h **** #define CoreDebug_DHCSR_S_REGRDY_Msk       (1UL << CoreDebug_DHCSR_S_REGRDY_Pos)          /*!< Core
1264:Generated_Source\PSoC5/core_cm3.h **** 
1265:Generated_Source\PSoC5/core_cm3.h **** #define CoreDebug_DHCSR_C_SNAPSTALL_Pos     5U                                            /*!< Core
1266:Generated_Source\PSoC5/core_cm3.h **** #define CoreDebug_DHCSR_C_SNAPSTALL_Msk    (1UL << CoreDebug_DHCSR_C_SNAPSTALL_Pos)       /*!< Core
1267:Generated_Source\PSoC5/core_cm3.h **** 
1268:Generated_Source\PSoC5/core_cm3.h **** #define CoreDebug_DHCSR_C_MASKINTS_Pos      3U                                            /*!< Core
1269:Generated_Source\PSoC5/core_cm3.h **** #define CoreDebug_DHCSR_C_MASKINTS_Msk     (1UL << CoreDebug_DHCSR_C_MASKINTS_Pos)        /*!< Core
1270:Generated_Source\PSoC5/core_cm3.h **** 
1271:Generated_Source\PSoC5/core_cm3.h **** #define CoreDebug_DHCSR_C_STEP_Pos          2U                                            /*!< Core
1272:Generated_Source\PSoC5/core_cm3.h **** #define CoreDebug_DHCSR_C_STEP_Msk         (1UL << CoreDebug_DHCSR_C_STEP_Pos)            /*!< Core
1273:Generated_Source\PSoC5/core_cm3.h **** 
1274:Generated_Source\PSoC5/core_cm3.h **** #define CoreDebug_DHCSR_C_HALT_Pos          1U                                            /*!< Core
1275:Generated_Source\PSoC5/core_cm3.h **** #define CoreDebug_DHCSR_C_HALT_Msk         (1UL << CoreDebug_DHCSR_C_HALT_Pos)            /*!< Core
1276:Generated_Source\PSoC5/core_cm3.h **** 
1277:Generated_Source\PSoC5/core_cm3.h **** #define CoreDebug_DHCSR_C_DEBUGEN_Pos       0U                                            /*!< Core
1278:Generated_Source\PSoC5/core_cm3.h **** #define CoreDebug_DHCSR_C_DEBUGEN_Msk      (1UL /*<< CoreDebug_DHCSR_C_DEBUGEN_Pos*/)     /*!< Core
1279:Generated_Source\PSoC5/core_cm3.h **** 
1280:Generated_Source\PSoC5/core_cm3.h **** /* Debug Core Register Selector Register Definitions */
1281:Generated_Source\PSoC5/core_cm3.h **** #define CoreDebug_DCRSR_REGWnR_Pos         16U                                            /*!< Core
1282:Generated_Source\PSoC5/core_cm3.h **** #define CoreDebug_DCRSR_REGWnR_Msk         (1UL << CoreDebug_DCRSR_REGWnR_Pos)            /*!< Core
1283:Generated_Source\PSoC5/core_cm3.h **** 
1284:Generated_Source\PSoC5/core_cm3.h **** #define CoreDebug_DCRSR_REGSEL_Pos          0U                                            /*!< Core
1285:Generated_Source\PSoC5/core_cm3.h **** #define CoreDebug_DCRSR_REGSEL_Msk         (0x1FUL /*<< CoreDebug_DCRSR_REGSEL_Pos*/)     /*!< Core
1286:Generated_Source\PSoC5/core_cm3.h **** 
1287:Generated_Source\PSoC5/core_cm3.h **** /* Debug Exception and Monitor Control Register Definitions */
1288:Generated_Source\PSoC5/core_cm3.h **** #define CoreDebug_DEMCR_TRCENA_Pos         24U                                            /*!< Core
1289:Generated_Source\PSoC5/core_cm3.h **** #define CoreDebug_DEMCR_TRCENA_Msk         (1UL << CoreDebug_DEMCR_TRCENA_Pos)            /*!< Core
1290:Generated_Source\PSoC5/core_cm3.h **** 
1291:Generated_Source\PSoC5/core_cm3.h **** #define CoreDebug_DEMCR_MON_REQ_Pos        19U                                            /*!< Core
1292:Generated_Source\PSoC5/core_cm3.h **** #define CoreDebug_DEMCR_MON_REQ_Msk        (1UL << CoreDebug_DEMCR_MON_REQ_Pos)           /*!< Core
1293:Generated_Source\PSoC5/core_cm3.h **** 
1294:Generated_Source\PSoC5/core_cm3.h **** #define CoreDebug_DEMCR_MON_STEP_Pos       18U                                            /*!< Core
1295:Generated_Source\PSoC5/core_cm3.h **** #define CoreDebug_DEMCR_MON_STEP_Msk       (1UL << CoreDebug_DEMCR_MON_STEP_Pos)          /*!< Core
1296:Generated_Source\PSoC5/core_cm3.h **** 
1297:Generated_Source\PSoC5/core_cm3.h **** #define CoreDebug_DEMCR_MON_PEND_Pos       17U                                            /*!< Core
1298:Generated_Source\PSoC5/core_cm3.h **** #define CoreDebug_DEMCR_MON_PEND_Msk       (1UL << CoreDebug_DEMCR_MON_PEND_Pos)          /*!< Core
1299:Generated_Source\PSoC5/core_cm3.h **** 
1300:Generated_Source\PSoC5/core_cm3.h **** #define CoreDebug_DEMCR_MON_EN_Pos         16U                                            /*!< Core
1301:Generated_Source\PSoC5/core_cm3.h **** #define CoreDebug_DEMCR_MON_EN_Msk         (1UL << CoreDebug_DEMCR_MON_EN_Pos)            /*!< Core
1302:Generated_Source\PSoC5/core_cm3.h **** 
1303:Generated_Source\PSoC5/core_cm3.h **** #define CoreDebug_DEMCR_VC_HARDERR_Pos     10U                                            /*!< Core
1304:Generated_Source\PSoC5/core_cm3.h **** #define CoreDebug_DEMCR_VC_HARDERR_Msk     (1UL << CoreDebug_DEMCR_VC_HARDERR_Pos)        /*!< Core
1305:Generated_Source\PSoC5/core_cm3.h **** 
1306:Generated_Source\PSoC5/core_cm3.h **** #define CoreDebug_DEMCR_VC_INTERR_Pos       9U                                            /*!< Core
1307:Generated_Source\PSoC5/core_cm3.h **** #define CoreDebug_DEMCR_VC_INTERR_Msk      (1UL << CoreDebug_DEMCR_VC_INTERR_Pos)         /*!< Core
1308:Generated_Source\PSoC5/core_cm3.h **** 
1309:Generated_Source\PSoC5/core_cm3.h **** #define CoreDebug_DEMCR_VC_BUSERR_Pos       8U                                            /*!< Core
1310:Generated_Source\PSoC5/core_cm3.h **** #define CoreDebug_DEMCR_VC_BUSERR_Msk      (1UL << CoreDebug_DEMCR_VC_BUSERR_Pos)         /*!< Core
1311:Generated_Source\PSoC5/core_cm3.h **** 
1312:Generated_Source\PSoC5/core_cm3.h **** #define CoreDebug_DEMCR_VC_STATERR_Pos      7U                                            /*!< Core
1313:Generated_Source\PSoC5/core_cm3.h **** #define CoreDebug_DEMCR_VC_STATERR_Msk     (1UL << CoreDebug_DEMCR_VC_STATERR_Pos)        /*!< Core
1314:Generated_Source\PSoC5/core_cm3.h **** 
ARM GAS  C:\Users\Patrick\AppData\Local\Temp\cc1OctCg.s 			page 58


1315:Generated_Source\PSoC5/core_cm3.h **** #define CoreDebug_DEMCR_VC_CHKERR_Pos       6U                                            /*!< Core
1316:Generated_Source\PSoC5/core_cm3.h **** #define CoreDebug_DEMCR_VC_CHKERR_Msk      (1UL << CoreDebug_DEMCR_VC_CHKERR_Pos)         /*!< Core
1317:Generated_Source\PSoC5/core_cm3.h **** 
1318:Generated_Source\PSoC5/core_cm3.h **** #define CoreDebug_DEMCR_VC_NOCPERR_Pos      5U                                            /*!< Core
1319:Generated_Source\PSoC5/core_cm3.h **** #define CoreDebug_DEMCR_VC_NOCPERR_Msk     (1UL << CoreDebug_DEMCR_VC_NOCPERR_Pos)        /*!< Core
1320:Generated_Source\PSoC5/core_cm3.h **** 
1321:Generated_Source\PSoC5/core_cm3.h **** #define CoreDebug_DEMCR_VC_MMERR_Pos        4U                                            /*!< Core
1322:Generated_Source\PSoC5/core_cm3.h **** #define CoreDebug_DEMCR_VC_MMERR_Msk       (1UL << CoreDebug_DEMCR_VC_MMERR_Pos)          /*!< Core
1323:Generated_Source\PSoC5/core_cm3.h **** 
1324:Generated_Source\PSoC5/core_cm3.h **** #define CoreDebug_DEMCR_VC_CORERESET_Pos    0U                                            /*!< Core
1325:Generated_Source\PSoC5/core_cm3.h **** #define CoreDebug_DEMCR_VC_CORERESET_Msk   (1UL /*<< CoreDebug_DEMCR_VC_CORERESET_Pos*/)  /*!< Core
1326:Generated_Source\PSoC5/core_cm3.h **** 
1327:Generated_Source\PSoC5/core_cm3.h **** /*@} end of group CMSIS_CoreDebug */
1328:Generated_Source\PSoC5/core_cm3.h **** 
1329:Generated_Source\PSoC5/core_cm3.h **** 
1330:Generated_Source\PSoC5/core_cm3.h **** /**
1331:Generated_Source\PSoC5/core_cm3.h ****   \ingroup    CMSIS_core_register
1332:Generated_Source\PSoC5/core_cm3.h ****   \defgroup   CMSIS_core_bitfield     Core register bit field macros
1333:Generated_Source\PSoC5/core_cm3.h ****   \brief      Macros for use with bit field definitions (xxx_Pos, xxx_Msk).
1334:Generated_Source\PSoC5/core_cm3.h ****   @{
1335:Generated_Source\PSoC5/core_cm3.h ****  */
1336:Generated_Source\PSoC5/core_cm3.h **** 
1337:Generated_Source\PSoC5/core_cm3.h **** /**
1338:Generated_Source\PSoC5/core_cm3.h ****   \brief   Mask and shift a bit field value for use in a register bit range.
1339:Generated_Source\PSoC5/core_cm3.h ****   \param[in] field  Name of the register bit field.
1340:Generated_Source\PSoC5/core_cm3.h ****   \param[in] value  Value of the bit field.
1341:Generated_Source\PSoC5/core_cm3.h ****   \return           Masked and shifted value.
1342:Generated_Source\PSoC5/core_cm3.h **** */
1343:Generated_Source\PSoC5/core_cm3.h **** #define _VAL2FLD(field, value)    ((value << field ## _Pos) & field ## _Msk)
1344:Generated_Source\PSoC5/core_cm3.h **** 
1345:Generated_Source\PSoC5/core_cm3.h **** /**
1346:Generated_Source\PSoC5/core_cm3.h ****   \brief     Mask and shift a register value to extract a bit filed value.
1347:Generated_Source\PSoC5/core_cm3.h ****   \param[in] field  Name of the register bit field.
1348:Generated_Source\PSoC5/core_cm3.h ****   \param[in] value  Value of register.
1349:Generated_Source\PSoC5/core_cm3.h ****   \return           Masked and shifted bit field value.
1350:Generated_Source\PSoC5/core_cm3.h **** */
1351:Generated_Source\PSoC5/core_cm3.h **** #define _FLD2VAL(field, value)    ((value & field ## _Msk) >> field ## _Pos)
1352:Generated_Source\PSoC5/core_cm3.h **** 
1353:Generated_Source\PSoC5/core_cm3.h **** /*@} end of group CMSIS_core_bitfield */
1354:Generated_Source\PSoC5/core_cm3.h **** 
1355:Generated_Source\PSoC5/core_cm3.h **** 
1356:Generated_Source\PSoC5/core_cm3.h **** /**
1357:Generated_Source\PSoC5/core_cm3.h ****   \ingroup    CMSIS_core_register
1358:Generated_Source\PSoC5/core_cm3.h ****   \defgroup   CMSIS_core_base     Core Definitions
1359:Generated_Source\PSoC5/core_cm3.h ****   \brief      Definitions for base addresses, unions, and structures.
1360:Generated_Source\PSoC5/core_cm3.h ****   @{
1361:Generated_Source\PSoC5/core_cm3.h ****  */
1362:Generated_Source\PSoC5/core_cm3.h **** 
1363:Generated_Source\PSoC5/core_cm3.h **** /* Memory mapping of Cortex-M3 Hardware */
1364:Generated_Source\PSoC5/core_cm3.h **** #define SCS_BASE            (0xE000E000UL)                            /*!< System Control Space Bas
1365:Generated_Source\PSoC5/core_cm3.h **** #define ITM_BASE            (0xE0000000UL)                            /*!< ITM Base Address */
1366:Generated_Source\PSoC5/core_cm3.h **** #define DWT_BASE            (0xE0001000UL)                            /*!< DWT Base Address */
1367:Generated_Source\PSoC5/core_cm3.h **** #define TPI_BASE            (0xE0040000UL)                            /*!< TPI Base Address */
1368:Generated_Source\PSoC5/core_cm3.h **** #define CoreDebug_BASE      (0xE000EDF0UL)                            /*!< Core Debug Base Address 
1369:Generated_Source\PSoC5/core_cm3.h **** #define SysTick_BASE        (SCS_BASE +  0x0010UL)                    /*!< SysTick Base Address */
1370:Generated_Source\PSoC5/core_cm3.h **** #define NVIC_BASE           (SCS_BASE +  0x0100UL)                    /*!< NVIC Base Address */
1371:Generated_Source\PSoC5/core_cm3.h **** #define SCB_BASE            (SCS_BASE +  0x0D00UL)                    /*!< System Control Block Bas
ARM GAS  C:\Users\Patrick\AppData\Local\Temp\cc1OctCg.s 			page 59


1372:Generated_Source\PSoC5/core_cm3.h **** 
1373:Generated_Source\PSoC5/core_cm3.h **** #define SCnSCB              ((SCnSCB_Type    *)     SCS_BASE      )   /*!< System control Register 
1374:Generated_Source\PSoC5/core_cm3.h **** #define SCB                 ((SCB_Type       *)     SCB_BASE      )   /*!< SCB configuration struct
1375:Generated_Source\PSoC5/core_cm3.h **** #define SysTick             ((SysTick_Type   *)     SysTick_BASE  )   /*!< SysTick configuration st
1376:Generated_Source\PSoC5/core_cm3.h **** #define NVIC                ((NVIC_Type      *)     NVIC_BASE     )   /*!< NVIC configuration struc
1377:Generated_Source\PSoC5/core_cm3.h **** #define ITM                 ((ITM_Type       *)     ITM_BASE      )   /*!< ITM configuration struct
1378:Generated_Source\PSoC5/core_cm3.h **** #define DWT                 ((DWT_Type       *)     DWT_BASE      )   /*!< DWT configuration struct
1379:Generated_Source\PSoC5/core_cm3.h **** #define TPI                 ((TPI_Type       *)     TPI_BASE      )   /*!< TPI configuration struct
1380:Generated_Source\PSoC5/core_cm3.h **** #define CoreDebug           ((CoreDebug_Type *)     CoreDebug_BASE)   /*!< Core Debug configuration
1381:Generated_Source\PSoC5/core_cm3.h **** 
1382:Generated_Source\PSoC5/core_cm3.h **** #if (__MPU_PRESENT == 1U)
1383:Generated_Source\PSoC5/core_cm3.h ****   #define MPU_BASE          (SCS_BASE +  0x0D90UL)                    /*!< Memory Protection Unit *
1384:Generated_Source\PSoC5/core_cm3.h ****   #define MPU               ((MPU_Type       *)     MPU_BASE      )   /*!< Memory Protection Unit *
1385:Generated_Source\PSoC5/core_cm3.h **** #endif
1386:Generated_Source\PSoC5/core_cm3.h **** 
1387:Generated_Source\PSoC5/core_cm3.h **** /*@} */
1388:Generated_Source\PSoC5/core_cm3.h **** 
1389:Generated_Source\PSoC5/core_cm3.h **** 
1390:Generated_Source\PSoC5/core_cm3.h **** 
1391:Generated_Source\PSoC5/core_cm3.h **** /*******************************************************************************
1392:Generated_Source\PSoC5/core_cm3.h ****  *                Hardware Abstraction Layer
1393:Generated_Source\PSoC5/core_cm3.h ****   Core Function Interface contains:
1394:Generated_Source\PSoC5/core_cm3.h ****   - Core NVIC Functions
1395:Generated_Source\PSoC5/core_cm3.h ****   - Core SysTick Functions
1396:Generated_Source\PSoC5/core_cm3.h ****   - Core Debug Functions
1397:Generated_Source\PSoC5/core_cm3.h ****   - Core Register Access Functions
1398:Generated_Source\PSoC5/core_cm3.h ****  ******************************************************************************/
1399:Generated_Source\PSoC5/core_cm3.h **** /**
1400:Generated_Source\PSoC5/core_cm3.h ****   \defgroup CMSIS_Core_FunctionInterface Functions and Instructions Reference
1401:Generated_Source\PSoC5/core_cm3.h **** */
1402:Generated_Source\PSoC5/core_cm3.h **** 
1403:Generated_Source\PSoC5/core_cm3.h **** 
1404:Generated_Source\PSoC5/core_cm3.h **** 
1405:Generated_Source\PSoC5/core_cm3.h **** /* ##########################   NVIC functions  #################################### */
1406:Generated_Source\PSoC5/core_cm3.h **** /**
1407:Generated_Source\PSoC5/core_cm3.h ****   \ingroup  CMSIS_Core_FunctionInterface
1408:Generated_Source\PSoC5/core_cm3.h ****   \defgroup CMSIS_Core_NVICFunctions NVIC Functions
1409:Generated_Source\PSoC5/core_cm3.h ****   \brief    Functions that manage interrupts and exceptions via the NVIC.
1410:Generated_Source\PSoC5/core_cm3.h ****   @{
1411:Generated_Source\PSoC5/core_cm3.h ****  */
1412:Generated_Source\PSoC5/core_cm3.h **** 
1413:Generated_Source\PSoC5/core_cm3.h **** /**
1414:Generated_Source\PSoC5/core_cm3.h ****   \brief   Set Priority Grouping
1415:Generated_Source\PSoC5/core_cm3.h ****   \details Sets the priority grouping field using the required unlock sequence.
1416:Generated_Source\PSoC5/core_cm3.h ****            The parameter PriorityGroup is assigned to the field SCB->AIRCR [10:8] PRIGROUP field.
1417:Generated_Source\PSoC5/core_cm3.h ****            Only values from 0..7 are used.
1418:Generated_Source\PSoC5/core_cm3.h ****            In case of a conflict between priority grouping and available
1419:Generated_Source\PSoC5/core_cm3.h ****            priority bits (__NVIC_PRIO_BITS), the smallest possible priority group is set.
1420:Generated_Source\PSoC5/core_cm3.h ****   \param [in]      PriorityGroup  Priority grouping field.
1421:Generated_Source\PSoC5/core_cm3.h ****  */
1422:Generated_Source\PSoC5/core_cm3.h **** __STATIC_INLINE void NVIC_SetPriorityGrouping(uint32_t PriorityGroup)
1423:Generated_Source\PSoC5/core_cm3.h **** {
1424:Generated_Source\PSoC5/core_cm3.h ****   uint32_t reg_value;
1425:Generated_Source\PSoC5/core_cm3.h ****   uint32_t PriorityGroupTmp = (PriorityGroup & (uint32_t)0x07UL);             /* only values 0..7 a
1426:Generated_Source\PSoC5/core_cm3.h **** 
1427:Generated_Source\PSoC5/core_cm3.h ****   reg_value  =  SCB->AIRCR;                                                   /* read old register 
1428:Generated_Source\PSoC5/core_cm3.h ****   reg_value &= ~((uint32_t)(SCB_AIRCR_VECTKEY_Msk | SCB_AIRCR_PRIGROUP_Msk)); /* clear bits to chan
ARM GAS  C:\Users\Patrick\AppData\Local\Temp\cc1OctCg.s 			page 60


1429:Generated_Source\PSoC5/core_cm3.h ****   reg_value  =  (reg_value                                   |
1430:Generated_Source\PSoC5/core_cm3.h ****                 ((uint32_t)0x5FAUL << SCB_AIRCR_VECTKEY_Pos) |
1431:Generated_Source\PSoC5/core_cm3.h ****                 (PriorityGroupTmp << 8U)                      );              /* Insert write key a
1432:Generated_Source\PSoC5/core_cm3.h ****   SCB->AIRCR =  reg_value;
1433:Generated_Source\PSoC5/core_cm3.h **** }
1434:Generated_Source\PSoC5/core_cm3.h **** 
1435:Generated_Source\PSoC5/core_cm3.h **** 
1436:Generated_Source\PSoC5/core_cm3.h **** /**
1437:Generated_Source\PSoC5/core_cm3.h ****   \brief   Get Priority Grouping
1438:Generated_Source\PSoC5/core_cm3.h ****   \details Reads the priority grouping field from the NVIC Interrupt Controller.
1439:Generated_Source\PSoC5/core_cm3.h ****   \return                Priority grouping field (SCB->AIRCR [10:8] PRIGROUP field).
1440:Generated_Source\PSoC5/core_cm3.h ****  */
1441:Generated_Source\PSoC5/core_cm3.h **** __STATIC_INLINE uint32_t NVIC_GetPriorityGrouping(void)
1442:Generated_Source\PSoC5/core_cm3.h **** {
1443:Generated_Source\PSoC5/core_cm3.h ****   return ((uint32_t)((SCB->AIRCR & SCB_AIRCR_PRIGROUP_Msk) >> SCB_AIRCR_PRIGROUP_Pos));
1444:Generated_Source\PSoC5/core_cm3.h **** }
1445:Generated_Source\PSoC5/core_cm3.h **** 
1446:Generated_Source\PSoC5/core_cm3.h **** 
1447:Generated_Source\PSoC5/core_cm3.h **** /**
1448:Generated_Source\PSoC5/core_cm3.h ****   \brief   Enable External Interrupt
1449:Generated_Source\PSoC5/core_cm3.h ****   \details Enables a device-specific interrupt in the NVIC interrupt controller.
1450:Generated_Source\PSoC5/core_cm3.h ****   \param [in]      IRQn  External interrupt number. Value cannot be negative.
1451:Generated_Source\PSoC5/core_cm3.h ****  */
1452:Generated_Source\PSoC5/core_cm3.h **** __STATIC_INLINE void NVIC_EnableIRQ(IRQn_Type IRQn)
1453:Generated_Source\PSoC5/core_cm3.h **** {
1454:Generated_Source\PSoC5/core_cm3.h ****   NVIC->ISER[(((uint32_t)(int32_t)IRQn) >> 5UL)] = (uint32_t)(1UL << (((uint32_t)(int32_t)IRQn) & 0
1455:Generated_Source\PSoC5/core_cm3.h **** }
1456:Generated_Source\PSoC5/core_cm3.h **** 
1457:Generated_Source\PSoC5/core_cm3.h **** 
1458:Generated_Source\PSoC5/core_cm3.h **** /**
1459:Generated_Source\PSoC5/core_cm3.h ****   \brief   Disable External Interrupt
1460:Generated_Source\PSoC5/core_cm3.h ****   \details Disables a device-specific interrupt in the NVIC interrupt controller.
1461:Generated_Source\PSoC5/core_cm3.h ****   \param [in]      IRQn  External interrupt number. Value cannot be negative.
1462:Generated_Source\PSoC5/core_cm3.h ****  */
1463:Generated_Source\PSoC5/core_cm3.h **** __STATIC_INLINE void NVIC_DisableIRQ(IRQn_Type IRQn)
1464:Generated_Source\PSoC5/core_cm3.h **** {
1465:Generated_Source\PSoC5/core_cm3.h ****   NVIC->ICER[(((uint32_t)(int32_t)IRQn) >> 5UL)] = (uint32_t)(1UL << (((uint32_t)(int32_t)IRQn) & 0
1466:Generated_Source\PSoC5/core_cm3.h **** }
1467:Generated_Source\PSoC5/core_cm3.h **** 
1468:Generated_Source\PSoC5/core_cm3.h **** 
1469:Generated_Source\PSoC5/core_cm3.h **** /**
1470:Generated_Source\PSoC5/core_cm3.h ****   \brief   Get Pending Interrupt
1471:Generated_Source\PSoC5/core_cm3.h ****   \details Reads the pending register in the NVIC and returns the pending bit for the specified int
1472:Generated_Source\PSoC5/core_cm3.h ****   \param [in]      IRQn  Interrupt number.
1473:Generated_Source\PSoC5/core_cm3.h ****   \return             0  Interrupt status is not pending.
1474:Generated_Source\PSoC5/core_cm3.h ****   \return             1  Interrupt status is pending.
1475:Generated_Source\PSoC5/core_cm3.h ****  */
1476:Generated_Source\PSoC5/core_cm3.h **** __STATIC_INLINE uint32_t NVIC_GetPendingIRQ(IRQn_Type IRQn)
1477:Generated_Source\PSoC5/core_cm3.h **** {
1478:Generated_Source\PSoC5/core_cm3.h ****   return((uint32_t)(((NVIC->ISPR[(((uint32_t)(int32_t)IRQn) >> 5UL)] & (1UL << (((uint32_t)(int32_t
1479:Generated_Source\PSoC5/core_cm3.h **** }
1480:Generated_Source\PSoC5/core_cm3.h **** 
1481:Generated_Source\PSoC5/core_cm3.h **** 
1482:Generated_Source\PSoC5/core_cm3.h **** /**
1483:Generated_Source\PSoC5/core_cm3.h ****   \brief   Set Pending Interrupt
1484:Generated_Source\PSoC5/core_cm3.h ****   \details Sets the pending bit of an external interrupt.
1485:Generated_Source\PSoC5/core_cm3.h ****   \param [in]      IRQn  Interrupt number. Value cannot be negative.
ARM GAS  C:\Users\Patrick\AppData\Local\Temp\cc1OctCg.s 			page 61


1486:Generated_Source\PSoC5/core_cm3.h ****  */
1487:Generated_Source\PSoC5/core_cm3.h **** __STATIC_INLINE void NVIC_SetPendingIRQ(IRQn_Type IRQn)
1488:Generated_Source\PSoC5/core_cm3.h **** {
1489:Generated_Source\PSoC5/core_cm3.h ****   NVIC->ISPR[(((uint32_t)(int32_t)IRQn) >> 5UL)] = (uint32_t)(1UL << (((uint32_t)(int32_t)IRQn) & 0
1490:Generated_Source\PSoC5/core_cm3.h **** }
1491:Generated_Source\PSoC5/core_cm3.h **** 
1492:Generated_Source\PSoC5/core_cm3.h **** 
1493:Generated_Source\PSoC5/core_cm3.h **** /**
1494:Generated_Source\PSoC5/core_cm3.h ****   \brief   Clear Pending Interrupt
1495:Generated_Source\PSoC5/core_cm3.h ****   \details Clears the pending bit of an external interrupt.
1496:Generated_Source\PSoC5/core_cm3.h ****   \param [in]      IRQn  External interrupt number. Value cannot be negative.
1497:Generated_Source\PSoC5/core_cm3.h ****  */
1498:Generated_Source\PSoC5/core_cm3.h **** __STATIC_INLINE void NVIC_ClearPendingIRQ(IRQn_Type IRQn)
1499:Generated_Source\PSoC5/core_cm3.h **** {
1500:Generated_Source\PSoC5/core_cm3.h ****   NVIC->ICPR[(((uint32_t)(int32_t)IRQn) >> 5UL)] = (uint32_t)(1UL << (((uint32_t)(int32_t)IRQn) & 0
1501:Generated_Source\PSoC5/core_cm3.h **** }
1502:Generated_Source\PSoC5/core_cm3.h **** 
1503:Generated_Source\PSoC5/core_cm3.h **** 
1504:Generated_Source\PSoC5/core_cm3.h **** /**
1505:Generated_Source\PSoC5/core_cm3.h ****   \brief   Get Active Interrupt
1506:Generated_Source\PSoC5/core_cm3.h ****   \details Reads the active register in NVIC and returns the active bit.
1507:Generated_Source\PSoC5/core_cm3.h ****   \param [in]      IRQn  Interrupt number.
1508:Generated_Source\PSoC5/core_cm3.h ****   \return             0  Interrupt status is not active.
1509:Generated_Source\PSoC5/core_cm3.h ****   \return             1  Interrupt status is active.
1510:Generated_Source\PSoC5/core_cm3.h ****  */
1511:Generated_Source\PSoC5/core_cm3.h **** __STATIC_INLINE uint32_t NVIC_GetActive(IRQn_Type IRQn)
1512:Generated_Source\PSoC5/core_cm3.h **** {
1513:Generated_Source\PSoC5/core_cm3.h ****   return((uint32_t)(((NVIC->IABR[(((uint32_t)(int32_t)IRQn) >> 5UL)] & (1UL << (((uint32_t)(int32_t
1514:Generated_Source\PSoC5/core_cm3.h **** }
1515:Generated_Source\PSoC5/core_cm3.h **** 
1516:Generated_Source\PSoC5/core_cm3.h **** 
1517:Generated_Source\PSoC5/core_cm3.h **** /**
1518:Generated_Source\PSoC5/core_cm3.h ****   \brief   Set Interrupt Priority
1519:Generated_Source\PSoC5/core_cm3.h ****   \details Sets the priority of an interrupt.
1520:Generated_Source\PSoC5/core_cm3.h ****   \note    The priority cannot be set for every core interrupt.
1521:Generated_Source\PSoC5/core_cm3.h ****   \param [in]      IRQn  Interrupt number.
1522:Generated_Source\PSoC5/core_cm3.h ****   \param [in]  priority  Priority to set.
1523:Generated_Source\PSoC5/core_cm3.h ****  */
1524:Generated_Source\PSoC5/core_cm3.h **** __STATIC_INLINE void NVIC_SetPriority(IRQn_Type IRQn, uint32_t priority)
1525:Generated_Source\PSoC5/core_cm3.h **** {
1526:Generated_Source\PSoC5/core_cm3.h ****   if ((int32_t)(IRQn) < 0)
1527:Generated_Source\PSoC5/core_cm3.h ****   {
1528:Generated_Source\PSoC5/core_cm3.h ****     SCB->SHP[(((uint32_t)(int32_t)IRQn) & 0xFUL)-4UL] = (uint8_t)((priority << (8U - __NVIC_PRIO_BI
1529:Generated_Source\PSoC5/core_cm3.h ****   }
1530:Generated_Source\PSoC5/core_cm3.h ****   else
1531:Generated_Source\PSoC5/core_cm3.h ****   {
1532:Generated_Source\PSoC5/core_cm3.h ****     NVIC->IP[((uint32_t)(int32_t)IRQn)]               = (uint8_t)((priority << (8U - __NVIC_PRIO_BI
1533:Generated_Source\PSoC5/core_cm3.h ****   }
1534:Generated_Source\PSoC5/core_cm3.h **** }
1535:Generated_Source\PSoC5/core_cm3.h **** 
1536:Generated_Source\PSoC5/core_cm3.h **** 
1537:Generated_Source\PSoC5/core_cm3.h **** /**
1538:Generated_Source\PSoC5/core_cm3.h ****   \brief   Get Interrupt Priority
1539:Generated_Source\PSoC5/core_cm3.h ****   \details Reads the priority of an interrupt.
1540:Generated_Source\PSoC5/core_cm3.h ****            The interrupt number can be positive to specify an external (device specific) interrupt,
1541:Generated_Source\PSoC5/core_cm3.h ****            or negative to specify an internal (core) interrupt.
1542:Generated_Source\PSoC5/core_cm3.h ****   \param [in]   IRQn  Interrupt number.
ARM GAS  C:\Users\Patrick\AppData\Local\Temp\cc1OctCg.s 			page 62


1543:Generated_Source\PSoC5/core_cm3.h ****   \return             Interrupt Priority.
1544:Generated_Source\PSoC5/core_cm3.h ****                       Value is aligned automatically to the implemented priority bits of the microc
1545:Generated_Source\PSoC5/core_cm3.h ****  */
1546:Generated_Source\PSoC5/core_cm3.h **** __STATIC_INLINE uint32_t NVIC_GetPriority(IRQn_Type IRQn)
1547:Generated_Source\PSoC5/core_cm3.h **** {
1548:Generated_Source\PSoC5/core_cm3.h **** 
1549:Generated_Source\PSoC5/core_cm3.h ****   if ((int32_t)(IRQn) < 0)
1550:Generated_Source\PSoC5/core_cm3.h ****   {
1551:Generated_Source\PSoC5/core_cm3.h ****     return(((uint32_t)SCB->SHP[(((uint32_t)(int32_t)IRQn) & 0xFUL)-4UL] >> (8U - __NVIC_PRIO_BITS))
1552:Generated_Source\PSoC5/core_cm3.h ****   }
1553:Generated_Source\PSoC5/core_cm3.h ****   else
1554:Generated_Source\PSoC5/core_cm3.h ****   {
1555:Generated_Source\PSoC5/core_cm3.h ****     return(((uint32_t)NVIC->IP[((uint32_t)(int32_t)IRQn)]               >> (8U - __NVIC_PRIO_BITS))
1556:Generated_Source\PSoC5/core_cm3.h ****   }
1557:Generated_Source\PSoC5/core_cm3.h **** }
1558:Generated_Source\PSoC5/core_cm3.h **** 
1559:Generated_Source\PSoC5/core_cm3.h **** 
1560:Generated_Source\PSoC5/core_cm3.h **** /**
1561:Generated_Source\PSoC5/core_cm3.h ****   \brief   Encode Priority
1562:Generated_Source\PSoC5/core_cm3.h ****   \details Encodes the priority for an interrupt with the given priority group,
1563:Generated_Source\PSoC5/core_cm3.h ****            preemptive priority value, and subpriority value.
1564:Generated_Source\PSoC5/core_cm3.h ****            In case of a conflict between priority grouping and available
1565:Generated_Source\PSoC5/core_cm3.h ****            priority bits (__NVIC_PRIO_BITS), the smallest possible priority group is set.
1566:Generated_Source\PSoC5/core_cm3.h ****   \param [in]     PriorityGroup  Used priority group.
1567:Generated_Source\PSoC5/core_cm3.h ****   \param [in]   PreemptPriority  Preemptive priority value (starting from 0).
1568:Generated_Source\PSoC5/core_cm3.h ****   \param [in]       SubPriority  Subpriority value (starting from 0).
1569:Generated_Source\PSoC5/core_cm3.h ****   \return                        Encoded priority. Value can be used in the function \ref NVIC_SetP
1570:Generated_Source\PSoC5/core_cm3.h ****  */
1571:Generated_Source\PSoC5/core_cm3.h **** __STATIC_INLINE uint32_t NVIC_EncodePriority (uint32_t PriorityGroup, uint32_t PreemptPriority, uin
1572:Generated_Source\PSoC5/core_cm3.h **** {
1573:Generated_Source\PSoC5/core_cm3.h ****   uint32_t PriorityGroupTmp = (PriorityGroup & (uint32_t)0x07UL);   /* only values 0..7 are used   
1574:Generated_Source\PSoC5/core_cm3.h ****   uint32_t PreemptPriorityBits;
1575:Generated_Source\PSoC5/core_cm3.h ****   uint32_t SubPriorityBits;
1576:Generated_Source\PSoC5/core_cm3.h **** 
1577:Generated_Source\PSoC5/core_cm3.h ****   PreemptPriorityBits = ((7UL - PriorityGroupTmp) > (uint32_t)(__NVIC_PRIO_BITS)) ? (uint32_t)(__NV
1578:Generated_Source\PSoC5/core_cm3.h ****   SubPriorityBits     = ((PriorityGroupTmp + (uint32_t)(__NVIC_PRIO_BITS)) < (uint32_t)7UL) ? (uint
1579:Generated_Source\PSoC5/core_cm3.h **** 
1580:Generated_Source\PSoC5/core_cm3.h ****   return (
1581:Generated_Source\PSoC5/core_cm3.h ****            ((PreemptPriority & (uint32_t)((1UL << (PreemptPriorityBits)) - 1UL)) << SubPriorityBits
1582:Generated_Source\PSoC5/core_cm3.h ****            ((SubPriority     & (uint32_t)((1UL << (SubPriorityBits    )) - 1UL)))
1583:Generated_Source\PSoC5/core_cm3.h ****          );
1584:Generated_Source\PSoC5/core_cm3.h **** }
1585:Generated_Source\PSoC5/core_cm3.h **** 
1586:Generated_Source\PSoC5/core_cm3.h **** 
1587:Generated_Source\PSoC5/core_cm3.h **** /**
1588:Generated_Source\PSoC5/core_cm3.h ****   \brief   Decode Priority
1589:Generated_Source\PSoC5/core_cm3.h ****   \details Decodes an interrupt priority value with a given priority group to
1590:Generated_Source\PSoC5/core_cm3.h ****            preemptive priority value and subpriority value.
1591:Generated_Source\PSoC5/core_cm3.h ****            In case of a conflict between priority grouping and available
1592:Generated_Source\PSoC5/core_cm3.h ****            priority bits (__NVIC_PRIO_BITS) the smallest possible priority group is set.
1593:Generated_Source\PSoC5/core_cm3.h ****   \param [in]         Priority   Priority value, which can be retrieved with the function \ref NVIC
1594:Generated_Source\PSoC5/core_cm3.h ****   \param [in]     PriorityGroup  Used priority group.
1595:Generated_Source\PSoC5/core_cm3.h ****   \param [out] pPreemptPriority  Preemptive priority value (starting from 0).
1596:Generated_Source\PSoC5/core_cm3.h ****   \param [out]     pSubPriority  Subpriority value (starting from 0).
1597:Generated_Source\PSoC5/core_cm3.h ****  */
1598:Generated_Source\PSoC5/core_cm3.h **** __STATIC_INLINE void NVIC_DecodePriority (uint32_t Priority, uint32_t PriorityGroup, uint32_t* cons
1599:Generated_Source\PSoC5/core_cm3.h **** {
ARM GAS  C:\Users\Patrick\AppData\Local\Temp\cc1OctCg.s 			page 63


1600:Generated_Source\PSoC5/core_cm3.h ****   uint32_t PriorityGroupTmp = (PriorityGroup & (uint32_t)0x07UL);   /* only values 0..7 are used   
1601:Generated_Source\PSoC5/core_cm3.h ****   uint32_t PreemptPriorityBits;
1602:Generated_Source\PSoC5/core_cm3.h ****   uint32_t SubPriorityBits;
1603:Generated_Source\PSoC5/core_cm3.h **** 
1604:Generated_Source\PSoC5/core_cm3.h ****   PreemptPriorityBits = ((7UL - PriorityGroupTmp) > (uint32_t)(__NVIC_PRIO_BITS)) ? (uint32_t)(__NV
1605:Generated_Source\PSoC5/core_cm3.h ****   SubPriorityBits     = ((PriorityGroupTmp + (uint32_t)(__NVIC_PRIO_BITS)) < (uint32_t)7UL) ? (uint
1606:Generated_Source\PSoC5/core_cm3.h **** 
1607:Generated_Source\PSoC5/core_cm3.h ****   *pPreemptPriority = (Priority >> SubPriorityBits) & (uint32_t)((1UL << (PreemptPriorityBits)) - 1
1608:Generated_Source\PSoC5/core_cm3.h ****   *pSubPriority     = (Priority                   ) & (uint32_t)((1UL << (SubPriorityBits    )) - 1
1609:Generated_Source\PSoC5/core_cm3.h **** }
1610:Generated_Source\PSoC5/core_cm3.h **** 
1611:Generated_Source\PSoC5/core_cm3.h **** 
1612:Generated_Source\PSoC5/core_cm3.h **** /**
1613:Generated_Source\PSoC5/core_cm3.h ****   \brief   System Reset
1614:Generated_Source\PSoC5/core_cm3.h ****   \details Initiates a system reset request to reset the MCU.
1615:Generated_Source\PSoC5/core_cm3.h ****  */
1616:Generated_Source\PSoC5/core_cm3.h **** __STATIC_INLINE void NVIC_SystemReset(void)
1617:Generated_Source\PSoC5/core_cm3.h **** {
1618:Generated_Source\PSoC5/core_cm3.h ****   __DSB();                                                          /* Ensure all outstanding memor
1619:Generated_Source\PSoC5/core_cm3.h ****                                                                        buffered write are completed
1620:Generated_Source\PSoC5/core_cm3.h ****   SCB->AIRCR  = (uint32_t)((0x5FAUL << SCB_AIRCR_VECTKEY_Pos)    |
1621:Generated_Source\PSoC5/core_cm3.h ****                            (SCB->AIRCR & SCB_AIRCR_PRIGROUP_Msk) |
1622:Generated_Source\PSoC5/core_cm3.h ****                             SCB_AIRCR_SYSRESETREQ_Msk    );         /* Keep priority group unchange
1623:Generated_Source\PSoC5/core_cm3.h ****   __DSB();                                                          /* Ensure completion of memory 
1624:Generated_Source\PSoC5/core_cm3.h **** 
1625:Generated_Source\PSoC5/core_cm3.h ****   for(;;)                                                           /* wait until reset */
1626:Generated_Source\PSoC5/core_cm3.h ****   {
1627:Generated_Source\PSoC5/core_cm3.h ****     __NOP();
1628:Generated_Source\PSoC5/core_cm3.h ****   }
1629:Generated_Source\PSoC5/core_cm3.h **** }
1630:Generated_Source\PSoC5/core_cm3.h **** 
1631:Generated_Source\PSoC5/core_cm3.h **** /*@} end of CMSIS_Core_NVICFunctions */
1632:Generated_Source\PSoC5/core_cm3.h **** 
1633:Generated_Source\PSoC5/core_cm3.h **** 
1634:Generated_Source\PSoC5/core_cm3.h **** 
1635:Generated_Source\PSoC5/core_cm3.h **** /* ##################################    SysTick function  ########################################
1636:Generated_Source\PSoC5/core_cm3.h **** /**
1637:Generated_Source\PSoC5/core_cm3.h ****   \ingroup  CMSIS_Core_FunctionInterface
1638:Generated_Source\PSoC5/core_cm3.h ****   \defgroup CMSIS_Core_SysTickFunctions SysTick Functions
1639:Generated_Source\PSoC5/core_cm3.h ****   \brief    Functions that configure the System.
1640:Generated_Source\PSoC5/core_cm3.h ****   @{
1641:Generated_Source\PSoC5/core_cm3.h ****  */
1642:Generated_Source\PSoC5/core_cm3.h **** 
1643:Generated_Source\PSoC5/core_cm3.h **** #if (__Vendor_SysTickConfig == 0U)
1644:Generated_Source\PSoC5/core_cm3.h **** 
1645:Generated_Source\PSoC5/core_cm3.h **** /**
1646:Generated_Source\PSoC5/core_cm3.h ****   \brief   System Tick Configuration
1647:Generated_Source\PSoC5/core_cm3.h ****   \details Initializes the System Timer and its interrupt, and starts the System Tick Timer.
1648:Generated_Source\PSoC5/core_cm3.h ****            Counter is in free running mode to generate periodic interrupts.
1649:Generated_Source\PSoC5/core_cm3.h ****   \param [in]  ticks  Number of ticks between two interrupts.
1650:Generated_Source\PSoC5/core_cm3.h ****   \return          0  Function succeeded.
1651:Generated_Source\PSoC5/core_cm3.h ****   \return          1  Function failed.
1652:Generated_Source\PSoC5/core_cm3.h ****   \note    When the variable <b>__Vendor_SysTickConfig</b> is set to 1, then the
1653:Generated_Source\PSoC5/core_cm3.h ****            function <b>SysTick_Config</b> is not included. In this case, the file <b><i>device</i>.
1654:Generated_Source\PSoC5/core_cm3.h ****            must contain a vendor-specific implementation of this function.
1655:Generated_Source\PSoC5/core_cm3.h ****  */
1656:Generated_Source\PSoC5/core_cm3.h **** __STATIC_INLINE uint32_t SysTick_Config(uint32_t ticks)
ARM GAS  C:\Users\Patrick\AppData\Local\Temp\cc1OctCg.s 			page 64


1657:Generated_Source\PSoC5/core_cm3.h **** {
1658:Generated_Source\PSoC5/core_cm3.h ****   if ((ticks - 1UL) > SysTick_LOAD_RELOAD_Msk)
1659:Generated_Source\PSoC5/core_cm3.h ****   {
1660:Generated_Source\PSoC5/core_cm3.h ****     return (1UL);                                                   /* Reload value impossible */
1661:Generated_Source\PSoC5/core_cm3.h ****   }
1662:Generated_Source\PSoC5/core_cm3.h **** 
1663:Generated_Source\PSoC5/core_cm3.h ****   SysTick->LOAD  = (uint32_t)(ticks - 1UL);                         /* set reload register */
 833              		.loc 3 1663 0
 834 00b4 40F2CF2E 		movw	lr, #719
 835 00b8 874B     		ldr	r3, .L109+16
 836              	.LBB114:
 837              	.LBB115:
1528:Generated_Source\PSoC5/core_cm3.h ****   }
 838              		.loc 3 1528 0
 839 00ba 8849     		ldr	r1, .L109+20
 840 00bc E020     		movs	r0, #224
 841              	.LBE115:
 842              	.LBE114:
1664:Generated_Source\PSoC5/core_cm3.h ****   NVIC_SetPriority (SysTick_IRQn, (1UL << __NVIC_PRIO_BITS) - 1UL); /* set Priority for Systick Int
1665:Generated_Source\PSoC5/core_cm3.h ****   SysTick->VAL   = 0UL;                                             /* Load the SysTick Counter Val
1666:Generated_Source\PSoC5/core_cm3.h ****   SysTick->CTRL  = SysTick_CTRL_CLKSOURCE_Msk |
 843              		.loc 3 1666 0
 844 00be 0722     		movs	r2, #7
1663:Generated_Source\PSoC5/core_cm3.h ****   NVIC_SetPriority (SysTick_IRQn, (1UL << __NVIC_PRIO_BITS) - 1UL); /* set Priority for Systick Int
 845              		.loc 3 1663 0
 846 00c0 C3F804E0 		str	lr, [r3, #4]
 847              	.LVL75:
 848              	.LBB117:
 849              	.LBB116:
1528:Generated_Source\PSoC5/core_cm3.h ****   }
 850              		.loc 3 1528 0
 851 00c4 81F82300 		strb	r0, [r1, #35]
 852              	.LBE116:
 853              	.LBE117:
1665:Generated_Source\PSoC5/core_cm3.h ****   SysTick->CTRL  = SysTick_CTRL_CLKSOURCE_Msk |
 854              		.loc 3 1665 0
 855 00c8 9D60     		str	r5, [r3, #8]
 856              		.loc 3 1666 0
 857 00ca 1A60     		str	r2, [r3]
 858              	.LBE113:
 859              	.LBE112:
 169:.\main.c      **** 
 860              		.loc 1 169 0
 861              	@ 169 ".\main.c" 1
 862 00cc 62B6     		CPSIE   i
 863              	@ 0 "" 2
 864              	.LVL76:
 865              		.thumb
 866              	.LBB118:
 867              	.LBB119:
 329:.\main.c      ****     if(window_set>=BUFF){
 868              		.loc 1 329 0
 869 00ce C823     		movs	r3, #200
 870              	.LBE119:
 871              	.LBE118:
 872              	.LBB124:
 873              	.LBB125:
ARM GAS  C:\Users\Patrick\AppData\Local\Temp\cc1OctCg.s 			page 65


 327:.\main.c      ****     sensor->window = window_set;
 874              		.loc 1 327 0
 875 00d0 0121     		movs	r1, #1
 876              	.LBE125:
 877              	.LBE124:
 878              	.LBB129:
 879              	.LBB130:
 328:.\main.c      ****     sensor->rate = rate_set;
 880              		.loc 1 328 0
 881 00d2 0A22     		movs	r2, #10
 882              	.LBE130:
 883              	.LBE129:
 884              	.LBB134:
 885              	.LBB120:
 886 00d4 4FF0320E 		mov	lr, #50
 887              	.LBE120:
 888              	.LBE134:
 184:.\main.c      ****     
 889              		.loc 1 184 0
 890 00d8 8148     		ldr	r0, .L109+24
 891              	.LBB135:
 892              	.LBB136:
 329:.\main.c      ****     if(window_set>=BUFF){
 893              		.loc 1 329 0
 894 00da A7F88830 		strh	r3, [r7, #136]	@ movhi
 327:.\main.c      ****     sensor->window = window_set;
 895              		.loc 1 327 0
 896 00de 87F88410 		strb	r1, [r7, #132]
 328:.\main.c      ****     sensor->rate = rate_set;
 897              		.loc 1 328 0
 898 00e2 87F88620 		strb	r2, [r7, #134]
 899              	.LBE136:
 900              	.LBE135:
 173:.\main.c      ****     SendSingleByte = FALSE;
 901              		.loc 1 173 0
 902 00e6 A946     		mov	r9, r5
 903              	.LBB137:
 904              	.LBB121:
 327:.\main.c      ****     sensor->window = window_set;
 905              		.loc 1 327 0
 906 00e8 84F88450 		strb	r5, [r4, #132]
 907              	.LBE121:
 908              	.LBE137:
 909              	.LBB138:
 910              	.LBB131:
 911 00ec 86F88450 		strb	r5, [r6, #132]
 912              	.LBE131:
 913              	.LBE138:
 914              	.LBB139:
 915              	.LBB122:
 328:.\main.c      ****     sensor->rate = rate_set;
 916              		.loc 1 328 0
 917 00f0 84F886E0 		strb	lr, [r4, #134]
 918              	.LBE122:
 919              	.LBE139:
 920              	.LBB140:
 921              	.LBB126:
ARM GAS  C:\Users\Patrick\AppData\Local\Temp\cc1OctCg.s 			page 66


 922 00f4 88F886E0 		strb	lr, [r8, #134]
 923              	.LBE126:
 924              	.LBE140:
 925              	.LBB141:
 926              	.LBB123:
 329:.\main.c      ****     if(window_set>=BUFF){
 927              		.loc 1 329 0
 928 00f8 A4F88830 		strh	r3, [r4, #136]	@ movhi
 929              	.LVL77:
 930              	.LBE123:
 931              	.LBE141:
 932              	.LBB142:
 933              	.LBB127:
 934 00fc A8F88830 		strh	r3, [r8, #136]	@ movhi
 935              	.LVL78:
 936              	.LBE127:
 937              	.LBE142:
 938              	.LBB143:
 939              	.LBB132:
 940 0100 A6F88830 		strh	r3, [r6, #136]	@ movhi
 941              	.LVL79:
 942              	.LBE132:
 943              	.LBE143:
 944              	.LBB144:
 945              	.LBB128:
 327:.\main.c      ****     sensor->window = window_set;
 946              		.loc 1 327 0
 947 0104 88F88410 		strb	r1, [r8, #132]
 948              	.LBE128:
 949              	.LBE144:
 950              	.LBB145:
 951              	.LBB133:
 328:.\main.c      ****     sensor->rate = rate_set;
 952              		.loc 1 328 0
 953 0108 86F88620 		strb	r2, [r6, #134]
 954              	.LBE133:
 955              	.LBE145:
 192:.\main.c      ****         {
 956              		.loc 1 192 0
 957 010c AA46     		mov	r10, r5
 184:.\main.c      ****     
 958              		.loc 1 184 0
 959 010e FFF7FEFF 		bl	UART_1_PutString
 960              	.LVL80:
 961              	.L72:
 189:.\main.c      ****         
 962              		.loc 1 189 0
 963 0112 FFF7FEFF 		bl	UART_1_GetChar
 964              	.LVL81:
 192:.\main.c      ****         {
 965              		.loc 1 192 0
 966 0116 4338     		subs	r0, r0, #67
 967              	.LVL82:
 968 0118 3528     		cmp	r0, #53
 969 011a 1CD8     		bhi	.L96
 970 011c DFE800F0 		tbb	[pc, r0]
 971              	.L75:
ARM GAS  C:\Users\Patrick\AppData\Local\Temp\cc1OctCg.s 			page 67


 972 0120 7C       		.byte	(.L74-.L75)/2
 973 0121 1B       		.byte	(.L96-.L75)/2
 974 0122 1B       		.byte	(.L96-.L75)/2
 975 0123 1B       		.byte	(.L96-.L75)/2
 976 0124 1B       		.byte	(.L96-.L75)/2
 977 0125 1B       		.byte	(.L96-.L75)/2
 978 0126 1B       		.byte	(.L96-.L75)/2
 979 0127 1B       		.byte	(.L96-.L75)/2
 980 0128 1B       		.byte	(.L96-.L75)/2
 981 0129 1B       		.byte	(.L96-.L75)/2
 982 012a 1B       		.byte	(.L96-.L75)/2
 983 012b 1B       		.byte	(.L96-.L75)/2
 984 012c 1B       		.byte	(.L96-.L75)/2
 985 012d 1B       		.byte	(.L96-.L75)/2
 986 012e 1B       		.byte	(.L96-.L75)/2
 987 012f 1B       		.byte	(.L96-.L75)/2
 988 0130 4E       		.byte	(.L76-.L75)/2
 989 0131 1B       		.byte	(.L96-.L75)/2
 990 0132 1B       		.byte	(.L96-.L75)/2
 991 0133 1B       		.byte	(.L96-.L75)/2
 992 0134 1B       		.byte	(.L96-.L75)/2
 993 0135 7E       		.byte	(.L77-.L75)/2
 994 0136 1B       		.byte	(.L96-.L75)/2
 995 0137 1B       		.byte	(.L96-.L75)/2
 996 0138 1B       		.byte	(.L96-.L75)/2
 997 0139 1B       		.byte	(.L96-.L75)/2
 998 013a 1B       		.byte	(.L96-.L75)/2
 999 013b 1B       		.byte	(.L96-.L75)/2
 1000 013c 1B       		.byte	(.L96-.L75)/2
 1001 013d 1B       		.byte	(.L96-.L75)/2
 1002 013e 1B       		.byte	(.L96-.L75)/2
 1003 013f 1B       		.byte	(.L96-.L75)/2
 1004 0140 7C       		.byte	(.L74-.L75)/2
 1005 0141 1B       		.byte	(.L96-.L75)/2
 1006 0142 1B       		.byte	(.L96-.L75)/2
 1007 0143 1B       		.byte	(.L96-.L75)/2
 1008 0144 1B       		.byte	(.L96-.L75)/2
 1009 0145 1B       		.byte	(.L96-.L75)/2
 1010 0146 1B       		.byte	(.L96-.L75)/2
 1011 0147 1B       		.byte	(.L96-.L75)/2
 1012 0148 1B       		.byte	(.L96-.L75)/2
 1013 0149 1B       		.byte	(.L96-.L75)/2
 1014 014a 1B       		.byte	(.L96-.L75)/2
 1015 014b 1B       		.byte	(.L96-.L75)/2
 1016 014c 1B       		.byte	(.L96-.L75)/2
 1017 014d 1B       		.byte	(.L96-.L75)/2
 1018 014e 1B       		.byte	(.L96-.L75)/2
 1019 014f 1B       		.byte	(.L96-.L75)/2
 1020 0150 4E       		.byte	(.L76-.L75)/2
 1021 0151 1B       		.byte	(.L96-.L75)/2
 1022 0152 1B       		.byte	(.L96-.L75)/2
 1023 0153 1B       		.byte	(.L96-.L75)/2
 1024 0154 1B       		.byte	(.L96-.L75)/2
 1025 0155 7E       		.byte	(.L77-.L75)/2
 1026              		.p2align 1
 1027              	.L96:
 1028 0156 0025     		movs	r5, #0
ARM GAS  C:\Users\Patrick\AppData\Local\Temp\cc1OctCg.s 			page 68


 1029              	.LVL83:
 1030              	.L73:
 214:.\main.c      ****             GetSample(&steering);
 1031              		.loc 1 214 0
 1032 0158 94F88730 		ldrb	r3, [r4, #135]	@ zero_extendqisi2
 1033 015c DFF868B1 		ldr	fp, .L109
 1034 0160 012B     		cmp	r3, #1
 1035 0162 34D0     		beq	.L101
 1036              	.L78:
 217:.\main.c      ****             GetSample(&throttle);
 1037              		.loc 1 217 0
 1038 0164 98F88730 		ldrb	r3, [r8, #135]	@ zero_extendqisi2
 1039 0168 DFF87CB1 		ldr	fp, .L109+32
 1040 016c 012B     		cmp	r3, #1
 1041 016e 70D0     		beq	.L102
 220:.\main.c      ****             GetRPM(&left);
 1042              		.loc 1 220 0
 1043 0170 96F88730 		ldrb	r3, [r6, #135]	@ zero_extendqisi2
 1044 0174 DFF854B1 		ldr	fp, .L109+4
 1045 0178 012B     		cmp	r3, #1
 1046 017a 00F08E80 		beq	.L103
 223:.\main.c      ****             GetRPM(&right);
 1047              		.loc 1 223 0
 1048 017e 97F88730 		ldrb	r3, [r7, #135]	@ zero_extendqisi2
 1049 0182 DFF84CB1 		ldr	fp, .L109+8
 1050 0186 012B     		cmp	r3, #1
 1051 0188 4BD0     		beq	.L104
 1052              	.L82:
 228:.\main.c      ****         {
 1053              		.loc 1 228 0
 1054 018a 15B9     		cbnz	r5, .L94
 228:.\main.c      ****         {
 1055              		.loc 1 228 0 is_stmt 0 discriminator 1
 1056 018c B9F1000F 		cmp	r9, #0
 1057 0190 BFD0     		beq	.L72
 1058              	.L94:
 232:.\main.c      ****             /* Send out the data */
 1059              		.loc 1 232 0 is_stmt 1
 1060 0192 D6F89000 		ldr	r0, [r6, #144]	@ float
 1061 0196 FFF7FEFF 		bl	__aeabi_f2iz
 1062              	.LVL84:
 1063 019a 0546     		mov	r5, r0
 1064              	.LVL85:
 1065 019c D7F89000 		ldr	r0, [r7, #144]	@ float
 1066 01a0 FFF7FEFF 		bl	__aeabi_f2iz
 1067              	.LVL86:
 1068 01a4 B4F98C20 		ldrsh	r2, [r4, #140]
 1069 01a8 0090     		str	r0, [sp]
 1070 01aa 2B46     		mov	r3, r5
 1071 01ac 05A8     		add	r0, sp, #20
 1072 01ae 4D49     		ldr	r1, .L109+28
 1073 01b0 FFF7FEFF 		bl	sprintf
 1074              	.LVL87:
 234:.\main.c      ****             /* Reset the send once flag */
 1075              		.loc 1 234 0
 1076 01b4 05A8     		add	r0, sp, #20
 1077 01b6 FFF7FEFF 		bl	UART_1_PutString
ARM GAS  C:\Users\Patrick\AppData\Local\Temp\cc1OctCg.s 			page 69


 1078              	.LVL88:
 1079 01ba AAE7     		b	.L72
 1080              	.L76:
 1081              	.LVL89:
 214:.\main.c      ****             GetSample(&steering);
 1082              		.loc 1 214 0
 1083 01bc 94F88730 		ldrb	r3, [r4, #135]	@ zero_extendqisi2
 204:.\main.c      ****             case 'X':
 1084              		.loc 1 204 0
 1085 01c0 0025     		movs	r5, #0
 214:.\main.c      ****             GetSample(&steering);
 1086              		.loc 1 214 0
 1087 01c2 012B     		cmp	r3, #1
 203:.\main.c      ****                 break;
 1088              		.loc 1 203 0
 1089 01c4 4FF00109 		mov	r9, #1
 1090              	.LVL90:
 214:.\main.c      ****             GetSample(&steering);
 1091              		.loc 1 214 0
 1092 01c8 DFF8FCB0 		ldr	fp, .L109
 1093 01cc CAD1     		bne	.L78
 1094              	.L101:
 1095              	.LVL91:
 1096              	.LBB146:
 1097              	.LBB147:
 254:.\main.c      ****     ADC_SAR_1_StartConvert();
 1098              		.loc 1 254 0
 1099 01ce 9BF88400 		ldrb	r0, [fp, #132]	@ zero_extendqisi2
 1100 01d2 FFF7FEFF 		bl	AMux_1_FastSelect
 1101              	.LVL92:
 255:.\main.c      ****     if(ADC_SAR_1_IsEndConversion(ADC_SAR_1_WAIT_FOR_RESULT))
 1102              		.loc 1 255 0
 1103 01d6 FFF7FEFF 		bl	ADC_SAR_1_StartConvert
 1104              	.LVL93:
 256:.\main.c      ****     {
 1105              		.loc 1 256 0
 1106 01da 0020     		movs	r0, #0
 1107 01dc FFF7FEFF 		bl	ADC_SAR_1_IsEndConversion
 1108              	.LVL94:
 1109 01e0 0028     		cmp	r0, #0
 1110 01e2 40F08380 		bne	.L79
 1111 01e6 9BF88530 		ldrb	r3, [fp, #133]	@ zero_extendqisi2
 1112 01ea DBF88020 		ldr	r2, [fp, #128]
 1113              	.L80:
 263:.\main.c      ****         pot->sensor.index = 0;
 1114              		.loc 1 263 0
 1115 01ee 94F88600 		ldrb	r0, [r4, #134]	@ zero_extendqisi2
 262:.\main.c      ****     if(pot->sensor.index==pot->sensor.window){
 1116              		.loc 1 262 0
 1117 01f2 0133     		adds	r3, r3, #1
 1118 01f4 DBB2     		uxtb	r3, r3
 263:.\main.c      ****         pot->sensor.index = 0;
 1119              		.loc 1 263 0
 1120 01f6 8342     		cmp	r3, r0
 267:.\main.c      ****     
 1121              		.loc 1 267 0
 1122 01f8 B2FBF0F0 		udiv	r0, r2, r0
ARM GAS  C:\Users\Patrick\AppData\Local\Temp\cc1OctCg.s 			page 70


 262:.\main.c      ****     if(pot->sensor.index==pot->sensor.window){
 1123              		.loc 1 262 0
 1124 01fc 3249     		ldr	r1, .L109
 267:.\main.c      ****     
 1125              		.loc 1 267 0
 1126 01fe 00B2     		sxth	r0, r0
 262:.\main.c      ****     if(pot->sensor.index==pot->sensor.window){
 1127              		.loc 1 262 0
 1128 0200 84F88530 		strb	r3, [r4, #133]
 264:.\main.c      ****     }
 1129              		.loc 1 264 0
 1130 0204 08BF     		it	eq
 1131 0206 81F885A0 		strbeq	r10, [r1, #133]
 267:.\main.c      ****     
 1132              		.loc 1 267 0
 1133 020a FFF7FEFF 		bl	ADC_SAR_1_CountsTo_mVolts
 1134              	.LVL95:
 269:.\main.c      ****     
 1135              		.loc 1 269 0
 1136 020e A4F888A0 		strh	r10, [r4, #136]	@ movhi
 267:.\main.c      ****     
 1137              		.loc 1 267 0
 1138 0212 A4F88C00 		strh	r0, [r4, #140]	@ movhi
 1139 0216 B8E7     		b	.L82
 1140              	.LVL96:
 1141              	.L74:
 1142              	.LBE147:
 1143              	.LBE146:
 199:.\main.c      ****                 break;
 1144              		.loc 1 199 0
 1145 0218 0125     		movs	r5, #1
 1146 021a 9DE7     		b	.L73
 1147              	.L77:
 1148              	.LVL97:
 208:.\main.c      ****             default:
 1149              		.loc 1 208 0
 1150 021c 0025     		movs	r5, #0
 207:.\main.c      ****                 break;
 1151              		.loc 1 207 0
 1152 021e A946     		mov	r9, r5
 208:.\main.c      ****             default:
 1153              		.loc 1 208 0
 1154 0220 9AE7     		b	.L73
 1155              	.LVL98:
 1156              	.L104:
 1157              	.LBB149:
 1158              	.LBB150:
 295:.\main.c      ****         encoder->sensor.accumulator -= encoder->sensor.data[encoder->sensor.index];
 1159              		.loc 1 295 0
 1160 0222 9BF88430 		ldrb	r3, [fp, #132]	@ zero_extendqisi2
 1161 0226 002B     		cmp	r3, #0
 1162 0228 00F00C81 		beq	.L105
 307:.\main.c      ****         encoder->sensor.accumulator -= encoder->sensor.data[encoder->sensor.index];
 1163              		.loc 1 307 0
 1164 022c 012B     		cmp	r3, #1
 1165 022e 00F04C81 		beq	.L106
 1166              	.L92:
ARM GAS  C:\Users\Patrick\AppData\Local\Temp\cc1OctCg.s 			page 71


 317:.\main.c      ****     if(encoder->sensor.index >= encoder->sensor.window){
 1167              		.loc 1 317 0
 1168 0232 97F88530 		ldrb	r3, [r7, #133]	@ zero_extendqisi2
 318:.\main.c      ****         encoder->sensor.index = 0;
 1169              		.loc 1 318 0
 1170 0236 97F88620 		ldrb	r2, [r7, #134]	@ zero_extendqisi2
 317:.\main.c      ****     if(encoder->sensor.index >= encoder->sensor.window){
 1171              		.loc 1 317 0
 1172 023a 0133     		adds	r3, r3, #1
 1173 023c DBB2     		uxtb	r3, r3
 1174 023e 2449     		ldr	r1, .L109+8
 318:.\main.c      ****         encoder->sensor.index = 0;
 1175              		.loc 1 318 0
 1176 0240 9A42     		cmp	r2, r3
 317:.\main.c      ****     if(encoder->sensor.index >= encoder->sensor.window){
 1177              		.loc 1 317 0
 1178 0242 87F88530 		strb	r3, [r7, #133]
 322:.\main.c      **** 
 1179              		.loc 1 322 0
 1180 0246 87F887A0 		strb	r10, [r7, #135]
 319:.\main.c      ****     }
 1181              		.loc 1 319 0
 1182 024a 98BF     		it	ls
 1183 024c 81F885A0 		strbls	r10, [r1, #133]
 1184 0250 9BE7     		b	.L82
 1185              	.LVL99:
 1186              	.L102:
 1187              	.LBE150:
 1188              	.LBE149:
 1189              	.LBB152:
 1190              	.LBB153:
 254:.\main.c      ****     ADC_SAR_1_StartConvert();
 1191              		.loc 1 254 0
 1192 0252 9BF88400 		ldrb	r0, [fp, #132]	@ zero_extendqisi2
 1193 0256 FFF7FEFF 		bl	AMux_1_FastSelect
 1194              	.LVL100:
 255:.\main.c      ****     if(ADC_SAR_1_IsEndConversion(ADC_SAR_1_WAIT_FOR_RESULT))
 1195              		.loc 1 255 0
 1196 025a FFF7FEFF 		bl	ADC_SAR_1_StartConvert
 1197              	.LVL101:
 256:.\main.c      ****     {
 1198              		.loc 1 256 0
 1199 025e 0020     		movs	r0, #0
 1200 0260 FFF7FEFF 		bl	ADC_SAR_1_IsEndConversion
 1201              	.LVL102:
 1202 0264 0028     		cmp	r0, #0
 1203 0266 5AD1     		bne	.L84
 1204 0268 9BF88530 		ldrb	r3, [fp, #133]	@ zero_extendqisi2
 1205 026c DBF88020 		ldr	r2, [fp, #128]
 1206              	.L85:
 263:.\main.c      ****         pot->sensor.index = 0;
 1207              		.loc 1 263 0
 1208 0270 98F88600 		ldrb	r0, [r8, #134]	@ zero_extendqisi2
 262:.\main.c      ****     if(pot->sensor.index==pot->sensor.window){
 1209              		.loc 1 262 0
 1210 0274 0133     		adds	r3, r3, #1
 1211 0276 DBB2     		uxtb	r3, r3
ARM GAS  C:\Users\Patrick\AppData\Local\Temp\cc1OctCg.s 			page 72


 263:.\main.c      ****         pot->sensor.index = 0;
 1212              		.loc 1 263 0
 1213 0278 8342     		cmp	r3, r0
 267:.\main.c      ****     
 1214              		.loc 1 267 0
 1215 027a B2FBF0F0 		udiv	r0, r2, r0
 262:.\main.c      ****     if(pot->sensor.index==pot->sensor.window){
 1216              		.loc 1 262 0
 1217 027e 1A49     		ldr	r1, .L109+32
 267:.\main.c      ****     
 1218              		.loc 1 267 0
 1219 0280 00B2     		sxth	r0, r0
 262:.\main.c      ****     if(pot->sensor.index==pot->sensor.window){
 1220              		.loc 1 262 0
 1221 0282 88F88530 		strb	r3, [r8, #133]
 264:.\main.c      ****     }
 1222              		.loc 1 264 0
 1223 0286 08BF     		it	eq
 1224 0288 81F885A0 		strbeq	r10, [r1, #133]
 267:.\main.c      ****     
 1225              		.loc 1 267 0
 1226 028c FFF7FEFF 		bl	ADC_SAR_1_CountsTo_mVolts
 1227              	.LVL103:
 269:.\main.c      ****     
 1228              		.loc 1 269 0
 1229 0290 A8F888A0 		strh	r10, [r8, #136]	@ movhi
 267:.\main.c      ****     
 1230              		.loc 1 267 0
 1231 0294 A8F88C00 		strh	r0, [r8, #140]	@ movhi
 1232 0298 77E7     		b	.L82
 1233              	.LVL104:
 1234              	.L103:
 1235              	.LBE153:
 1236              	.LBE152:
 1237              	.LBB155:
 1238              	.LBB156:
 295:.\main.c      ****         encoder->sensor.accumulator -= encoder->sensor.data[encoder->sensor.index];
 1239              		.loc 1 295 0
 1240 029a 9BF88430 		ldrb	r3, [fp, #132]	@ zero_extendqisi2
 1241 029e 002B     		cmp	r3, #0
 1242 02a0 56D0     		beq	.L107
 307:.\main.c      ****         encoder->sensor.accumulator -= encoder->sensor.data[encoder->sensor.index];
 1243              		.loc 1 307 0
 1244 02a2 012B     		cmp	r3, #1
 1245 02a4 00F09780 		beq	.L108
 1246              	.L89:
 317:.\main.c      ****     if(encoder->sensor.index >= encoder->sensor.window){
 1247              		.loc 1 317 0
 1248 02a8 96F88530 		ldrb	r3, [r6, #133]	@ zero_extendqisi2
 318:.\main.c      ****         encoder->sensor.index = 0;
 1249              		.loc 1 318 0
 1250 02ac 96F88620 		ldrb	r2, [r6, #134]	@ zero_extendqisi2
 317:.\main.c      ****     if(encoder->sensor.index >= encoder->sensor.window){
 1251              		.loc 1 317 0
 1252 02b0 0133     		adds	r3, r3, #1
 1253 02b2 DBB2     		uxtb	r3, r3
 1254 02b4 0549     		ldr	r1, .L109+4
ARM GAS  C:\Users\Patrick\AppData\Local\Temp\cc1OctCg.s 			page 73


 318:.\main.c      ****         encoder->sensor.index = 0;
 1255              		.loc 1 318 0
 1256 02b6 9A42     		cmp	r2, r3
 317:.\main.c      ****     if(encoder->sensor.index >= encoder->sensor.window){
 1257              		.loc 1 317 0
 1258 02b8 86F88530 		strb	r3, [r6, #133]
 322:.\main.c      **** 
 1259              		.loc 1 322 0
 1260 02bc 86F887A0 		strb	r10, [r6, #135]
 319:.\main.c      ****     }
 1261              		.loc 1 319 0
 1262 02c0 98BF     		it	ls
 1263 02c2 81F885A0 		strbls	r10, [r1, #133]
 1264 02c6 60E7     		b	.L82
 1265              	.L110:
 1266              		.align	2
 1267              	.L109:
 1268 02c8 00000000 		.word	steering
 1269 02cc 00000000 		.word	left
 1270 02d0 00000000 		.word	right
 1271 02d4 00000000 		.word	SysTick_ISR
 1272 02d8 10E000E0 		.word	-536813552
 1273 02dc 00ED00E0 		.word	-536810240
 1274 02e0 00000000 		.word	.LC0
 1275 02e4 14000000 		.word	.LC1
 1276 02e8 00000000 		.word	throttle
 1277              	.LVL105:
 1278              	.L79:
 1279              	.LBE156:
 1280              	.LBE155:
 1281              	.LBB158:
 1282              	.LBB148:
 258:.\main.c      ****         pot->sensor.data[pot->sensor.index] = ADC_SAR_1_GetResult16();
 1283              		.loc 1 258 0
 1284 02ec 9BF88520 		ldrb	r2, [fp, #133]	@ zero_extendqisi2
 1285 02f0 DBF88030 		ldr	r3, [fp, #128]
 1286 02f4 3BF81210 		ldrh	r1, [fp, r2, lsl #1]
 1287 02f8 0292     		str	r2, [sp, #8]
 1288 02fa 5B1A     		subs	r3, r3, r1
 1289 02fc CBF88030 		str	r3, [fp, #128]
 259:.\main.c      ****         pot->sensor.accumulator += pot->sensor.data[pot->sensor.index];
 1290              		.loc 1 259 0
 1291 0300 FFF7FEFF 		bl	ADC_SAR_1_GetResult16
 1292              	.LVL106:
 1293 0304 029A     		ldr	r2, [sp, #8]
 260:.\main.c      ****     }
 1294              		.loc 1 260 0
 1295 0306 9BF88530 		ldrb	r3, [fp, #133]	@ zero_extendqisi2
 259:.\main.c      ****         pot->sensor.accumulator += pot->sensor.data[pot->sensor.index];
 1296              		.loc 1 259 0
 1297 030a 2BF81200 		strh	r0, [fp, r2, lsl #1]	@ movhi
 260:.\main.c      ****     }
 1298              		.loc 1 260 0
 1299 030e 3BF81300 		ldrh	r0, [fp, r3, lsl #1]
 1300 0312 DBF88020 		ldr	r2, [fp, #128]
 1301 0316 0244     		add	r2, r2, r0
 1302 0318 CBF88020 		str	r2, [fp, #128]
ARM GAS  C:\Users\Patrick\AppData\Local\Temp\cc1OctCg.s 			page 74


 1303 031c 67E7     		b	.L80
 1304              	.LVL107:
 1305              	.L84:
 1306              	.LBE148:
 1307              	.LBE158:
 1308              	.LBB159:
 1309              	.LBB154:
 258:.\main.c      ****         pot->sensor.data[pot->sensor.index] = ADC_SAR_1_GetResult16();
 1310              		.loc 1 258 0
 1311 031e 9BF88520 		ldrb	r2, [fp, #133]	@ zero_extendqisi2
 1312 0322 DBF88030 		ldr	r3, [fp, #128]
 1313 0326 3BF81210 		ldrh	r1, [fp, r2, lsl #1]
 1314 032a 0292     		str	r2, [sp, #8]
 1315 032c 5B1A     		subs	r3, r3, r1
 1316 032e CBF88030 		str	r3, [fp, #128]
 259:.\main.c      ****         pot->sensor.accumulator += pot->sensor.data[pot->sensor.index];
 1317              		.loc 1 259 0
 1318 0332 FFF7FEFF 		bl	ADC_SAR_1_GetResult16
 1319              	.LVL108:
 1320 0336 029A     		ldr	r2, [sp, #8]
 260:.\main.c      ****     }
 1321              		.loc 1 260 0
 1322 0338 9BF88530 		ldrb	r3, [fp, #133]	@ zero_extendqisi2
 259:.\main.c      ****         pot->sensor.accumulator += pot->sensor.data[pot->sensor.index];
 1323              		.loc 1 259 0
 1324 033c 2BF81200 		strh	r0, [fp, r2, lsl #1]	@ movhi
 260:.\main.c      ****     }
 1325              		.loc 1 260 0
 1326 0340 3BF81300 		ldrh	r0, [fp, r3, lsl #1]
 1327 0344 DBF88020 		ldr	r2, [fp, #128]
 1328 0348 0244     		add	r2, r2, r0
 1329 034a CBF88020 		str	r2, [fp, #128]
 1330 034e 8FE7     		b	.L85
 1331              	.LVL109:
 1332              	.L107:
 1333              	.LBE154:
 1334              	.LBE159:
 1335              	.LBB160:
 1336              	.LBB157:
 296:.\main.c      ****         encoder->sensor.data[encoder->sensor.index] = Encoder_Left_ReadCounter();
 1337              		.loc 1 296 0
 1338 0350 9BF88510 		ldrb	r1, [fp, #133]	@ zero_extendqisi2
 1339 0354 DBF88020 		ldr	r2, [fp, #128]
 1340 0358 3BF81100 		ldrh	r0, [fp, r1, lsl #1]
 1341 035c 0393     		str	r3, [sp, #12]
 1342 035e 121A     		subs	r2, r2, r0
 1343 0360 CBF88020 		str	r2, [fp, #128]
 1344 0364 0291     		str	r1, [sp, #8]
 297:.\main.c      ****         Encoder_Left_WriteCounter(0); //clear the pulse counter
 1345              		.loc 1 297 0
 1346 0366 FFF7FEFF 		bl	Encoder_Left_ReadCounter
 1347              	.LVL110:
 298:.\main.c      ****         encoder->accumulator += encoder->sensor.data[encoder->sensor.index];
 1348              		.loc 1 298 0
 1349 036a 039B     		ldr	r3, [sp, #12]
 297:.\main.c      ****         Encoder_Left_WriteCounter(0); //clear the pulse counter
 1350              		.loc 1 297 0
ARM GAS  C:\Users\Patrick\AppData\Local\Temp\cc1OctCg.s 			page 75


 1351 036c 0299     		ldr	r1, [sp, #8]
 1352 036e 2BF81100 		strh	r0, [fp, r1, lsl #1]	@ movhi
 298:.\main.c      ****         encoder->accumulator += encoder->sensor.data[encoder->sensor.index];
 1353              		.loc 1 298 0
 1354 0372 1846     		mov	r0, r3
 1355 0374 FFF7FEFF 		bl	Encoder_Left_WriteCounter
 1356              	.LVL111:
 299:.\main.c      ****         
 1357              		.loc 1 299 0
 1358 0378 9BF88520 		ldrb	r2, [fp, #133]	@ zero_extendqisi2
 1359 037c 3BF81200 		ldrh	r0, [fp, r2, lsl #1]
 1360 0380 FFF7FEFF 		bl	__aeabi_i2f
 1361              	.LVL112:
 1362 0384 DBF88C10 		ldr	r1, [fp, #140]	@ float
 1363 0388 FFF7FEFF 		bl	__aeabi_fadd
 1364              	.LVL113:
 1365 038c 0246     		mov	r2, r0
 303:.\main.c      ****         leftEncTimer_WriteCounter(0); //clear the microsecond counter
 1366              		.loc 1 303 0
 1367 038e 9BF88600 		ldrb	r0, [fp, #134]	@ zero_extendqisi2
 299:.\main.c      ****         
 1368              		.loc 1 299 0
 1369 0392 CBF88C20 		str	r2, [fp, #140]	@ float
 1370 0396 0292     		str	r2, [sp, #8]
 303:.\main.c      ****         leftEncTimer_WriteCounter(0); //clear the microsecond counter
 1371              		.loc 1 303 0
 1372 0398 FFF7FEFF 		bl	__aeabi_i2f
 1373              	.LVL114:
 1374 039c 029A     		ldr	r2, [sp, #8]
 1375 039e 0146     		mov	r1, r0
 1376 03a0 1046     		mov	r0, r2
 1377 03a2 FFF7FEFF 		bl	__aeabi_fdiv
 1378              	.LVL115:
 1379 03a6 6449     		ldr	r1, .L111
 1380 03a8 FFF7FEFF 		bl	__aeabi_fmul
 1381              	.LVL116:
 1382 03ac 0290     		str	r0, [sp, #8]
 1383 03ae FFF7FEFF 		bl	leftEncTimer_ReadCounter
 1384              	.LVL117:
 1385 03b2 FFF7FEFF 		bl	__aeabi_i2f
 1386              	.LVL118:
 1387 03b6 029A     		ldr	r2, [sp, #8]
 1388 03b8 0146     		mov	r1, r0
 1389 03ba 1046     		mov	r0, r2
 1390 03bc FFF7FEFF 		bl	__aeabi_fdiv
 1391              	.LVL119:
 304:.\main.c      ****     }
 1392              		.loc 1 304 0
 1393 03c0 039B     		ldr	r3, [sp, #12]
 303:.\main.c      ****         leftEncTimer_WriteCounter(0); //clear the microsecond counter
 1394              		.loc 1 303 0
 1395 03c2 CBF89000 		str	r0, [fp, #144]	@ float
 304:.\main.c      ****     }
 1396              		.loc 1 304 0
 1397 03c6 1846     		mov	r0, r3
 1398 03c8 FFF7FEFF 		bl	leftEncTimer_WriteCounter
 1399              	.LVL120:
ARM GAS  C:\Users\Patrick\AppData\Local\Temp\cc1OctCg.s 			page 76


 1400 03cc 9BF88430 		ldrb	r3, [fp, #132]	@ zero_extendqisi2
 307:.\main.c      ****         encoder->sensor.accumulator -= encoder->sensor.data[encoder->sensor.index];
 1401              		.loc 1 307 0
 1402 03d0 012B     		cmp	r3, #1
 1403 03d2 7FF469AF 		bne	.L89
 1404              	.L108:
 308:.\main.c      ****         encoder->sensor.data[encoder->sensor.index] = Encoder_Right_ReadCounter();
 1405              		.loc 1 308 0
 1406 03d6 96F885B0 		ldrb	fp, [r6, #133]	@ zero_extendqisi2
 1407 03da D6F88030 		ldr	r3, [r6, #128]
 1408 03de 36F81B20 		ldrh	r2, [r6, fp, lsl #1]
 1409 03e2 9B1A     		subs	r3, r3, r2
 1410 03e4 C6F88030 		str	r3, [r6, #128]
 309:.\main.c      ****         Encoder_Right_WriteCounter(0); //clear the pulse counter
 1411              		.loc 1 309 0
 1412 03e8 FFF7FEFF 		bl	Encoder_Right_ReadCounter
 1413              	.LVL121:
 1414 03ec 26F81B00 		strh	r0, [r6, fp, lsl #1]	@ movhi
 310:.\main.c      ****         encoder->accumulator += encoder->sensor.data[encoder->sensor.index];
 1415              		.loc 1 310 0
 1416 03f0 0020     		movs	r0, #0
 1417 03f2 FFF7FEFF 		bl	Encoder_Right_WriteCounter
 1418              	.LVL122:
 311:.\main.c      ****         
 1419              		.loc 1 311 0
 1420 03f6 96F88530 		ldrb	r3, [r6, #133]	@ zero_extendqisi2
 1421 03fa 36F81300 		ldrh	r0, [r6, r3, lsl #1]
 1422 03fe FFF7FEFF 		bl	__aeabi_i2f
 1423              	.LVL123:
 1424 0402 D6F88C10 		ldr	r1, [r6, #140]	@ float
 1425 0406 FFF7FEFF 		bl	__aeabi_fadd
 1426              	.LVL124:
 1427 040a 8346     		mov	fp, r0
 313:.\main.c      ****         rightEncTimer_WriteCounter(0); //clear the microsecond counter
 1428              		.loc 1 313 0
 1429 040c 96F88600 		ldrb	r0, [r6, #134]	@ zero_extendqisi2
 311:.\main.c      ****         
 1430              		.loc 1 311 0
 1431 0410 C6F88CB0 		str	fp, [r6, #140]	@ float
 313:.\main.c      ****         rightEncTimer_WriteCounter(0); //clear the microsecond counter
 1432              		.loc 1 313 0
 1433 0414 FFF7FEFF 		bl	__aeabi_i2f
 1434              	.LVL125:
 1435 0418 0146     		mov	r1, r0
 1436 041a 5846     		mov	r0, fp
 1437 041c FFF7FEFF 		bl	__aeabi_fdiv
 1438              	.LVL126:
 1439 0420 4549     		ldr	r1, .L111
 1440 0422 FFF7FEFF 		bl	__aeabi_fmul
 1441              	.LVL127:
 1442 0426 8346     		mov	fp, r0
 1443 0428 FFF7FEFF 		bl	rightEncTimer_ReadCounter
 1444              	.LVL128:
 1445 042c FFF7FEFF 		bl	__aeabi_i2f
 1446              	.LVL129:
 1447 0430 0146     		mov	r1, r0
 1448 0432 5846     		mov	r0, fp
ARM GAS  C:\Users\Patrick\AppData\Local\Temp\cc1OctCg.s 			page 77


 1449 0434 FFF7FEFF 		bl	__aeabi_fdiv
 1450              	.LVL130:
 1451 0438 C6F89000 		str	r0, [r6, #144]	@ float
 314:.\main.c      ****     }
 1452              		.loc 1 314 0
 1453 043c 0020     		movs	r0, #0
 1454 043e FFF7FEFF 		bl	rightEncTimer_WriteCounter
 1455              	.LVL131:
 1456 0442 31E7     		b	.L89
 1457              	.LVL132:
 1458              	.L105:
 1459              	.LBE157:
 1460              	.LBE160:
 1461              	.LBB161:
 1462              	.LBB151:
 296:.\main.c      ****         encoder->sensor.data[encoder->sensor.index] = Encoder_Left_ReadCounter();
 1463              		.loc 1 296 0
 1464 0444 9BF88510 		ldrb	r1, [fp, #133]	@ zero_extendqisi2
 1465 0448 DBF88020 		ldr	r2, [fp, #128]
 1466 044c 3BF81100 		ldrh	r0, [fp, r1, lsl #1]
 1467 0450 0393     		str	r3, [sp, #12]
 1468 0452 121A     		subs	r2, r2, r0
 1469 0454 CBF88020 		str	r2, [fp, #128]
 1470 0458 0291     		str	r1, [sp, #8]
 297:.\main.c      ****         Encoder_Left_WriteCounter(0); //clear the pulse counter
 1471              		.loc 1 297 0
 1472 045a FFF7FEFF 		bl	Encoder_Left_ReadCounter
 1473              	.LVL133:
 298:.\main.c      ****         encoder->accumulator += encoder->sensor.data[encoder->sensor.index];
 1474              		.loc 1 298 0
 1475 045e 039B     		ldr	r3, [sp, #12]
 297:.\main.c      ****         Encoder_Left_WriteCounter(0); //clear the pulse counter
 1476              		.loc 1 297 0
 1477 0460 0299     		ldr	r1, [sp, #8]
 1478 0462 2BF81100 		strh	r0, [fp, r1, lsl #1]	@ movhi
 298:.\main.c      ****         encoder->accumulator += encoder->sensor.data[encoder->sensor.index];
 1479              		.loc 1 298 0
 1480 0466 1846     		mov	r0, r3
 1481 0468 FFF7FEFF 		bl	Encoder_Left_WriteCounter
 1482              	.LVL134:
 299:.\main.c      ****         
 1483              		.loc 1 299 0
 1484 046c 9BF88520 		ldrb	r2, [fp, #133]	@ zero_extendqisi2
 1485 0470 3BF81200 		ldrh	r0, [fp, r2, lsl #1]
 1486 0474 FFF7FEFF 		bl	__aeabi_i2f
 1487              	.LVL135:
 1488 0478 DBF88C10 		ldr	r1, [fp, #140]	@ float
 1489 047c FFF7FEFF 		bl	__aeabi_fadd
 1490              	.LVL136:
 1491 0480 0246     		mov	r2, r0
 303:.\main.c      ****         leftEncTimer_WriteCounter(0); //clear the microsecond counter
 1492              		.loc 1 303 0
 1493 0482 9BF88600 		ldrb	r0, [fp, #134]	@ zero_extendqisi2
 299:.\main.c      ****         
 1494              		.loc 1 299 0
 1495 0486 CBF88C20 		str	r2, [fp, #140]	@ float
 1496 048a 0292     		str	r2, [sp, #8]
ARM GAS  C:\Users\Patrick\AppData\Local\Temp\cc1OctCg.s 			page 78


 303:.\main.c      ****         leftEncTimer_WriteCounter(0); //clear the microsecond counter
 1497              		.loc 1 303 0
 1498 048c FFF7FEFF 		bl	__aeabi_i2f
 1499              	.LVL137:
 1500 0490 029A     		ldr	r2, [sp, #8]
 1501 0492 0146     		mov	r1, r0
 1502 0494 1046     		mov	r0, r2
 1503 0496 FFF7FEFF 		bl	__aeabi_fdiv
 1504              	.LVL138:
 1505 049a 2749     		ldr	r1, .L111
 1506 049c FFF7FEFF 		bl	__aeabi_fmul
 1507              	.LVL139:
 1508 04a0 0290     		str	r0, [sp, #8]
 1509 04a2 FFF7FEFF 		bl	leftEncTimer_ReadCounter
 1510              	.LVL140:
 1511 04a6 FFF7FEFF 		bl	__aeabi_i2f
 1512              	.LVL141:
 1513 04aa 029A     		ldr	r2, [sp, #8]
 1514 04ac 0146     		mov	r1, r0
 1515 04ae 1046     		mov	r0, r2
 1516 04b0 FFF7FEFF 		bl	__aeabi_fdiv
 1517              	.LVL142:
 304:.\main.c      ****     }
 1518              		.loc 1 304 0
 1519 04b4 039B     		ldr	r3, [sp, #12]
 303:.\main.c      ****         leftEncTimer_WriteCounter(0); //clear the microsecond counter
 1520              		.loc 1 303 0
 1521 04b6 CBF89000 		str	r0, [fp, #144]	@ float
 304:.\main.c      ****     }
 1522              		.loc 1 304 0
 1523 04ba 1846     		mov	r0, r3
 1524 04bc FFF7FEFF 		bl	leftEncTimer_WriteCounter
 1525              	.LVL143:
 1526 04c0 9BF88430 		ldrb	r3, [fp, #132]	@ zero_extendqisi2
 307:.\main.c      ****         encoder->sensor.accumulator -= encoder->sensor.data[encoder->sensor.index];
 1527              		.loc 1 307 0
 1528 04c4 012B     		cmp	r3, #1
 1529 04c6 7FF4B4AE 		bne	.L92
 1530              	.L106:
 308:.\main.c      ****         encoder->sensor.data[encoder->sensor.index] = Encoder_Right_ReadCounter();
 1531              		.loc 1 308 0
 1532 04ca 97F885B0 		ldrb	fp, [r7, #133]	@ zero_extendqisi2
 1533 04ce D7F88030 		ldr	r3, [r7, #128]
 1534 04d2 37F81B20 		ldrh	r2, [r7, fp, lsl #1]
 1535 04d6 9B1A     		subs	r3, r3, r2
 1536 04d8 C7F88030 		str	r3, [r7, #128]
 309:.\main.c      ****         Encoder_Right_WriteCounter(0); //clear the pulse counter
 1537              		.loc 1 309 0
 1538 04dc FFF7FEFF 		bl	Encoder_Right_ReadCounter
 1539              	.LVL144:
 1540 04e0 27F81B00 		strh	r0, [r7, fp, lsl #1]	@ movhi
 310:.\main.c      ****         encoder->accumulator += encoder->sensor.data[encoder->sensor.index];
 1541              		.loc 1 310 0
 1542 04e4 0020     		movs	r0, #0
 1543 04e6 FFF7FEFF 		bl	Encoder_Right_WriteCounter
 1544              	.LVL145:
 311:.\main.c      ****         
ARM GAS  C:\Users\Patrick\AppData\Local\Temp\cc1OctCg.s 			page 79


 1545              		.loc 1 311 0
 1546 04ea 97F88530 		ldrb	r3, [r7, #133]	@ zero_extendqisi2
 1547 04ee 37F81300 		ldrh	r0, [r7, r3, lsl #1]
 1548 04f2 FFF7FEFF 		bl	__aeabi_i2f
 1549              	.LVL146:
 1550 04f6 D7F88C10 		ldr	r1, [r7, #140]	@ float
 1551 04fa FFF7FEFF 		bl	__aeabi_fadd
 1552              	.LVL147:
 1553 04fe 8346     		mov	fp, r0
 313:.\main.c      ****         rightEncTimer_WriteCounter(0); //clear the microsecond counter
 1554              		.loc 1 313 0
 1555 0500 97F88600 		ldrb	r0, [r7, #134]	@ zero_extendqisi2
 311:.\main.c      ****         
 1556              		.loc 1 311 0
 1557 0504 C7F88CB0 		str	fp, [r7, #140]	@ float
 313:.\main.c      ****         rightEncTimer_WriteCounter(0); //clear the microsecond counter
 1558              		.loc 1 313 0
 1559 0508 FFF7FEFF 		bl	__aeabi_i2f
 1560              	.LVL148:
 1561 050c 0146     		mov	r1, r0
 1562 050e 5846     		mov	r0, fp
 1563 0510 FFF7FEFF 		bl	__aeabi_fdiv
 1564              	.LVL149:
 1565 0514 0849     		ldr	r1, .L111
 1566 0516 FFF7FEFF 		bl	__aeabi_fmul
 1567              	.LVL150:
 1568 051a 8346     		mov	fp, r0
 1569 051c FFF7FEFF 		bl	rightEncTimer_ReadCounter
 1570              	.LVL151:
 1571 0520 FFF7FEFF 		bl	__aeabi_i2f
 1572              	.LVL152:
 1573 0524 0146     		mov	r1, r0
 1574 0526 5846     		mov	r0, fp
 1575 0528 FFF7FEFF 		bl	__aeabi_fdiv
 1576              	.LVL153:
 1577 052c C7F89000 		str	r0, [r7, #144]	@ float
 314:.\main.c      ****     }
 1578              		.loc 1 314 0
 1579 0530 0020     		movs	r0, #0
 1580 0532 FFF7FEFF 		bl	rightEncTimer_WriteCounter
 1581              	.LVL154:
 1582 0536 7CE6     		b	.L92
 1583              	.L112:
 1584              		.align	2
 1585              	.L111:
 1586 0538 0050C347 		.word	1203982336
 1587              	.LBE151:
 1588              	.LBE161:
 1589              		.cfi_endproc
 1590              	.LFE68:
 1591              		.size	main, .-main
 1592              		.section	.text.GetSample,"ax",%progbits
 1593              		.align	2
 1594              		.global	GetSample
 1595              		.thumb
 1596              		.thumb_func
 1597              		.type	GetSample, %function
ARM GAS  C:\Users\Patrick\AppData\Local\Temp\cc1OctCg.s 			page 80


 1598              	GetSample:
 1599              	.LFB69:
 243:.\main.c      ****     
 1600              		.loc 1 243 0
 1601              		.cfi_startproc
 1602              		@ args = 0, pretend = 0, frame = 0
 1603              		@ frame_needed = 0, uses_anonymous_args = 0
 1604              	.LVL155:
 1605 0000 38B5     		push	{r3, r4, r5, lr}
 1606              		.cfi_def_cfa_offset 16
 1607              		.cfi_offset 3, -16
 1608              		.cfi_offset 4, -12
 1609              		.cfi_offset 5, -8
 1610              		.cfi_offset 14, -4
 243:.\main.c      ****     
 1611              		.loc 1 243 0
 1612 0002 0446     		mov	r4, r0
 254:.\main.c      ****     ADC_SAR_1_StartConvert();
 1613              		.loc 1 254 0
 1614 0004 90F88400 		ldrb	r0, [r0, #132]	@ zero_extendqisi2
 1615              	.LVL156:
 1616 0008 FFF7FEFF 		bl	AMux_1_FastSelect
 1617              	.LVL157:
 255:.\main.c      ****     if(ADC_SAR_1_IsEndConversion(ADC_SAR_1_WAIT_FOR_RESULT))
 1618              		.loc 1 255 0
 1619 000c FFF7FEFF 		bl	ADC_SAR_1_StartConvert
 1620              	.LVL158:
 256:.\main.c      ****     {
 1621              		.loc 1 256 0
 1622 0010 0020     		movs	r0, #0
 1623 0012 FFF7FEFF 		bl	ADC_SAR_1_IsEndConversion
 1624              	.LVL159:
 1625 0016 C8B9     		cbnz	r0, .L114
 1626 0018 94F88530 		ldrb	r3, [r4, #133]	@ zero_extendqisi2
 1627 001c D4F88020 		ldr	r2, [r4, #128]
 1628              	.L115:
 263:.\main.c      ****         pot->sensor.index = 0;
 1629              		.loc 1 263 0
 1630 0020 94F88600 		ldrb	r0, [r4, #134]	@ zero_extendqisi2
 262:.\main.c      ****     if(pot->sensor.index==pot->sensor.window){
 1631              		.loc 1 262 0
 1632 0024 0133     		adds	r3, r3, #1
 1633 0026 DBB2     		uxtb	r3, r3
 263:.\main.c      ****         pot->sensor.index = 0;
 1634              		.loc 1 263 0
 1635 0028 8342     		cmp	r3, r0
 267:.\main.c      ****     
 1636              		.loc 1 267 0
 1637 002a B2FBF0F0 		udiv	r0, r2, r0
 262:.\main.c      ****     if(pot->sensor.index==pot->sensor.window){
 1638              		.loc 1 262 0
 1639 002e 84F88530 		strb	r3, [r4, #133]
 264:.\main.c      ****     }
 1640              		.loc 1 264 0
 1641 0032 04BF     		itt	eq
 1642 0034 0023     		moveq	r3, #0
 1643 0036 84F88530 		strbeq	r3, [r4, #133]
ARM GAS  C:\Users\Patrick\AppData\Local\Temp\cc1OctCg.s 			page 81


 267:.\main.c      ****     
 1644              		.loc 1 267 0
 1645 003a 00B2     		sxth	r0, r0
 1646 003c FFF7FEFF 		bl	ADC_SAR_1_CountsTo_mVolts
 1647              	.LVL160:
 269:.\main.c      ****     
 1648              		.loc 1 269 0
 1649 0040 0023     		movs	r3, #0
 267:.\main.c      ****     
 1650              		.loc 1 267 0
 1651 0042 A4F88C00 		strh	r0, [r4, #140]	@ movhi
 269:.\main.c      ****     
 1652              		.loc 1 269 0
 1653 0046 A4F88830 		strh	r3, [r4, #136]	@ movhi
 1654 004a 38BD     		pop	{r3, r4, r5, pc}
 1655              	.LVL161:
 1656              	.L114:
 1657 004c 94F88550 		ldrb	r5, [r4, #133]	@ zero_extendqisi2
 258:.\main.c      ****         pot->sensor.data[pot->sensor.index] = ADC_SAR_1_GetResult16();
 1658              		.loc 1 258 0
 1659 0050 D4F88030 		ldr	r3, [r4, #128]
 1660 0054 34F81520 		ldrh	r2, [r4, r5, lsl #1]
 1661 0058 9B1A     		subs	r3, r3, r2
 1662 005a C4F88030 		str	r3, [r4, #128]
 259:.\main.c      ****         pot->sensor.accumulator += pot->sensor.data[pot->sensor.index];
 1663              		.loc 1 259 0
 1664 005e FFF7FEFF 		bl	ADC_SAR_1_GetResult16
 1665              	.LVL162:
 1666 0062 24F81500 		strh	r0, [r4, r5, lsl #1]	@ movhi
 260:.\main.c      ****     }
 1667              		.loc 1 260 0
 1668 0066 94F88530 		ldrb	r3, [r4, #133]	@ zero_extendqisi2
 1669 006a D4F88020 		ldr	r2, [r4, #128]
 1670 006e 34F81300 		ldrh	r0, [r4, r3, lsl #1]
 1671 0072 0244     		add	r2, r2, r0
 1672 0074 C4F88020 		str	r2, [r4, #128]
 1673 0078 D2E7     		b	.L115
 1674              		.cfi_endproc
 1675              	.LFE69:
 1676              		.size	GetSample, .-GetSample
 1677 007a 00BF     		.section	.text.GetRPM,"ax",%progbits
 1678              		.align	2
 1679              		.global	GetRPM
 1680              		.thumb
 1681              		.thumb_func
 1682              		.type	GetRPM, %function
 1683              	GetRPM:
 1684              	.LFB70:
 273:.\main.c      **** 
 1685              		.loc 1 273 0
 1686              		.cfi_startproc
 1687              		@ args = 0, pretend = 0, frame = 0
 1688              		@ frame_needed = 0, uses_anonymous_args = 0
 1689              	.LVL163:
 1690 0000 70B5     		push	{r4, r5, r6, lr}
 1691              		.cfi_def_cfa_offset 16
 1692              		.cfi_offset 4, -16
ARM GAS  C:\Users\Patrick\AppData\Local\Temp\cc1OctCg.s 			page 82


 1693              		.cfi_offset 5, -12
 1694              		.cfi_offset 6, -8
 1695              		.cfi_offset 14, -4
 295:.\main.c      ****         encoder->sensor.accumulator -= encoder->sensor.data[encoder->sensor.index];
 1696              		.loc 1 295 0
 1697 0002 90F88450 		ldrb	r5, [r0, #132]	@ zero_extendqisi2
 273:.\main.c      **** 
 1698              		.loc 1 273 0
 1699 0006 0446     		mov	r4, r0
 295:.\main.c      ****         encoder->sensor.accumulator -= encoder->sensor.data[encoder->sensor.index];
 1700              		.loc 1 295 0
 1701 0008 95B1     		cbz	r5, .L123
 307:.\main.c      ****         encoder->sensor.accumulator -= encoder->sensor.data[encoder->sensor.index];
 1702              		.loc 1 307 0
 1703 000a 012D     		cmp	r5, #1
 1704 000c 4AD0     		beq	.L124
 1705              	.LVL164:
 1706              	.L120:
 317:.\main.c      ****     if(encoder->sensor.index >= encoder->sensor.window){
 1707              		.loc 1 317 0
 1708 000e 94F88530 		ldrb	r3, [r4, #133]	@ zero_extendqisi2
 318:.\main.c      ****         encoder->sensor.index = 0;
 1709              		.loc 1 318 0
 1710 0012 94F88620 		ldrb	r2, [r4, #134]	@ zero_extendqisi2
 317:.\main.c      ****     if(encoder->sensor.index >= encoder->sensor.window){
 1711              		.loc 1 317 0
 1712 0016 0133     		adds	r3, r3, #1
 1713 0018 DBB2     		uxtb	r3, r3
 318:.\main.c      ****         encoder->sensor.index = 0;
 1714              		.loc 1 318 0
 1715 001a 9A42     		cmp	r2, r3
 317:.\main.c      ****     if(encoder->sensor.index >= encoder->sensor.window){
 1716              		.loc 1 317 0
 1717 001c 84F88530 		strb	r3, [r4, #133]
 319:.\main.c      ****     }
 1718              		.loc 1 319 0
 1719 0020 9CBF     		itt	ls
 1720 0022 0023     		movls	r3, #0
 1721 0024 84F88530 		strbls	r3, [r4, #133]
 322:.\main.c      **** 
 1722              		.loc 1 322 0
 1723 0028 0023     		movs	r3, #0
 1724 002a 84F88730 		strb	r3, [r4, #135]
 1725 002e 70BD     		pop	{r4, r5, r6, pc}
 1726              	.LVL165:
 1727              	.L123:
 1728 0030 90F88560 		ldrb	r6, [r0, #133]	@ zero_extendqisi2
 296:.\main.c      ****         encoder->sensor.data[encoder->sensor.index] = Encoder_Left_ReadCounter();
 1729              		.loc 1 296 0
 1730 0034 D0F88030 		ldr	r3, [r0, #128]
 1731 0038 30F81620 		ldrh	r2, [r0, r6, lsl #1]
 1732 003c 9B1A     		subs	r3, r3, r2
 1733 003e C0F88030 		str	r3, [r0, #128]
 297:.\main.c      ****         Encoder_Left_WriteCounter(0); //clear the pulse counter
 1734              		.loc 1 297 0
 1735 0042 FFF7FEFF 		bl	Encoder_Left_ReadCounter
 1736              	.LVL166:
ARM GAS  C:\Users\Patrick\AppData\Local\Temp\cc1OctCg.s 			page 83


 1737 0046 24F81600 		strh	r0, [r4, r6, lsl #1]	@ movhi
 298:.\main.c      ****         encoder->accumulator += encoder->sensor.data[encoder->sensor.index];
 1738              		.loc 1 298 0
 1739 004a 2846     		mov	r0, r5
 1740 004c FFF7FEFF 		bl	Encoder_Left_WriteCounter
 1741              	.LVL167:
 299:.\main.c      ****         
 1742              		.loc 1 299 0
 1743 0050 94F88530 		ldrb	r3, [r4, #133]	@ zero_extendqisi2
 1744 0054 34F81300 		ldrh	r0, [r4, r3, lsl #1]
 1745 0058 FFF7FEFF 		bl	__aeabi_i2f
 1746              	.LVL168:
 1747 005c D4F88C10 		ldr	r1, [r4, #140]	@ float
 1748 0060 FFF7FEFF 		bl	__aeabi_fadd
 1749              	.LVL169:
 1750 0064 0646     		mov	r6, r0
 303:.\main.c      ****         leftEncTimer_WriteCounter(0); //clear the microsecond counter
 1751              		.loc 1 303 0
 1752 0066 94F88600 		ldrb	r0, [r4, #134]	@ zero_extendqisi2
 299:.\main.c      ****         
 1753              		.loc 1 299 0
 1754 006a C4F88C60 		str	r6, [r4, #140]	@ float
 303:.\main.c      ****         leftEncTimer_WriteCounter(0); //clear the microsecond counter
 1755              		.loc 1 303 0
 1756 006e FFF7FEFF 		bl	__aeabi_i2f
 1757              	.LVL170:
 1758 0072 0146     		mov	r1, r0
 1759 0074 3046     		mov	r0, r6
 1760 0076 FFF7FEFF 		bl	__aeabi_fdiv
 1761              	.LVL171:
 1762 007a 2649     		ldr	r1, .L125
 1763 007c FFF7FEFF 		bl	__aeabi_fmul
 1764              	.LVL172:
 1765 0080 0646     		mov	r6, r0
 1766 0082 FFF7FEFF 		bl	leftEncTimer_ReadCounter
 1767              	.LVL173:
 1768 0086 FFF7FEFF 		bl	__aeabi_i2f
 1769              	.LVL174:
 1770 008a 0146     		mov	r1, r0
 1771 008c 3046     		mov	r0, r6
 1772 008e FFF7FEFF 		bl	__aeabi_fdiv
 1773              	.LVL175:
 1774 0092 C4F89000 		str	r0, [r4, #144]	@ float
 304:.\main.c      ****     }
 1775              		.loc 1 304 0
 1776 0096 2846     		mov	r0, r5
 1777 0098 FFF7FEFF 		bl	leftEncTimer_WriteCounter
 1778              	.LVL176:
 1779 009c 94F88450 		ldrb	r5, [r4, #132]	@ zero_extendqisi2
 307:.\main.c      ****         encoder->sensor.accumulator -= encoder->sensor.data[encoder->sensor.index];
 1780              		.loc 1 307 0
 1781 00a0 012D     		cmp	r5, #1
 1782 00a2 B4D1     		bne	.L120
 1783              	.L124:
 1784 00a4 94F88550 		ldrb	r5, [r4, #133]	@ zero_extendqisi2
 308:.\main.c      ****         encoder->sensor.data[encoder->sensor.index] = Encoder_Right_ReadCounter();
 1785              		.loc 1 308 0
ARM GAS  C:\Users\Patrick\AppData\Local\Temp\cc1OctCg.s 			page 84


 1786 00a8 D4F88030 		ldr	r3, [r4, #128]
 1787 00ac 34F81520 		ldrh	r2, [r4, r5, lsl #1]
 1788 00b0 9B1A     		subs	r3, r3, r2
 1789 00b2 C4F88030 		str	r3, [r4, #128]
 309:.\main.c      ****         Encoder_Right_WriteCounter(0); //clear the pulse counter
 1790              		.loc 1 309 0
 1791 00b6 FFF7FEFF 		bl	Encoder_Right_ReadCounter
 1792              	.LVL177:
 1793 00ba 24F81500 		strh	r0, [r4, r5, lsl #1]	@ movhi
 310:.\main.c      ****         encoder->accumulator += encoder->sensor.data[encoder->sensor.index];
 1794              		.loc 1 310 0
 1795 00be 0020     		movs	r0, #0
 1796 00c0 FFF7FEFF 		bl	Encoder_Right_WriteCounter
 1797              	.LVL178:
 311:.\main.c      ****         
 1798              		.loc 1 311 0
 1799 00c4 94F88530 		ldrb	r3, [r4, #133]	@ zero_extendqisi2
 1800 00c8 34F81300 		ldrh	r0, [r4, r3, lsl #1]
 1801 00cc FFF7FEFF 		bl	__aeabi_i2f
 1802              	.LVL179:
 1803 00d0 D4F88C10 		ldr	r1, [r4, #140]	@ float
 1804 00d4 FFF7FEFF 		bl	__aeabi_fadd
 1805              	.LVL180:
 1806 00d8 0546     		mov	r5, r0
 313:.\main.c      ****         rightEncTimer_WriteCounter(0); //clear the microsecond counter
 1807              		.loc 1 313 0
 1808 00da 94F88600 		ldrb	r0, [r4, #134]	@ zero_extendqisi2
 311:.\main.c      ****         
 1809              		.loc 1 311 0
 1810 00de C4F88C50 		str	r5, [r4, #140]	@ float
 313:.\main.c      ****         rightEncTimer_WriteCounter(0); //clear the microsecond counter
 1811              		.loc 1 313 0
 1812 00e2 FFF7FEFF 		bl	__aeabi_i2f
 1813              	.LVL181:
 1814 00e6 0146     		mov	r1, r0
 1815 00e8 2846     		mov	r0, r5
 1816 00ea FFF7FEFF 		bl	__aeabi_fdiv
 1817              	.LVL182:
 1818 00ee 0949     		ldr	r1, .L125
 1819 00f0 FFF7FEFF 		bl	__aeabi_fmul
 1820              	.LVL183:
 1821 00f4 0546     		mov	r5, r0
 1822 00f6 FFF7FEFF 		bl	rightEncTimer_ReadCounter
 1823              	.LVL184:
 1824 00fa FFF7FEFF 		bl	__aeabi_i2f
 1825              	.LVL185:
 1826 00fe 0146     		mov	r1, r0
 1827 0100 2846     		mov	r0, r5
 1828 0102 FFF7FEFF 		bl	__aeabi_fdiv
 1829              	.LVL186:
 1830 0106 C4F89000 		str	r0, [r4, #144]	@ float
 314:.\main.c      ****     }
 1831              		.loc 1 314 0
 1832 010a 0020     		movs	r0, #0
 1833 010c FFF7FEFF 		bl	rightEncTimer_WriteCounter
 1834              	.LVL187:
 1835 0110 7DE7     		b	.L120
ARM GAS  C:\Users\Patrick\AppData\Local\Temp\cc1OctCg.s 			page 85


 1836              	.L126:
 1837 0112 00BF     		.align	2
 1838              	.L125:
 1839 0114 0050C347 		.word	1203982336
 1840              		.cfi_endproc
 1841              	.LFE70:
 1842              		.size	GetRPM, .-GetRPM
 1843              		.section	.text.SensorSet,"ax",%progbits
 1844              		.align	2
 1845              		.global	SensorSet
 1846              		.thumb
 1847              		.thumb_func
 1848              		.type	SensorSet, %function
 1849              	SensorSet:
 1850              	.LFB71:
 326:.\main.c      ****     sensor->number = number_set;
 1851              		.loc 1 326 0
 1852              		.cfi_startproc
 1853              		@ args = 0, pretend = 0, frame = 0
 1854              		@ frame_needed = 0, uses_anonymous_args = 0
 1855              		@ link register save eliminated.
 1856              	.LVL188:
 330:.\main.c      ****         sensor->window = BUFF;
 1857              		.loc 1 330 0
 1858 0000 3F2A     		cmp	r2, #63
 329:.\main.c      ****     if(window_set>=BUFF){
 1859              		.loc 1 329 0
 1860 0002 A0F88830 		strh	r3, [r0, #136]	@ movhi
 331:.\main.c      ****     }
 1861              		.loc 1 331 0
 1862 0006 88BF     		it	hi
 1863 0008 4023     		movhi	r3, #64
 1864              	.LVL189:
 328:.\main.c      ****     sensor->rate = rate_set;
 1865              		.loc 1 328 0
 1866 000a 80F88620 		strb	r2, [r0, #134]
 327:.\main.c      ****     sensor->window = window_set;
 1867              		.loc 1 327 0
 1868 000e 80F88410 		strb	r1, [r0, #132]
 331:.\main.c      ****     }
 1869              		.loc 1 331 0
 1870 0012 88BF     		it	hi
 1871 0014 80F88630 		strbhi	r3, [r0, #134]
 1872 0018 7047     		bx	lr
 1873              		.cfi_endproc
 1874              	.LFE71:
 1875              		.size	SensorSet, .-SensorSet
 1876 001a 00BF     		.section	.text.PotInit,"ax",%progbits
 1877              		.align	2
 1878              		.global	PotInit
 1879              		.thumb
 1880              		.thumb_func
 1881              		.type	PotInit, %function
 1882              	PotInit:
 1883              	.LFB72:
 335:.\main.c      ****     int i = 0;
 1884              		.loc 1 335 0
ARM GAS  C:\Users\Patrick\AppData\Local\Temp\cc1OctCg.s 			page 86


 1885              		.cfi_startproc
 1886              		@ args = 0, pretend = 0, frame = 0
 1887              		@ frame_needed = 0, uses_anonymous_args = 0
 1888              		@ link register save eliminated.
 1889              	.LVL190:
 337:.\main.c      ****     pot->mV = 0;
 1890              		.loc 1 337 0
 1891 0000 0021     		movs	r1, #0
 1892 0002 C0F88010 		str	r1, [r0, #128]
 338:.\main.c      ****     pot->sensor.index = 0;
 1893              		.loc 1 338 0
 1894 0006 A0F88C10 		strh	r1, [r0, #140]	@ movhi
 339:.\main.c      ****     pot->sensor.flag = 0;
 1895              		.loc 1 339 0
 1896 000a 80F88510 		strb	r1, [r0, #133]
 340:.\main.c      ****     for(i=0;i<BUFF;i++){
 1897              		.loc 1 340 0
 1898 000e 80F88710 		strb	r1, [r0, #135]
 1899 0012 8022     		movs	r2, #128
 1900 0014 FFF7FEBF 		b	memset
 1901              	.LVL191:
 1902              		.cfi_endproc
 1903              	.LFE72:
 1904              		.size	PotInit, .-PotInit
 1905              		.section	.text.EncoderInit,"ax",%progbits
 1906              		.align	2
 1907              		.global	EncoderInit
 1908              		.thumb
 1909              		.thumb_func
 1910              		.type	EncoderInit, %function
 1911              	EncoderInit:
 1912              	.LFB73:
 346:.\main.c      ****     int i = 0;
 1913              		.loc 1 346 0
 1914              		.cfi_startproc
 1915              		@ args = 0, pretend = 0, frame = 0
 1916              		@ frame_needed = 0, uses_anonymous_args = 0
 1917              		@ link register save eliminated.
 1918              	.LVL192:
 348:.\main.c      ****     encoder->rpm = 0;
 1919              		.loc 1 348 0
 1920 0000 0022     		movs	r2, #0
 350:.\main.c      ****     encoder->sensor.flag = 0;
 1921              		.loc 1 350 0
 1922 0002 0021     		movs	r1, #0
 348:.\main.c      ****     encoder->rpm = 0;
 1923              		.loc 1 348 0
 1924 0004 C0F88C20 		str	r2, [r0, #140]	@ float
 349:.\main.c      ****     encoder->sensor.index = 0;
 1925              		.loc 1 349 0
 1926 0008 C0F89020 		str	r2, [r0, #144]	@ float
 350:.\main.c      ****     encoder->sensor.flag = 0;
 1927              		.loc 1 350 0
 1928 000c 80F88510 		strb	r1, [r0, #133]
 351:.\main.c      ****     for(i=0;i<BUFF;i++){
 1929              		.loc 1 351 0
 1930 0010 80F88710 		strb	r1, [r0, #135]
ARM GAS  C:\Users\Patrick\AppData\Local\Temp\cc1OctCg.s 			page 87


 1931 0014 8022     		movs	r2, #128
 1932 0016 FFF7FEBF 		b	memset
 1933              	.LVL193:
 1934              		.cfi_endproc
 1935              	.LFE73:
 1936              		.size	EncoderInit, .-EncoderInit
 1937 001a 00BF     		.section	.text.CAN_Send,"ax",%progbits
 1938              		.align	2
 1939              		.global	CAN_Send
 1940              		.thumb
 1941              		.thumb_func
 1942              		.type	CAN_Send, %function
 1943              	CAN_Send:
 1944              	.LFB74:
 357:.\main.c      ****     TxMessage1[0] = zero;
 1945              		.loc 1 357 0
 1946              		.cfi_startproc
 1947              		@ args = 16, pretend = 0, frame = 0
 1948              		@ frame_needed = 0, uses_anonymous_args = 0
 1949              	.LVL194:
 1950 0000 F0B5     		push	{r4, r5, r6, r7, lr}
 1951              		.cfi_def_cfa_offset 20
 1952              		.cfi_offset 4, -20
 1953              		.cfi_offset 5, -16
 1954              		.cfi_offset 6, -12
 1955              		.cfi_offset 7, -8
 1956              		.cfi_offset 14, -4
 358:.\main.c      ****     TxMessage1[1] = one;
 1957              		.loc 1 358 0
 1958 0002 094C     		ldr	r4, .L133
 357:.\main.c      ****     TxMessage1[0] = zero;
 1959              		.loc 1 357 0
 1960 0004 9DF814E0 		ldrb	lr, [sp, #20]	@ zero_extendqisi2
 1961 0008 9DF81870 		ldrb	r7, [sp, #24]	@ zero_extendqisi2
 1962 000c 9DF81C60 		ldrb	r6, [sp, #28]	@ zero_extendqisi2
 1963 0010 9DF82050 		ldrb	r5, [sp, #32]	@ zero_extendqisi2
 362:.\main.c      ****     TxMessage1[5] = five;
 1964              		.loc 1 362 0
 1965 0014 84F804E0 		strb	lr, [r4, #4]
 358:.\main.c      ****     TxMessage1[1] = one;
 1966              		.loc 1 358 0
 1967 0018 2070     		strb	r0, [r4]
 359:.\main.c      ****     TxMessage1[2] = two;
 1968              		.loc 1 359 0
 1969 001a 6170     		strb	r1, [r4, #1]
 360:.\main.c      ****     TxMessage1[3] = three;
 1970              		.loc 1 360 0
 1971 001c A270     		strb	r2, [r4, #2]
 361:.\main.c      ****     TxMessage1[4] = four;
 1972              		.loc 1 361 0
 1973 001e E370     		strb	r3, [r4, #3]
 363:.\main.c      ****     TxMessage1[6] = six;
 1974              		.loc 1 363 0
 1975 0020 6771     		strb	r7, [r4, #5]
 364:.\main.c      ****     TxMessage1[7] = seven;
 1976              		.loc 1 364 0
 1977 0022 A671     		strb	r6, [r4, #6]
ARM GAS  C:\Users\Patrick\AppData\Local\Temp\cc1OctCg.s 			page 88


 365:.\main.c      **** }
 1978              		.loc 1 365 0
 1979 0024 E571     		strb	r5, [r4, #7]
 1980 0026 F0BD     		pop	{r4, r5, r6, r7, pc}
 1981              	.LVL195:
 1982              	.L134:
 1983              		.align	2
 1984              	.L133:
 1985 0028 00000000 		.word	TxMessage1
 1986              		.cfi_endproc
 1987              	.LFE74:
 1988              		.size	CAN_Send, .-CAN_Send
 1989              		.section	.text.SetFlag,"ax",%progbits
 1990              		.align	2
 1991              		.global	SetFlag
 1992              		.thumb
 1993              		.thumb_func
 1994              		.type	SetFlag, %function
 1995              	SetFlag:
 1996              	.LFB75:
 368:.\main.c      ****     sensor->flag = flag_set;
 1997              		.loc 1 368 0
 1998              		.cfi_startproc
 1999              		@ args = 0, pretend = 0, frame = 0
 2000              		@ frame_needed = 0, uses_anonymous_args = 0
 2001              		@ link register save eliminated.
 2002              	.LVL196:
 369:.\main.c      **** }
 2003              		.loc 1 369 0
 2004 0000 80F88710 		strb	r1, [r0, #135]
 2005 0004 7047     		bx	lr
 2006              		.cfi_endproc
 2007              	.LFE75:
 2008              		.size	SetFlag, .-SetFlag
 2009 0006 00BF     		.section	.text.GetRate,"ax",%progbits
 2010              		.align	2
 2011              		.global	GetRate
 2012              		.thumb
 2013              		.thumb_func
 2014              		.type	GetRate, %function
 2015              	GetRate:
 2016              	.LFB76:
 372:.\main.c      ****     return INTERRUPT_FREQ/(sensor->rate);
 2017              		.loc 1 372 0
 2018              		.cfi_startproc
 2019              		@ args = 0, pretend = 0, frame = 0
 2020              		@ frame_needed = 0, uses_anonymous_args = 0
 2021              		@ link register save eliminated.
 2022              	.LVL197:
 2023              		.loc 1 373 0
 2024 0000 B0F88800 		ldrh	r0, [r0, #136]
 2025              	.LVL198:
 2026 0004 024B     		ldr	r3, .L137
 2027 0006 B3FBF0F0 		udiv	r0, r3, r0
 374:.\main.c      **** }
 2028              		.loc 1 374 0
 2029 000a 80B2     		uxth	r0, r0
ARM GAS  C:\Users\Patrick\AppData\Local\Temp\cc1OctCg.s 			page 89


 2030 000c 7047     		bx	lr
 2031              	.L138:
 2032 000e 00BF     		.align	2
 2033              	.L137:
 2034 0010 A0860100 		.word	100000
 2035              		.cfi_endproc
 2036              	.LFE76:
 2037              		.size	GetRate, .-GetRate
 2038              		.comm	right,148,4
 2039              		.comm	left,148,4
 2040              		.comm	throttle,144,4
 2041              		.comm	steering,144,4
 2042              		.global	timer
 2043              		.comm	RxFlag1,1,1
 2044              		.comm	RXDLC1,1,1
 2045              		.comm	RxMessage1,8,4
 2046              		.comm	TxMessage1,8,4
 2047              		.comm	bIndex,1,1
 2048              		.section	.rodata.str1.4,"aMS",%progbits,1
 2049              		.align	2
 2050              	.LC0:
 2051 0000 0A0D434F 		.ascii	"\012\015COM Port Open\012\015\000"
 2051      4D20506F 
 2051      7274204F 
 2051      70656E0A 
 2051      0D00
 2052 0012 0000     		.space	2
 2053              	.LC1:
 2054 0014 25642C20 		.ascii	"%d, %d, %d\012\015\000"
 2054      25642C20 
 2054      25640A0D 
 2054      00
 2055 0021 000000   		.bss
 2056              		.align	2
 2057              		.set	.LANCHOR0,. + 0
 2058              		.type	timer, %object
 2059              		.size	timer, 4
 2060              	timer:
 2061 0000 00000000 		.space	4
 2062              		.text
 2063              	.Letext0:
 2064              		.file 4 "c:\\program files (x86)\\cypress\\psoc creator\\3.3\\psoc creator\\import\\gnu\\arm\\4.9.
 2065              		.file 5 "c:\\program files (x86)\\cypress\\psoc creator\\3.3\\psoc creator\\import\\gnu\\arm\\4.9.
 2066              		.file 6 "Generated_Source\\PSoC5/cytypes.h"
 2067              		.file 7 "Generated_Source\\PSoC5/CAN_1.h"
 2068              		.file 8 "Generated_Source\\PSoC5/core_cm3_psoc5.h"
 2069              		.file 9 "Generated_Source\\PSoC5/AMux_1.h"
 2070              		.file 10 "Generated_Source\\PSoC5/ADC_SAR_1.h"
 2071              		.file 11 "Generated_Source\\PSoC5/Encoder_Left.h"
 2072              		.file 12 "Generated_Source\\PSoC5/leftEncTimer.h"
 2073              		.file 13 "Generated_Source\\PSoC5/Encoder_Right.h"
 2074              		.file 14 "Generated_Source\\PSoC5/rightEncTimer.h"
 2075              		.file 15 "Generated_Source\\PSoC5/UART_1.h"
 2076              		.file 16 "Generated_Source\\PSoC5/CAN_ISR.h"
 2077              		.file 17 "Generated_Source\\PSoC5/CAN_TIMER.h"
 2078              		.file 18 "Generated_Source\\PSoC5/CyLib.h"
 2079              		.file 19 "c:\\program files (x86)\\cypress\\psoc creator\\3.3\\psoc creator\\import\\gnu\\arm\\4.9
ARM GAS  C:\Users\Patrick\AppData\Local\Temp\cc1OctCg.s 			page 90


 2080              		.section	.debug_info,"",%progbits
 2081              	.Ldebug_info0:
 2082 0000 82140000 		.4byte	0x1482
 2083 0004 0400     		.2byte	0x4
 2084 0006 00000000 		.4byte	.Ldebug_abbrev0
 2085 000a 04       		.byte	0x4
 2086 000b 01       		.uleb128 0x1
 2087 000c D7050000 		.4byte	.LASF175
 2088 0010 01       		.byte	0x1
 2089 0011 56080000 		.4byte	.LASF176
 2090 0015 EC000000 		.4byte	.LASF177
 2091 0019 C8010000 		.4byte	.Ldebug_ranges0+0x1c8
 2092 001d 00000000 		.4byte	0
 2093 0021 00000000 		.4byte	.Ldebug_line0
 2094 0025 02       		.uleb128 0x2
 2095 0026 01       		.byte	0x1
 2096 0027 06       		.byte	0x6
 2097 0028 A0070000 		.4byte	.LASF0
 2098 002c 03       		.uleb128 0x3
 2099 002d B5050000 		.4byte	.LASF4
 2100 0031 04       		.byte	0x4
 2101 0032 1D       		.byte	0x1d
 2102 0033 37000000 		.4byte	0x37
 2103 0037 02       		.uleb128 0x2
 2104 0038 01       		.byte	0x1
 2105 0039 08       		.byte	0x8
 2106 003a 38070000 		.4byte	.LASF1
 2107 003e 02       		.uleb128 0x2
 2108 003f 02       		.byte	0x2
 2109 0040 05       		.byte	0x5
 2110 0041 F2040000 		.4byte	.LASF2
 2111 0045 02       		.uleb128 0x2
 2112 0046 02       		.byte	0x2
 2113 0047 07       		.byte	0x7
 2114 0048 C5070000 		.4byte	.LASF3
 2115 004c 03       		.uleb128 0x3
 2116 004d 9E000000 		.4byte	.LASF5
 2117 0051 04       		.byte	0x4
 2118 0052 3F       		.byte	0x3f
 2119 0053 57000000 		.4byte	0x57
 2120 0057 02       		.uleb128 0x2
 2121 0058 04       		.byte	0x4
 2122 0059 05       		.byte	0x5
 2123 005a 06050000 		.4byte	.LASF6
 2124 005e 03       		.uleb128 0x3
 2125 005f 46070000 		.4byte	.LASF7
 2126 0063 04       		.byte	0x4
 2127 0064 41       		.byte	0x41
 2128 0065 69000000 		.4byte	0x69
 2129 0069 02       		.uleb128 0x2
 2130 006a 04       		.byte	0x4
 2131 006b 07       		.byte	0x7
 2132 006c AC060000 		.4byte	.LASF8
 2133 0070 02       		.uleb128 0x2
 2134 0071 08       		.byte	0x8
 2135 0072 05       		.byte	0x5
 2136 0073 B5030000 		.4byte	.LASF9
ARM GAS  C:\Users\Patrick\AppData\Local\Temp\cc1OctCg.s 			page 91


 2137 0077 02       		.uleb128 0x2
 2138 0078 08       		.byte	0x8
 2139 0079 07       		.byte	0x7
 2140 007a F5010000 		.4byte	.LASF10
 2141 007e 04       		.uleb128 0x4
 2142 007f 04       		.byte	0x4
 2143 0080 05       		.byte	0x5
 2144 0081 696E7400 		.ascii	"int\000"
 2145 0085 02       		.uleb128 0x2
 2146 0086 04       		.byte	0x4
 2147 0087 07       		.byte	0x7
 2148 0088 75000000 		.4byte	.LASF11
 2149 008c 03       		.uleb128 0x3
 2150 008d 71030000 		.4byte	.LASF12
 2151 0091 05       		.byte	0x5
 2152 0092 15       		.byte	0x15
 2153 0093 2C000000 		.4byte	0x2c
 2154 0097 03       		.uleb128 0x3
 2155 0098 E8060000 		.4byte	.LASF13
 2156 009c 05       		.byte	0x5
 2157 009d 2C       		.byte	0x2c
 2158 009e 4C000000 		.4byte	0x4c
 2159 00a2 03       		.uleb128 0x3
 2160 00a3 9D010000 		.4byte	.LASF14
 2161 00a7 05       		.byte	0x5
 2162 00a8 2D       		.byte	0x2d
 2163 00a9 5E000000 		.4byte	0x5e
 2164 00ad 05       		.uleb128 0x5
 2165 00ae F1070000 		.4byte	.LASF15
 2166 00b2 06       		.byte	0x6
 2167 00b3 9201     		.2byte	0x192
 2168 00b5 37000000 		.4byte	0x37
 2169 00b9 05       		.uleb128 0x5
 2170 00ba 65030000 		.4byte	.LASF16
 2171 00be 06       		.byte	0x6
 2172 00bf 9301     		.2byte	0x193
 2173 00c1 45000000 		.4byte	0x45
 2174 00c5 05       		.uleb128 0x5
 2175 00c6 35040000 		.4byte	.LASF17
 2176 00ca 06       		.byte	0x6
 2177 00cb 9401     		.2byte	0x194
 2178 00cd 69000000 		.4byte	0x69
 2179 00d1 05       		.uleb128 0x5
 2180 00d2 B5000000 		.4byte	.LASF18
 2181 00d6 06       		.byte	0x6
 2182 00d7 9601     		.2byte	0x196
 2183 00d9 3E000000 		.4byte	0x3e
 2184 00dd 02       		.uleb128 0x2
 2185 00de 04       		.byte	0x4
 2186 00df 04       		.byte	0x4
 2187 00e0 B7010000 		.4byte	.LASF19
 2188 00e4 02       		.uleb128 0x2
 2189 00e5 08       		.byte	0x8
 2190 00e6 04       		.byte	0x4
 2191 00e7 F7070000 		.4byte	.LASF20
 2192 00eb 05       		.uleb128 0x5
 2193 00ec 79030000 		.4byte	.LASF21
ARM GAS  C:\Users\Patrick\AppData\Local\Temp\cc1OctCg.s 			page 92


 2194 00f0 06       		.byte	0x6
 2195 00f1 A301     		.2byte	0x1a3
 2196 00f3 F7000000 		.4byte	0xf7
 2197 00f7 02       		.uleb128 0x2
 2198 00f8 01       		.byte	0x1
 2199 00f9 08       		.byte	0x8
 2200 00fa 1E030000 		.4byte	.LASF22
 2201 00fe 05       		.uleb128 0x5
 2202 00ff BB000000 		.4byte	.LASF23
 2203 0103 06       		.byte	0x6
 2204 0104 3C02     		.2byte	0x23c
 2205 0106 0A010000 		.4byte	0x10a
 2206 010a 06       		.uleb128 0x6
 2207 010b AD000000 		.4byte	0xad
 2208 010f 05       		.uleb128 0x5
 2209 0110 9D040000 		.4byte	.LASF24
 2210 0114 06       		.byte	0x6
 2211 0115 3E02     		.2byte	0x23e
 2212 0117 1B010000 		.4byte	0x11b
 2213 011b 06       		.uleb128 0x6
 2214 011c C5000000 		.4byte	0xc5
 2215 0120 05       		.uleb128 0x5
 2216 0121 0A040000 		.4byte	.LASF25
 2217 0125 06       		.byte	0x6
 2218 0126 4E02     		.2byte	0x24e
 2219 0128 2C010000 		.4byte	0x12c
 2220 012c 07       		.uleb128 0x7
 2221 012d 04       		.byte	0x4
 2222 012e 32010000 		.4byte	0x132
 2223 0132 08       		.uleb128 0x8
 2224 0133 02       		.uleb128 0x2
 2225 0134 04       		.byte	0x4
 2226 0135 07       		.byte	0x7
 2227 0136 9E060000 		.4byte	.LASF26
 2228 013a 09       		.uleb128 0x9
 2229 013b 04       		.byte	0x4
 2230 013c 07       		.uleb128 0x7
 2231 013d 04       		.byte	0x4
 2232 013e F7000000 		.4byte	0xf7
 2233 0142 07       		.uleb128 0x7
 2234 0143 04       		.byte	0x4
 2235 0144 48010000 		.4byte	0x148
 2236 0148 0A       		.uleb128 0xa
 2237 0149 F7000000 		.4byte	0xf7
 2238 014d 0B       		.uleb128 0xb
 2239 014e 08       		.byte	0x8
 2240 014f 07       		.byte	0x7
 2241 0150 6F       		.byte	0x6f
 2242 0151 62010000 		.4byte	0x162
 2243 0155 0C       		.uleb128 0xc
 2244 0156 FD060000 		.4byte	.LASF28
 2245 015a 07       		.byte	0x7
 2246 015b 71       		.byte	0x71
 2247 015c 62010000 		.4byte	0x162
 2248 0160 00       		.byte	0
 2249 0161 00       		.byte	0
 2250 0162 0D       		.uleb128 0xd
ARM GAS  C:\Users\Patrick\AppData\Local\Temp\cc1OctCg.s 			page 93


 2251 0163 AD000000 		.4byte	0xad
 2252 0167 72010000 		.4byte	0x172
 2253 016b 0E       		.uleb128 0xe
 2254 016c 33010000 		.4byte	0x133
 2255 0170 07       		.byte	0x7
 2256 0171 00       		.byte	0
 2257 0172 03       		.uleb128 0x3
 2258 0173 E4020000 		.4byte	.LASF27
 2259 0177 07       		.byte	0x7
 2260 0178 72       		.byte	0x72
 2261 0179 4D010000 		.4byte	0x14d
 2262 017d 0B       		.uleb128 0xb
 2263 017e 08       		.byte	0x8
 2264 017f 07       		.byte	0x7
 2265 0180 75       		.byte	0x75
 2266 0181 92010000 		.4byte	0x192
 2267 0185 0C       		.uleb128 0xc
 2268 0186 FD060000 		.4byte	.LASF28
 2269 018a 07       		.byte	0x7
 2270 018b 77       		.byte	0x77
 2271 018c A2010000 		.4byte	0x1a2
 2272 0190 00       		.byte	0
 2273 0191 00       		.byte	0
 2274 0192 0D       		.uleb128 0xd
 2275 0193 FE000000 		.4byte	0xfe
 2276 0197 A2010000 		.4byte	0x1a2
 2277 019b 0E       		.uleb128 0xe
 2278 019c 33010000 		.4byte	0x133
 2279 01a0 07       		.byte	0x7
 2280 01a1 00       		.byte	0
 2281 01a2 06       		.uleb128 0x6
 2282 01a3 92010000 		.4byte	0x192
 2283 01a7 03       		.uleb128 0x3
 2284 01a8 9E030000 		.4byte	.LASF29
 2285 01ac 07       		.byte	0x7
 2286 01ad 78       		.byte	0x78
 2287 01ae 7D010000 		.4byte	0x17d
 2288 01b2 0B       		.uleb128 0xb
 2289 01b3 04       		.byte	0x4
 2290 01b4 07       		.byte	0x7
 2291 01b5 7B       		.byte	0x7b
 2292 01b6 C7010000 		.4byte	0x1c7
 2293 01ba 0C       		.uleb128 0xc
 2294 01bb FD060000 		.4byte	.LASF28
 2295 01bf 07       		.byte	0x7
 2296 01c0 7D       		.byte	0x7d
 2297 01c1 D7010000 		.4byte	0x1d7
 2298 01c5 00       		.byte	0
 2299 01c6 00       		.byte	0
 2300 01c7 0D       		.uleb128 0xd
 2301 01c8 FE000000 		.4byte	0xfe
 2302 01cc D7010000 		.4byte	0x1d7
 2303 01d0 0E       		.uleb128 0xe
 2304 01d1 33010000 		.4byte	0x133
 2305 01d5 03       		.byte	0x3
 2306 01d6 00       		.byte	0
 2307 01d7 06       		.uleb128 0x6
ARM GAS  C:\Users\Patrick\AppData\Local\Temp\cc1OctCg.s 			page 94


 2308 01d8 C7010000 		.4byte	0x1c7
 2309 01dc 03       		.uleb128 0x3
 2310 01dd 6D050000 		.4byte	.LASF30
 2311 01e1 07       		.byte	0x7
 2312 01e2 7E       		.byte	0x7e
 2313 01e3 B2010000 		.4byte	0x1b2
 2314 01e7 0B       		.uleb128 0xb
 2315 01e8 0C       		.byte	0xc
 2316 01e9 07       		.byte	0x7
 2317 01ea 81       		.byte	0x81
 2318 01eb 37020000 		.4byte	0x237
 2319 01ef 0F       		.uleb128 0xf
 2320 01f0 696400   		.ascii	"id\000"
 2321 01f3 07       		.byte	0x7
 2322 01f4 83       		.byte	0x83
 2323 01f5 C5000000 		.4byte	0xc5
 2324 01f9 00       		.byte	0
 2325 01fa 0F       		.uleb128 0xf
 2326 01fb 72747200 		.ascii	"rtr\000"
 2327 01ff 07       		.byte	0x7
 2328 0200 84       		.byte	0x84
 2329 0201 AD000000 		.4byte	0xad
 2330 0205 04       		.byte	0x4
 2331 0206 0F       		.uleb128 0xf
 2332 0207 69646500 		.ascii	"ide\000"
 2333 020b 07       		.byte	0x7
 2334 020c 85       		.byte	0x85
 2335 020d AD000000 		.4byte	0xad
 2336 0211 05       		.byte	0x5
 2337 0212 0F       		.uleb128 0xf
 2338 0213 646C6300 		.ascii	"dlc\000"
 2339 0217 07       		.byte	0x7
 2340 0218 86       		.byte	0x86
 2341 0219 AD000000 		.4byte	0xad
 2342 021d 06       		.byte	0x6
 2343 021e 0F       		.uleb128 0xf
 2344 021f 69727100 		.ascii	"irq\000"
 2345 0223 07       		.byte	0x7
 2346 0224 87       		.byte	0x87
 2347 0225 AD000000 		.4byte	0xad
 2348 0229 07       		.byte	0x7
 2349 022a 0F       		.uleb128 0xf
 2350 022b 6D736700 		.ascii	"msg\000"
 2351 022f 07       		.byte	0x7
 2352 0230 8B       		.byte	0x8b
 2353 0231 37020000 		.4byte	0x237
 2354 0235 08       		.byte	0x8
 2355 0236 00       		.byte	0
 2356 0237 07       		.uleb128 0x7
 2357 0238 04       		.byte	0x4
 2358 0239 72010000 		.4byte	0x172
 2359 023d 03       		.uleb128 0x3
 2360 023e A8000000 		.4byte	.LASF31
 2361 0242 07       		.byte	0x7
 2362 0243 8C       		.byte	0x8c
 2363 0244 E7010000 		.4byte	0x1e7
 2364 0248 0B       		.uleb128 0xb
ARM GAS  C:\Users\Patrick\AppData\Local\Temp\cc1OctCg.s 			page 95


 2365 0249 20       		.byte	0x20
 2366 024a 07       		.byte	0x7
 2367 024b A0       		.byte	0xa0
 2368 024c A5020000 		.4byte	0x2a5
 2369 0250 0C       		.uleb128 0xc
 2370 0251 5D070000 		.4byte	.LASF32
 2371 0255 07       		.byte	0x7
 2372 0256 A2       		.byte	0xa2
 2373 0257 DC010000 		.4byte	0x1dc
 2374 025b 00       		.byte	0
 2375 025c 0C       		.uleb128 0xc
 2376 025d 02070000 		.4byte	.LASF33
 2377 0261 07       		.byte	0x7
 2378 0262 A3       		.byte	0xa3
 2379 0263 DC010000 		.4byte	0x1dc
 2380 0267 04       		.byte	0x4
 2381 0268 0C       		.uleb128 0xc
 2382 0269 EE030000 		.4byte	.LASF34
 2383 026d 07       		.byte	0x7
 2384 026e A4       		.byte	0xa4
 2385 026f A7010000 		.4byte	0x1a7
 2386 0273 08       		.byte	0x8
 2387 0274 0C       		.uleb128 0xc
 2388 0275 8E000000 		.4byte	.LASF35
 2389 0279 07       		.byte	0x7
 2390 027a A5       		.byte	0xa5
 2391 027b DC010000 		.4byte	0x1dc
 2392 027f 10       		.byte	0x10
 2393 0280 0C       		.uleb128 0xc
 2394 0281 2E030000 		.4byte	.LASF36
 2395 0285 07       		.byte	0x7
 2396 0286 A6       		.byte	0xa6
 2397 0287 DC010000 		.4byte	0x1dc
 2398 028b 14       		.byte	0x14
 2399 028c 0C       		.uleb128 0xc
 2400 028d 53030000 		.4byte	.LASF37
 2401 0291 07       		.byte	0x7
 2402 0292 A7       		.byte	0xa7
 2403 0293 DC010000 		.4byte	0x1dc
 2404 0297 18       		.byte	0x18
 2405 0298 0C       		.uleb128 0xc
 2406 0299 8A030000 		.4byte	.LASF38
 2407 029d 07       		.byte	0x7
 2408 029e A8       		.byte	0xa8
 2409 029f DC010000 		.4byte	0x1dc
 2410 02a3 1C       		.byte	0x1c
 2411 02a4 00       		.byte	0
 2412 02a5 03       		.uleb128 0x3
 2413 02a6 73040000 		.4byte	.LASF39
 2414 02aa 07       		.byte	0x7
 2415 02ab A9       		.byte	0xa9
 2416 02ac 48020000 		.4byte	0x248
 2417 02b0 0B       		.uleb128 0xb
 2418 02b1 10       		.byte	0x10
 2419 02b2 07       		.byte	0x7
 2420 02b3 AC       		.byte	0xac
 2421 02b4 DD020000 		.4byte	0x2dd
ARM GAS  C:\Users\Patrick\AppData\Local\Temp\cc1OctCg.s 			page 96


 2422 02b8 0C       		.uleb128 0xc
 2423 02b9 4F010000 		.4byte	.LASF40
 2424 02bd 07       		.byte	0x7
 2425 02be AE       		.byte	0xae
 2426 02bf DC010000 		.4byte	0x1dc
 2427 02c3 00       		.byte	0
 2428 02c4 0C       		.uleb128 0xc
 2429 02c5 30080000 		.4byte	.LASF41
 2430 02c9 07       		.byte	0x7
 2431 02ca AF       		.byte	0xaf
 2432 02cb DC010000 		.4byte	0x1dc
 2433 02cf 04       		.byte	0x4
 2434 02d0 0C       		.uleb128 0xc
 2435 02d1 F6060000 		.4byte	.LASF42
 2436 02d5 07       		.byte	0x7
 2437 02d6 B0       		.byte	0xb0
 2438 02d7 A7010000 		.4byte	0x1a7
 2439 02db 08       		.byte	0x8
 2440 02dc 00       		.byte	0
 2441 02dd 03       		.uleb128 0x3
 2442 02de 8D010000 		.4byte	.LASF43
 2443 02e2 07       		.byte	0x7
 2444 02e3 B1       		.byte	0xb1
 2445 02e4 B0020000 		.4byte	0x2b0
 2446 02e8 10       		.uleb128 0x10
 2447 02e9 98040000 		.4byte	.LASF100
 2448 02ed 01       		.byte	0x1
 2449 02ee 08       		.byte	0x8
 2450 02ef 17       		.byte	0x17
 2451 02f0 2B030000 		.4byte	0x32b
 2452 02f4 11       		.uleb128 0x11
 2453 02f5 37050000 		.4byte	.LASF44
 2454 02f9 72       		.sleb128 -14
 2455 02fa 11       		.uleb128 0x11
 2456 02fb DD070000 		.4byte	.LASF45
 2457 02ff 73       		.sleb128 -13
 2458 0300 11       		.uleb128 0x11
 2459 0301 77010000 		.4byte	.LASF46
 2460 0305 74       		.sleb128 -12
 2461 0306 11       		.uleb128 0x11
 2462 0307 F5030000 		.4byte	.LASF47
 2463 030b 75       		.sleb128 -11
 2464 030c 11       		.uleb128 0x11
 2465 030d 28070000 		.4byte	.LASF48
 2466 0311 76       		.sleb128 -10
 2467 0312 11       		.uleb128 0x11
 2468 0313 51070000 		.4byte	.LASF49
 2469 0317 7B       		.sleb128 -5
 2470 0318 11       		.uleb128 0x11
 2471 0319 16070000 		.4byte	.LASF50
 2472 031d 7C       		.sleb128 -4
 2473 031e 11       		.uleb128 0x11
 2474 031f 29040000 		.4byte	.LASF51
 2475 0323 7E       		.sleb128 -2
 2476 0324 11       		.uleb128 0x11
 2477 0325 77060000 		.4byte	.LASF52
 2478 0329 7F       		.sleb128 -1
ARM GAS  C:\Users\Patrick\AppData\Local\Temp\cc1OctCg.s 			page 97


 2479 032a 00       		.byte	0
 2480 032b 03       		.uleb128 0x3
 2481 032c 7E020000 		.4byte	.LASF53
 2482 0330 08       		.byte	0x8
 2483 0331 25       		.byte	0x25
 2484 0332 E8020000 		.4byte	0x2e8
 2485 0336 12       		.uleb128 0x12
 2486 0337 040E     		.2byte	0xe04
 2487 0339 03       		.byte	0x3
 2488 033a 7F01     		.2byte	0x17f
 2489 033c F2030000 		.4byte	0x3f2
 2490 0340 13       		.uleb128 0x13
 2491 0341 B2010000 		.4byte	.LASF54
 2492 0345 03       		.byte	0x3
 2493 0346 8101     		.2byte	0x181
 2494 0348 02040000 		.4byte	0x402
 2495 034c 00       		.byte	0
 2496 034d 13       		.uleb128 0x13
 2497 034e C0040000 		.4byte	.LASF55
 2498 0352 03       		.byte	0x3
 2499 0353 8201     		.2byte	0x182
 2500 0355 07040000 		.4byte	0x407
 2501 0359 20       		.byte	0x20
 2502 035a 13       		.uleb128 0x13
 2503 035b 63070000 		.4byte	.LASF56
 2504 035f 03       		.byte	0x3
 2505 0360 8301     		.2byte	0x183
 2506 0362 17040000 		.4byte	0x417
 2507 0366 80       		.byte	0x80
 2508 0367 13       		.uleb128 0x13
 2509 0368 C9010000 		.4byte	.LASF57
 2510 036c 03       		.byte	0x3
 2511 036d 8401     		.2byte	0x184
 2512 036f 07040000 		.4byte	0x407
 2513 0373 A0       		.byte	0xa0
 2514 0374 14       		.uleb128 0x14
 2515 0375 EC070000 		.4byte	.LASF58
 2516 0379 03       		.byte	0x3
 2517 037a 8501     		.2byte	0x185
 2518 037c 1C040000 		.4byte	0x41c
 2519 0380 0001     		.2byte	0x100
 2520 0382 14       		.uleb128 0x14
 2521 0383 CA040000 		.4byte	.LASF59
 2522 0387 03       		.byte	0x3
 2523 0388 8601     		.2byte	0x186
 2524 038a 07040000 		.4byte	0x407
 2525 038e 2001     		.2byte	0x120
 2526 0390 14       		.uleb128 0x14
 2527 0391 66040000 		.4byte	.LASF60
 2528 0395 03       		.byte	0x3
 2529 0396 8701     		.2byte	0x187
 2530 0398 21040000 		.4byte	0x421
 2531 039c 8001     		.2byte	0x180
 2532 039e 14       		.uleb128 0x14
 2533 039f D4040000 		.4byte	.LASF61
 2534 03a3 03       		.byte	0x3
 2535 03a4 8801     		.2byte	0x188
ARM GAS  C:\Users\Patrick\AppData\Local\Temp\cc1OctCg.s 			page 98


 2536 03a6 07040000 		.4byte	0x407
 2537 03aa A001     		.2byte	0x1a0
 2538 03ac 14       		.uleb128 0x14
 2539 03ad 68070000 		.4byte	.LASF62
 2540 03b1 03       		.byte	0x3
 2541 03b2 8901     		.2byte	0x189
 2542 03b4 26040000 		.4byte	0x426
 2543 03b8 0002     		.2byte	0x200
 2544 03ba 14       		.uleb128 0x14
 2545 03bb DE040000 		.4byte	.LASF63
 2546 03bf 03       		.byte	0x3
 2547 03c0 8A01     		.2byte	0x18a
 2548 03c2 2B040000 		.4byte	0x42b
 2549 03c6 2002     		.2byte	0x220
 2550 03c8 15       		.uleb128 0x15
 2551 03c9 495000   		.ascii	"IP\000"
 2552 03cc 03       		.byte	0x3
 2553 03cd 8B01     		.2byte	0x18b
 2554 03cf 4B040000 		.4byte	0x44b
 2555 03d3 0003     		.2byte	0x300
 2556 03d5 14       		.uleb128 0x14
 2557 03d6 E8040000 		.4byte	.LASF64
 2558 03da 03       		.byte	0x3
 2559 03db 8C01     		.2byte	0x18c
 2560 03dd 50040000 		.4byte	0x450
 2561 03e1 F003     		.2byte	0x3f0
 2562 03e3 14       		.uleb128 0x14
 2563 03e4 3F000000 		.4byte	.LASF65
 2564 03e8 03       		.byte	0x3
 2565 03e9 8D01     		.2byte	0x18d
 2566 03eb 61040000 		.4byte	0x461
 2567 03ef 000E     		.2byte	0xe00
 2568 03f1 00       		.byte	0
 2569 03f2 0D       		.uleb128 0xd
 2570 03f3 A2000000 		.4byte	0xa2
 2571 03f7 02040000 		.4byte	0x402
 2572 03fb 0E       		.uleb128 0xe
 2573 03fc 33010000 		.4byte	0x133
 2574 0400 07       		.byte	0x7
 2575 0401 00       		.byte	0
 2576 0402 06       		.uleb128 0x6
 2577 0403 F2030000 		.4byte	0x3f2
 2578 0407 0D       		.uleb128 0xd
 2579 0408 A2000000 		.4byte	0xa2
 2580 040c 17040000 		.4byte	0x417
 2581 0410 0E       		.uleb128 0xe
 2582 0411 33010000 		.4byte	0x133
 2583 0415 17       		.byte	0x17
 2584 0416 00       		.byte	0
 2585 0417 06       		.uleb128 0x6
 2586 0418 F2030000 		.4byte	0x3f2
 2587 041c 06       		.uleb128 0x6
 2588 041d F2030000 		.4byte	0x3f2
 2589 0421 06       		.uleb128 0x6
 2590 0422 F2030000 		.4byte	0x3f2
 2591 0426 06       		.uleb128 0x6
 2592 0427 F2030000 		.4byte	0x3f2
ARM GAS  C:\Users\Patrick\AppData\Local\Temp\cc1OctCg.s 			page 99


 2593 042b 0D       		.uleb128 0xd
 2594 042c A2000000 		.4byte	0xa2
 2595 0430 3B040000 		.4byte	0x43b
 2596 0434 0E       		.uleb128 0xe
 2597 0435 33010000 		.4byte	0x133
 2598 0439 37       		.byte	0x37
 2599 043a 00       		.byte	0
 2600 043b 0D       		.uleb128 0xd
 2601 043c 8C000000 		.4byte	0x8c
 2602 0440 4B040000 		.4byte	0x44b
 2603 0444 0E       		.uleb128 0xe
 2604 0445 33010000 		.4byte	0x133
 2605 0449 EF       		.byte	0xef
 2606 044a 00       		.byte	0
 2607 044b 06       		.uleb128 0x6
 2608 044c 3B040000 		.4byte	0x43b
 2609 0450 0D       		.uleb128 0xd
 2610 0451 A2000000 		.4byte	0xa2
 2611 0455 61040000 		.4byte	0x461
 2612 0459 16       		.uleb128 0x16
 2613 045a 33010000 		.4byte	0x133
 2614 045e 8302     		.2byte	0x283
 2615 0460 00       		.byte	0
 2616 0461 06       		.uleb128 0x6
 2617 0462 A2000000 		.4byte	0xa2
 2618 0466 05       		.uleb128 0x5
 2619 0467 BF050000 		.4byte	.LASF66
 2620 046b 03       		.byte	0x3
 2621 046c 8E01     		.2byte	0x18e
 2622 046e 36030000 		.4byte	0x336
 2623 0472 17       		.uleb128 0x17
 2624 0473 8C       		.byte	0x8c
 2625 0474 03       		.byte	0x3
 2626 0475 A101     		.2byte	0x1a1
 2627 0477 8D050000 		.4byte	0x58d
 2628 047b 13       		.uleb128 0x13
 2629 047c B1020000 		.4byte	.LASF67
 2630 0480 03       		.byte	0x3
 2631 0481 A301     		.2byte	0x1a3
 2632 0483 8D050000 		.4byte	0x58d
 2633 0487 00       		.byte	0
 2634 0488 13       		.uleb128 0x13
 2635 0489 A7060000 		.4byte	.LASF68
 2636 048d 03       		.byte	0x3
 2637 048e A401     		.2byte	0x1a4
 2638 0490 61040000 		.4byte	0x461
 2639 0494 04       		.byte	0x4
 2640 0495 13       		.uleb128 0x13
 2641 0496 72060000 		.4byte	.LASF69
 2642 049a 03       		.byte	0x3
 2643 049b A501     		.2byte	0x1a5
 2644 049d 61040000 		.4byte	0x461
 2645 04a1 08       		.byte	0x8
 2646 04a2 13       		.uleb128 0x13
 2647 04a3 28030000 		.4byte	.LASF70
 2648 04a7 03       		.byte	0x3
 2649 04a8 A601     		.2byte	0x1a6
ARM GAS  C:\Users\Patrick\AppData\Local\Temp\cc1OctCg.s 			page 100


 2650 04aa 61040000 		.4byte	0x461
 2651 04ae 0C       		.byte	0xc
 2652 04af 18       		.uleb128 0x18
 2653 04b0 53435200 		.ascii	"SCR\000"
 2654 04b4 03       		.byte	0x3
 2655 04b5 A701     		.2byte	0x1a7
 2656 04b7 61040000 		.4byte	0x461
 2657 04bb 10       		.byte	0x10
 2658 04bc 18       		.uleb128 0x18
 2659 04bd 43435200 		.ascii	"CCR\000"
 2660 04c1 03       		.byte	0x3
 2661 04c2 A801     		.2byte	0x1a8
 2662 04c4 61040000 		.4byte	0x461
 2663 04c8 14       		.byte	0x14
 2664 04c9 18       		.uleb128 0x18
 2665 04ca 53485000 		.ascii	"SHP\000"
 2666 04ce 03       		.byte	0x3
 2667 04cf A901     		.2byte	0x1a9
 2668 04d1 A2050000 		.4byte	0x5a2
 2669 04d5 18       		.byte	0x18
 2670 04d6 13       		.uleb128 0x13
 2671 04d7 C3030000 		.4byte	.LASF71
 2672 04db 03       		.byte	0x3
 2673 04dc AA01     		.2byte	0x1aa
 2674 04de 61040000 		.4byte	0x461
 2675 04e2 24       		.byte	0x24
 2676 04e3 13       		.uleb128 0x13
 2677 04e4 D0030000 		.4byte	.LASF72
 2678 04e8 03       		.byte	0x3
 2679 04e9 AB01     		.2byte	0x1ab
 2680 04eb 61040000 		.4byte	0x461
 2681 04ef 28       		.byte	0x28
 2682 04f0 13       		.uleb128 0x13
 2683 04f1 00030000 		.4byte	.LASF73
 2684 04f5 03       		.byte	0x3
 2685 04f6 AC01     		.2byte	0x1ac
 2686 04f8 61040000 		.4byte	0x461
 2687 04fc 2C       		.byte	0x2c
 2688 04fd 13       		.uleb128 0x13
 2689 04fe 94000000 		.4byte	.LASF74
 2690 0502 03       		.byte	0x3
 2691 0503 AD01     		.2byte	0x1ad
 2692 0505 61040000 		.4byte	0x461
 2693 0509 30       		.byte	0x30
 2694 050a 13       		.uleb128 0x13
 2695 050b BA040000 		.4byte	.LASF75
 2696 050f 03       		.byte	0x3
 2697 0510 AE01     		.2byte	0x1ae
 2698 0512 61040000 		.4byte	0x461
 2699 0516 34       		.byte	0x34
 2700 0517 13       		.uleb128 0x13
 2701 0518 D2050000 		.4byte	.LASF76
 2702 051c 03       		.byte	0x3
 2703 051d AF01     		.2byte	0x1af
 2704 051f 61040000 		.4byte	0x461
 2705 0523 38       		.byte	0x38
 2706 0524 13       		.uleb128 0x13
ARM GAS  C:\Users\Patrick\AppData\Local\Temp\cc1OctCg.s 			page 101


 2707 0525 C6020000 		.4byte	.LASF77
 2708 0529 03       		.byte	0x3
 2709 052a B001     		.2byte	0x1b0
 2710 052c 61040000 		.4byte	0x461
 2711 0530 3C       		.byte	0x3c
 2712 0531 18       		.uleb128 0x18
 2713 0532 50465200 		.ascii	"PFR\000"
 2714 0536 03       		.byte	0x3
 2715 0537 B101     		.2byte	0x1b1
 2716 0539 B7050000 		.4byte	0x5b7
 2717 053d 40       		.byte	0x40
 2718 053e 18       		.uleb128 0x18
 2719 053f 44465200 		.ascii	"DFR\000"
 2720 0543 03       		.byte	0x3
 2721 0544 B201     		.2byte	0x1b2
 2722 0546 8D050000 		.4byte	0x58d
 2723 054a 48       		.byte	0x48
 2724 054b 18       		.uleb128 0x18
 2725 054c 41445200 		.ascii	"ADR\000"
 2726 0550 03       		.byte	0x3
 2727 0551 B301     		.2byte	0x1b3
 2728 0553 8D050000 		.4byte	0x58d
 2729 0557 4C       		.byte	0x4c
 2730 0558 13       		.uleb128 0x13
 2731 0559 AD010000 		.4byte	.LASF78
 2732 055d 03       		.byte	0x3
 2733 055e B401     		.2byte	0x1b4
 2734 0560 D1050000 		.4byte	0x5d1
 2735 0564 50       		.byte	0x50
 2736 0565 13       		.uleb128 0x13
 2737 0566 12080000 		.4byte	.LASF79
 2738 056a 03       		.byte	0x3
 2739 056b B501     		.2byte	0x1b5
 2740 056d EB050000 		.4byte	0x5eb
 2741 0571 60       		.byte	0x60
 2742 0572 13       		.uleb128 0x13
 2743 0573 C0040000 		.4byte	.LASF55
 2744 0577 03       		.byte	0x3
 2745 0578 B601     		.2byte	0x1b6
 2746 057a DB050000 		.4byte	0x5db
 2747 057e 74       		.byte	0x74
 2748 057f 13       		.uleb128 0x13
 2749 0580 07000000 		.4byte	.LASF80
 2750 0584 03       		.byte	0x3
 2751 0585 B701     		.2byte	0x1b7
 2752 0587 61040000 		.4byte	0x461
 2753 058b 88       		.byte	0x88
 2754 058c 00       		.byte	0
 2755 058d 0A       		.uleb128 0xa
 2756 058e 61040000 		.4byte	0x461
 2757 0592 0D       		.uleb128 0xd
 2758 0593 8C000000 		.4byte	0x8c
 2759 0597 A2050000 		.4byte	0x5a2
 2760 059b 0E       		.uleb128 0xe
 2761 059c 33010000 		.4byte	0x133
 2762 05a0 0B       		.byte	0xb
 2763 05a1 00       		.byte	0
ARM GAS  C:\Users\Patrick\AppData\Local\Temp\cc1OctCg.s 			page 102


 2764 05a2 06       		.uleb128 0x6
 2765 05a3 92050000 		.4byte	0x592
 2766 05a7 0D       		.uleb128 0xd
 2767 05a8 A2000000 		.4byte	0xa2
 2768 05ac B7050000 		.4byte	0x5b7
 2769 05b0 0E       		.uleb128 0xe
 2770 05b1 33010000 		.4byte	0x133
 2771 05b5 01       		.byte	0x1
 2772 05b6 00       		.byte	0
 2773 05b7 0A       		.uleb128 0xa
 2774 05b8 BC050000 		.4byte	0x5bc
 2775 05bc 06       		.uleb128 0x6
 2776 05bd A7050000 		.4byte	0x5a7
 2777 05c1 0D       		.uleb128 0xd
 2778 05c2 A2000000 		.4byte	0xa2
 2779 05c6 D1050000 		.4byte	0x5d1
 2780 05ca 0E       		.uleb128 0xe
 2781 05cb 33010000 		.4byte	0x133
 2782 05cf 03       		.byte	0x3
 2783 05d0 00       		.byte	0
 2784 05d1 0A       		.uleb128 0xa
 2785 05d2 D6050000 		.4byte	0x5d6
 2786 05d6 06       		.uleb128 0x6
 2787 05d7 C1050000 		.4byte	0x5c1
 2788 05db 0D       		.uleb128 0xd
 2789 05dc A2000000 		.4byte	0xa2
 2790 05e0 EB050000 		.4byte	0x5eb
 2791 05e4 0E       		.uleb128 0xe
 2792 05e5 33010000 		.4byte	0x133
 2793 05e9 04       		.byte	0x4
 2794 05ea 00       		.byte	0
 2795 05eb 0A       		.uleb128 0xa
 2796 05ec F0050000 		.4byte	0x5f0
 2797 05f0 06       		.uleb128 0x6
 2798 05f1 DB050000 		.4byte	0x5db
 2799 05f5 05       		.uleb128 0x5
 2800 05f6 C9050000 		.4byte	.LASF81
 2801 05fa 03       		.byte	0x3
 2802 05fb B801     		.2byte	0x1b8
 2803 05fd 72040000 		.4byte	0x472
 2804 0601 17       		.uleb128 0x17
 2805 0602 10       		.byte	0x10
 2806 0603 03       		.byte	0x3
 2807 0604 AB02     		.2byte	0x2ab
 2808 0606 3F060000 		.4byte	0x63f
 2809 060a 13       		.uleb128 0x13
 2810 060b 5F080000 		.4byte	.LASF82
 2811 060f 03       		.byte	0x3
 2812 0610 AD02     		.2byte	0x2ad
 2813 0612 61040000 		.4byte	0x461
 2814 0616 00       		.byte	0
 2815 0617 13       		.uleb128 0x13
 2816 0618 89000000 		.4byte	.LASF83
 2817 061c 03       		.byte	0x3
 2818 061d AE02     		.2byte	0x2ae
 2819 061f 61040000 		.4byte	0x461
 2820 0623 04       		.byte	0x4
ARM GAS  C:\Users\Patrick\AppData\Local\Temp\cc1OctCg.s 			page 103


 2821 0624 18       		.uleb128 0x18
 2822 0625 56414C00 		.ascii	"VAL\000"
 2823 0629 03       		.byte	0x3
 2824 062a AF02     		.2byte	0x2af
 2825 062c 61040000 		.4byte	0x461
 2826 0630 08       		.byte	0x8
 2827 0631 13       		.uleb128 0x13
 2828 0632 C0000000 		.4byte	.LASF84
 2829 0636 03       		.byte	0x3
 2830 0637 B002     		.2byte	0x2b0
 2831 0639 8D050000 		.4byte	0x58d
 2832 063d 0C       		.byte	0xc
 2833 063e 00       		.byte	0
 2834 063f 05       		.uleb128 0x5
 2835 0640 83040000 		.4byte	.LASF85
 2836 0644 03       		.byte	0x3
 2837 0645 B102     		.2byte	0x2b1
 2838 0647 01060000 		.4byte	0x601
 2839 064b 03       		.uleb128 0x3
 2840 064c DD030000 		.4byte	.LASF86
 2841 0650 01       		.byte	0x1
 2842 0651 3C       		.byte	0x3c
 2843 0652 37000000 		.4byte	0x37
 2844 0656 19       		.uleb128 0x19
 2845 0657 D5030000 		.4byte	.LASF95
 2846 065b 8C       		.byte	0x8c
 2847 065c 01       		.byte	0x1
 2848 065d 3E       		.byte	0x3e
 2849 065e B7060000 		.4byte	0x6b7
 2850 0662 0C       		.uleb128 0xc
 2851 0663 6C030000 		.4byte	.LASF87
 2852 0667 01       		.byte	0x1
 2853 0668 3F       		.byte	0x3f
 2854 0669 B7060000 		.4byte	0x6b7
 2855 066d 00       		.byte	0
 2856 066e 0C       		.uleb128 0xc
 2857 066f A9050000 		.4byte	.LASF88
 2858 0673 01       		.byte	0x1
 2859 0674 40       		.byte	0x40
 2860 0675 C5000000 		.4byte	0xc5
 2861 0679 80       		.byte	0x80
 2862 067a 0C       		.uleb128 0xc
 2863 067b A6010000 		.4byte	.LASF89
 2864 067f 01       		.byte	0x1
 2865 0680 41       		.byte	0x41
 2866 0681 AD000000 		.4byte	0xad
 2867 0685 84       		.byte	0x84
 2868 0686 0C       		.uleb128 0xc
 2869 0687 C3010000 		.4byte	.LASF90
 2870 068b 01       		.byte	0x1
 2871 068c 42       		.byte	0x42
 2872 068d AD000000 		.4byte	0xad
 2873 0691 85       		.byte	0x85
 2874 0692 0C       		.uleb128 0xc
 2875 0693 C9030000 		.4byte	.LASF91
 2876 0697 01       		.byte	0x1
 2877 0698 43       		.byte	0x43
ARM GAS  C:\Users\Patrick\AppData\Local\Temp\cc1OctCg.s 			page 104


 2878 0699 AD000000 		.4byte	0xad
 2879 069d 86       		.byte	0x86
 2880 069e 0C       		.uleb128 0xc
 2881 069f 68050000 		.4byte	.LASF92
 2882 06a3 01       		.byte	0x1
 2883 06a4 44       		.byte	0x44
 2884 06a5 4B060000 		.4byte	0x64b
 2885 06a9 87       		.byte	0x87
 2886 06aa 0C       		.uleb128 0xc
 2887 06ab 23030000 		.4byte	.LASF93
 2888 06af 01       		.byte	0x1
 2889 06b0 45       		.byte	0x45
 2890 06b1 B9000000 		.4byte	0xb9
 2891 06b5 88       		.byte	0x88
 2892 06b6 00       		.byte	0
 2893 06b7 0D       		.uleb128 0xd
 2894 06b8 B9000000 		.4byte	0xb9
 2895 06bc C7060000 		.4byte	0x6c7
 2896 06c0 0E       		.uleb128 0xe
 2897 06c1 33010000 		.4byte	0x133
 2898 06c5 3F       		.byte	0x3f
 2899 06c6 00       		.byte	0
 2900 06c7 03       		.uleb128 0x3
 2901 06c8 00000000 		.4byte	.LASF94
 2902 06cc 01       		.byte	0x1
 2903 06cd 46       		.byte	0x46
 2904 06ce 56060000 		.4byte	0x656
 2905 06d2 19       		.uleb128 0x19
 2906 06d3 99030000 		.4byte	.LASF96
 2907 06d7 90       		.byte	0x90
 2908 06d8 01       		.byte	0x1
 2909 06d9 48       		.byte	0x48
 2910 06da F6060000 		.4byte	0x6f6
 2911 06de 0C       		.uleb128 0xc
 2912 06df F9020000 		.4byte	.LASF97
 2913 06e3 01       		.byte	0x1
 2914 06e4 49       		.byte	0x49
 2915 06e5 C7060000 		.4byte	0x6c7
 2916 06e9 00       		.byte	0
 2917 06ea 0F       		.uleb128 0xf
 2918 06eb 6D5600   		.ascii	"mV\000"
 2919 06ee 01       		.byte	0x1
 2920 06ef 4A       		.byte	0x4a
 2921 06f0 D1000000 		.4byte	0xd1
 2922 06f4 8C       		.byte	0x8c
 2923 06f5 00       		.byte	0
 2924 06f6 1A       		.uleb128 0x1a
 2925 06f7 506F7400 		.ascii	"Pot\000"
 2926 06fb 01       		.byte	0x1
 2927 06fc 4B       		.byte	0x4b
 2928 06fd D2060000 		.4byte	0x6d2
 2929 0701 19       		.uleb128 0x19
 2930 0702 6E010000 		.4byte	.LASF98
 2931 0706 94       		.byte	0x94
 2932 0707 01       		.byte	0x1
 2933 0708 4D       		.byte	0x4d
 2934 0709 32070000 		.4byte	0x732
ARM GAS  C:\Users\Patrick\AppData\Local\Temp\cc1OctCg.s 			page 105


 2935 070d 0C       		.uleb128 0xc
 2936 070e F9020000 		.4byte	.LASF97
 2937 0712 01       		.byte	0x1
 2938 0713 4E       		.byte	0x4e
 2939 0714 C7060000 		.4byte	0x6c7
 2940 0718 00       		.byte	0
 2941 0719 0C       		.uleb128 0xc
 2942 071a A9050000 		.4byte	.LASF88
 2943 071e 01       		.byte	0x1
 2944 071f 4F       		.byte	0x4f
 2945 0720 DD000000 		.4byte	0xdd
 2946 0724 8C       		.byte	0x8c
 2947 0725 0F       		.uleb128 0xf
 2948 0726 72706D00 		.ascii	"rpm\000"
 2949 072a 01       		.byte	0x1
 2950 072b 50       		.byte	0x50
 2951 072c DD000000 		.4byte	0xdd
 2952 0730 90       		.byte	0x90
 2953 0731 00       		.byte	0
 2954 0732 03       		.uleb128 0x3
 2955 0733 91030000 		.4byte	.LASF99
 2956 0737 01       		.byte	0x1
 2957 0738 51       		.byte	0x51
 2958 0739 01070000 		.4byte	0x701
 2959 073d 1B       		.uleb128 0x1b
 2960 073e 5B000000 		.4byte	.LASF178
 2961 0742 03       		.byte	0x3
 2962 0743 F405     		.2byte	0x5f4
 2963 0745 03       		.byte	0x3
 2964 0746 63070000 		.4byte	0x763
 2965 074a 1C       		.uleb128 0x1c
 2966 074b 98040000 		.4byte	.LASF100
 2967 074f 03       		.byte	0x3
 2968 0750 F405     		.2byte	0x5f4
 2969 0752 2B030000 		.4byte	0x32b
 2970 0756 1C       		.uleb128 0x1c
 2971 0757 4B050000 		.4byte	.LASF101
 2972 075b 03       		.byte	0x3
 2973 075c F405     		.2byte	0x5f4
 2974 075e A2000000 		.4byte	0xa2
 2975 0762 00       		.byte	0
 2976 0763 1D       		.uleb128 0x1d
 2977 0764 6B040000 		.4byte	.LASF102
 2978 0768 01       		.byte	0x1
 2979 0769 4F01     		.2byte	0x14f
 2980 076b 01       		.byte	0x1
 2981 076c 87070000 		.4byte	0x787
 2982 0770 1E       		.uleb128 0x1e
 2983 0771 706F7400 		.ascii	"pot\000"
 2984 0775 01       		.byte	0x1
 2985 0776 4F01     		.2byte	0x14f
 2986 0778 87070000 		.4byte	0x787
 2987 077c 1F       		.uleb128 0x1f
 2988 077d 6900     		.ascii	"i\000"
 2989 077f 01       		.byte	0x1
 2990 0780 5001     		.2byte	0x150
 2991 0782 7E000000 		.4byte	0x7e
ARM GAS  C:\Users\Patrick\AppData\Local\Temp\cc1OctCg.s 			page 106


 2992 0786 00       		.byte	0
 2993 0787 07       		.uleb128 0x7
 2994 0788 04       		.byte	0x4
 2995 0789 F6060000 		.4byte	0x6f6
 2996 078d 1D       		.uleb128 0x1d
 2997 078e A3040000 		.4byte	.LASF103
 2998 0792 01       		.byte	0x1
 2999 0793 5A01     		.2byte	0x15a
 3000 0795 01       		.byte	0x1
 3001 0796 B1070000 		.4byte	0x7b1
 3002 079a 1C       		.uleb128 0x1c
 3003 079b 88020000 		.4byte	.LASF104
 3004 079f 01       		.byte	0x1
 3005 07a0 5A01     		.2byte	0x15a
 3006 07a2 B1070000 		.4byte	0x7b1
 3007 07a6 1F       		.uleb128 0x1f
 3008 07a7 6900     		.ascii	"i\000"
 3009 07a9 01       		.byte	0x1
 3010 07aa 5B01     		.2byte	0x15b
 3011 07ac 7E000000 		.4byte	0x7e
 3012 07b0 00       		.byte	0
 3013 07b1 07       		.uleb128 0x7
 3014 07b2 04       		.byte	0x4
 3015 07b3 32070000 		.4byte	0x732
 3016 07b7 20       		.uleb128 0x20
 3017 07b8 B7020000 		.4byte	.LASF179
 3018 07bc 03       		.byte	0x3
 3019 07bd 7806     		.2byte	0x678
 3020 07bf A2000000 		.4byte	0xa2
 3021 07c3 03       		.byte	0x3
 3022 07c4 D5070000 		.4byte	0x7d5
 3023 07c8 1C       		.uleb128 0x1c
 3024 07c9 1B020000 		.4byte	.LASF105
 3025 07cd 03       		.byte	0x3
 3026 07ce 7806     		.2byte	0x678
 3027 07d0 A2000000 		.4byte	0xa2
 3028 07d4 00       		.byte	0
 3029 07d5 1D       		.uleb128 0x1d
 3030 07d6 55010000 		.4byte	.LASF106
 3031 07da 01       		.byte	0x1
 3032 07db 4601     		.2byte	0x146
 3033 07dd 01       		.byte	0x1
 3034 07de 13080000 		.4byte	0x813
 3035 07e2 1C       		.uleb128 0x1c
 3036 07e3 F9020000 		.4byte	.LASF97
 3037 07e7 01       		.byte	0x1
 3038 07e8 4601     		.2byte	0x146
 3039 07ea 13080000 		.4byte	0x813
 3040 07ee 1C       		.uleb128 0x1c
 3041 07ef AF040000 		.4byte	.LASF107
 3042 07f3 01       		.byte	0x1
 3043 07f4 4601     		.2byte	0x146
 3044 07f6 AD000000 		.4byte	0xad
 3045 07fa 1C       		.uleb128 0x1c
 3046 07fb 7F030000 		.4byte	.LASF108
 3047 07ff 01       		.byte	0x1
 3048 0800 4601     		.2byte	0x146
ARM GAS  C:\Users\Patrick\AppData\Local\Temp\cc1OctCg.s 			page 107


 3049 0802 AD000000 		.4byte	0xad
 3050 0806 1C       		.uleb128 0x1c
 3051 0807 6C000000 		.4byte	.LASF109
 3052 080b 01       		.byte	0x1
 3053 080c 4601     		.2byte	0x146
 3054 080e B9000000 		.4byte	0xb9
 3055 0812 00       		.byte	0
 3056 0813 07       		.uleb128 0x7
 3057 0814 04       		.byte	0x4
 3058 0815 C7060000 		.4byte	0x6c7
 3059 0819 21       		.uleb128 0x21
 3060 081a 76020000 		.4byte	.LASF147
 3061 081e 01       		.byte	0x1
 3062 081f 7401     		.2byte	0x174
 3063 0821 B9000000 		.4byte	0xb9
 3064 0825 01       		.byte	0x1
 3065 0826 37080000 		.4byte	0x837
 3066 082a 1C       		.uleb128 0x1c
 3067 082b F9020000 		.4byte	.LASF97
 3068 082f 01       		.byte	0x1
 3069 0830 7401     		.2byte	0x174
 3070 0832 13080000 		.4byte	0x813
 3071 0836 00       		.byte	0
 3072 0837 1D       		.uleb128 0x1d
 3073 0838 D9010000 		.4byte	.LASF110
 3074 083c 01       		.byte	0x1
 3075 083d 7001     		.2byte	0x170
 3076 083f 01       		.byte	0x1
 3077 0840 5D080000 		.4byte	0x85d
 3078 0844 1C       		.uleb128 0x1c
 3079 0845 F9020000 		.4byte	.LASF97
 3080 0849 01       		.byte	0x1
 3081 084a 7001     		.2byte	0x170
 3082 084c 13080000 		.4byte	0x813
 3083 0850 1C       		.uleb128 0x1c
 3084 0851 0F050000 		.4byte	.LASF111
 3085 0855 01       		.byte	0x1
 3086 0856 7001     		.2byte	0x170
 3087 0858 4B060000 		.4byte	0x64b
 3088 085c 00       		.byte	0
 3089 085d 1D       		.uleb128 0x1d
 3090 085e 82000000 		.4byte	.LASF112
 3091 0862 01       		.byte	0x1
 3092 0863 1101     		.2byte	0x111
 3093 0865 01       		.byte	0x1
 3094 0866 77080000 		.4byte	0x877
 3095 086a 1C       		.uleb128 0x1c
 3096 086b 88020000 		.4byte	.LASF104
 3097 086f 01       		.byte	0x1
 3098 0870 1101     		.2byte	0x111
 3099 0872 B1070000 		.4byte	0x7b1
 3100 0876 00       		.byte	0
 3101 0877 22       		.uleb128 0x22
 3102 0878 FC040000 		.4byte	.LASF113
 3103 087c 01       		.byte	0x1
 3104 087d F3       		.byte	0xf3
 3105 087e 01       		.byte	0x1
ARM GAS  C:\Users\Patrick\AppData\Local\Temp\cc1OctCg.s 			page 108


 3106 087f 8F080000 		.4byte	0x88f
 3107 0883 23       		.uleb128 0x23
 3108 0884 706F7400 		.ascii	"pot\000"
 3109 0888 01       		.byte	0x1
 3110 0889 F3       		.byte	0xf3
 3111 088a 87070000 		.4byte	0x787
 3112 088e 00       		.byte	0
 3113 088f 24       		.uleb128 0x24
 3114 0890 E0000000 		.4byte	.LASF118
 3115 0894 01       		.byte	0x1
 3116 0895 63       		.byte	0x63
 3117 0896 00000000 		.4byte	.LFB67
 3118 089a B8000000 		.4byte	.LFE67-.LFB67
 3119 089e 01       		.uleb128 0x1
 3120 089f 9C       		.byte	0x9c
 3121 08a0 B9090000 		.4byte	0x9b9
 3122 08a4 25       		.uleb128 0x25
 3123 08a5 19080000 		.4byte	0x819
 3124 08a9 02000000 		.4byte	.LBB40
 3125 08ad 00000000 		.4byte	.Ldebug_ranges0+0
 3126 08b1 01       		.byte	0x1
 3127 08b2 66       		.byte	0x66
 3128 08b3 C4080000 		.4byte	0x8c4
 3129 08b7 26       		.uleb128 0x26
 3130 08b8 2A080000 		.4byte	0x82a
 3131 08bc 06       		.uleb128 0x6
 3132 08bd 03       		.byte	0x3
 3133 08be 00000000 		.4byte	throttle
 3134 08c2 9F       		.byte	0x9f
 3135 08c3 00       		.byte	0
 3136 08c4 27       		.uleb128 0x27
 3137 08c5 37080000 		.4byte	0x837
 3138 08c9 22000000 		.4byte	.LBB44
 3139 08cd 06000000 		.4byte	.LBE44-.LBB44
 3140 08d1 01       		.byte	0x1
 3141 08d2 66       		.byte	0x66
 3142 08d3 EA080000 		.4byte	0x8ea
 3143 08d7 28       		.uleb128 0x28
 3144 08d8 50080000 		.4byte	0x850
 3145 08dc 00000000 		.4byte	.LLST0
 3146 08e0 28       		.uleb128 0x28
 3147 08e1 44080000 		.4byte	0x844
 3148 08e5 14000000 		.4byte	.LLST1
 3149 08e9 00       		.byte	0
 3150 08ea 25       		.uleb128 0x25
 3151 08eb 19080000 		.4byte	0x819
 3152 08ef 28000000 		.4byte	.LBB46
 3153 08f3 18000000 		.4byte	.Ldebug_ranges0+0x18
 3154 08f7 01       		.byte	0x1
 3155 08f8 67       		.byte	0x67
 3156 08f9 0A090000 		.4byte	0x90a
 3157 08fd 26       		.uleb128 0x26
 3158 08fe 2A080000 		.4byte	0x82a
 3159 0902 06       		.uleb128 0x6
 3160 0903 03       		.byte	0x3
 3161 0904 00000000 		.4byte	steering
 3162 0908 9F       		.byte	0x9f
ARM GAS  C:\Users\Patrick\AppData\Local\Temp\cc1OctCg.s 			page 109


 3163 0909 00       		.byte	0
 3164 090a 27       		.uleb128 0x27
 3165 090b 37080000 		.4byte	0x837
 3166 090f 44000000 		.4byte	.LBB50
 3167 0913 06000000 		.4byte	.LBE50-.LBB50
 3168 0917 01       		.byte	0x1
 3169 0918 67       		.byte	0x67
 3170 0919 30090000 		.4byte	0x930
 3171 091d 28       		.uleb128 0x28
 3172 091e 50080000 		.4byte	0x850
 3173 0922 2C000000 		.4byte	.LLST2
 3174 0926 28       		.uleb128 0x28
 3175 0927 44080000 		.4byte	0x844
 3176 092b 40000000 		.4byte	.LLST3
 3177 092f 00       		.byte	0
 3178 0930 25       		.uleb128 0x25
 3179 0931 19080000 		.4byte	0x819
 3180 0935 4A000000 		.4byte	.LBB52
 3181 0939 30000000 		.4byte	.Ldebug_ranges0+0x30
 3182 093d 01       		.byte	0x1
 3183 093e 68       		.byte	0x68
 3184 093f 50090000 		.4byte	0x950
 3185 0943 26       		.uleb128 0x26
 3186 0944 2A080000 		.4byte	0x82a
 3187 0948 06       		.uleb128 0x6
 3188 0949 03       		.byte	0x3
 3189 094a 00000000 		.4byte	left
 3190 094e 9F       		.byte	0x9f
 3191 094f 00       		.byte	0
 3192 0950 27       		.uleb128 0x27
 3193 0951 37080000 		.4byte	0x837
 3194 0955 66000000 		.4byte	.LBB56
 3195 0959 06000000 		.4byte	.LBE56-.LBB56
 3196 095d 01       		.byte	0x1
 3197 095e 68       		.byte	0x68
 3198 095f 76090000 		.4byte	0x976
 3199 0963 28       		.uleb128 0x28
 3200 0964 50080000 		.4byte	0x850
 3201 0968 58000000 		.4byte	.LLST4
 3202 096c 28       		.uleb128 0x28
 3203 096d 44080000 		.4byte	0x844
 3204 0971 6C000000 		.4byte	.LLST5
 3205 0975 00       		.byte	0
 3206 0976 25       		.uleb128 0x25
 3207 0977 19080000 		.4byte	0x819
 3208 097b 6C000000 		.4byte	.LBB58
 3209 097f 48000000 		.4byte	.Ldebug_ranges0+0x48
 3210 0983 01       		.byte	0x1
 3211 0984 69       		.byte	0x69
 3212 0985 96090000 		.4byte	0x996
 3213 0989 26       		.uleb128 0x26
 3214 098a 2A080000 		.4byte	0x82a
 3215 098e 06       		.uleb128 0x6
 3216 098f 03       		.byte	0x3
 3217 0990 00000000 		.4byte	right
 3218 0994 9F       		.byte	0x9f
 3219 0995 00       		.byte	0
ARM GAS  C:\Users\Patrick\AppData\Local\Temp\cc1OctCg.s 			page 110


 3220 0996 29       		.uleb128 0x29
 3221 0997 37080000 		.4byte	0x837
 3222 099b 86000000 		.4byte	.LBB62
 3223 099f 06000000 		.4byte	.LBE62-.LBB62
 3224 09a3 01       		.byte	0x1
 3225 09a4 69       		.byte	0x69
 3226 09a5 28       		.uleb128 0x28
 3227 09a6 50080000 		.4byte	0x850
 3228 09aa 84000000 		.4byte	.LLST6
 3229 09ae 28       		.uleb128 0x28
 3230 09af 44080000 		.4byte	0x844
 3231 09b3 98000000 		.4byte	.LLST7
 3232 09b7 00       		.byte	0
 3233 09b8 00       		.byte	0
 3234 09b9 2A       		.uleb128 0x2a
 3235 09ba 8D070000 		.4byte	.LASF122
 3236 09be 02       		.byte	0x2
 3237 09bf 3B       		.byte	0x3b
 3238 09c0 AD000000 		.4byte	0xad
 3239 09c4 00000000 		.4byte	.LFB63
 3240 09c8 80010000 		.4byte	.LFE63-.LFB63
 3241 09cc 01       		.uleb128 0x1
 3242 09cd 9C       		.byte	0x9c
 3243 09ce 340A0000 		.4byte	0xa34
 3244 09d2 2B       		.uleb128 0x2b
 3245 09d3 2F000000 		.4byte	.LASF120
 3246 09d7 02       		.byte	0x2
 3247 09d8 3B       		.byte	0x3b
 3248 09d9 340A0000 		.4byte	0xa34
 3249 09dd B0000000 		.4byte	.LLST8
 3250 09e1 2C       		.uleb128 0x2c
 3251 09e2 6900     		.ascii	"i\000"
 3252 09e4 02       		.byte	0x2
 3253 09e5 3D       		.byte	0x3d
 3254 09e6 AD000000 		.4byte	0xad
 3255 09ea F5000000 		.4byte	.LLST9
 3256 09ee 2C       		.uleb128 0x2c
 3257 09ef 6A00     		.ascii	"j\000"
 3258 09f1 02       		.byte	0x2
 3259 09f2 3D       		.byte	0x3d
 3260 09f3 AD000000 		.4byte	0xad
 3261 09f7 35020000 		.4byte	.LLST10
 3262 09fb 2D       		.uleb128 0x2d
 3263 09fc BD010000 		.4byte	.LASF114
 3264 0a00 02       		.byte	0x2
 3265 0a01 3D       		.byte	0x3d
 3266 0a02 AD000000 		.4byte	0xad
 3267 0a06 9D020000 		.4byte	.LLST11
 3268 0a0a 2E       		.uleb128 0x2e
 3269 0a0b F0060000 		.4byte	.LASF115
 3270 0a0f 02       		.byte	0x2
 3271 0a10 3E       		.byte	0x3e
 3272 0a11 AD000000 		.4byte	0xad
 3273 0a15 2D       		.uleb128 0x2d
 3274 0a16 E1010000 		.4byte	.LASF116
 3275 0a1a 02       		.byte	0x2
 3276 0a1b 3F       		.byte	0x3f
ARM GAS  C:\Users\Patrick\AppData\Local\Temp\cc1OctCg.s 			page 111


 3277 0a1c AD000000 		.4byte	0xad
 3278 0a20 E9030000 		.4byte	.LLST12
 3279 0a24 2D       		.uleb128 0x2d
 3280 0a25 37000000 		.4byte	.LASF117
 3281 0a29 02       		.byte	0x2
 3282 0a2a 40       		.byte	0x40
 3283 0a2b C5000000 		.4byte	0xc5
 3284 0a2f 14040000 		.4byte	.LLST13
 3285 0a33 00       		.byte	0
 3286 0a34 07       		.uleb128 0x7
 3287 0a35 04       		.byte	0x4
 3288 0a36 3A0A0000 		.4byte	0xa3a
 3289 0a3a 0A       		.uleb128 0xa
 3290 0a3b 3D020000 		.4byte	0x23d
 3291 0a3f 24       		.uleb128 0x24
 3292 0a40 BE060000 		.4byte	.LASF119
 3293 0a44 02       		.byte	0x2
 3294 0a45 B9       		.byte	0xb9
 3295 0a46 00000000 		.4byte	.LFB64
 3296 0a4a 1C000000 		.4byte	.LFE64-.LFB64
 3297 0a4e 01       		.uleb128 0x1
 3298 0a4f 9C       		.byte	0x9c
 3299 0a50 640A0000 		.4byte	0xa64
 3300 0a54 2B       		.uleb128 0x2b
 3301 0a55 BC070000 		.4byte	.LASF121
 3302 0a59 02       		.byte	0x2
 3303 0a5a B9       		.byte	0xb9
 3304 0a5b AD000000 		.4byte	0xad
 3305 0a5f 49040000 		.4byte	.LLST14
 3306 0a63 00       		.byte	0
 3307 0a64 2A       		.uleb128 0x2a
 3308 0a65 07070000 		.4byte	.LASF123
 3309 0a69 02       		.byte	0x2
 3310 0a6a D7       		.byte	0xd7
 3311 0a6b AD000000 		.4byte	0xad
 3312 0a6f 00000000 		.4byte	.LFB65
 3313 0a73 64000000 		.4byte	.LFE65-.LFB65
 3314 0a77 01       		.uleb128 0x1
 3315 0a78 9C       		.byte	0x9c
 3316 0a79 8A0A0000 		.4byte	0xa8a
 3317 0a7d 2F       		.uleb128 0x2f
 3318 0a7e E1010000 		.4byte	.LASF116
 3319 0a82 02       		.byte	0x2
 3320 0a83 D9       		.byte	0xd9
 3321 0a84 AD000000 		.4byte	0xad
 3322 0a88 00       		.byte	0
 3323 0a89 00       		.byte	0
 3324 0a8a 30       		.uleb128 0x30
 3325 0a8b 8D050000 		.4byte	.LASF124
 3326 0a8f 02       		.byte	0x2
 3327 0a90 7702     		.2byte	0x277
 3328 0a92 00000000 		.4byte	.LFB66
 3329 0a96 18000000 		.4byte	.LFE66-.LFB66
 3330 0a9a 01       		.uleb128 0x1
 3331 0a9b 9C       		.byte	0x9c
 3332 0a9c B10A0000 		.4byte	0xab1
 3333 0aa0 31       		.uleb128 0x31
ARM GAS  C:\Users\Patrick\AppData\Local\Temp\cc1OctCg.s 			page 112


 3334 0aa1 17080000 		.4byte	.LASF125
 3335 0aa5 02       		.byte	0x2
 3336 0aa6 7702     		.2byte	0x277
 3337 0aa8 AD000000 		.4byte	0xad
 3338 0aac 6A040000 		.4byte	.LLST15
 3339 0ab0 00       		.byte	0
 3340 0ab1 32       		.uleb128 0x32
 3341 0ab2 D8070000 		.4byte	.LASF180
 3342 0ab6 01       		.byte	0x1
 3343 0ab7 84       		.byte	0x84
 3344 0ab8 00000000 		.4byte	.LFB68
 3345 0abc 3C050000 		.4byte	.LFE68-.LFB68
 3346 0ac0 01       		.uleb128 0x1
 3347 0ac1 9C       		.byte	0x9c
 3348 0ac2 E10F0000 		.4byte	0xfe1
 3349 0ac6 2C       		.uleb128 0x2c
 3350 0ac7 436800   		.ascii	"Ch\000"
 3351 0aca 01       		.byte	0x1
 3352 0acb 87       		.byte	0x87
 3353 0acc AD000000 		.4byte	0xad
 3354 0ad0 8B040000 		.4byte	.LLST16
 3355 0ad4 2D       		.uleb128 0x2d
 3356 0ad5 6D070000 		.4byte	.LASF126
 3357 0ad9 01       		.byte	0x1
 3358 0ada 89       		.byte	0x89
 3359 0adb AD000000 		.4byte	0xad
 3360 0adf 9E040000 		.4byte	.LLST17
 3361 0ae3 2D       		.uleb128 0x2d
 3362 0ae4 5F010000 		.4byte	.LASF127
 3363 0ae8 01       		.byte	0x1
 3364 0ae9 8A       		.byte	0x8a
 3365 0aea AD000000 		.4byte	0xad
 3366 0aee EB040000 		.4byte	.LLST18
 3367 0af2 33       		.uleb128 0x33
 3368 0af3 54050000 		.4byte	.LASF128
 3369 0af7 01       		.byte	0x1
 3370 0af8 8C       		.byte	0x8c
 3371 0af9 E10F0000 		.4byte	0xfe1
 3372 0afd 03       		.uleb128 0x3
 3373 0afe 91       		.byte	0x91
 3374 0aff A47F     		.sleb128 -92
 3375 0b01 25       		.uleb128 0x25
 3376 0b02 63070000 		.4byte	0x763
 3377 0b06 04000000 		.4byte	.LBB92
 3378 0b0a 60000000 		.4byte	.Ldebug_ranges0+0x60
 3379 0b0e 01       		.byte	0x1
 3380 0b0f 9B       		.byte	0x9b
 3381 0b10 2D0B0000 		.4byte	0xb2d
 3382 0b14 26       		.uleb128 0x26
 3383 0b15 70070000 		.4byte	0x770
 3384 0b19 06       		.uleb128 0x6
 3385 0b1a 03       		.byte	0x3
 3386 0b1b 00000000 		.4byte	steering
 3387 0b1f 9F       		.byte	0x9f
 3388 0b20 34       		.uleb128 0x34
 3389 0b21 60000000 		.4byte	.Ldebug_ranges0+0x60
 3390 0b25 35       		.uleb128 0x35
ARM GAS  C:\Users\Patrick\AppData\Local\Temp\cc1OctCg.s 			page 113


 3391 0b26 7C070000 		.4byte	0x77c
 3392 0b2a 00       		.byte	0
 3393 0b2b 00       		.byte	0
 3394 0b2c 00       		.byte	0
 3395 0b2d 25       		.uleb128 0x25
 3396 0b2e 63070000 		.4byte	0x763
 3397 0b32 0E000000 		.4byte	.LBB97
 3398 0b36 80000000 		.4byte	.Ldebug_ranges0+0x80
 3399 0b3a 01       		.byte	0x1
 3400 0b3b 9C       		.byte	0x9c
 3401 0b3c 590B0000 		.4byte	0xb59
 3402 0b40 26       		.uleb128 0x26
 3403 0b41 70070000 		.4byte	0x770
 3404 0b45 06       		.uleb128 0x6
 3405 0b46 03       		.byte	0x3
 3406 0b47 00000000 		.4byte	throttle
 3407 0b4b 9F       		.byte	0x9f
 3408 0b4c 34       		.uleb128 0x34
 3409 0b4d 80000000 		.4byte	.Ldebug_ranges0+0x80
 3410 0b51 35       		.uleb128 0x35
 3411 0b52 7C070000 		.4byte	0x77c
 3412 0b56 00       		.byte	0
 3413 0b57 00       		.byte	0
 3414 0b58 00       		.byte	0
 3415 0b59 25       		.uleb128 0x25
 3416 0b5a 8D070000 		.4byte	0x78d
 3417 0b5e 30000000 		.4byte	.LBB100
 3418 0b62 98000000 		.4byte	.Ldebug_ranges0+0x98
 3419 0b66 01       		.byte	0x1
 3420 0b67 9D       		.byte	0x9d
 3421 0b68 850B0000 		.4byte	0xb85
 3422 0b6c 26       		.uleb128 0x26
 3423 0b6d 9A070000 		.4byte	0x79a
 3424 0b71 06       		.uleb128 0x6
 3425 0b72 03       		.byte	0x3
 3426 0b73 00000000 		.4byte	left
 3427 0b77 9F       		.byte	0x9f
 3428 0b78 34       		.uleb128 0x34
 3429 0b79 98000000 		.4byte	.Ldebug_ranges0+0x98
 3430 0b7d 35       		.uleb128 0x35
 3431 0b7e A6070000 		.4byte	0x7a6
 3432 0b82 00       		.byte	0
 3433 0b83 00       		.byte	0
 3434 0b84 00       		.byte	0
 3435 0b85 25       		.uleb128 0x25
 3436 0b86 8D070000 		.4byte	0x78d
 3437 0b8a 44000000 		.4byte	.LBB104
 3438 0b8e B8000000 		.4byte	.Ldebug_ranges0+0xb8
 3439 0b92 01       		.byte	0x1
 3440 0b93 9E       		.byte	0x9e
 3441 0b94 B10B0000 		.4byte	0xbb1
 3442 0b98 26       		.uleb128 0x26
 3443 0b99 9A070000 		.4byte	0x79a
 3444 0b9d 06       		.uleb128 0x6
 3445 0b9e 03       		.byte	0x3
 3446 0b9f 00000000 		.4byte	right
 3447 0ba3 9F       		.byte	0x9f
ARM GAS  C:\Users\Patrick\AppData\Local\Temp\cc1OctCg.s 			page 114


 3448 0ba4 34       		.uleb128 0x34
 3449 0ba5 B8000000 		.4byte	.Ldebug_ranges0+0xb8
 3450 0ba9 35       		.uleb128 0x35
 3451 0baa A6070000 		.4byte	0x7a6
 3452 0bae 00       		.byte	0
 3453 0baf 00       		.byte	0
 3454 0bb0 00       		.byte	0
 3455 0bb1 27       		.uleb128 0x27
 3456 0bb2 B7070000 		.4byte	0x7b7
 3457 0bb6 B4000000 		.4byte	.LBB112
 3458 0bba 18000000 		.4byte	.LBE112-.LBB112
 3459 0bbe 01       		.byte	0x1
 3460 0bbf A6       		.byte	0xa6
 3461 0bc0 E90B0000 		.4byte	0xbe9
 3462 0bc4 36       		.uleb128 0x36
 3463 0bc5 C8070000 		.4byte	0x7c8
 3464 0bc9 D002     		.2byte	0x2d0
 3465 0bcb 37       		.uleb128 0x37
 3466 0bcc 3D070000 		.4byte	0x73d
 3467 0bd0 BA000000 		.4byte	.LBB114
 3468 0bd4 D0000000 		.4byte	.Ldebug_ranges0+0xd0
 3469 0bd8 03       		.byte	0x3
 3470 0bd9 8006     		.2byte	0x680
 3471 0bdb 38       		.uleb128 0x38
 3472 0bdc 56070000 		.4byte	0x756
 3473 0be0 07       		.byte	0x7
 3474 0be1 39       		.uleb128 0x39
 3475 0be2 4A070000 		.4byte	0x74a
 3476 0be6 7F       		.sleb128 -1
 3477 0be7 00       		.byte	0
 3478 0be8 00       		.byte	0
 3479 0be9 25       		.uleb128 0x25
 3480 0bea D5070000 		.4byte	0x7d5
 3481 0bee CE000000 		.4byte	.LBB118
 3482 0bf2 E8000000 		.4byte	.Ldebug_ranges0+0xe8
 3483 0bf6 01       		.byte	0x1
 3484 0bf7 B0       		.byte	0xb0
 3485 0bf8 1B0C0000 		.4byte	0xc1b
 3486 0bfc 38       		.uleb128 0x38
 3487 0bfd 06080000 		.4byte	0x806
 3488 0c01 C8       		.byte	0xc8
 3489 0c02 38       		.uleb128 0x38
 3490 0c03 FA070000 		.4byte	0x7fa
 3491 0c07 32       		.byte	0x32
 3492 0c08 38       		.uleb128 0x38
 3493 0c09 EE070000 		.4byte	0x7ee
 3494 0c0d 00       		.byte	0
 3495 0c0e 26       		.uleb128 0x26
 3496 0c0f E2070000 		.4byte	0x7e2
 3497 0c13 06       		.uleb128 0x6
 3498 0c14 03       		.byte	0x3
 3499 0c15 00000000 		.4byte	steering
 3500 0c19 9F       		.byte	0x9f
 3501 0c1a 00       		.byte	0
 3502 0c1b 25       		.uleb128 0x25
 3503 0c1c D5070000 		.4byte	0x7d5
 3504 0c20 D0000000 		.4byte	.LBB124
ARM GAS  C:\Users\Patrick\AppData\Local\Temp\cc1OctCg.s 			page 115


 3505 0c24 18010000 		.4byte	.Ldebug_ranges0+0x118
 3506 0c28 01       		.byte	0x1
 3507 0c29 B1       		.byte	0xb1
 3508 0c2a 4D0C0000 		.4byte	0xc4d
 3509 0c2e 38       		.uleb128 0x38
 3510 0c2f 06080000 		.4byte	0x806
 3511 0c33 C8       		.byte	0xc8
 3512 0c34 38       		.uleb128 0x38
 3513 0c35 FA070000 		.4byte	0x7fa
 3514 0c39 32       		.byte	0x32
 3515 0c3a 38       		.uleb128 0x38
 3516 0c3b EE070000 		.4byte	0x7ee
 3517 0c3f 01       		.byte	0x1
 3518 0c40 26       		.uleb128 0x26
 3519 0c41 E2070000 		.4byte	0x7e2
 3520 0c45 06       		.uleb128 0x6
 3521 0c46 03       		.byte	0x3
 3522 0c47 00000000 		.4byte	throttle
 3523 0c4b 9F       		.byte	0x9f
 3524 0c4c 00       		.byte	0
 3525 0c4d 25       		.uleb128 0x25
 3526 0c4e D5070000 		.4byte	0x7d5
 3527 0c52 D2000000 		.4byte	.LBB129
 3528 0c56 40010000 		.4byte	.Ldebug_ranges0+0x140
 3529 0c5a 01       		.byte	0x1
 3530 0c5b B2       		.byte	0xb2
 3531 0c5c 7F0C0000 		.4byte	0xc7f
 3532 0c60 38       		.uleb128 0x38
 3533 0c61 06080000 		.4byte	0x806
 3534 0c65 C8       		.byte	0xc8
 3535 0c66 38       		.uleb128 0x38
 3536 0c67 FA070000 		.4byte	0x7fa
 3537 0c6b 0A       		.byte	0xa
 3538 0c6c 38       		.uleb128 0x38
 3539 0c6d EE070000 		.4byte	0x7ee
 3540 0c71 00       		.byte	0
 3541 0c72 26       		.uleb128 0x26
 3542 0c73 E2070000 		.4byte	0x7e2
 3543 0c77 06       		.uleb128 0x6
 3544 0c78 03       		.byte	0x3
 3545 0c79 00000000 		.4byte	left
 3546 0c7d 9F       		.byte	0x9f
 3547 0c7e 00       		.byte	0
 3548 0c7f 27       		.uleb128 0x27
 3549 0c80 D5070000 		.4byte	0x7d5
 3550 0c84 DA000000 		.4byte	.LBB135
 3551 0c88 0C000000 		.4byte	.LBE135-.LBB135
 3552 0c8c 01       		.byte	0x1
 3553 0c8d B3       		.byte	0xb3
 3554 0c8e B10C0000 		.4byte	0xcb1
 3555 0c92 38       		.uleb128 0x38
 3556 0c93 06080000 		.4byte	0x806
 3557 0c97 C8       		.byte	0xc8
 3558 0c98 38       		.uleb128 0x38
 3559 0c99 FA070000 		.4byte	0x7fa
 3560 0c9d 0A       		.byte	0xa
 3561 0c9e 38       		.uleb128 0x38
ARM GAS  C:\Users\Patrick\AppData\Local\Temp\cc1OctCg.s 			page 116


 3562 0c9f EE070000 		.4byte	0x7ee
 3563 0ca3 01       		.byte	0x1
 3564 0ca4 26       		.uleb128 0x26
 3565 0ca5 E2070000 		.4byte	0x7e2
 3566 0ca9 06       		.uleb128 0x6
 3567 0caa 03       		.byte	0x3
 3568 0cab 00000000 		.4byte	right
 3569 0caf 9F       		.byte	0x9f
 3570 0cb0 00       		.byte	0
 3571 0cb1 25       		.uleb128 0x25
 3572 0cb2 77080000 		.4byte	0x877
 3573 0cb6 CE010000 		.4byte	.LBB146
 3574 0cba 68010000 		.4byte	.Ldebug_ranges0+0x168
 3575 0cbe 01       		.byte	0x1
 3576 0cbf D7       		.byte	0xd7
 3577 0cc0 060D0000 		.4byte	0xd06
 3578 0cc4 28       		.uleb128 0x28
 3579 0cc5 83080000 		.4byte	0x883
 3580 0cc9 38050000 		.4byte	.LLST19
 3581 0ccd 3A       		.uleb128 0x3a
 3582 0cce D6010000 		.4byte	.LVL92
 3583 0cd2 09130000 		.4byte	0x1309
 3584 0cd6 3A       		.uleb128 0x3a
 3585 0cd7 DA010000 		.4byte	.LVL93
 3586 0cdb 1A130000 		.4byte	0x131a
 3587 0cdf 3B       		.uleb128 0x3b
 3588 0ce0 E0010000 		.4byte	.LVL94
 3589 0ce4 21130000 		.4byte	0x1321
 3590 0ce8 F30C0000 		.4byte	0xcf3
 3591 0cec 3C       		.uleb128 0x3c
 3592 0ced 01       		.uleb128 0x1
 3593 0cee 50       		.byte	0x50
 3594 0cef 02       		.uleb128 0x2
 3595 0cf0 7A       		.byte	0x7a
 3596 0cf1 00       		.sleb128 0
 3597 0cf2 00       		.byte	0
 3598 0cf3 3A       		.uleb128 0x3a
 3599 0cf4 0E020000 		.4byte	.LVL95
 3600 0cf8 36130000 		.4byte	0x1336
 3601 0cfc 3A       		.uleb128 0x3a
 3602 0cfd 04030000 		.4byte	.LVL106
 3603 0d01 4B130000 		.4byte	0x134b
 3604 0d05 00       		.byte	0
 3605 0d06 25       		.uleb128 0x25
 3606 0d07 5D080000 		.4byte	0x85d
 3607 0d0b 22020000 		.4byte	.LBB149
 3608 0d0f 80010000 		.4byte	.Ldebug_ranges0+0x180
 3609 0d13 01       		.byte	0x1
 3610 0d14 E0       		.byte	0xe0
 3611 0d15 990D0000 		.4byte	0xd99
 3612 0d19 28       		.uleb128 0x28
 3613 0d1a 6A080000 		.4byte	0x86a
 3614 0d1e 60050000 		.4byte	.LLST20
 3615 0d22 3A       		.uleb128 0x3a
 3616 0d23 5E040000 		.4byte	.LVL133
 3617 0d27 56130000 		.4byte	0x1356
 3618 0d2b 3B       		.uleb128 0x3b
ARM GAS  C:\Users\Patrick\AppData\Local\Temp\cc1OctCg.s 			page 117


 3619 0d2c 6C040000 		.4byte	.LVL134
 3620 0d30 61130000 		.4byte	0x1361
 3621 0d34 420D0000 		.4byte	0xd42
 3622 0d38 3C       		.uleb128 0x3c
 3623 0d39 01       		.uleb128 0x1
 3624 0d3a 50       		.byte	0x50
 3625 0d3b 05       		.uleb128 0x5
 3626 0d3c 91       		.byte	0x91
 3627 0d3d 9C7F     		.sleb128 -100
 3628 0d3f 94       		.byte	0x94
 3629 0d40 02       		.byte	0x2
 3630 0d41 00       		.byte	0
 3631 0d42 3A       		.uleb128 0x3a
 3632 0d43 A6040000 		.4byte	.LVL140
 3633 0d47 72130000 		.4byte	0x1372
 3634 0d4b 3B       		.uleb128 0x3b
 3635 0d4c C0040000 		.4byte	.LVL143
 3636 0d50 7D130000 		.4byte	0x137d
 3637 0d54 620D0000 		.4byte	0xd62
 3638 0d58 3C       		.uleb128 0x3c
 3639 0d59 01       		.uleb128 0x1
 3640 0d5a 50       		.byte	0x50
 3641 0d5b 05       		.uleb128 0x5
 3642 0d5c 91       		.byte	0x91
 3643 0d5d 9C7F     		.sleb128 -100
 3644 0d5f 94       		.byte	0x94
 3645 0d60 02       		.byte	0x2
 3646 0d61 00       		.byte	0
 3647 0d62 3A       		.uleb128 0x3a
 3648 0d63 E0040000 		.4byte	.LVL144
 3649 0d67 8E130000 		.4byte	0x138e
 3650 0d6b 3B       		.uleb128 0x3b
 3651 0d6c EA040000 		.4byte	.LVL145
 3652 0d70 99130000 		.4byte	0x1399
 3653 0d74 7F0D0000 		.4byte	0xd7f
 3654 0d78 3C       		.uleb128 0x3c
 3655 0d79 01       		.uleb128 0x1
 3656 0d7a 50       		.byte	0x50
 3657 0d7b 02       		.uleb128 0x2
 3658 0d7c 7A       		.byte	0x7a
 3659 0d7d 00       		.sleb128 0
 3660 0d7e 00       		.byte	0
 3661 0d7f 3A       		.uleb128 0x3a
 3662 0d80 20050000 		.4byte	.LVL151
 3663 0d84 AA130000 		.4byte	0x13aa
 3664 0d88 3D       		.uleb128 0x3d
 3665 0d89 36050000 		.4byte	.LVL154
 3666 0d8d B5130000 		.4byte	0x13b5
 3667 0d91 3C       		.uleb128 0x3c
 3668 0d92 01       		.uleb128 0x1
 3669 0d93 50       		.byte	0x50
 3670 0d94 02       		.uleb128 0x2
 3671 0d95 7A       		.byte	0x7a
 3672 0d96 00       		.sleb128 0
 3673 0d97 00       		.byte	0
 3674 0d98 00       		.byte	0
 3675 0d99 25       		.uleb128 0x25
ARM GAS  C:\Users\Patrick\AppData\Local\Temp\cc1OctCg.s 			page 118


 3676 0d9a 77080000 		.4byte	0x877
 3677 0d9e 52020000 		.4byte	.LBB152
 3678 0da2 98010000 		.4byte	.Ldebug_ranges0+0x198
 3679 0da6 01       		.byte	0x1
 3680 0da7 DA       		.byte	0xda
 3681 0da8 EE0D0000 		.4byte	0xdee
 3682 0dac 28       		.uleb128 0x28
 3683 0dad 83080000 		.4byte	0x883
 3684 0db1 88050000 		.4byte	.LLST21
 3685 0db5 3A       		.uleb128 0x3a
 3686 0db6 5A020000 		.4byte	.LVL100
 3687 0dba 09130000 		.4byte	0x1309
 3688 0dbe 3A       		.uleb128 0x3a
 3689 0dbf 5E020000 		.4byte	.LVL101
 3690 0dc3 1A130000 		.4byte	0x131a
 3691 0dc7 3B       		.uleb128 0x3b
 3692 0dc8 64020000 		.4byte	.LVL102
 3693 0dcc 21130000 		.4byte	0x1321
 3694 0dd0 DB0D0000 		.4byte	0xddb
 3695 0dd4 3C       		.uleb128 0x3c
 3696 0dd5 01       		.uleb128 0x1
 3697 0dd6 50       		.byte	0x50
 3698 0dd7 02       		.uleb128 0x2
 3699 0dd8 7A       		.byte	0x7a
 3700 0dd9 00       		.sleb128 0
 3701 0dda 00       		.byte	0
 3702 0ddb 3A       		.uleb128 0x3a
 3703 0ddc 90020000 		.4byte	.LVL103
 3704 0de0 36130000 		.4byte	0x1336
 3705 0de4 3A       		.uleb128 0x3a
 3706 0de5 36030000 		.4byte	.LVL108
 3707 0de9 4B130000 		.4byte	0x134b
 3708 0ded 00       		.byte	0
 3709 0dee 25       		.uleb128 0x25
 3710 0def 5D080000 		.4byte	0x85d
 3711 0df3 9A020000 		.4byte	.LBB155
 3712 0df7 B0010000 		.4byte	.Ldebug_ranges0+0x1b0
 3713 0dfb 01       		.byte	0x1
 3714 0dfc DD       		.byte	0xdd
 3715 0dfd 810E0000 		.4byte	0xe81
 3716 0e01 28       		.uleb128 0x28
 3717 0e02 6A080000 		.4byte	0x86a
 3718 0e06 B0050000 		.4byte	.LLST22
 3719 0e0a 3A       		.uleb128 0x3a
 3720 0e0b 6A030000 		.4byte	.LVL110
 3721 0e0f 56130000 		.4byte	0x1356
 3722 0e13 3B       		.uleb128 0x3b
 3723 0e14 78030000 		.4byte	.LVL111
 3724 0e18 61130000 		.4byte	0x1361
 3725 0e1c 2A0E0000 		.4byte	0xe2a
 3726 0e20 3C       		.uleb128 0x3c
 3727 0e21 01       		.uleb128 0x1
 3728 0e22 50       		.byte	0x50
 3729 0e23 05       		.uleb128 0x5
 3730 0e24 91       		.byte	0x91
 3731 0e25 9C7F     		.sleb128 -100
 3732 0e27 94       		.byte	0x94
ARM GAS  C:\Users\Patrick\AppData\Local\Temp\cc1OctCg.s 			page 119


 3733 0e28 02       		.byte	0x2
 3734 0e29 00       		.byte	0
 3735 0e2a 3A       		.uleb128 0x3a
 3736 0e2b B2030000 		.4byte	.LVL117
 3737 0e2f 72130000 		.4byte	0x1372
 3738 0e33 3B       		.uleb128 0x3b
 3739 0e34 CC030000 		.4byte	.LVL120
 3740 0e38 7D130000 		.4byte	0x137d
 3741 0e3c 4A0E0000 		.4byte	0xe4a
 3742 0e40 3C       		.uleb128 0x3c
 3743 0e41 01       		.uleb128 0x1
 3744 0e42 50       		.byte	0x50
 3745 0e43 05       		.uleb128 0x5
 3746 0e44 91       		.byte	0x91
 3747 0e45 9C7F     		.sleb128 -100
 3748 0e47 94       		.byte	0x94
 3749 0e48 02       		.byte	0x2
 3750 0e49 00       		.byte	0
 3751 0e4a 3A       		.uleb128 0x3a
 3752 0e4b EC030000 		.4byte	.LVL121
 3753 0e4f 8E130000 		.4byte	0x138e
 3754 0e53 3B       		.uleb128 0x3b
 3755 0e54 F6030000 		.4byte	.LVL122
 3756 0e58 99130000 		.4byte	0x1399
 3757 0e5c 670E0000 		.4byte	0xe67
 3758 0e60 3C       		.uleb128 0x3c
 3759 0e61 01       		.uleb128 0x1
 3760 0e62 50       		.byte	0x50
 3761 0e63 02       		.uleb128 0x2
 3762 0e64 7A       		.byte	0x7a
 3763 0e65 00       		.sleb128 0
 3764 0e66 00       		.byte	0
 3765 0e67 3A       		.uleb128 0x3a
 3766 0e68 2C040000 		.4byte	.LVL128
 3767 0e6c AA130000 		.4byte	0x13aa
 3768 0e70 3D       		.uleb128 0x3d
 3769 0e71 42040000 		.4byte	.LVL131
 3770 0e75 B5130000 		.4byte	0x13b5
 3771 0e79 3C       		.uleb128 0x3c
 3772 0e7a 01       		.uleb128 0x1
 3773 0e7b 50       		.byte	0x50
 3774 0e7c 02       		.uleb128 0x2
 3775 0e7d 7A       		.byte	0x7a
 3776 0e7e 00       		.sleb128 0
 3777 0e7f 00       		.byte	0
 3778 0e80 00       		.byte	0
 3779 0e81 3A       		.uleb128 0x3a
 3780 0e82 0E000000 		.4byte	.LVL59
 3781 0e86 C6130000 		.4byte	0x13c6
 3782 0e8a 3A       		.uleb128 0x3a
 3783 0e8b 16000000 		.4byte	.LVL60
 3784 0e8f CD130000 		.4byte	0x13cd
 3785 0e93 3A       		.uleb128 0x3a
 3786 0e94 1A000000 		.4byte	.LVL61
 3787 0e98 D4130000 		.4byte	0x13d4
 3788 0e9c 3A       		.uleb128 0x3a
 3789 0e9d 1E000000 		.4byte	.LVL62
ARM GAS  C:\Users\Patrick\AppData\Local\Temp\cc1OctCg.s 			page 120


 3790 0ea1 DB130000 		.4byte	0x13db
 3791 0ea5 3A       		.uleb128 0x3a
 3792 0ea6 22000000 		.4byte	.LVL63
 3793 0eaa E2130000 		.4byte	0x13e2
 3794 0eae 3A       		.uleb128 0x3a
 3795 0eaf 26000000 		.4byte	.LVL64
 3796 0eb3 E9130000 		.4byte	0x13e9
 3797 0eb7 3A       		.uleb128 0x3a
 3798 0eb8 2A000000 		.4byte	.LVL65
 3799 0ebc F0130000 		.4byte	0x13f0
 3800 0ec0 3B       		.uleb128 0x3b
 3801 0ec1 30000000 		.4byte	.LVL66
 3802 0ec5 09130000 		.4byte	0x1309
 3803 0ec9 D40E0000 		.4byte	0xed4
 3804 0ecd 3C       		.uleb128 0x3c
 3805 0ece 01       		.uleb128 0x1
 3806 0ecf 50       		.byte	0x50
 3807 0ed0 02       		.uleb128 0x2
 3808 0ed1 75       		.byte	0x75
 3809 0ed2 00       		.sleb128 0
 3810 0ed3 00       		.byte	0
 3811 0ed4 3A       		.uleb128 0x3a
 3812 0ed5 36000000 		.4byte	.LVL67
 3813 0ed9 F7130000 		.4byte	0x13f7
 3814 0edd 3A       		.uleb128 0x3a
 3815 0ede 3A000000 		.4byte	.LVL68
 3816 0ee2 02140000 		.4byte	0x1402
 3817 0ee6 3A       		.uleb128 0x3a
 3818 0ee7 3E000000 		.4byte	.LVL69
 3819 0eeb 09140000 		.4byte	0x1409
 3820 0eef 3B       		.uleb128 0x3b
 3821 0ef0 5A000000 		.4byte	.LVL70
 3822 0ef4 10140000 		.4byte	0x1410
 3823 0ef8 0F0F0000 		.4byte	0xf0f
 3824 0efc 3C       		.uleb128 0x3c
 3825 0efd 01       		.uleb128 0x1
 3826 0efe 52       		.byte	0x52
 3827 0eff 02       		.uleb128 0x2
 3828 0f00 08       		.byte	0x8
 3829 0f01 80       		.byte	0x80
 3830 0f02 3C       		.uleb128 0x3c
 3831 0f03 01       		.uleb128 0x1
 3832 0f04 51       		.byte	0x51
 3833 0f05 02       		.uleb128 0x2
 3834 0f06 75       		.byte	0x75
 3835 0f07 00       		.sleb128 0
 3836 0f08 3C       		.uleb128 0x3c
 3837 0f09 01       		.uleb128 0x1
 3838 0f0a 50       		.byte	0x50
 3839 0f0b 02       		.uleb128 0x2
 3840 0f0c 74       		.byte	0x74
 3841 0f0d 00       		.sleb128 0
 3842 0f0e 00       		.byte	0
 3843 0f0f 3B       		.uleb128 0x3b
 3844 0f10 78000000 		.4byte	.LVL71
 3845 0f14 10140000 		.4byte	0x1410
 3846 0f18 2F0F0000 		.4byte	0xf2f
ARM GAS  C:\Users\Patrick\AppData\Local\Temp\cc1OctCg.s 			page 121


 3847 0f1c 3C       		.uleb128 0x3c
 3848 0f1d 01       		.uleb128 0x1
 3849 0f1e 52       		.byte	0x52
 3850 0f1f 02       		.uleb128 0x2
 3851 0f20 08       		.byte	0x8
 3852 0f21 80       		.byte	0x80
 3853 0f22 3C       		.uleb128 0x3c
 3854 0f23 01       		.uleb128 0x1
 3855 0f24 51       		.byte	0x51
 3856 0f25 02       		.uleb128 0x2
 3857 0f26 75       		.byte	0x75
 3858 0f27 00       		.sleb128 0
 3859 0f28 3C       		.uleb128 0x3c
 3860 0f29 01       		.uleb128 0x1
 3861 0f2a 50       		.byte	0x50
 3862 0f2b 02       		.uleb128 0x2
 3863 0f2c 78       		.byte	0x78
 3864 0f2d 00       		.sleb128 0
 3865 0f2e 00       		.byte	0
 3866 0f2f 3B       		.uleb128 0x3b
 3867 0f30 92000000 		.4byte	.LVL72
 3868 0f34 10140000 		.4byte	0x1410
 3869 0f38 4F0F0000 		.4byte	0xf4f
 3870 0f3c 3C       		.uleb128 0x3c
 3871 0f3d 01       		.uleb128 0x1
 3872 0f3e 52       		.byte	0x52
 3873 0f3f 02       		.uleb128 0x2
 3874 0f40 08       		.byte	0x8
 3875 0f41 80       		.byte	0x80
 3876 0f42 3C       		.uleb128 0x3c
 3877 0f43 01       		.uleb128 0x1
 3878 0f44 51       		.byte	0x51
 3879 0f45 02       		.uleb128 0x2
 3880 0f46 75       		.byte	0x75
 3881 0f47 00       		.sleb128 0
 3882 0f48 3C       		.uleb128 0x3c
 3883 0f49 01       		.uleb128 0x1
 3884 0f4a 50       		.byte	0x50
 3885 0f4b 02       		.uleb128 0x2
 3886 0f4c 76       		.byte	0x76
 3887 0f4d 00       		.sleb128 0
 3888 0f4e 00       		.byte	0
 3889 0f4f 3B       		.uleb128 0x3b
 3890 0f50 AC000000 		.4byte	.LVL73
 3891 0f54 10140000 		.4byte	0x1410
 3892 0f58 6F0F0000 		.4byte	0xf6f
 3893 0f5c 3C       		.uleb128 0x3c
 3894 0f5d 01       		.uleb128 0x1
 3895 0f5e 52       		.byte	0x52
 3896 0f5f 02       		.uleb128 0x2
 3897 0f60 08       		.byte	0x8
 3898 0f61 80       		.byte	0x80
 3899 0f62 3C       		.uleb128 0x3c
 3900 0f63 01       		.uleb128 0x1
 3901 0f64 51       		.byte	0x51
 3902 0f65 02       		.uleb128 0x2
 3903 0f66 75       		.byte	0x75
ARM GAS  C:\Users\Patrick\AppData\Local\Temp\cc1OctCg.s 			page 122


 3904 0f67 00       		.sleb128 0
 3905 0f68 3C       		.uleb128 0x3c
 3906 0f69 01       		.uleb128 0x1
 3907 0f6a 50       		.byte	0x50
 3908 0f6b 02       		.uleb128 0x2
 3909 0f6c 77       		.byte	0x77
 3910 0f6d 00       		.sleb128 0
 3911 0f6e 00       		.byte	0
 3912 0f6f 3B       		.uleb128 0x3b
 3913 0f70 B4000000 		.4byte	.LVL74
 3914 0f74 2D140000 		.4byte	0x142d
 3915 0f78 8B0F0000 		.4byte	0xf8b
 3916 0f7c 3C       		.uleb128 0x3c
 3917 0f7d 01       		.uleb128 0x1
 3918 0f7e 51       		.byte	0x51
 3919 0f7f 05       		.uleb128 0x5
 3920 0f80 03       		.byte	0x3
 3921 0f81 00000000 		.4byte	SysTick_ISR
 3922 0f85 3C       		.uleb128 0x3c
 3923 0f86 01       		.uleb128 0x1
 3924 0f87 50       		.byte	0x50
 3925 0f88 01       		.uleb128 0x1
 3926 0f89 3F       		.byte	0x3f
 3927 0f8a 00       		.byte	0
 3928 0f8b 3B       		.uleb128 0x3b
 3929 0f8c 12010000 		.4byte	.LVL80
 3930 0f90 47140000 		.4byte	0x1447
 3931 0f94 A20F0000 		.4byte	0xfa2
 3932 0f98 3C       		.uleb128 0x3c
 3933 0f99 01       		.uleb128 0x1
 3934 0f9a 50       		.byte	0x50
 3935 0f9b 05       		.uleb128 0x5
 3936 0f9c 03       		.byte	0x3
 3937 0f9d 00000000 		.4byte	.LC0
 3938 0fa1 00       		.byte	0
 3939 0fa2 3A       		.uleb128 0x3a
 3940 0fa3 16010000 		.4byte	.LVL81
 3941 0fa7 63140000 		.4byte	0x1463
 3942 0fab 3B       		.uleb128 0x3b
 3943 0fac B4010000 		.4byte	.LVL87
 3944 0fb0 6E140000 		.4byte	0x146e
 3945 0fb4 CF0F0000 		.4byte	0xfcf
 3946 0fb8 3C       		.uleb128 0x3c
 3947 0fb9 01       		.uleb128 0x1
 3948 0fba 53       		.byte	0x53
 3949 0fbb 02       		.uleb128 0x2
 3950 0fbc 75       		.byte	0x75
 3951 0fbd 00       		.sleb128 0
 3952 0fbe 3C       		.uleb128 0x3c
 3953 0fbf 01       		.uleb128 0x1
 3954 0fc0 51       		.byte	0x51
 3955 0fc1 05       		.uleb128 0x5
 3956 0fc2 03       		.byte	0x3
 3957 0fc3 14000000 		.4byte	.LC1
 3958 0fc7 3C       		.uleb128 0x3c
 3959 0fc8 01       		.uleb128 0x1
 3960 0fc9 50       		.byte	0x50
ARM GAS  C:\Users\Patrick\AppData\Local\Temp\cc1OctCg.s 			page 123


 3961 0fca 03       		.uleb128 0x3
 3962 0fcb 91       		.byte	0x91
 3963 0fcc A47F     		.sleb128 -92
 3964 0fce 00       		.byte	0
 3965 0fcf 3D       		.uleb128 0x3d
 3966 0fd0 BA010000 		.4byte	.LVL88
 3967 0fd4 47140000 		.4byte	0x1447
 3968 0fd8 3C       		.uleb128 0x3c
 3969 0fd9 01       		.uleb128 0x1
 3970 0fda 50       		.byte	0x50
 3971 0fdb 03       		.uleb128 0x3
 3972 0fdc 91       		.byte	0x91
 3973 0fdd A47F     		.sleb128 -92
 3974 0fdf 00       		.byte	0
 3975 0fe0 00       		.byte	0
 3976 0fe1 0D       		.uleb128 0xd
 3977 0fe2 F7000000 		.4byte	0xf7
 3978 0fe6 F10F0000 		.4byte	0xff1
 3979 0fea 0E       		.uleb128 0xe
 3980 0feb 33010000 		.4byte	0x133
 3981 0fef 31       		.byte	0x31
 3982 0ff0 00       		.byte	0
 3983 0ff1 3E       		.uleb128 0x3e
 3984 0ff2 77080000 		.4byte	0x877
 3985 0ff6 00000000 		.4byte	.LFB69
 3986 0ffa 7A000000 		.4byte	.LFE69-.LFB69
 3987 0ffe 01       		.uleb128 0x1
 3988 0fff 9C       		.byte	0x9c
 3989 1000 45100000 		.4byte	0x1045
 3990 1004 28       		.uleb128 0x28
 3991 1005 83080000 		.4byte	0x883
 3992 1009 D8050000 		.4byte	.LLST23
 3993 100d 3A       		.uleb128 0x3a
 3994 100e 0C000000 		.4byte	.LVL157
 3995 1012 09130000 		.4byte	0x1309
 3996 1016 3A       		.uleb128 0x3a
 3997 1017 10000000 		.4byte	.LVL158
 3998 101b 1A130000 		.4byte	0x131a
 3999 101f 3B       		.uleb128 0x3b
 4000 1020 16000000 		.4byte	.LVL159
 4001 1024 21130000 		.4byte	0x1321
 4002 1028 32100000 		.4byte	0x1032
 4003 102c 3C       		.uleb128 0x3c
 4004 102d 01       		.uleb128 0x1
 4005 102e 50       		.byte	0x50
 4006 102f 01       		.uleb128 0x1
 4007 1030 30       		.byte	0x30
 4008 1031 00       		.byte	0
 4009 1032 3A       		.uleb128 0x3a
 4010 1033 40000000 		.4byte	.LVL160
 4011 1037 36130000 		.4byte	0x1336
 4012 103b 3A       		.uleb128 0x3a
 4013 103c 62000000 		.4byte	.LVL162
 4014 1040 4B130000 		.4byte	0x134b
 4015 1044 00       		.byte	0
 4016 1045 3F       		.uleb128 0x3f
 4017 1046 5D080000 		.4byte	0x85d
ARM GAS  C:\Users\Patrick\AppData\Local\Temp\cc1OctCg.s 			page 124


 4018 104a 00000000 		.4byte	.LFB70
 4019 104e 18010000 		.4byte	.LFE70-.LFB70
 4020 1052 01       		.uleb128 0x1
 4021 1053 9C       		.byte	0x9c
 4022 1054 D0100000 		.4byte	0x10d0
 4023 1058 28       		.uleb128 0x28
 4024 1059 6A080000 		.4byte	0x86a
 4025 105d F6050000 		.4byte	.LLST24
 4026 1061 3A       		.uleb128 0x3a
 4027 1062 46000000 		.4byte	.LVL166
 4028 1066 56130000 		.4byte	0x1356
 4029 106a 3B       		.uleb128 0x3b
 4030 106b 50000000 		.4byte	.LVL167
 4031 106f 61130000 		.4byte	0x1361
 4032 1073 7E100000 		.4byte	0x107e
 4033 1077 3C       		.uleb128 0x3c
 4034 1078 01       		.uleb128 0x1
 4035 1079 50       		.byte	0x50
 4036 107a 02       		.uleb128 0x2
 4037 107b 75       		.byte	0x75
 4038 107c 00       		.sleb128 0
 4039 107d 00       		.byte	0
 4040 107e 3A       		.uleb128 0x3a
 4041 107f 86000000 		.4byte	.LVL173
 4042 1083 72130000 		.4byte	0x1372
 4043 1087 3B       		.uleb128 0x3b
 4044 1088 9C000000 		.4byte	.LVL176
 4045 108c 7D130000 		.4byte	0x137d
 4046 1090 9B100000 		.4byte	0x109b
 4047 1094 3C       		.uleb128 0x3c
 4048 1095 01       		.uleb128 0x1
 4049 1096 50       		.byte	0x50
 4050 1097 02       		.uleb128 0x2
 4051 1098 75       		.byte	0x75
 4052 1099 00       		.sleb128 0
 4053 109a 00       		.byte	0
 4054 109b 3A       		.uleb128 0x3a
 4055 109c BA000000 		.4byte	.LVL177
 4056 10a0 8E130000 		.4byte	0x138e
 4057 10a4 3B       		.uleb128 0x3b
 4058 10a5 C4000000 		.4byte	.LVL178
 4059 10a9 99130000 		.4byte	0x1399
 4060 10ad B7100000 		.4byte	0x10b7
 4061 10b1 3C       		.uleb128 0x3c
 4062 10b2 01       		.uleb128 0x1
 4063 10b3 50       		.byte	0x50
 4064 10b4 01       		.uleb128 0x1
 4065 10b5 30       		.byte	0x30
 4066 10b6 00       		.byte	0
 4067 10b7 3A       		.uleb128 0x3a
 4068 10b8 FA000000 		.4byte	.LVL184
 4069 10bc AA130000 		.4byte	0x13aa
 4070 10c0 3D       		.uleb128 0x3d
 4071 10c1 10010000 		.4byte	.LVL187
 4072 10c5 B5130000 		.4byte	0x13b5
 4073 10c9 3C       		.uleb128 0x3c
 4074 10ca 01       		.uleb128 0x1
ARM GAS  C:\Users\Patrick\AppData\Local\Temp\cc1OctCg.s 			page 125


 4075 10cb 50       		.byte	0x50
 4076 10cc 01       		.uleb128 0x1
 4077 10cd 30       		.byte	0x30
 4078 10ce 00       		.byte	0
 4079 10cf 00       		.byte	0
 4080 10d0 3E       		.uleb128 0x3e
 4081 10d1 D5070000 		.4byte	0x7d5
 4082 10d5 00000000 		.4byte	.LFB71
 4083 10d9 1A000000 		.4byte	.LFE71-.LFB71
 4084 10dd 01       		.uleb128 0x1
 4085 10de 9C       		.byte	0x9c
 4086 10df 02110000 		.4byte	0x1102
 4087 10e3 26       		.uleb128 0x26
 4088 10e4 E2070000 		.4byte	0x7e2
 4089 10e8 01       		.uleb128 0x1
 4090 10e9 50       		.byte	0x50
 4091 10ea 26       		.uleb128 0x26
 4092 10eb EE070000 		.4byte	0x7ee
 4093 10ef 01       		.uleb128 0x1
 4094 10f0 51       		.byte	0x51
 4095 10f1 26       		.uleb128 0x26
 4096 10f2 FA070000 		.4byte	0x7fa
 4097 10f6 01       		.uleb128 0x1
 4098 10f7 52       		.byte	0x52
 4099 10f8 28       		.uleb128 0x28
 4100 10f9 06080000 		.4byte	0x806
 4101 10fd 2A060000 		.4byte	.LLST25
 4102 1101 00       		.byte	0
 4103 1102 3E       		.uleb128 0x3e
 4104 1103 63070000 		.4byte	0x763
 4105 1107 00000000 		.4byte	.LFB72
 4106 110b 18000000 		.4byte	.LFE72-.LFB72
 4107 110f 01       		.uleb128 0x1
 4108 1110 9C       		.byte	0x9c
 4109 1111 41110000 		.4byte	0x1141
 4110 1115 28       		.uleb128 0x28
 4111 1116 70070000 		.4byte	0x770
 4112 111a 4A060000 		.4byte	.LLST26
 4113 111e 35       		.uleb128 0x35
 4114 111f 7C070000 		.4byte	0x77c
 4115 1123 00       		.byte	0
 4116 1124 40       		.uleb128 0x40
 4117 1125 18000000 		.4byte	.LVL191
 4118 1129 10140000 		.4byte	0x1410
 4119 112d 3C       		.uleb128 0x3c
 4120 112e 01       		.uleb128 0x1
 4121 112f 52       		.byte	0x52
 4122 1130 02       		.uleb128 0x2
 4123 1131 08       		.byte	0x8
 4124 1132 80       		.byte	0x80
 4125 1133 3C       		.uleb128 0x3c
 4126 1134 01       		.uleb128 0x1
 4127 1135 51       		.byte	0x51
 4128 1136 01       		.uleb128 0x1
 4129 1137 30       		.byte	0x30
 4130 1138 3C       		.uleb128 0x3c
 4131 1139 01       		.uleb128 0x1
ARM GAS  C:\Users\Patrick\AppData\Local\Temp\cc1OctCg.s 			page 126


 4132 113a 50       		.byte	0x50
 4133 113b 03       		.uleb128 0x3
 4134 113c F3       		.byte	0xf3
 4135 113d 01       		.uleb128 0x1
 4136 113e 50       		.byte	0x50
 4137 113f 00       		.byte	0
 4138 1140 00       		.byte	0
 4139 1141 3E       		.uleb128 0x3e
 4140 1142 8D070000 		.4byte	0x78d
 4141 1146 00000000 		.4byte	.LFB73
 4142 114a 1A000000 		.4byte	.LFE73-.LFB73
 4143 114e 01       		.uleb128 0x1
 4144 114f 9C       		.byte	0x9c
 4145 1150 80110000 		.4byte	0x1180
 4146 1154 28       		.uleb128 0x28
 4147 1155 9A070000 		.4byte	0x79a
 4148 1159 6B060000 		.4byte	.LLST27
 4149 115d 35       		.uleb128 0x35
 4150 115e A6070000 		.4byte	0x7a6
 4151 1162 00       		.byte	0
 4152 1163 40       		.uleb128 0x40
 4153 1164 1A000000 		.4byte	.LVL193
 4154 1168 10140000 		.4byte	0x1410
 4155 116c 3C       		.uleb128 0x3c
 4156 116d 01       		.uleb128 0x1
 4157 116e 52       		.byte	0x52
 4158 116f 02       		.uleb128 0x2
 4159 1170 08       		.byte	0x8
 4160 1171 80       		.byte	0x80
 4161 1172 3C       		.uleb128 0x3c
 4162 1173 01       		.uleb128 0x1
 4163 1174 51       		.byte	0x51
 4164 1175 01       		.uleb128 0x1
 4165 1176 30       		.byte	0x30
 4166 1177 3C       		.uleb128 0x3c
 4167 1178 01       		.uleb128 0x1
 4168 1179 50       		.byte	0x50
 4169 117a 03       		.uleb128 0x3
 4170 117b F3       		.byte	0xf3
 4171 117c 01       		.uleb128 0x1
 4172 117d 50       		.byte	0x50
 4173 117e 00       		.byte	0
 4174 117f 00       		.byte	0
 4175 1180 30       		.uleb128 0x30
 4176 1181 34030000 		.4byte	.LASF129
 4177 1185 01       		.byte	0x1
 4178 1186 6501     		.2byte	0x165
 4179 1188 00000000 		.4byte	.LFB74
 4180 118c 2C000000 		.4byte	.LFE74-.LFB74
 4181 1190 01       		.uleb128 0x1
 4182 1191 9C       		.byte	0x9c
 4183 1192 0F120000 		.4byte	0x120f
 4184 1196 41       		.uleb128 0x41
 4185 1197 99000000 		.4byte	.LASF130
 4186 119b 01       		.byte	0x1
 4187 119c 6501     		.2byte	0x165
 4188 119e AD000000 		.4byte	0xad
ARM GAS  C:\Users\Patrick\AppData\Local\Temp\cc1OctCg.s 			page 127


 4189 11a2 01       		.uleb128 0x1
 4190 11a3 50       		.byte	0x50
 4191 11a4 42       		.uleb128 0x42
 4192 11a5 6F6E6500 		.ascii	"one\000"
 4193 11a9 01       		.byte	0x1
 4194 11aa 6501     		.2byte	0x165
 4195 11ac AD000000 		.4byte	0xad
 4196 11b0 01       		.uleb128 0x1
 4197 11b1 51       		.byte	0x51
 4198 11b2 42       		.uleb128 0x42
 4199 11b3 74776F00 		.ascii	"two\000"
 4200 11b7 01       		.byte	0x1
 4201 11b8 6501     		.2byte	0x165
 4202 11ba AD000000 		.4byte	0xad
 4203 11be 01       		.uleb128 0x1
 4204 11bf 52       		.byte	0x52
 4205 11c0 41       		.uleb128 0x41
 4206 11c1 9E050000 		.4byte	.LASF131
 4207 11c5 01       		.byte	0x1
 4208 11c6 6501     		.2byte	0x165
 4209 11c8 AD000000 		.4byte	0xad
 4210 11cc 01       		.uleb128 0x1
 4211 11cd 53       		.byte	0x53
 4212 11ce 31       		.uleb128 0x31
 4213 11cf 63050000 		.4byte	.LASF132
 4214 11d3 01       		.byte	0x1
 4215 11d4 6501     		.2byte	0x165
 4216 11d6 AD000000 		.4byte	0xad
 4217 11da 8C060000 		.4byte	.LLST28
 4218 11de 31       		.uleb128 0x31
 4219 11df 9B070000 		.4byte	.LASF133
 4220 11e3 01       		.byte	0x1
 4221 11e4 6501     		.2byte	0x165
 4222 11e6 AD000000 		.4byte	0xad
 4223 11ea AC060000 		.4byte	.LLST29
 4224 11ee 43       		.uleb128 0x43
 4225 11ef 73697800 		.ascii	"six\000"
 4226 11f3 01       		.byte	0x1
 4227 11f4 6501     		.2byte	0x165
 4228 11f6 AD000000 		.4byte	0xad
 4229 11fa CC060000 		.4byte	.LLST30
 4230 11fe 31       		.uleb128 0x31
 4231 11ff 3C040000 		.4byte	.LASF134
 4232 1203 01       		.byte	0x1
 4233 1204 6501     		.2byte	0x165
 4234 1206 AD000000 		.4byte	0xad
 4235 120a EC060000 		.4byte	.LLST31
 4236 120e 00       		.byte	0
 4237 120f 3E       		.uleb128 0x3e
 4238 1210 37080000 		.4byte	0x837
 4239 1214 00000000 		.4byte	.LFB75
 4240 1218 06000000 		.4byte	.LFE75-.LFB75
 4241 121c 01       		.uleb128 0x1
 4242 121d 9C       		.byte	0x9c
 4243 121e 31120000 		.4byte	0x1231
 4244 1222 26       		.uleb128 0x26
 4245 1223 44080000 		.4byte	0x844
ARM GAS  C:\Users\Patrick\AppData\Local\Temp\cc1OctCg.s 			page 128


 4246 1227 01       		.uleb128 0x1
 4247 1228 50       		.byte	0x50
 4248 1229 26       		.uleb128 0x26
 4249 122a 50080000 		.4byte	0x850
 4250 122e 01       		.uleb128 0x1
 4251 122f 51       		.byte	0x51
 4252 1230 00       		.byte	0
 4253 1231 3E       		.uleb128 0x3e
 4254 1232 19080000 		.4byte	0x819
 4255 1236 00000000 		.4byte	.LFB76
 4256 123a 14000000 		.4byte	.LFE76-.LFB76
 4257 123e 01       		.uleb128 0x1
 4258 123f 9C       		.byte	0x9c
 4259 1240 4E120000 		.4byte	0x124e
 4260 1244 28       		.uleb128 0x28
 4261 1245 2A080000 		.4byte	0x82a
 4262 1249 0C070000 		.4byte	.LLST32
 4263 124d 00       		.byte	0
 4264 124e 44       		.uleb128 0x44
 4265 124f 18050000 		.4byte	.LASF135
 4266 1253 03       		.byte	0x3
 4267 1254 9606     		.2byte	0x696
 4268 1256 5A120000 		.4byte	0x125a
 4269 125a 06       		.uleb128 0x6
 4270 125b 97000000 		.4byte	0x97
 4271 125f 45       		.uleb128 0x45
 4272 1260 82070000 		.4byte	.LASF136
 4273 1264 01       		.byte	0x1
 4274 1265 36       		.byte	0x36
 4275 1266 62010000 		.4byte	0x162
 4276 126a 05       		.uleb128 0x5
 4277 126b 03       		.byte	0x3
 4278 126c 00000000 		.4byte	TxMessage1
 4279 1270 45       		.uleb128 0x45
 4280 1271 5A030000 		.4byte	.LASF137
 4281 1275 01       		.byte	0x1
 4282 1276 37       		.byte	0x37
 4283 1277 62010000 		.4byte	0x162
 4284 127b 05       		.uleb128 0x5
 4285 127c 03       		.byte	0x3
 4286 127d 00000000 		.4byte	RxMessage1
 4287 1281 45       		.uleb128 0x45
 4288 1282 21020000 		.4byte	.LASF138
 4289 1286 01       		.byte	0x1
 4290 1287 38       		.byte	0x38
 4291 1288 AD000000 		.4byte	0xad
 4292 128c 05       		.uleb128 0x5
 4293 128d 03       		.byte	0x3
 4294 128e 00000000 		.4byte	RXDLC1
 4295 1292 45       		.uleb128 0x45
 4296 1293 27000000 		.4byte	.LASF139
 4297 1297 01       		.byte	0x1
 4298 1298 39       		.byte	0x39
 4299 1299 AD000000 		.4byte	0xad
 4300 129d 05       		.uleb128 0x5
 4301 129e 03       		.byte	0x3
 4302 129f 00000000 		.4byte	RxFlag1
ARM GAS  C:\Users\Patrick\AppData\Local\Temp\cc1OctCg.s 			page 129


 4303 12a3 45       		.uleb128 0x45
 4304 12a4 D2010000 		.4byte	.LASF140
 4305 12a8 02       		.byte	0x2
 4306 12a9 22       		.byte	0x22
 4307 12aa AD000000 		.4byte	0xad
 4308 12ae 05       		.uleb128 0x5
 4309 12af 03       		.byte	0x3
 4310 12b0 00000000 		.4byte	bIndex
 4311 12b4 45       		.uleb128 0x45
 4312 12b5 2A080000 		.4byte	.LASF141
 4313 12b9 01       		.byte	0x1
 4314 12ba 5C       		.byte	0x5c
 4315 12bb C5000000 		.4byte	0xc5
 4316 12bf 05       		.uleb128 0x5
 4317 12c0 03       		.byte	0x3
 4318 12c1 00000000 		.4byte	timer
 4319 12c5 45       		.uleb128 0x45
 4320 12c6 5D040000 		.4byte	.LASF142
 4321 12ca 01       		.byte	0x1
 4322 12cb 5E       		.byte	0x5e
 4323 12cc F6060000 		.4byte	0x6f6
 4324 12d0 05       		.uleb128 0x5
 4325 12d1 03       		.byte	0x3
 4326 12d2 00000000 		.4byte	steering
 4327 12d6 45       		.uleb128 0x45
 4328 12d7 21080000 		.4byte	.LASF143
 4329 12db 01       		.byte	0x1
 4330 12dc 5F       		.byte	0x5f
 4331 12dd F6060000 		.4byte	0x6f6
 4332 12e1 05       		.uleb128 0x5
 4333 12e2 03       		.byte	0x3
 4334 12e3 00000000 		.4byte	throttle
 4335 12e7 45       		.uleb128 0x45
 4336 12e8 A4050000 		.4byte	.LASF144
 4337 12ec 01       		.byte	0x1
 4338 12ed 60       		.byte	0x60
 4339 12ee 32070000 		.4byte	0x732
 4340 12f2 05       		.uleb128 0x5
 4341 12f3 03       		.byte	0x3
 4342 12f4 00000000 		.4byte	left
 4343 12f8 45       		.uleb128 0x45
 4344 12f9 AF030000 		.4byte	.LASF145
 4345 12fd 01       		.byte	0x1
 4346 12fe 61       		.byte	0x61
 4347 12ff 32070000 		.4byte	0x732
 4348 1303 05       		.uleb128 0x5
 4349 1304 03       		.byte	0x3
 4350 1305 00000000 		.4byte	right
 4351 1309 46       		.uleb128 0x46
 4352 130a 17040000 		.4byte	.LASF146
 4353 130e 09       		.byte	0x9
 4354 130f 20       		.byte	0x20
 4355 1310 1A130000 		.4byte	0x131a
 4356 1314 47       		.uleb128 0x47
 4357 1315 AD000000 		.4byte	0xad
 4358 1319 00       		.byte	0
 4359 131a 48       		.uleb128 0x48
ARM GAS  C:\Users\Patrick\AppData\Local\Temp\cc1OctCg.s 			page 130


 4360 131b 44000000 		.4byte	.LASF159
 4361 131f 0A       		.byte	0xa
 4362 1320 D1       		.byte	0xd1
 4363 1321 49       		.uleb128 0x49
 4364 1322 0D000000 		.4byte	.LASF148
 4365 1326 0A       		.byte	0xa
 4366 1327 39       		.byte	0x39
 4367 1328 AD000000 		.4byte	0xad
 4368 132c 36130000 		.4byte	0x1336
 4369 1330 47       		.uleb128 0x47
 4370 1331 AD000000 		.4byte	0xad
 4371 1335 00       		.byte	0
 4372 1336 49       		.uleb128 0x49
 4373 1337 28020000 		.4byte	.LASF149
 4374 133b 0A       		.byte	0xa
 4375 133c 3F       		.byte	0x3f
 4376 133d D1000000 		.4byte	0xd1
 4377 1341 4B130000 		.4byte	0x134b
 4378 1345 47       		.uleb128 0x47
 4379 1346 D1000000 		.4byte	0xd1
 4380 134a 00       		.byte	0
 4381 134b 4A       		.uleb128 0x4a
 4382 134c 3D030000 		.4byte	.LASF150
 4383 1350 0A       		.byte	0xa
 4384 1351 3B       		.byte	0x3b
 4385 1352 D1000000 		.4byte	0xd1
 4386 1356 4A       		.uleb128 0x4a
 4387 1357 05030000 		.4byte	.LASF151
 4388 135b 0B       		.byte	0xb
 4389 135c 5D       		.byte	0x5d
 4390 135d B9000000 		.4byte	0xb9
 4391 1361 46       		.uleb128 0x46
 4392 1362 5C020000 		.4byte	.LASF152
 4393 1366 0B       		.byte	0xb
 4394 1367 5A       		.byte	0x5a
 4395 1368 72130000 		.4byte	0x1372
 4396 136c 47       		.uleb128 0x47
 4397 136d B9000000 		.4byte	0xb9
 4398 1371 00       		.byte	0
 4399 1372 4A       		.uleb128 0x4a
 4400 1373 CB020000 		.4byte	.LASF153
 4401 1377 0C       		.byte	0xc
 4402 1378 5D       		.byte	0x5d
 4403 1379 B9000000 		.4byte	0xb9
 4404 137d 46       		.uleb128 0x46
 4405 137e 42020000 		.4byte	.LASF154
 4406 1382 0C       		.byte	0xc
 4407 1383 5A       		.byte	0x5a
 4408 1384 8E130000 		.4byte	0x138e
 4409 1388 47       		.uleb128 0x47
 4410 1389 B9000000 		.4byte	0xb9
 4411 138d 00       		.byte	0
 4412 138e 4A       		.uleb128 0x4a
 4413 138f 84060000 		.4byte	.LASF155
 4414 1393 0D       		.byte	0xd
 4415 1394 5D       		.byte	0x5d
 4416 1395 B9000000 		.4byte	0xb9
ARM GAS  C:\Users\Patrick\AppData\Local\Temp\cc1OctCg.s 			page 131


 4417 1399 46       		.uleb128 0x46
 4418 139a 42040000 		.4byte	.LASF156
 4419 139e 0D       		.byte	0xd
 4420 139f 5A       		.byte	0x5a
 4421 13a0 AA130000 		.4byte	0x13aa
 4422 13a4 47       		.uleb128 0x47
 4423 13a5 B9000000 		.4byte	0xb9
 4424 13a9 00       		.byte	0
 4425 13aa 4A       		.uleb128 0x4a
 4426 13ab C6000000 		.4byte	.LASF157
 4427 13af 0E       		.byte	0xe
 4428 13b0 5D       		.byte	0x5d
 4429 13b1 B9000000 		.4byte	0xb9
 4430 13b5 46       		.uleb128 0x46
 4431 13b6 CD060000 		.4byte	.LASF158
 4432 13ba 0E       		.byte	0xe
 4433 13bb 5A       		.byte	0x5a
 4434 13bc C6130000 		.4byte	0x13c6
 4435 13c0 47       		.uleb128 0x47
 4436 13c1 B9000000 		.4byte	0xb9
 4437 13c5 00       		.byte	0
 4438 13c6 48       		.uleb128 0x48
 4439 13c7 90020000 		.4byte	.LASF160
 4440 13cb 0A       		.byte	0xa
 4441 13cc 34       		.byte	0x34
 4442 13cd 48       		.uleb128 0x48
 4443 13ce 65060000 		.4byte	.LASF161
 4444 13d2 0F       		.byte	0xf
 4445 13d3 54       		.byte	0x54
 4446 13d4 48       		.uleb128 0x48
 4447 13d5 E8010000 		.4byte	.LASF162
 4448 13d9 09       		.byte	0x9
 4449 13da 1E       		.byte	0x1e
 4450 13db 48       		.uleb128 0x48
 4451 13dc 43080000 		.4byte	.LASF163
 4452 13e0 0B       		.byte	0xb
 4453 13e1 4F       		.byte	0x4f
 4454 13e2 48       		.uleb128 0x48
 4455 13e3 3B010000 		.4byte	.LASF164
 4456 13e7 0D       		.byte	0xd
 4457 13e8 4F       		.byte	0x4f
 4458 13e9 48       		.uleb128 0x48
 4459 13ea 7A050000 		.4byte	.LASF165
 4460 13ee 0C       		.byte	0xc
 4461 13ef 4F       		.byte	0x4f
 4462 13f0 48       		.uleb128 0x48
 4463 13f1 FE070000 		.4byte	.LASF166
 4464 13f5 0E       		.byte	0xe
 4465 13f6 4F       		.byte	0x4f
 4466 13f7 4A       		.uleb128 0x4a
 4467 13f8 E2030000 		.4byte	.LASF167
 4468 13fc 07       		.byte	0x7
 4469 13fd C5       		.byte	0xc5
 4470 13fe AD000000 		.4byte	0xad
 4471 1402 48       		.uleb128 0x48
 4472 1403 35080000 		.4byte	.LASF168
 4473 1407 10       		.byte	0x10
ARM GAS  C:\Users\Patrick\AppData\Local\Temp\cc1OctCg.s 			page 132


 4474 1408 17       		.byte	0x17
 4475 1409 48       		.uleb128 0x48
 4476 140a AC070000 		.4byte	.LASF169
 4477 140e 11       		.byte	0x11
 4478 140f 5A       		.byte	0x5a
 4479 1410 4B       		.uleb128 0x4b
 4480 1411 03040000 		.4byte	.LASF170
 4481 1415 3A010000 		.4byte	0x13a
 4482 1419 2D140000 		.4byte	0x142d
 4483 141d 47       		.uleb128 0x47
 4484 141e 3A010000 		.4byte	0x13a
 4485 1422 47       		.uleb128 0x47
 4486 1423 7E000000 		.4byte	0x7e
 4487 1427 47       		.uleb128 0x47
 4488 1428 33010000 		.4byte	0x133
 4489 142c 00       		.byte	0
 4490 142d 49       		.uleb128 0x49
 4491 142e 25050000 		.4byte	.LASF171
 4492 1432 12       		.byte	0x12
 4493 1433 84       		.byte	0x84
 4494 1434 20010000 		.4byte	0x120
 4495 1438 47140000 		.4byte	0x1447
 4496 143c 47       		.uleb128 0x47
 4497 143d AD000000 		.4byte	0xad
 4498 1441 47       		.uleb128 0x47
 4499 1442 20010000 		.4byte	0x120
 4500 1446 00       		.byte	0
 4501 1447 46       		.uleb128 0x46
 4502 1448 A0020000 		.4byte	.LASF172
 4503 144c 0F       		.byte	0xf
 4504 144d 8B       		.byte	0x8b
 4505 144e 58140000 		.4byte	0x1458
 4506 1452 47       		.uleb128 0x47
 4507 1453 58140000 		.4byte	0x1458
 4508 1457 00       		.byte	0
 4509 1458 07       		.uleb128 0x7
 4510 1459 04       		.byte	0x4
 4511 145a 5E140000 		.4byte	0x145e
 4512 145e 0A       		.uleb128 0xa
 4513 145f EB000000 		.4byte	0xeb
 4514 1463 4A       		.uleb128 0x4a
 4515 1464 0C020000 		.4byte	.LASF173
 4516 1468 0F       		.byte	0xf
 4517 1469 71       		.byte	0x71
 4518 146a AD000000 		.4byte	0xad
 4519 146e 4C       		.uleb128 0x4c
 4520 146f 90040000 		.4byte	.LASF174
 4521 1473 13       		.byte	0x13
 4522 1474 DE       		.byte	0xde
 4523 1475 7E000000 		.4byte	0x7e
 4524 1479 47       		.uleb128 0x47
 4525 147a 3C010000 		.4byte	0x13c
 4526 147e 47       		.uleb128 0x47
 4527 147f 42010000 		.4byte	0x142
 4528 1483 4D       		.uleb128 0x4d
 4529 1484 00       		.byte	0
 4530 1485 00       		.byte	0
ARM GAS  C:\Users\Patrick\AppData\Local\Temp\cc1OctCg.s 			page 133


 4531              		.section	.debug_abbrev,"",%progbits
 4532              	.Ldebug_abbrev0:
 4533 0000 01       		.uleb128 0x1
 4534 0001 11       		.uleb128 0x11
 4535 0002 01       		.byte	0x1
 4536 0003 25       		.uleb128 0x25
 4537 0004 0E       		.uleb128 0xe
 4538 0005 13       		.uleb128 0x13
 4539 0006 0B       		.uleb128 0xb
 4540 0007 03       		.uleb128 0x3
 4541 0008 0E       		.uleb128 0xe
 4542 0009 1B       		.uleb128 0x1b
 4543 000a 0E       		.uleb128 0xe
 4544 000b 55       		.uleb128 0x55
 4545 000c 17       		.uleb128 0x17
 4546 000d 11       		.uleb128 0x11
 4547 000e 01       		.uleb128 0x1
 4548 000f 10       		.uleb128 0x10
 4549 0010 17       		.uleb128 0x17
 4550 0011 00       		.byte	0
 4551 0012 00       		.byte	0
 4552 0013 02       		.uleb128 0x2
 4553 0014 24       		.uleb128 0x24
 4554 0015 00       		.byte	0
 4555 0016 0B       		.uleb128 0xb
 4556 0017 0B       		.uleb128 0xb
 4557 0018 3E       		.uleb128 0x3e
 4558 0019 0B       		.uleb128 0xb
 4559 001a 03       		.uleb128 0x3
 4560 001b 0E       		.uleb128 0xe
 4561 001c 00       		.byte	0
 4562 001d 00       		.byte	0
 4563 001e 03       		.uleb128 0x3
 4564 001f 16       		.uleb128 0x16
 4565 0020 00       		.byte	0
 4566 0021 03       		.uleb128 0x3
 4567 0022 0E       		.uleb128 0xe
 4568 0023 3A       		.uleb128 0x3a
 4569 0024 0B       		.uleb128 0xb
 4570 0025 3B       		.uleb128 0x3b
 4571 0026 0B       		.uleb128 0xb
 4572 0027 49       		.uleb128 0x49
 4573 0028 13       		.uleb128 0x13
 4574 0029 00       		.byte	0
 4575 002a 00       		.byte	0
 4576 002b 04       		.uleb128 0x4
 4577 002c 24       		.uleb128 0x24
 4578 002d 00       		.byte	0
 4579 002e 0B       		.uleb128 0xb
 4580 002f 0B       		.uleb128 0xb
 4581 0030 3E       		.uleb128 0x3e
 4582 0031 0B       		.uleb128 0xb
 4583 0032 03       		.uleb128 0x3
 4584 0033 08       		.uleb128 0x8
 4585 0034 00       		.byte	0
 4586 0035 00       		.byte	0
 4587 0036 05       		.uleb128 0x5
ARM GAS  C:\Users\Patrick\AppData\Local\Temp\cc1OctCg.s 			page 134


 4588 0037 16       		.uleb128 0x16
 4589 0038 00       		.byte	0
 4590 0039 03       		.uleb128 0x3
 4591 003a 0E       		.uleb128 0xe
 4592 003b 3A       		.uleb128 0x3a
 4593 003c 0B       		.uleb128 0xb
 4594 003d 3B       		.uleb128 0x3b
 4595 003e 05       		.uleb128 0x5
 4596 003f 49       		.uleb128 0x49
 4597 0040 13       		.uleb128 0x13
 4598 0041 00       		.byte	0
 4599 0042 00       		.byte	0
 4600 0043 06       		.uleb128 0x6
 4601 0044 35       		.uleb128 0x35
 4602 0045 00       		.byte	0
 4603 0046 49       		.uleb128 0x49
 4604 0047 13       		.uleb128 0x13
 4605 0048 00       		.byte	0
 4606 0049 00       		.byte	0
 4607 004a 07       		.uleb128 0x7
 4608 004b 0F       		.uleb128 0xf
 4609 004c 00       		.byte	0
 4610 004d 0B       		.uleb128 0xb
 4611 004e 0B       		.uleb128 0xb
 4612 004f 49       		.uleb128 0x49
 4613 0050 13       		.uleb128 0x13
 4614 0051 00       		.byte	0
 4615 0052 00       		.byte	0
 4616 0053 08       		.uleb128 0x8
 4617 0054 15       		.uleb128 0x15
 4618 0055 00       		.byte	0
 4619 0056 27       		.uleb128 0x27
 4620 0057 19       		.uleb128 0x19
 4621 0058 00       		.byte	0
 4622 0059 00       		.byte	0
 4623 005a 09       		.uleb128 0x9
 4624 005b 0F       		.uleb128 0xf
 4625 005c 00       		.byte	0
 4626 005d 0B       		.uleb128 0xb
 4627 005e 0B       		.uleb128 0xb
 4628 005f 00       		.byte	0
 4629 0060 00       		.byte	0
 4630 0061 0A       		.uleb128 0xa
 4631 0062 26       		.uleb128 0x26
 4632 0063 00       		.byte	0
 4633 0064 49       		.uleb128 0x49
 4634 0065 13       		.uleb128 0x13
 4635 0066 00       		.byte	0
 4636 0067 00       		.byte	0
 4637 0068 0B       		.uleb128 0xb
 4638 0069 13       		.uleb128 0x13
 4639 006a 01       		.byte	0x1
 4640 006b 0B       		.uleb128 0xb
 4641 006c 0B       		.uleb128 0xb
 4642 006d 3A       		.uleb128 0x3a
 4643 006e 0B       		.uleb128 0xb
 4644 006f 3B       		.uleb128 0x3b
ARM GAS  C:\Users\Patrick\AppData\Local\Temp\cc1OctCg.s 			page 135


 4645 0070 0B       		.uleb128 0xb
 4646 0071 01       		.uleb128 0x1
 4647 0072 13       		.uleb128 0x13
 4648 0073 00       		.byte	0
 4649 0074 00       		.byte	0
 4650 0075 0C       		.uleb128 0xc
 4651 0076 0D       		.uleb128 0xd
 4652 0077 00       		.byte	0
 4653 0078 03       		.uleb128 0x3
 4654 0079 0E       		.uleb128 0xe
 4655 007a 3A       		.uleb128 0x3a
 4656 007b 0B       		.uleb128 0xb
 4657 007c 3B       		.uleb128 0x3b
 4658 007d 0B       		.uleb128 0xb
 4659 007e 49       		.uleb128 0x49
 4660 007f 13       		.uleb128 0x13
 4661 0080 38       		.uleb128 0x38
 4662 0081 0B       		.uleb128 0xb
 4663 0082 00       		.byte	0
 4664 0083 00       		.byte	0
 4665 0084 0D       		.uleb128 0xd
 4666 0085 01       		.uleb128 0x1
 4667 0086 01       		.byte	0x1
 4668 0087 49       		.uleb128 0x49
 4669 0088 13       		.uleb128 0x13
 4670 0089 01       		.uleb128 0x1
 4671 008a 13       		.uleb128 0x13
 4672 008b 00       		.byte	0
 4673 008c 00       		.byte	0
 4674 008d 0E       		.uleb128 0xe
 4675 008e 21       		.uleb128 0x21
 4676 008f 00       		.byte	0
 4677 0090 49       		.uleb128 0x49
 4678 0091 13       		.uleb128 0x13
 4679 0092 2F       		.uleb128 0x2f
 4680 0093 0B       		.uleb128 0xb
 4681 0094 00       		.byte	0
 4682 0095 00       		.byte	0
 4683 0096 0F       		.uleb128 0xf
 4684 0097 0D       		.uleb128 0xd
 4685 0098 00       		.byte	0
 4686 0099 03       		.uleb128 0x3
 4687 009a 08       		.uleb128 0x8
 4688 009b 3A       		.uleb128 0x3a
 4689 009c 0B       		.uleb128 0xb
 4690 009d 3B       		.uleb128 0x3b
 4691 009e 0B       		.uleb128 0xb
 4692 009f 49       		.uleb128 0x49
 4693 00a0 13       		.uleb128 0x13
 4694 00a1 38       		.uleb128 0x38
 4695 00a2 0B       		.uleb128 0xb
 4696 00a3 00       		.byte	0
 4697 00a4 00       		.byte	0
 4698 00a5 10       		.uleb128 0x10
 4699 00a6 04       		.uleb128 0x4
 4700 00a7 01       		.byte	0x1
 4701 00a8 03       		.uleb128 0x3
ARM GAS  C:\Users\Patrick\AppData\Local\Temp\cc1OctCg.s 			page 136


 4702 00a9 0E       		.uleb128 0xe
 4703 00aa 0B       		.uleb128 0xb
 4704 00ab 0B       		.uleb128 0xb
 4705 00ac 3A       		.uleb128 0x3a
 4706 00ad 0B       		.uleb128 0xb
 4707 00ae 3B       		.uleb128 0x3b
 4708 00af 0B       		.uleb128 0xb
 4709 00b0 01       		.uleb128 0x1
 4710 00b1 13       		.uleb128 0x13
 4711 00b2 00       		.byte	0
 4712 00b3 00       		.byte	0
 4713 00b4 11       		.uleb128 0x11
 4714 00b5 28       		.uleb128 0x28
 4715 00b6 00       		.byte	0
 4716 00b7 03       		.uleb128 0x3
 4717 00b8 0E       		.uleb128 0xe
 4718 00b9 1C       		.uleb128 0x1c
 4719 00ba 0D       		.uleb128 0xd
 4720 00bb 00       		.byte	0
 4721 00bc 00       		.byte	0
 4722 00bd 12       		.uleb128 0x12
 4723 00be 13       		.uleb128 0x13
 4724 00bf 01       		.byte	0x1
 4725 00c0 0B       		.uleb128 0xb
 4726 00c1 05       		.uleb128 0x5
 4727 00c2 3A       		.uleb128 0x3a
 4728 00c3 0B       		.uleb128 0xb
 4729 00c4 3B       		.uleb128 0x3b
 4730 00c5 05       		.uleb128 0x5
 4731 00c6 01       		.uleb128 0x1
 4732 00c7 13       		.uleb128 0x13
 4733 00c8 00       		.byte	0
 4734 00c9 00       		.byte	0
 4735 00ca 13       		.uleb128 0x13
 4736 00cb 0D       		.uleb128 0xd
 4737 00cc 00       		.byte	0
 4738 00cd 03       		.uleb128 0x3
 4739 00ce 0E       		.uleb128 0xe
 4740 00cf 3A       		.uleb128 0x3a
 4741 00d0 0B       		.uleb128 0xb
 4742 00d1 3B       		.uleb128 0x3b
 4743 00d2 05       		.uleb128 0x5
 4744 00d3 49       		.uleb128 0x49
 4745 00d4 13       		.uleb128 0x13
 4746 00d5 38       		.uleb128 0x38
 4747 00d6 0B       		.uleb128 0xb
 4748 00d7 00       		.byte	0
 4749 00d8 00       		.byte	0
 4750 00d9 14       		.uleb128 0x14
 4751 00da 0D       		.uleb128 0xd
 4752 00db 00       		.byte	0
 4753 00dc 03       		.uleb128 0x3
 4754 00dd 0E       		.uleb128 0xe
 4755 00de 3A       		.uleb128 0x3a
 4756 00df 0B       		.uleb128 0xb
 4757 00e0 3B       		.uleb128 0x3b
 4758 00e1 05       		.uleb128 0x5
ARM GAS  C:\Users\Patrick\AppData\Local\Temp\cc1OctCg.s 			page 137


 4759 00e2 49       		.uleb128 0x49
 4760 00e3 13       		.uleb128 0x13
 4761 00e4 38       		.uleb128 0x38
 4762 00e5 05       		.uleb128 0x5
 4763 00e6 00       		.byte	0
 4764 00e7 00       		.byte	0
 4765 00e8 15       		.uleb128 0x15
 4766 00e9 0D       		.uleb128 0xd
 4767 00ea 00       		.byte	0
 4768 00eb 03       		.uleb128 0x3
 4769 00ec 08       		.uleb128 0x8
 4770 00ed 3A       		.uleb128 0x3a
 4771 00ee 0B       		.uleb128 0xb
 4772 00ef 3B       		.uleb128 0x3b
 4773 00f0 05       		.uleb128 0x5
 4774 00f1 49       		.uleb128 0x49
 4775 00f2 13       		.uleb128 0x13
 4776 00f3 38       		.uleb128 0x38
 4777 00f4 05       		.uleb128 0x5
 4778 00f5 00       		.byte	0
 4779 00f6 00       		.byte	0
 4780 00f7 16       		.uleb128 0x16
 4781 00f8 21       		.uleb128 0x21
 4782 00f9 00       		.byte	0
 4783 00fa 49       		.uleb128 0x49
 4784 00fb 13       		.uleb128 0x13
 4785 00fc 2F       		.uleb128 0x2f
 4786 00fd 05       		.uleb128 0x5
 4787 00fe 00       		.byte	0
 4788 00ff 00       		.byte	0
 4789 0100 17       		.uleb128 0x17
 4790 0101 13       		.uleb128 0x13
 4791 0102 01       		.byte	0x1
 4792 0103 0B       		.uleb128 0xb
 4793 0104 0B       		.uleb128 0xb
 4794 0105 3A       		.uleb128 0x3a
 4795 0106 0B       		.uleb128 0xb
 4796 0107 3B       		.uleb128 0x3b
 4797 0108 05       		.uleb128 0x5
 4798 0109 01       		.uleb128 0x1
 4799 010a 13       		.uleb128 0x13
 4800 010b 00       		.byte	0
 4801 010c 00       		.byte	0
 4802 010d 18       		.uleb128 0x18
 4803 010e 0D       		.uleb128 0xd
 4804 010f 00       		.byte	0
 4805 0110 03       		.uleb128 0x3
 4806 0111 08       		.uleb128 0x8
 4807 0112 3A       		.uleb128 0x3a
 4808 0113 0B       		.uleb128 0xb
 4809 0114 3B       		.uleb128 0x3b
 4810 0115 05       		.uleb128 0x5
 4811 0116 49       		.uleb128 0x49
 4812 0117 13       		.uleb128 0x13
 4813 0118 38       		.uleb128 0x38
 4814 0119 0B       		.uleb128 0xb
 4815 011a 00       		.byte	0
ARM GAS  C:\Users\Patrick\AppData\Local\Temp\cc1OctCg.s 			page 138


 4816 011b 00       		.byte	0
 4817 011c 19       		.uleb128 0x19
 4818 011d 13       		.uleb128 0x13
 4819 011e 01       		.byte	0x1
 4820 011f 03       		.uleb128 0x3
 4821 0120 0E       		.uleb128 0xe
 4822 0121 0B       		.uleb128 0xb
 4823 0122 0B       		.uleb128 0xb
 4824 0123 3A       		.uleb128 0x3a
 4825 0124 0B       		.uleb128 0xb
 4826 0125 3B       		.uleb128 0x3b
 4827 0126 0B       		.uleb128 0xb
 4828 0127 01       		.uleb128 0x1
 4829 0128 13       		.uleb128 0x13
 4830 0129 00       		.byte	0
 4831 012a 00       		.byte	0
 4832 012b 1A       		.uleb128 0x1a
 4833 012c 16       		.uleb128 0x16
 4834 012d 00       		.byte	0
 4835 012e 03       		.uleb128 0x3
 4836 012f 08       		.uleb128 0x8
 4837 0130 3A       		.uleb128 0x3a
 4838 0131 0B       		.uleb128 0xb
 4839 0132 3B       		.uleb128 0x3b
 4840 0133 0B       		.uleb128 0xb
 4841 0134 49       		.uleb128 0x49
 4842 0135 13       		.uleb128 0x13
 4843 0136 00       		.byte	0
 4844 0137 00       		.byte	0
 4845 0138 1B       		.uleb128 0x1b
 4846 0139 2E       		.uleb128 0x2e
 4847 013a 01       		.byte	0x1
 4848 013b 03       		.uleb128 0x3
 4849 013c 0E       		.uleb128 0xe
 4850 013d 3A       		.uleb128 0x3a
 4851 013e 0B       		.uleb128 0xb
 4852 013f 3B       		.uleb128 0x3b
 4853 0140 05       		.uleb128 0x5
 4854 0141 27       		.uleb128 0x27
 4855 0142 19       		.uleb128 0x19
 4856 0143 20       		.uleb128 0x20
 4857 0144 0B       		.uleb128 0xb
 4858 0145 01       		.uleb128 0x1
 4859 0146 13       		.uleb128 0x13
 4860 0147 00       		.byte	0
 4861 0148 00       		.byte	0
 4862 0149 1C       		.uleb128 0x1c
 4863 014a 05       		.uleb128 0x5
 4864 014b 00       		.byte	0
 4865 014c 03       		.uleb128 0x3
 4866 014d 0E       		.uleb128 0xe
 4867 014e 3A       		.uleb128 0x3a
 4868 014f 0B       		.uleb128 0xb
 4869 0150 3B       		.uleb128 0x3b
 4870 0151 05       		.uleb128 0x5
 4871 0152 49       		.uleb128 0x49
 4872 0153 13       		.uleb128 0x13
ARM GAS  C:\Users\Patrick\AppData\Local\Temp\cc1OctCg.s 			page 139


 4873 0154 00       		.byte	0
 4874 0155 00       		.byte	0
 4875 0156 1D       		.uleb128 0x1d
 4876 0157 2E       		.uleb128 0x2e
 4877 0158 01       		.byte	0x1
 4878 0159 3F       		.uleb128 0x3f
 4879 015a 19       		.uleb128 0x19
 4880 015b 03       		.uleb128 0x3
 4881 015c 0E       		.uleb128 0xe
 4882 015d 3A       		.uleb128 0x3a
 4883 015e 0B       		.uleb128 0xb
 4884 015f 3B       		.uleb128 0x3b
 4885 0160 05       		.uleb128 0x5
 4886 0161 27       		.uleb128 0x27
 4887 0162 19       		.uleb128 0x19
 4888 0163 20       		.uleb128 0x20
 4889 0164 0B       		.uleb128 0xb
 4890 0165 01       		.uleb128 0x1
 4891 0166 13       		.uleb128 0x13
 4892 0167 00       		.byte	0
 4893 0168 00       		.byte	0
 4894 0169 1E       		.uleb128 0x1e
 4895 016a 05       		.uleb128 0x5
 4896 016b 00       		.byte	0
 4897 016c 03       		.uleb128 0x3
 4898 016d 08       		.uleb128 0x8
 4899 016e 3A       		.uleb128 0x3a
 4900 016f 0B       		.uleb128 0xb
 4901 0170 3B       		.uleb128 0x3b
 4902 0171 05       		.uleb128 0x5
 4903 0172 49       		.uleb128 0x49
 4904 0173 13       		.uleb128 0x13
 4905 0174 00       		.byte	0
 4906 0175 00       		.byte	0
 4907 0176 1F       		.uleb128 0x1f
 4908 0177 34       		.uleb128 0x34
 4909 0178 00       		.byte	0
 4910 0179 03       		.uleb128 0x3
 4911 017a 08       		.uleb128 0x8
 4912 017b 3A       		.uleb128 0x3a
 4913 017c 0B       		.uleb128 0xb
 4914 017d 3B       		.uleb128 0x3b
 4915 017e 05       		.uleb128 0x5
 4916 017f 49       		.uleb128 0x49
 4917 0180 13       		.uleb128 0x13
 4918 0181 00       		.byte	0
 4919 0182 00       		.byte	0
 4920 0183 20       		.uleb128 0x20
 4921 0184 2E       		.uleb128 0x2e
 4922 0185 01       		.byte	0x1
 4923 0186 03       		.uleb128 0x3
 4924 0187 0E       		.uleb128 0xe
 4925 0188 3A       		.uleb128 0x3a
 4926 0189 0B       		.uleb128 0xb
 4927 018a 3B       		.uleb128 0x3b
 4928 018b 05       		.uleb128 0x5
 4929 018c 27       		.uleb128 0x27
ARM GAS  C:\Users\Patrick\AppData\Local\Temp\cc1OctCg.s 			page 140


 4930 018d 19       		.uleb128 0x19
 4931 018e 49       		.uleb128 0x49
 4932 018f 13       		.uleb128 0x13
 4933 0190 20       		.uleb128 0x20
 4934 0191 0B       		.uleb128 0xb
 4935 0192 01       		.uleb128 0x1
 4936 0193 13       		.uleb128 0x13
 4937 0194 00       		.byte	0
 4938 0195 00       		.byte	0
 4939 0196 21       		.uleb128 0x21
 4940 0197 2E       		.uleb128 0x2e
 4941 0198 01       		.byte	0x1
 4942 0199 3F       		.uleb128 0x3f
 4943 019a 19       		.uleb128 0x19
 4944 019b 03       		.uleb128 0x3
 4945 019c 0E       		.uleb128 0xe
 4946 019d 3A       		.uleb128 0x3a
 4947 019e 0B       		.uleb128 0xb
 4948 019f 3B       		.uleb128 0x3b
 4949 01a0 05       		.uleb128 0x5
 4950 01a1 27       		.uleb128 0x27
 4951 01a2 19       		.uleb128 0x19
 4952 01a3 49       		.uleb128 0x49
 4953 01a4 13       		.uleb128 0x13
 4954 01a5 20       		.uleb128 0x20
 4955 01a6 0B       		.uleb128 0xb
 4956 01a7 01       		.uleb128 0x1
 4957 01a8 13       		.uleb128 0x13
 4958 01a9 00       		.byte	0
 4959 01aa 00       		.byte	0
 4960 01ab 22       		.uleb128 0x22
 4961 01ac 2E       		.uleb128 0x2e
 4962 01ad 01       		.byte	0x1
 4963 01ae 3F       		.uleb128 0x3f
 4964 01af 19       		.uleb128 0x19
 4965 01b0 03       		.uleb128 0x3
 4966 01b1 0E       		.uleb128 0xe
 4967 01b2 3A       		.uleb128 0x3a
 4968 01b3 0B       		.uleb128 0xb
 4969 01b4 3B       		.uleb128 0x3b
 4970 01b5 0B       		.uleb128 0xb
 4971 01b6 27       		.uleb128 0x27
 4972 01b7 19       		.uleb128 0x19
 4973 01b8 20       		.uleb128 0x20
 4974 01b9 0B       		.uleb128 0xb
 4975 01ba 01       		.uleb128 0x1
 4976 01bb 13       		.uleb128 0x13
 4977 01bc 00       		.byte	0
 4978 01bd 00       		.byte	0
 4979 01be 23       		.uleb128 0x23
 4980 01bf 05       		.uleb128 0x5
 4981 01c0 00       		.byte	0
 4982 01c1 03       		.uleb128 0x3
 4983 01c2 08       		.uleb128 0x8
 4984 01c3 3A       		.uleb128 0x3a
 4985 01c4 0B       		.uleb128 0xb
 4986 01c5 3B       		.uleb128 0x3b
ARM GAS  C:\Users\Patrick\AppData\Local\Temp\cc1OctCg.s 			page 141


 4987 01c6 0B       		.uleb128 0xb
 4988 01c7 49       		.uleb128 0x49
 4989 01c8 13       		.uleb128 0x13
 4990 01c9 00       		.byte	0
 4991 01ca 00       		.byte	0
 4992 01cb 24       		.uleb128 0x24
 4993 01cc 2E       		.uleb128 0x2e
 4994 01cd 01       		.byte	0x1
 4995 01ce 3F       		.uleb128 0x3f
 4996 01cf 19       		.uleb128 0x19
 4997 01d0 03       		.uleb128 0x3
 4998 01d1 0E       		.uleb128 0xe
 4999 01d2 3A       		.uleb128 0x3a
 5000 01d3 0B       		.uleb128 0xb
 5001 01d4 3B       		.uleb128 0x3b
 5002 01d5 0B       		.uleb128 0xb
 5003 01d6 27       		.uleb128 0x27
 5004 01d7 19       		.uleb128 0x19
 5005 01d8 11       		.uleb128 0x11
 5006 01d9 01       		.uleb128 0x1
 5007 01da 12       		.uleb128 0x12
 5008 01db 06       		.uleb128 0x6
 5009 01dc 40       		.uleb128 0x40
 5010 01dd 18       		.uleb128 0x18
 5011 01de 9742     		.uleb128 0x2117
 5012 01e0 19       		.uleb128 0x19
 5013 01e1 01       		.uleb128 0x1
 5014 01e2 13       		.uleb128 0x13
 5015 01e3 00       		.byte	0
 5016 01e4 00       		.byte	0
 5017 01e5 25       		.uleb128 0x25
 5018 01e6 1D       		.uleb128 0x1d
 5019 01e7 01       		.byte	0x1
 5020 01e8 31       		.uleb128 0x31
 5021 01e9 13       		.uleb128 0x13
 5022 01ea 52       		.uleb128 0x52
 5023 01eb 01       		.uleb128 0x1
 5024 01ec 55       		.uleb128 0x55
 5025 01ed 17       		.uleb128 0x17
 5026 01ee 58       		.uleb128 0x58
 5027 01ef 0B       		.uleb128 0xb
 5028 01f0 59       		.uleb128 0x59
 5029 01f1 0B       		.uleb128 0xb
 5030 01f2 01       		.uleb128 0x1
 5031 01f3 13       		.uleb128 0x13
 5032 01f4 00       		.byte	0
 5033 01f5 00       		.byte	0
 5034 01f6 26       		.uleb128 0x26
 5035 01f7 05       		.uleb128 0x5
 5036 01f8 00       		.byte	0
 5037 01f9 31       		.uleb128 0x31
 5038 01fa 13       		.uleb128 0x13
 5039 01fb 02       		.uleb128 0x2
 5040 01fc 18       		.uleb128 0x18
 5041 01fd 00       		.byte	0
 5042 01fe 00       		.byte	0
 5043 01ff 27       		.uleb128 0x27
ARM GAS  C:\Users\Patrick\AppData\Local\Temp\cc1OctCg.s 			page 142


 5044 0200 1D       		.uleb128 0x1d
 5045 0201 01       		.byte	0x1
 5046 0202 31       		.uleb128 0x31
 5047 0203 13       		.uleb128 0x13
 5048 0204 11       		.uleb128 0x11
 5049 0205 01       		.uleb128 0x1
 5050 0206 12       		.uleb128 0x12
 5051 0207 06       		.uleb128 0x6
 5052 0208 58       		.uleb128 0x58
 5053 0209 0B       		.uleb128 0xb
 5054 020a 59       		.uleb128 0x59
 5055 020b 0B       		.uleb128 0xb
 5056 020c 01       		.uleb128 0x1
 5057 020d 13       		.uleb128 0x13
 5058 020e 00       		.byte	0
 5059 020f 00       		.byte	0
 5060 0210 28       		.uleb128 0x28
 5061 0211 05       		.uleb128 0x5
 5062 0212 00       		.byte	0
 5063 0213 31       		.uleb128 0x31
 5064 0214 13       		.uleb128 0x13
 5065 0215 02       		.uleb128 0x2
 5066 0216 17       		.uleb128 0x17
 5067 0217 00       		.byte	0
 5068 0218 00       		.byte	0
 5069 0219 29       		.uleb128 0x29
 5070 021a 1D       		.uleb128 0x1d
 5071 021b 01       		.byte	0x1
 5072 021c 31       		.uleb128 0x31
 5073 021d 13       		.uleb128 0x13
 5074 021e 11       		.uleb128 0x11
 5075 021f 01       		.uleb128 0x1
 5076 0220 12       		.uleb128 0x12
 5077 0221 06       		.uleb128 0x6
 5078 0222 58       		.uleb128 0x58
 5079 0223 0B       		.uleb128 0xb
 5080 0224 59       		.uleb128 0x59
 5081 0225 0B       		.uleb128 0xb
 5082 0226 00       		.byte	0
 5083 0227 00       		.byte	0
 5084 0228 2A       		.uleb128 0x2a
 5085 0229 2E       		.uleb128 0x2e
 5086 022a 01       		.byte	0x1
 5087 022b 3F       		.uleb128 0x3f
 5088 022c 19       		.uleb128 0x19
 5089 022d 03       		.uleb128 0x3
 5090 022e 0E       		.uleb128 0xe
 5091 022f 3A       		.uleb128 0x3a
 5092 0230 0B       		.uleb128 0xb
 5093 0231 3B       		.uleb128 0x3b
 5094 0232 0B       		.uleb128 0xb
 5095 0233 27       		.uleb128 0x27
 5096 0234 19       		.uleb128 0x19
 5097 0235 49       		.uleb128 0x49
 5098 0236 13       		.uleb128 0x13
 5099 0237 11       		.uleb128 0x11
 5100 0238 01       		.uleb128 0x1
ARM GAS  C:\Users\Patrick\AppData\Local\Temp\cc1OctCg.s 			page 143


 5101 0239 12       		.uleb128 0x12
 5102 023a 06       		.uleb128 0x6
 5103 023b 40       		.uleb128 0x40
 5104 023c 18       		.uleb128 0x18
 5105 023d 9742     		.uleb128 0x2117
 5106 023f 19       		.uleb128 0x19
 5107 0240 01       		.uleb128 0x1
 5108 0241 13       		.uleb128 0x13
 5109 0242 00       		.byte	0
 5110 0243 00       		.byte	0
 5111 0244 2B       		.uleb128 0x2b
 5112 0245 05       		.uleb128 0x5
 5113 0246 00       		.byte	0
 5114 0247 03       		.uleb128 0x3
 5115 0248 0E       		.uleb128 0xe
 5116 0249 3A       		.uleb128 0x3a
 5117 024a 0B       		.uleb128 0xb
 5118 024b 3B       		.uleb128 0x3b
 5119 024c 0B       		.uleb128 0xb
 5120 024d 49       		.uleb128 0x49
 5121 024e 13       		.uleb128 0x13
 5122 024f 02       		.uleb128 0x2
 5123 0250 17       		.uleb128 0x17
 5124 0251 00       		.byte	0
 5125 0252 00       		.byte	0
 5126 0253 2C       		.uleb128 0x2c
 5127 0254 34       		.uleb128 0x34
 5128 0255 00       		.byte	0
 5129 0256 03       		.uleb128 0x3
 5130 0257 08       		.uleb128 0x8
 5131 0258 3A       		.uleb128 0x3a
 5132 0259 0B       		.uleb128 0xb
 5133 025a 3B       		.uleb128 0x3b
 5134 025b 0B       		.uleb128 0xb
 5135 025c 49       		.uleb128 0x49
 5136 025d 13       		.uleb128 0x13
 5137 025e 02       		.uleb128 0x2
 5138 025f 17       		.uleb128 0x17
 5139 0260 00       		.byte	0
 5140 0261 00       		.byte	0
 5141 0262 2D       		.uleb128 0x2d
 5142 0263 34       		.uleb128 0x34
 5143 0264 00       		.byte	0
 5144 0265 03       		.uleb128 0x3
 5145 0266 0E       		.uleb128 0xe
 5146 0267 3A       		.uleb128 0x3a
 5147 0268 0B       		.uleb128 0xb
 5148 0269 3B       		.uleb128 0x3b
 5149 026a 0B       		.uleb128 0xb
 5150 026b 49       		.uleb128 0x49
 5151 026c 13       		.uleb128 0x13
 5152 026d 02       		.uleb128 0x2
 5153 026e 17       		.uleb128 0x17
 5154 026f 00       		.byte	0
 5155 0270 00       		.byte	0
 5156 0271 2E       		.uleb128 0x2e
 5157 0272 34       		.uleb128 0x34
ARM GAS  C:\Users\Patrick\AppData\Local\Temp\cc1OctCg.s 			page 144


 5158 0273 00       		.byte	0
 5159 0274 03       		.uleb128 0x3
 5160 0275 0E       		.uleb128 0xe
 5161 0276 3A       		.uleb128 0x3a
 5162 0277 0B       		.uleb128 0xb
 5163 0278 3B       		.uleb128 0x3b
 5164 0279 0B       		.uleb128 0xb
 5165 027a 49       		.uleb128 0x49
 5166 027b 13       		.uleb128 0x13
 5167 027c 00       		.byte	0
 5168 027d 00       		.byte	0
 5169 027e 2F       		.uleb128 0x2f
 5170 027f 34       		.uleb128 0x34
 5171 0280 00       		.byte	0
 5172 0281 03       		.uleb128 0x3
 5173 0282 0E       		.uleb128 0xe
 5174 0283 3A       		.uleb128 0x3a
 5175 0284 0B       		.uleb128 0xb
 5176 0285 3B       		.uleb128 0x3b
 5177 0286 0B       		.uleb128 0xb
 5178 0287 49       		.uleb128 0x49
 5179 0288 13       		.uleb128 0x13
 5180 0289 1C       		.uleb128 0x1c
 5181 028a 0B       		.uleb128 0xb
 5182 028b 00       		.byte	0
 5183 028c 00       		.byte	0
 5184 028d 30       		.uleb128 0x30
 5185 028e 2E       		.uleb128 0x2e
 5186 028f 01       		.byte	0x1
 5187 0290 3F       		.uleb128 0x3f
 5188 0291 19       		.uleb128 0x19
 5189 0292 03       		.uleb128 0x3
 5190 0293 0E       		.uleb128 0xe
 5191 0294 3A       		.uleb128 0x3a
 5192 0295 0B       		.uleb128 0xb
 5193 0296 3B       		.uleb128 0x3b
 5194 0297 05       		.uleb128 0x5
 5195 0298 27       		.uleb128 0x27
 5196 0299 19       		.uleb128 0x19
 5197 029a 11       		.uleb128 0x11
 5198 029b 01       		.uleb128 0x1
 5199 029c 12       		.uleb128 0x12
 5200 029d 06       		.uleb128 0x6
 5201 029e 40       		.uleb128 0x40
 5202 029f 18       		.uleb128 0x18
 5203 02a0 9742     		.uleb128 0x2117
 5204 02a2 19       		.uleb128 0x19
 5205 02a3 01       		.uleb128 0x1
 5206 02a4 13       		.uleb128 0x13
 5207 02a5 00       		.byte	0
 5208 02a6 00       		.byte	0
 5209 02a7 31       		.uleb128 0x31
 5210 02a8 05       		.uleb128 0x5
 5211 02a9 00       		.byte	0
 5212 02aa 03       		.uleb128 0x3
 5213 02ab 0E       		.uleb128 0xe
 5214 02ac 3A       		.uleb128 0x3a
ARM GAS  C:\Users\Patrick\AppData\Local\Temp\cc1OctCg.s 			page 145


 5215 02ad 0B       		.uleb128 0xb
 5216 02ae 3B       		.uleb128 0x3b
 5217 02af 05       		.uleb128 0x5
 5218 02b0 49       		.uleb128 0x49
 5219 02b1 13       		.uleb128 0x13
 5220 02b2 02       		.uleb128 0x2
 5221 02b3 17       		.uleb128 0x17
 5222 02b4 00       		.byte	0
 5223 02b5 00       		.byte	0
 5224 02b6 32       		.uleb128 0x32
 5225 02b7 2E       		.uleb128 0x2e
 5226 02b8 01       		.byte	0x1
 5227 02b9 3F       		.uleb128 0x3f
 5228 02ba 19       		.uleb128 0x19
 5229 02bb 03       		.uleb128 0x3
 5230 02bc 0E       		.uleb128 0xe
 5231 02bd 3A       		.uleb128 0x3a
 5232 02be 0B       		.uleb128 0xb
 5233 02bf 3B       		.uleb128 0x3b
 5234 02c0 0B       		.uleb128 0xb
 5235 02c1 11       		.uleb128 0x11
 5236 02c2 01       		.uleb128 0x1
 5237 02c3 12       		.uleb128 0x12
 5238 02c4 06       		.uleb128 0x6
 5239 02c5 40       		.uleb128 0x40
 5240 02c6 18       		.uleb128 0x18
 5241 02c7 9642     		.uleb128 0x2116
 5242 02c9 19       		.uleb128 0x19
 5243 02ca 01       		.uleb128 0x1
 5244 02cb 13       		.uleb128 0x13
 5245 02cc 00       		.byte	0
 5246 02cd 00       		.byte	0
 5247 02ce 33       		.uleb128 0x33
 5248 02cf 34       		.uleb128 0x34
 5249 02d0 00       		.byte	0
 5250 02d1 03       		.uleb128 0x3
 5251 02d2 0E       		.uleb128 0xe
 5252 02d3 3A       		.uleb128 0x3a
 5253 02d4 0B       		.uleb128 0xb
 5254 02d5 3B       		.uleb128 0x3b
 5255 02d6 0B       		.uleb128 0xb
 5256 02d7 49       		.uleb128 0x49
 5257 02d8 13       		.uleb128 0x13
 5258 02d9 02       		.uleb128 0x2
 5259 02da 18       		.uleb128 0x18
 5260 02db 00       		.byte	0
 5261 02dc 00       		.byte	0
 5262 02dd 34       		.uleb128 0x34
 5263 02de 0B       		.uleb128 0xb
 5264 02df 01       		.byte	0x1
 5265 02e0 55       		.uleb128 0x55
 5266 02e1 17       		.uleb128 0x17
 5267 02e2 00       		.byte	0
 5268 02e3 00       		.byte	0
 5269 02e4 35       		.uleb128 0x35
 5270 02e5 34       		.uleb128 0x34
 5271 02e6 00       		.byte	0
ARM GAS  C:\Users\Patrick\AppData\Local\Temp\cc1OctCg.s 			page 146


 5272 02e7 31       		.uleb128 0x31
 5273 02e8 13       		.uleb128 0x13
 5274 02e9 1C       		.uleb128 0x1c
 5275 02ea 0B       		.uleb128 0xb
 5276 02eb 00       		.byte	0
 5277 02ec 00       		.byte	0
 5278 02ed 36       		.uleb128 0x36
 5279 02ee 05       		.uleb128 0x5
 5280 02ef 00       		.byte	0
 5281 02f0 31       		.uleb128 0x31
 5282 02f1 13       		.uleb128 0x13
 5283 02f2 1C       		.uleb128 0x1c
 5284 02f3 05       		.uleb128 0x5
 5285 02f4 00       		.byte	0
 5286 02f5 00       		.byte	0
 5287 02f6 37       		.uleb128 0x37
 5288 02f7 1D       		.uleb128 0x1d
 5289 02f8 01       		.byte	0x1
 5290 02f9 31       		.uleb128 0x31
 5291 02fa 13       		.uleb128 0x13
 5292 02fb 52       		.uleb128 0x52
 5293 02fc 01       		.uleb128 0x1
 5294 02fd 55       		.uleb128 0x55
 5295 02fe 17       		.uleb128 0x17
 5296 02ff 58       		.uleb128 0x58
 5297 0300 0B       		.uleb128 0xb
 5298 0301 59       		.uleb128 0x59
 5299 0302 05       		.uleb128 0x5
 5300 0303 00       		.byte	0
 5301 0304 00       		.byte	0
 5302 0305 38       		.uleb128 0x38
 5303 0306 05       		.uleb128 0x5
 5304 0307 00       		.byte	0
 5305 0308 31       		.uleb128 0x31
 5306 0309 13       		.uleb128 0x13
 5307 030a 1C       		.uleb128 0x1c
 5308 030b 0B       		.uleb128 0xb
 5309 030c 00       		.byte	0
 5310 030d 00       		.byte	0
 5311 030e 39       		.uleb128 0x39
 5312 030f 05       		.uleb128 0x5
 5313 0310 00       		.byte	0
 5314 0311 31       		.uleb128 0x31
 5315 0312 13       		.uleb128 0x13
 5316 0313 1C       		.uleb128 0x1c
 5317 0314 0D       		.uleb128 0xd
 5318 0315 00       		.byte	0
 5319 0316 00       		.byte	0
 5320 0317 3A       		.uleb128 0x3a
 5321 0318 898201   		.uleb128 0x4109
 5322 031b 00       		.byte	0
 5323 031c 11       		.uleb128 0x11
 5324 031d 01       		.uleb128 0x1
 5325 031e 31       		.uleb128 0x31
 5326 031f 13       		.uleb128 0x13
 5327 0320 00       		.byte	0
 5328 0321 00       		.byte	0
ARM GAS  C:\Users\Patrick\AppData\Local\Temp\cc1OctCg.s 			page 147


 5329 0322 3B       		.uleb128 0x3b
 5330 0323 898201   		.uleb128 0x4109
 5331 0326 01       		.byte	0x1
 5332 0327 11       		.uleb128 0x11
 5333 0328 01       		.uleb128 0x1
 5334 0329 31       		.uleb128 0x31
 5335 032a 13       		.uleb128 0x13
 5336 032b 01       		.uleb128 0x1
 5337 032c 13       		.uleb128 0x13
 5338 032d 00       		.byte	0
 5339 032e 00       		.byte	0
 5340 032f 3C       		.uleb128 0x3c
 5341 0330 8A8201   		.uleb128 0x410a
 5342 0333 00       		.byte	0
 5343 0334 02       		.uleb128 0x2
 5344 0335 18       		.uleb128 0x18
 5345 0336 9142     		.uleb128 0x2111
 5346 0338 18       		.uleb128 0x18
 5347 0339 00       		.byte	0
 5348 033a 00       		.byte	0
 5349 033b 3D       		.uleb128 0x3d
 5350 033c 898201   		.uleb128 0x4109
 5351 033f 01       		.byte	0x1
 5352 0340 11       		.uleb128 0x11
 5353 0341 01       		.uleb128 0x1
 5354 0342 31       		.uleb128 0x31
 5355 0343 13       		.uleb128 0x13
 5356 0344 00       		.byte	0
 5357 0345 00       		.byte	0
 5358 0346 3E       		.uleb128 0x3e
 5359 0347 2E       		.uleb128 0x2e
 5360 0348 01       		.byte	0x1
 5361 0349 31       		.uleb128 0x31
 5362 034a 13       		.uleb128 0x13
 5363 034b 11       		.uleb128 0x11
 5364 034c 01       		.uleb128 0x1
 5365 034d 12       		.uleb128 0x12
 5366 034e 06       		.uleb128 0x6
 5367 034f 40       		.uleb128 0x40
 5368 0350 18       		.uleb128 0x18
 5369 0351 9742     		.uleb128 0x2117
 5370 0353 19       		.uleb128 0x19
 5371 0354 01       		.uleb128 0x1
 5372 0355 13       		.uleb128 0x13
 5373 0356 00       		.byte	0
 5374 0357 00       		.byte	0
 5375 0358 3F       		.uleb128 0x3f
 5376 0359 2E       		.uleb128 0x2e
 5377 035a 01       		.byte	0x1
 5378 035b 31       		.uleb128 0x31
 5379 035c 13       		.uleb128 0x13
 5380 035d 11       		.uleb128 0x11
 5381 035e 01       		.uleb128 0x1
 5382 035f 12       		.uleb128 0x12
 5383 0360 06       		.uleb128 0x6
 5384 0361 40       		.uleb128 0x40
 5385 0362 18       		.uleb128 0x18
ARM GAS  C:\Users\Patrick\AppData\Local\Temp\cc1OctCg.s 			page 148


 5386 0363 9642     		.uleb128 0x2116
 5387 0365 19       		.uleb128 0x19
 5388 0366 01       		.uleb128 0x1
 5389 0367 13       		.uleb128 0x13
 5390 0368 00       		.byte	0
 5391 0369 00       		.byte	0
 5392 036a 40       		.uleb128 0x40
 5393 036b 898201   		.uleb128 0x4109
 5394 036e 01       		.byte	0x1
 5395 036f 11       		.uleb128 0x11
 5396 0370 01       		.uleb128 0x1
 5397 0371 9542     		.uleb128 0x2115
 5398 0373 19       		.uleb128 0x19
 5399 0374 31       		.uleb128 0x31
 5400 0375 13       		.uleb128 0x13
 5401 0376 00       		.byte	0
 5402 0377 00       		.byte	0
 5403 0378 41       		.uleb128 0x41
 5404 0379 05       		.uleb128 0x5
 5405 037a 00       		.byte	0
 5406 037b 03       		.uleb128 0x3
 5407 037c 0E       		.uleb128 0xe
 5408 037d 3A       		.uleb128 0x3a
 5409 037e 0B       		.uleb128 0xb
 5410 037f 3B       		.uleb128 0x3b
 5411 0380 05       		.uleb128 0x5
 5412 0381 49       		.uleb128 0x49
 5413 0382 13       		.uleb128 0x13
 5414 0383 02       		.uleb128 0x2
 5415 0384 18       		.uleb128 0x18
 5416 0385 00       		.byte	0
 5417 0386 00       		.byte	0
 5418 0387 42       		.uleb128 0x42
 5419 0388 05       		.uleb128 0x5
 5420 0389 00       		.byte	0
 5421 038a 03       		.uleb128 0x3
 5422 038b 08       		.uleb128 0x8
 5423 038c 3A       		.uleb128 0x3a
 5424 038d 0B       		.uleb128 0xb
 5425 038e 3B       		.uleb128 0x3b
 5426 038f 05       		.uleb128 0x5
 5427 0390 49       		.uleb128 0x49
 5428 0391 13       		.uleb128 0x13
 5429 0392 02       		.uleb128 0x2
 5430 0393 18       		.uleb128 0x18
 5431 0394 00       		.byte	0
 5432 0395 00       		.byte	0
 5433 0396 43       		.uleb128 0x43
 5434 0397 05       		.uleb128 0x5
 5435 0398 00       		.byte	0
 5436 0399 03       		.uleb128 0x3
 5437 039a 08       		.uleb128 0x8
 5438 039b 3A       		.uleb128 0x3a
 5439 039c 0B       		.uleb128 0xb
 5440 039d 3B       		.uleb128 0x3b
 5441 039e 05       		.uleb128 0x5
 5442 039f 49       		.uleb128 0x49
ARM GAS  C:\Users\Patrick\AppData\Local\Temp\cc1OctCg.s 			page 149


 5443 03a0 13       		.uleb128 0x13
 5444 03a1 02       		.uleb128 0x2
 5445 03a2 17       		.uleb128 0x17
 5446 03a3 00       		.byte	0
 5447 03a4 00       		.byte	0
 5448 03a5 44       		.uleb128 0x44
 5449 03a6 34       		.uleb128 0x34
 5450 03a7 00       		.byte	0
 5451 03a8 03       		.uleb128 0x3
 5452 03a9 0E       		.uleb128 0xe
 5453 03aa 3A       		.uleb128 0x3a
 5454 03ab 0B       		.uleb128 0xb
 5455 03ac 3B       		.uleb128 0x3b
 5456 03ad 05       		.uleb128 0x5
 5457 03ae 49       		.uleb128 0x49
 5458 03af 13       		.uleb128 0x13
 5459 03b0 3F       		.uleb128 0x3f
 5460 03b1 19       		.uleb128 0x19
 5461 03b2 3C       		.uleb128 0x3c
 5462 03b3 19       		.uleb128 0x19
 5463 03b4 00       		.byte	0
 5464 03b5 00       		.byte	0
 5465 03b6 45       		.uleb128 0x45
 5466 03b7 34       		.uleb128 0x34
 5467 03b8 00       		.byte	0
 5468 03b9 03       		.uleb128 0x3
 5469 03ba 0E       		.uleb128 0xe
 5470 03bb 3A       		.uleb128 0x3a
 5471 03bc 0B       		.uleb128 0xb
 5472 03bd 3B       		.uleb128 0x3b
 5473 03be 0B       		.uleb128 0xb
 5474 03bf 49       		.uleb128 0x49
 5475 03c0 13       		.uleb128 0x13
 5476 03c1 3F       		.uleb128 0x3f
 5477 03c2 19       		.uleb128 0x19
 5478 03c3 02       		.uleb128 0x2
 5479 03c4 18       		.uleb128 0x18
 5480 03c5 00       		.byte	0
 5481 03c6 00       		.byte	0
 5482 03c7 46       		.uleb128 0x46
 5483 03c8 2E       		.uleb128 0x2e
 5484 03c9 01       		.byte	0x1
 5485 03ca 3F       		.uleb128 0x3f
 5486 03cb 19       		.uleb128 0x19
 5487 03cc 03       		.uleb128 0x3
 5488 03cd 0E       		.uleb128 0xe
 5489 03ce 3A       		.uleb128 0x3a
 5490 03cf 0B       		.uleb128 0xb
 5491 03d0 3B       		.uleb128 0x3b
 5492 03d1 0B       		.uleb128 0xb
 5493 03d2 27       		.uleb128 0x27
 5494 03d3 19       		.uleb128 0x19
 5495 03d4 3C       		.uleb128 0x3c
 5496 03d5 19       		.uleb128 0x19
 5497 03d6 01       		.uleb128 0x1
 5498 03d7 13       		.uleb128 0x13
 5499 03d8 00       		.byte	0
ARM GAS  C:\Users\Patrick\AppData\Local\Temp\cc1OctCg.s 			page 150


 5500 03d9 00       		.byte	0
 5501 03da 47       		.uleb128 0x47
 5502 03db 05       		.uleb128 0x5
 5503 03dc 00       		.byte	0
 5504 03dd 49       		.uleb128 0x49
 5505 03de 13       		.uleb128 0x13
 5506 03df 00       		.byte	0
 5507 03e0 00       		.byte	0
 5508 03e1 48       		.uleb128 0x48
 5509 03e2 2E       		.uleb128 0x2e
 5510 03e3 00       		.byte	0
 5511 03e4 3F       		.uleb128 0x3f
 5512 03e5 19       		.uleb128 0x19
 5513 03e6 03       		.uleb128 0x3
 5514 03e7 0E       		.uleb128 0xe
 5515 03e8 3A       		.uleb128 0x3a
 5516 03e9 0B       		.uleb128 0xb
 5517 03ea 3B       		.uleb128 0x3b
 5518 03eb 0B       		.uleb128 0xb
 5519 03ec 27       		.uleb128 0x27
 5520 03ed 19       		.uleb128 0x19
 5521 03ee 3C       		.uleb128 0x3c
 5522 03ef 19       		.uleb128 0x19
 5523 03f0 00       		.byte	0
 5524 03f1 00       		.byte	0
 5525 03f2 49       		.uleb128 0x49
 5526 03f3 2E       		.uleb128 0x2e
 5527 03f4 01       		.byte	0x1
 5528 03f5 3F       		.uleb128 0x3f
 5529 03f6 19       		.uleb128 0x19
 5530 03f7 03       		.uleb128 0x3
 5531 03f8 0E       		.uleb128 0xe
 5532 03f9 3A       		.uleb128 0x3a
 5533 03fa 0B       		.uleb128 0xb
 5534 03fb 3B       		.uleb128 0x3b
 5535 03fc 0B       		.uleb128 0xb
 5536 03fd 27       		.uleb128 0x27
 5537 03fe 19       		.uleb128 0x19
 5538 03ff 49       		.uleb128 0x49
 5539 0400 13       		.uleb128 0x13
 5540 0401 3C       		.uleb128 0x3c
 5541 0402 19       		.uleb128 0x19
 5542 0403 01       		.uleb128 0x1
 5543 0404 13       		.uleb128 0x13
 5544 0405 00       		.byte	0
 5545 0406 00       		.byte	0
 5546 0407 4A       		.uleb128 0x4a
 5547 0408 2E       		.uleb128 0x2e
 5548 0409 00       		.byte	0
 5549 040a 3F       		.uleb128 0x3f
 5550 040b 19       		.uleb128 0x19
 5551 040c 03       		.uleb128 0x3
 5552 040d 0E       		.uleb128 0xe
 5553 040e 3A       		.uleb128 0x3a
 5554 040f 0B       		.uleb128 0xb
 5555 0410 3B       		.uleb128 0x3b
 5556 0411 0B       		.uleb128 0xb
ARM GAS  C:\Users\Patrick\AppData\Local\Temp\cc1OctCg.s 			page 151


 5557 0412 27       		.uleb128 0x27
 5558 0413 19       		.uleb128 0x19
 5559 0414 49       		.uleb128 0x49
 5560 0415 13       		.uleb128 0x13
 5561 0416 3C       		.uleb128 0x3c
 5562 0417 19       		.uleb128 0x19
 5563 0418 00       		.byte	0
 5564 0419 00       		.byte	0
 5565 041a 4B       		.uleb128 0x4b
 5566 041b 2E       		.uleb128 0x2e
 5567 041c 01       		.byte	0x1
 5568 041d 3F       		.uleb128 0x3f
 5569 041e 19       		.uleb128 0x19
 5570 041f 03       		.uleb128 0x3
 5571 0420 0E       		.uleb128 0xe
 5572 0421 27       		.uleb128 0x27
 5573 0422 19       		.uleb128 0x19
 5574 0423 49       		.uleb128 0x49
 5575 0424 13       		.uleb128 0x13
 5576 0425 34       		.uleb128 0x34
 5577 0426 19       		.uleb128 0x19
 5578 0427 3C       		.uleb128 0x3c
 5579 0428 19       		.uleb128 0x19
 5580 0429 01       		.uleb128 0x1
 5581 042a 13       		.uleb128 0x13
 5582 042b 00       		.byte	0
 5583 042c 00       		.byte	0
 5584 042d 4C       		.uleb128 0x4c
 5585 042e 2E       		.uleb128 0x2e
 5586 042f 01       		.byte	0x1
 5587 0430 3F       		.uleb128 0x3f
 5588 0431 19       		.uleb128 0x19
 5589 0432 03       		.uleb128 0x3
 5590 0433 0E       		.uleb128 0xe
 5591 0434 3A       		.uleb128 0x3a
 5592 0435 0B       		.uleb128 0xb
 5593 0436 3B       		.uleb128 0x3b
 5594 0437 0B       		.uleb128 0xb
 5595 0438 27       		.uleb128 0x27
 5596 0439 19       		.uleb128 0x19
 5597 043a 49       		.uleb128 0x49
 5598 043b 13       		.uleb128 0x13
 5599 043c 3C       		.uleb128 0x3c
 5600 043d 19       		.uleb128 0x19
 5601 043e 00       		.byte	0
 5602 043f 00       		.byte	0
 5603 0440 4D       		.uleb128 0x4d
 5604 0441 18       		.uleb128 0x18
 5605 0442 00       		.byte	0
 5606 0443 00       		.byte	0
 5607 0444 00       		.byte	0
 5608 0445 00       		.byte	0
 5609              		.section	.debug_loc,"",%progbits
 5610              	.Ldebug_loc0:
 5611              	.LLST0:
 5612 0000 22000000 		.4byte	.LVL1
 5613 0004 28000000 		.4byte	.LVL2
ARM GAS  C:\Users\Patrick\AppData\Local\Temp\cc1OctCg.s 			page 152


 5614 0008 0200     		.2byte	0x2
 5615 000a 31       		.byte	0x31
 5616 000b 9F       		.byte	0x9f
 5617 000c 00000000 		.4byte	0
 5618 0010 00000000 		.4byte	0
 5619              	.LLST1:
 5620 0014 22000000 		.4byte	.LVL1
 5621 0018 28000000 		.4byte	.LVL2
 5622 001c 0600     		.2byte	0x6
 5623 001e 03       		.byte	0x3
 5624 001f 00000000 		.4byte	throttle
 5625 0023 9F       		.byte	0x9f
 5626 0024 00000000 		.4byte	0
 5627 0028 00000000 		.4byte	0
 5628              	.LLST2:
 5629 002c 44000000 		.4byte	.LVL3
 5630 0030 4A000000 		.4byte	.LVL4
 5631 0034 0200     		.2byte	0x2
 5632 0036 31       		.byte	0x31
 5633 0037 9F       		.byte	0x9f
 5634 0038 00000000 		.4byte	0
 5635 003c 00000000 		.4byte	0
 5636              	.LLST3:
 5637 0040 44000000 		.4byte	.LVL3
 5638 0044 4A000000 		.4byte	.LVL4
 5639 0048 0600     		.2byte	0x6
 5640 004a 03       		.byte	0x3
 5641 004b 00000000 		.4byte	steering
 5642 004f 9F       		.byte	0x9f
 5643 0050 00000000 		.4byte	0
 5644 0054 00000000 		.4byte	0
 5645              	.LLST4:
 5646 0058 66000000 		.4byte	.LVL5
 5647 005c 6C000000 		.4byte	.LVL6
 5648 0060 0200     		.2byte	0x2
 5649 0062 31       		.byte	0x31
 5650 0063 9F       		.byte	0x9f
 5651 0064 00000000 		.4byte	0
 5652 0068 00000000 		.4byte	0
 5653              	.LLST5:
 5654 006c 66000000 		.4byte	.LVL5
 5655 0070 6C000000 		.4byte	.LVL6
 5656 0074 0600     		.2byte	0x6
 5657 0076 03       		.byte	0x3
 5658 0077 00000000 		.4byte	left
 5659 007b 9F       		.byte	0x9f
 5660 007c 00000000 		.4byte	0
 5661 0080 00000000 		.4byte	0
 5662              	.LLST6:
 5663 0084 86000000 		.4byte	.LVL7
 5664 0088 8C000000 		.4byte	.LVL8
 5665 008c 0200     		.2byte	0x2
 5666 008e 31       		.byte	0x31
 5667 008f 9F       		.byte	0x9f
 5668 0090 00000000 		.4byte	0
 5669 0094 00000000 		.4byte	0
 5670              	.LLST7:
ARM GAS  C:\Users\Patrick\AppData\Local\Temp\cc1OctCg.s 			page 153


 5671 0098 86000000 		.4byte	.LVL7
 5672 009c 8C000000 		.4byte	.LVL8
 5673 00a0 0600     		.2byte	0x6
 5674 00a2 03       		.byte	0x3
 5675 00a3 00000000 		.4byte	right
 5676 00a7 9F       		.byte	0x9f
 5677 00a8 00000000 		.4byte	0
 5678 00ac 00000000 		.4byte	0
 5679              	.LLST8:
 5680 00b0 00000000 		.4byte	.LVL9
 5681 00b4 AE000000 		.4byte	.LVL24
 5682 00b8 0100     		.2byte	0x1
 5683 00ba 50       		.byte	0x50
 5684 00bb AE000000 		.4byte	.LVL24
 5685 00bf CC000000 		.4byte	.LVL27
 5686 00c3 0400     		.2byte	0x4
 5687 00c5 F3       		.byte	0xf3
 5688 00c6 01       		.uleb128 0x1
 5689 00c7 50       		.byte	0x50
 5690 00c8 9F       		.byte	0x9f
 5691 00c9 CC000000 		.4byte	.LVL27
 5692 00cd 5E010000 		.4byte	.LVL49
 5693 00d1 0100     		.2byte	0x1
 5694 00d3 50       		.byte	0x50
 5695 00d4 5E010000 		.4byte	.LVL49
 5696 00d8 60010000 		.4byte	.LVL50
 5697 00dc 0400     		.2byte	0x4
 5698 00de F3       		.byte	0xf3
 5699 00df 01       		.uleb128 0x1
 5700 00e0 50       		.byte	0x50
 5701 00e1 9F       		.byte	0x9f
 5702 00e2 60010000 		.4byte	.LVL50
 5703 00e6 80010000 		.4byte	.LFE63
 5704 00ea 0100     		.2byte	0x1
 5705 00ec 50       		.byte	0x50
 5706 00ed 00000000 		.4byte	0
 5707 00f1 00000000 		.4byte	0
 5708              	.LLST9:
 5709 00f5 00000000 		.4byte	.LVL9
 5710 00f9 0A000000 		.4byte	.LVL10
 5711 00fd 0200     		.2byte	0x2
 5712 00ff 31       		.byte	0x31
 5713 0100 9F       		.byte	0x9f
 5714 0101 0A000000 		.4byte	.LVL10
 5715 0105 12000000 		.4byte	.LVL11
 5716 0109 0200     		.2byte	0x2
 5717 010b 32       		.byte	0x32
 5718 010c 9F       		.byte	0x9f
 5719 010d DC000000 		.4byte	.LVL29
 5720 0111 E0000000 		.4byte	.LVL30
 5721 0115 0200     		.2byte	0x2
 5722 0117 31       		.byte	0x31
 5723 0118 9F       		.byte	0x9f
 5724 0119 E0000000 		.4byte	.LVL30
 5725 011d EA000000 		.4byte	.LVL31
 5726 0121 0200     		.2byte	0x2
 5727 0123 33       		.byte	0x33
ARM GAS  C:\Users\Patrick\AppData\Local\Temp\cc1OctCg.s 			page 154


 5728 0124 9F       		.byte	0x9f
 5729 0125 EA000000 		.4byte	.LVL31
 5730 0129 F0000000 		.4byte	.LVL32
 5731 012d 0200     		.2byte	0x2
 5732 012f 34       		.byte	0x34
 5733 0130 9F       		.byte	0x9f
 5734 0131 F0000000 		.4byte	.LVL32
 5735 0135 F6000000 		.4byte	.LVL33
 5736 0139 0200     		.2byte	0x2
 5737 013b 35       		.byte	0x35
 5738 013c 9F       		.byte	0x9f
 5739 013d F6000000 		.4byte	.LVL33
 5740 0141 FC000000 		.4byte	.LVL34
 5741 0145 0200     		.2byte	0x2
 5742 0147 36       		.byte	0x36
 5743 0148 9F       		.byte	0x9f
 5744 0149 FC000000 		.4byte	.LVL34
 5745 014d 02010000 		.4byte	.LVL35
 5746 0151 0200     		.2byte	0x2
 5747 0153 37       		.byte	0x37
 5748 0154 9F       		.byte	0x9f
 5749 0155 02010000 		.4byte	.LVL35
 5750 0159 08010000 		.4byte	.LVL36
 5751 015d 0200     		.2byte	0x2
 5752 015f 31       		.byte	0x31
 5753 0160 9F       		.byte	0x9f
 5754 0161 08010000 		.4byte	.LVL36
 5755 0165 0E010000 		.4byte	.LVL37
 5756 0169 0200     		.2byte	0x2
 5757 016b 32       		.byte	0x32
 5758 016c 9F       		.byte	0x9f
 5759 016d 0E010000 		.4byte	.LVL37
 5760 0171 14010000 		.4byte	.LVL38
 5761 0175 0200     		.2byte	0x2
 5762 0177 33       		.byte	0x33
 5763 0178 9F       		.byte	0x9f
 5764 0179 14010000 		.4byte	.LVL38
 5765 017d 1C010000 		.4byte	.LVL39
 5766 0181 0200     		.2byte	0x2
 5767 0183 34       		.byte	0x34
 5768 0184 9F       		.byte	0x9f
 5769 0185 1C010000 		.4byte	.LVL39
 5770 0189 22010000 		.4byte	.LVL40
 5771 018d 0200     		.2byte	0x2
 5772 018f 35       		.byte	0x35
 5773 0190 9F       		.byte	0x9f
 5774 0191 22010000 		.4byte	.LVL40
 5775 0195 28010000 		.4byte	.LVL41
 5776 0199 0200     		.2byte	0x2
 5777 019b 36       		.byte	0x36
 5778 019c 9F       		.byte	0x9f
 5779 019d 28010000 		.4byte	.LVL41
 5780 01a1 2E010000 		.4byte	.LVL42
 5781 01a5 0200     		.2byte	0x2
 5782 01a7 37       		.byte	0x37
 5783 01a8 9F       		.byte	0x9f
 5784 01a9 2E010000 		.4byte	.LVL42
ARM GAS  C:\Users\Patrick\AppData\Local\Temp\cc1OctCg.s 			page 155


 5785 01ad 34010000 		.4byte	.LVL43
 5786 01b1 0200     		.2byte	0x2
 5787 01b3 31       		.byte	0x31
 5788 01b4 9F       		.byte	0x9f
 5789 01b5 34010000 		.4byte	.LVL43
 5790 01b9 3C010000 		.4byte	.LVL44
 5791 01bd 0200     		.2byte	0x2
 5792 01bf 32       		.byte	0x32
 5793 01c0 9F       		.byte	0x9f
 5794 01c1 3C010000 		.4byte	.LVL44
 5795 01c5 42010000 		.4byte	.LVL45
 5796 01c9 0200     		.2byte	0x2
 5797 01cb 33       		.byte	0x33
 5798 01cc 9F       		.byte	0x9f
 5799 01cd 42010000 		.4byte	.LVL45
 5800 01d1 48010000 		.4byte	.LVL46
 5801 01d5 0200     		.2byte	0x2
 5802 01d7 34       		.byte	0x34
 5803 01d8 9F       		.byte	0x9f
 5804 01d9 48010000 		.4byte	.LVL46
 5805 01dd 4E010000 		.4byte	.LVL47
 5806 01e1 0200     		.2byte	0x2
 5807 01e3 35       		.byte	0x35
 5808 01e4 9F       		.byte	0x9f
 5809 01e5 4E010000 		.4byte	.LVL47
 5810 01e9 54010000 		.4byte	.LVL48
 5811 01ed 0200     		.2byte	0x2
 5812 01ef 36       		.byte	0x36
 5813 01f0 9F       		.byte	0x9f
 5814 01f1 54010000 		.4byte	.LVL48
 5815 01f5 60010000 		.4byte	.LVL50
 5816 01f9 0200     		.2byte	0x2
 5817 01fb 37       		.byte	0x37
 5818 01fc 9F       		.byte	0x9f
 5819 01fd 60010000 		.4byte	.LVL50
 5820 0201 64010000 		.4byte	.LVL51
 5821 0205 0200     		.2byte	0x2
 5822 0207 34       		.byte	0x34
 5823 0208 9F       		.byte	0x9f
 5824 0209 64010000 		.4byte	.LVL51
 5825 020d 68010000 		.4byte	.LVL52
 5826 0211 0200     		.2byte	0x2
 5827 0213 35       		.byte	0x35
 5828 0214 9F       		.byte	0x9f
 5829 0215 68010000 		.4byte	.LVL52
 5830 0219 6C010000 		.4byte	.LVL53
 5831 021d 0200     		.2byte	0x2
 5832 021f 36       		.byte	0x36
 5833 0220 9F       		.byte	0x9f
 5834 0221 6C010000 		.4byte	.LVL53
 5835 0225 80010000 		.4byte	.LFE63
 5836 0229 0200     		.2byte	0x2
 5837 022b 37       		.byte	0x37
 5838 022c 9F       		.byte	0x9f
 5839 022d 00000000 		.4byte	0
 5840 0231 00000000 		.4byte	0
 5841              	.LLST10:
ARM GAS  C:\Users\Patrick\AppData\Local\Temp\cc1OctCg.s 			page 156


 5842 0235 4E000000 		.4byte	.LVL15
 5843 0239 58000000 		.4byte	.LVL16
 5844 023d 0200     		.2byte	0x2
 5845 023f 30       		.byte	0x30
 5846 0240 9F       		.byte	0x9f
 5847 0241 58000000 		.4byte	.LVL16
 5848 0245 64000000 		.4byte	.LVL17
 5849 0249 0200     		.2byte	0x2
 5850 024b 31       		.byte	0x31
 5851 024c 9F       		.byte	0x9f
 5852 024d 64000000 		.4byte	.LVL17
 5853 0251 70000000 		.4byte	.LVL18
 5854 0255 0200     		.2byte	0x2
 5855 0257 32       		.byte	0x32
 5856 0258 9F       		.byte	0x9f
 5857 0259 70000000 		.4byte	.LVL18
 5858 025d 7C000000 		.4byte	.LVL19
 5859 0261 0200     		.2byte	0x2
 5860 0263 33       		.byte	0x33
 5861 0264 9F       		.byte	0x9f
 5862 0265 7C000000 		.4byte	.LVL19
 5863 0269 88000000 		.4byte	.LVL20
 5864 026d 0200     		.2byte	0x2
 5865 026f 34       		.byte	0x34
 5866 0270 9F       		.byte	0x9f
 5867 0271 88000000 		.4byte	.LVL20
 5868 0275 94000000 		.4byte	.LVL21
 5869 0279 0200     		.2byte	0x2
 5870 027b 35       		.byte	0x35
 5871 027c 9F       		.byte	0x9f
 5872 027d 94000000 		.4byte	.LVL21
 5873 0281 A0000000 		.4byte	.LVL22
 5874 0285 0200     		.2byte	0x2
 5875 0287 36       		.byte	0x36
 5876 0288 9F       		.byte	0x9f
 5877 0289 A0000000 		.4byte	.LVL22
 5878 028d AC000000 		.4byte	.LVL23
 5879 0291 0200     		.2byte	0x2
 5880 0293 37       		.byte	0x37
 5881 0294 9F       		.byte	0x9f
 5882 0295 00000000 		.4byte	0
 5883 0299 00000000 		.4byte	0
 5884              	.LLST11:
 5885 029d 00000000 		.4byte	.LVL9
 5886 02a1 0A000000 		.4byte	.LVL10
 5887 02a5 0200     		.2byte	0x2
 5888 02a7 32       		.byte	0x32
 5889 02a8 9F       		.byte	0x9f
 5890 02a9 0A000000 		.4byte	.LVL10
 5891 02ad 12000000 		.4byte	.LVL11
 5892 02b1 0200     		.2byte	0x2
 5893 02b3 34       		.byte	0x34
 5894 02b4 9F       		.byte	0x9f
 5895 02b5 DC000000 		.4byte	.LVL29
 5896 02b9 E0000000 		.4byte	.LVL30
 5897 02bd 0200     		.2byte	0x2
 5898 02bf 32       		.byte	0x32
ARM GAS  C:\Users\Patrick\AppData\Local\Temp\cc1OctCg.s 			page 157


 5899 02c0 9F       		.byte	0x9f
 5900 02c1 E0000000 		.4byte	.LVL30
 5901 02c5 EA000000 		.4byte	.LVL31
 5902 02c9 0200     		.2byte	0x2
 5903 02cb 38       		.byte	0x38
 5904 02cc 9F       		.byte	0x9f
 5905 02cd EA000000 		.4byte	.LVL31
 5906 02d1 F0000000 		.4byte	.LVL32
 5907 02d5 0200     		.2byte	0x2
 5908 02d7 40       		.byte	0x40
 5909 02d8 9F       		.byte	0x9f
 5910 02d9 F0000000 		.4byte	.LVL32
 5911 02dd F6000000 		.4byte	.LVL33
 5912 02e1 0300     		.2byte	0x3
 5913 02e3 08       		.byte	0x8
 5914 02e4 20       		.byte	0x20
 5915 02e5 9F       		.byte	0x9f
 5916 02e6 F6000000 		.4byte	.LVL33
 5917 02ea FC000000 		.4byte	.LVL34
 5918 02ee 0300     		.2byte	0x3
 5919 02f0 08       		.byte	0x8
 5920 02f1 40       		.byte	0x40
 5921 02f2 9F       		.byte	0x9f
 5922 02f3 FC000000 		.4byte	.LVL34
 5923 02f7 02010000 		.4byte	.LVL35
 5924 02fb 0300     		.2byte	0x3
 5925 02fd 09       		.byte	0x9
 5926 02fe 80       		.byte	0x80
 5927 02ff 9F       		.byte	0x9f
 5928 0300 02010000 		.4byte	.LVL35
 5929 0304 08010000 		.4byte	.LVL36
 5930 0308 0200     		.2byte	0x2
 5931 030a 32       		.byte	0x32
 5932 030b 9F       		.byte	0x9f
 5933 030c 08010000 		.4byte	.LVL36
 5934 0310 0E010000 		.4byte	.LVL37
 5935 0314 0200     		.2byte	0x2
 5936 0316 34       		.byte	0x34
 5937 0317 9F       		.byte	0x9f
 5938 0318 0E010000 		.4byte	.LVL37
 5939 031c 14010000 		.4byte	.LVL38
 5940 0320 0200     		.2byte	0x2
 5941 0322 38       		.byte	0x38
 5942 0323 9F       		.byte	0x9f
 5943 0324 14010000 		.4byte	.LVL38
 5944 0328 1C010000 		.4byte	.LVL39
 5945 032c 0200     		.2byte	0x2
 5946 032e 40       		.byte	0x40
 5947 032f 9F       		.byte	0x9f
 5948 0330 1C010000 		.4byte	.LVL39
 5949 0334 22010000 		.4byte	.LVL40
 5950 0338 0300     		.2byte	0x3
 5951 033a 08       		.byte	0x8
 5952 033b 20       		.byte	0x20
 5953 033c 9F       		.byte	0x9f
 5954 033d 22010000 		.4byte	.LVL40
 5955 0341 28010000 		.4byte	.LVL41
ARM GAS  C:\Users\Patrick\AppData\Local\Temp\cc1OctCg.s 			page 158


 5956 0345 0300     		.2byte	0x3
 5957 0347 08       		.byte	0x8
 5958 0348 40       		.byte	0x40
 5959 0349 9F       		.byte	0x9f
 5960 034a 28010000 		.4byte	.LVL41
 5961 034e 2E010000 		.4byte	.LVL42
 5962 0352 0300     		.2byte	0x3
 5963 0354 09       		.byte	0x9
 5964 0355 80       		.byte	0x80
 5965 0356 9F       		.byte	0x9f
 5966 0357 2E010000 		.4byte	.LVL42
 5967 035b 34010000 		.4byte	.LVL43
 5968 035f 0200     		.2byte	0x2
 5969 0361 32       		.byte	0x32
 5970 0362 9F       		.byte	0x9f
 5971 0363 34010000 		.4byte	.LVL43
 5972 0367 3C010000 		.4byte	.LVL44
 5973 036b 0200     		.2byte	0x2
 5974 036d 34       		.byte	0x34
 5975 036e 9F       		.byte	0x9f
 5976 036f 3C010000 		.4byte	.LVL44
 5977 0373 42010000 		.4byte	.LVL45
 5978 0377 0200     		.2byte	0x2
 5979 0379 38       		.byte	0x38
 5980 037a 9F       		.byte	0x9f
 5981 037b 42010000 		.4byte	.LVL45
 5982 037f 48010000 		.4byte	.LVL46
 5983 0383 0200     		.2byte	0x2
 5984 0385 40       		.byte	0x40
 5985 0386 9F       		.byte	0x9f
 5986 0387 48010000 		.4byte	.LVL46
 5987 038b 4E010000 		.4byte	.LVL47
 5988 038f 0300     		.2byte	0x3
 5989 0391 08       		.byte	0x8
 5990 0392 20       		.byte	0x20
 5991 0393 9F       		.byte	0x9f
 5992 0394 4E010000 		.4byte	.LVL47
 5993 0398 54010000 		.4byte	.LVL48
 5994 039c 0300     		.2byte	0x3
 5995 039e 08       		.byte	0x8
 5996 039f 40       		.byte	0x40
 5997 03a0 9F       		.byte	0x9f
 5998 03a1 54010000 		.4byte	.LVL48
 5999 03a5 60010000 		.4byte	.LVL50
 6000 03a9 0300     		.2byte	0x3
 6001 03ab 09       		.byte	0x9
 6002 03ac 80       		.byte	0x80
 6003 03ad 9F       		.byte	0x9f
 6004 03ae 60010000 		.4byte	.LVL50
 6005 03b2 64010000 		.4byte	.LVL51
 6006 03b6 0200     		.2byte	0x2
 6007 03b8 40       		.byte	0x40
 6008 03b9 9F       		.byte	0x9f
 6009 03ba 64010000 		.4byte	.LVL51
 6010 03be 68010000 		.4byte	.LVL52
 6011 03c2 0300     		.2byte	0x3
 6012 03c4 08       		.byte	0x8
ARM GAS  C:\Users\Patrick\AppData\Local\Temp\cc1OctCg.s 			page 159


 6013 03c5 20       		.byte	0x20
 6014 03c6 9F       		.byte	0x9f
 6015 03c7 68010000 		.4byte	.LVL52
 6016 03cb 6C010000 		.4byte	.LVL53
 6017 03cf 0300     		.2byte	0x3
 6018 03d1 08       		.byte	0x8
 6019 03d2 40       		.byte	0x40
 6020 03d3 9F       		.byte	0x9f
 6021 03d4 6C010000 		.4byte	.LVL53
 6022 03d8 80010000 		.4byte	.LFE63
 6023 03dc 0300     		.2byte	0x3
 6024 03de 09       		.byte	0x9
 6025 03df 80       		.byte	0x80
 6026 03e0 9F       		.byte	0x9f
 6027 03e1 00000000 		.4byte	0
 6028 03e5 00000000 		.4byte	0
 6029              	.LLST12:
 6030 03e9 00000000 		.4byte	.LVL9
 6031 03ed C8000000 		.4byte	.LVL26
 6032 03f1 0200     		.2byte	0x2
 6033 03f3 31       		.byte	0x31
 6034 03f4 9F       		.byte	0x9f
 6035 03f5 C8000000 		.4byte	.LVL26
 6036 03f9 CC000000 		.4byte	.LVL27
 6037 03fd 0100     		.2byte	0x1
 6038 03ff 50       		.byte	0x50
 6039 0400 CC000000 		.4byte	.LVL27
 6040 0404 80010000 		.4byte	.LFE63
 6041 0408 0200     		.2byte	0x2
 6042 040a 31       		.byte	0x31
 6043 040b 9F       		.byte	0x9f
 6044 040c 00000000 		.4byte	0
 6045 0410 00000000 		.4byte	0
 6046              	.LLST13:
 6047 0414 12000000 		.4byte	.LVL11
 6048 0418 28000000 		.4byte	.LVL12
 6049 041c 0200     		.2byte	0x2
 6050 041e 30       		.byte	0x30
 6051 041f 9F       		.byte	0x9f
 6052 0420 28000000 		.4byte	.LVL12
 6053 0424 B2000000 		.4byte	.LVL25
 6054 0428 0100     		.2byte	0x1
 6055 042a 52       		.byte	0x52
 6056 042b CC000000 		.4byte	.LVL27
 6057 042f D2000000 		.4byte	.LVL28
 6058 0433 0100     		.2byte	0x1
 6059 0435 54       		.byte	0x54
 6060 0436 D2000000 		.4byte	.LVL28
 6061 043a DC000000 		.4byte	.LVL29
 6062 043e 0100     		.2byte	0x1
 6063 0440 52       		.byte	0x52
 6064 0441 00000000 		.4byte	0
 6065 0445 00000000 		.4byte	0
 6066              	.LLST14:
 6067 0449 00000000 		.4byte	.LVL54
 6068 044d 08000000 		.4byte	.LVL55
 6069 0451 0100     		.2byte	0x1
ARM GAS  C:\Users\Patrick\AppData\Local\Temp\cc1OctCg.s 			page 160


 6070 0453 50       		.byte	0x50
 6071 0454 08000000 		.4byte	.LVL55
 6072 0458 1C000000 		.4byte	.LFE64
 6073 045c 0400     		.2byte	0x4
 6074 045e F3       		.byte	0xf3
 6075 045f 01       		.uleb128 0x1
 6076 0460 50       		.byte	0x50
 6077 0461 9F       		.byte	0x9f
 6078 0462 00000000 		.4byte	0
 6079 0466 00000000 		.4byte	0
 6080              	.LLST15:
 6081 046a 00000000 		.4byte	.LVL57
 6082 046e 04000000 		.4byte	.LVL58
 6083 0472 0100     		.2byte	0x1
 6084 0474 50       		.byte	0x50
 6085 0475 04000000 		.4byte	.LVL58
 6086 0479 18000000 		.4byte	.LFE66
 6087 047d 0400     		.2byte	0x4
 6088 047f F3       		.byte	0xf3
 6089 0480 01       		.uleb128 0x1
 6090 0481 50       		.byte	0x50
 6091 0482 9F       		.byte	0x9f
 6092 0483 00000000 		.4byte	0
 6093 0487 00000000 		.4byte	0
 6094              	.LLST16:
 6095 048b 16010000 		.4byte	.LVL81
 6096 048f 18010000 		.4byte	.LVL82
 6097 0493 0100     		.2byte	0x1
 6098 0495 50       		.byte	0x50
 6099 0496 00000000 		.4byte	0
 6100 049a 00000000 		.4byte	0
 6101              	.LLST17:
 6102 049e CE000000 		.4byte	.LVL76
 6103 04a2 12010000 		.4byte	.LVL80
 6104 04a6 0200     		.2byte	0x2
 6105 04a8 30       		.byte	0x30
 6106 04a9 9F       		.byte	0x9f
 6107 04aa 12010000 		.4byte	.LVL80
 6108 04ae BC010000 		.4byte	.LVL89
 6109 04b2 0100     		.2byte	0x1
 6110 04b4 59       		.byte	0x59
 6111 04b5 BC010000 		.4byte	.LVL89
 6112 04b9 C8010000 		.4byte	.LVL90
 6113 04bd 0200     		.2byte	0x2
 6114 04bf 31       		.byte	0x31
 6115 04c0 9F       		.byte	0x9f
 6116 04c1 C8010000 		.4byte	.LVL90
 6117 04c5 1C020000 		.4byte	.LVL97
 6118 04c9 0100     		.2byte	0x1
 6119 04cb 59       		.byte	0x59
 6120 04cc 1C020000 		.4byte	.LVL97
 6121 04d0 22020000 		.4byte	.LVL98
 6122 04d4 0200     		.2byte	0x2
 6123 04d6 30       		.byte	0x30
 6124 04d7 9F       		.byte	0x9f
 6125 04d8 22020000 		.4byte	.LVL98
 6126 04dc 3C050000 		.4byte	.LFE68
ARM GAS  C:\Users\Patrick\AppData\Local\Temp\cc1OctCg.s 			page 161


 6127 04e0 0100     		.2byte	0x1
 6128 04e2 59       		.byte	0x59
 6129 04e3 00000000 		.4byte	0
 6130 04e7 00000000 		.4byte	0
 6131              	.LLST18:
 6132 04eb CE000000 		.4byte	.LVL76
 6133 04ef 58010000 		.4byte	.LVL83
 6134 04f3 0200     		.2byte	0x2
 6135 04f5 30       		.byte	0x30
 6136 04f6 9F       		.byte	0x9f
 6137 04f7 58010000 		.4byte	.LVL83
 6138 04fb 9C010000 		.4byte	.LVL85
 6139 04ff 0100     		.2byte	0x1
 6140 0501 55       		.byte	0x55
 6141 0502 BA010000 		.4byte	.LVL88
 6142 0506 C8010000 		.4byte	.LVL90
 6143 050a 0200     		.2byte	0x2
 6144 050c 30       		.byte	0x30
 6145 050d 9F       		.byte	0x9f
 6146 050e C8010000 		.4byte	.LVL90
 6147 0512 18020000 		.4byte	.LVL96
 6148 0516 0100     		.2byte	0x1
 6149 0518 55       		.byte	0x55
 6150 0519 18020000 		.4byte	.LVL96
 6151 051d 22020000 		.4byte	.LVL98
 6152 0521 0200     		.2byte	0x2
 6153 0523 30       		.byte	0x30
 6154 0524 9F       		.byte	0x9f
 6155 0525 22020000 		.4byte	.LVL98
 6156 0529 3C050000 		.4byte	.LFE68
 6157 052d 0100     		.2byte	0x1
 6158 052f 55       		.byte	0x55
 6159 0530 00000000 		.4byte	0
 6160 0534 00000000 		.4byte	0
 6161              	.LLST19:
 6162 0538 CE010000 		.4byte	.LVL91
 6163 053c 18020000 		.4byte	.LVL96
 6164 0540 0600     		.2byte	0x6
 6165 0542 03       		.byte	0x3
 6166 0543 00000000 		.4byte	steering
 6167 0547 9F       		.byte	0x9f
 6168 0548 EC020000 		.4byte	.LVL105
 6169 054c 1E030000 		.4byte	.LVL107
 6170 0550 0600     		.2byte	0x6
 6171 0552 03       		.byte	0x3
 6172 0553 00000000 		.4byte	steering
 6173 0557 9F       		.byte	0x9f
 6174 0558 00000000 		.4byte	0
 6175 055c 00000000 		.4byte	0
 6176              	.LLST20:
 6177 0560 22020000 		.4byte	.LVL98
 6178 0564 52020000 		.4byte	.LVL99
 6179 0568 0600     		.2byte	0x6
 6180 056a 03       		.byte	0x3
 6181 056b 00000000 		.4byte	right
 6182 056f 9F       		.byte	0x9f
 6183 0570 44040000 		.4byte	.LVL132
ARM GAS  C:\Users\Patrick\AppData\Local\Temp\cc1OctCg.s 			page 162


 6184 0574 3C050000 		.4byte	.LFE68
 6185 0578 0600     		.2byte	0x6
 6186 057a 03       		.byte	0x3
 6187 057b 00000000 		.4byte	right
 6188 057f 9F       		.byte	0x9f
 6189 0580 00000000 		.4byte	0
 6190 0584 00000000 		.4byte	0
 6191              	.LLST21:
 6192 0588 52020000 		.4byte	.LVL99
 6193 058c 9A020000 		.4byte	.LVL104
 6194 0590 0600     		.2byte	0x6
 6195 0592 03       		.byte	0x3
 6196 0593 00000000 		.4byte	throttle
 6197 0597 9F       		.byte	0x9f
 6198 0598 1E030000 		.4byte	.LVL107
 6199 059c 50030000 		.4byte	.LVL109
 6200 05a0 0600     		.2byte	0x6
 6201 05a2 03       		.byte	0x3
 6202 05a3 00000000 		.4byte	throttle
 6203 05a7 9F       		.byte	0x9f
 6204 05a8 00000000 		.4byte	0
 6205 05ac 00000000 		.4byte	0
 6206              	.LLST22:
 6207 05b0 9A020000 		.4byte	.LVL104
 6208 05b4 EC020000 		.4byte	.LVL105
 6209 05b8 0600     		.2byte	0x6
 6210 05ba 03       		.byte	0x3
 6211 05bb 00000000 		.4byte	left
 6212 05bf 9F       		.byte	0x9f
 6213 05c0 50030000 		.4byte	.LVL109
 6214 05c4 44040000 		.4byte	.LVL132
 6215 05c8 0600     		.2byte	0x6
 6216 05ca 03       		.byte	0x3
 6217 05cb 00000000 		.4byte	left
 6218 05cf 9F       		.byte	0x9f
 6219 05d0 00000000 		.4byte	0
 6220 05d4 00000000 		.4byte	0
 6221              	.LLST23:
 6222 05d8 00000000 		.4byte	.LVL155
 6223 05dc 08000000 		.4byte	.LVL156
 6224 05e0 0100     		.2byte	0x1
 6225 05e2 50       		.byte	0x50
 6226 05e3 08000000 		.4byte	.LVL156
 6227 05e7 7A000000 		.4byte	.LFE69
 6228 05eb 0100     		.2byte	0x1
 6229 05ed 54       		.byte	0x54
 6230 05ee 00000000 		.4byte	0
 6231 05f2 00000000 		.4byte	0
 6232              	.LLST24:
 6233 05f6 00000000 		.4byte	.LVL163
 6234 05fa 0E000000 		.4byte	.LVL164
 6235 05fe 0100     		.2byte	0x1
 6236 0600 50       		.byte	0x50
 6237 0601 0E000000 		.4byte	.LVL164
 6238 0605 30000000 		.4byte	.LVL165
 6239 0609 0100     		.2byte	0x1
 6240 060b 54       		.byte	0x54
ARM GAS  C:\Users\Patrick\AppData\Local\Temp\cc1OctCg.s 			page 163


 6241 060c 30000000 		.4byte	.LVL165
 6242 0610 45000000 		.4byte	.LVL166-1
 6243 0614 0100     		.2byte	0x1
 6244 0616 50       		.byte	0x50
 6245 0617 45000000 		.4byte	.LVL166-1
 6246 061b 18010000 		.4byte	.LFE70
 6247 061f 0100     		.2byte	0x1
 6248 0621 54       		.byte	0x54
 6249 0622 00000000 		.4byte	0
 6250 0626 00000000 		.4byte	0
 6251              	.LLST25:
 6252 062a 00000000 		.4byte	.LVL188
 6253 062e 0A000000 		.4byte	.LVL189
 6254 0632 0100     		.2byte	0x1
 6255 0634 53       		.byte	0x53
 6256 0635 0A000000 		.4byte	.LVL189
 6257 0639 1A000000 		.4byte	.LFE71
 6258 063d 0300     		.2byte	0x3
 6259 063f 70       		.byte	0x70
 6260 0640 8801     		.sleb128 136
 6261 0642 00000000 		.4byte	0
 6262 0646 00000000 		.4byte	0
 6263              	.LLST26:
 6264 064a 00000000 		.4byte	.LVL190
 6265 064e 17000000 		.4byte	.LVL191-1
 6266 0652 0100     		.2byte	0x1
 6267 0654 50       		.byte	0x50
 6268 0655 17000000 		.4byte	.LVL191-1
 6269 0659 18000000 		.4byte	.LFE72
 6270 065d 0400     		.2byte	0x4
 6271 065f F3       		.byte	0xf3
 6272 0660 01       		.uleb128 0x1
 6273 0661 50       		.byte	0x50
 6274 0662 9F       		.byte	0x9f
 6275 0663 00000000 		.4byte	0
 6276 0667 00000000 		.4byte	0
 6277              	.LLST27:
 6278 066b 00000000 		.4byte	.LVL192
 6279 066f 19000000 		.4byte	.LVL193-1
 6280 0673 0100     		.2byte	0x1
 6281 0675 50       		.byte	0x50
 6282 0676 19000000 		.4byte	.LVL193-1
 6283 067a 1A000000 		.4byte	.LFE73
 6284 067e 0400     		.2byte	0x4
 6285 0680 F3       		.byte	0xf3
 6286 0681 01       		.uleb128 0x1
 6287 0682 50       		.byte	0x50
 6288 0683 9F       		.byte	0x9f
 6289 0684 00000000 		.4byte	0
 6290 0688 00000000 		.4byte	0
 6291              	.LLST28:
 6292 068c 00000000 		.4byte	.LVL194
 6293 0690 28000000 		.4byte	.LVL195
 6294 0694 0200     		.2byte	0x2
 6295 0696 91       		.byte	0x91
 6296 0697 00       		.sleb128 0
 6297 0698 28000000 		.4byte	.LVL195
ARM GAS  C:\Users\Patrick\AppData\Local\Temp\cc1OctCg.s 			page 164


 6298 069c 2C000000 		.4byte	.LFE74
 6299 06a0 0200     		.2byte	0x2
 6300 06a2 7D       		.byte	0x7d
 6301 06a3 00       		.sleb128 0
 6302 06a4 00000000 		.4byte	0
 6303 06a8 00000000 		.4byte	0
 6304              	.LLST29:
 6305 06ac 00000000 		.4byte	.LVL194
 6306 06b0 28000000 		.4byte	.LVL195
 6307 06b4 0200     		.2byte	0x2
 6308 06b6 91       		.byte	0x91
 6309 06b7 04       		.sleb128 4
 6310 06b8 28000000 		.4byte	.LVL195
 6311 06bc 2C000000 		.4byte	.LFE74
 6312 06c0 0200     		.2byte	0x2
 6313 06c2 7D       		.byte	0x7d
 6314 06c3 04       		.sleb128 4
 6315 06c4 00000000 		.4byte	0
 6316 06c8 00000000 		.4byte	0
 6317              	.LLST30:
 6318 06cc 00000000 		.4byte	.LVL194
 6319 06d0 28000000 		.4byte	.LVL195
 6320 06d4 0200     		.2byte	0x2
 6321 06d6 91       		.byte	0x91
 6322 06d7 08       		.sleb128 8
 6323 06d8 28000000 		.4byte	.LVL195
 6324 06dc 2C000000 		.4byte	.LFE74
 6325 06e0 0200     		.2byte	0x2
 6326 06e2 7D       		.byte	0x7d
 6327 06e3 08       		.sleb128 8
 6328 06e4 00000000 		.4byte	0
 6329 06e8 00000000 		.4byte	0
 6330              	.LLST31:
 6331 06ec 00000000 		.4byte	.LVL194
 6332 06f0 28000000 		.4byte	.LVL195
 6333 06f4 0200     		.2byte	0x2
 6334 06f6 91       		.byte	0x91
 6335 06f7 0C       		.sleb128 12
 6336 06f8 28000000 		.4byte	.LVL195
 6337 06fc 2C000000 		.4byte	.LFE74
 6338 0700 0200     		.2byte	0x2
 6339 0702 7D       		.byte	0x7d
 6340 0703 0C       		.sleb128 12
 6341 0704 00000000 		.4byte	0
 6342 0708 00000000 		.4byte	0
 6343              	.LLST32:
 6344 070c 00000000 		.4byte	.LVL197
 6345 0710 04000000 		.4byte	.LVL198
 6346 0714 0100     		.2byte	0x1
 6347 0716 50       		.byte	0x50
 6348 0717 04000000 		.4byte	.LVL198
 6349 071b 14000000 		.4byte	.LFE76
 6350 071f 0400     		.2byte	0x4
 6351 0721 F3       		.byte	0xf3
 6352 0722 01       		.uleb128 0x1
 6353 0723 50       		.byte	0x50
 6354 0724 9F       		.byte	0x9f
ARM GAS  C:\Users\Patrick\AppData\Local\Temp\cc1OctCg.s 			page 165


 6355 0725 00000000 		.4byte	0
 6356 0729 00000000 		.4byte	0
 6357              		.section	.debug_aranges,"",%progbits
 6358 0000 84000000 		.4byte	0x84
 6359 0004 0200     		.2byte	0x2
 6360 0006 00000000 		.4byte	.Ldebug_info0
 6361 000a 04       		.byte	0x4
 6362 000b 00       		.byte	0
 6363 000c 0000     		.2byte	0
 6364 000e 0000     		.2byte	0
 6365 0010 00000000 		.4byte	.LFB67
 6366 0014 B8000000 		.4byte	.LFE67-.LFB67
 6367 0018 00000000 		.4byte	.LFB63
 6368 001c 80010000 		.4byte	.LFE63-.LFB63
 6369 0020 00000000 		.4byte	.LFB64
 6370 0024 1C000000 		.4byte	.LFE64-.LFB64
 6371 0028 00000000 		.4byte	.LFB65
 6372 002c 64000000 		.4byte	.LFE65-.LFB65
 6373 0030 00000000 		.4byte	.LFB66
 6374 0034 18000000 		.4byte	.LFE66-.LFB66
 6375 0038 00000000 		.4byte	.LFB68
 6376 003c 3C050000 		.4byte	.LFE68-.LFB68
 6377 0040 00000000 		.4byte	.LFB69
 6378 0044 7A000000 		.4byte	.LFE69-.LFB69
 6379 0048 00000000 		.4byte	.LFB70
 6380 004c 18010000 		.4byte	.LFE70-.LFB70
 6381 0050 00000000 		.4byte	.LFB71
 6382 0054 1A000000 		.4byte	.LFE71-.LFB71
 6383 0058 00000000 		.4byte	.LFB72
 6384 005c 18000000 		.4byte	.LFE72-.LFB72
 6385 0060 00000000 		.4byte	.LFB73
 6386 0064 1A000000 		.4byte	.LFE73-.LFB73
 6387 0068 00000000 		.4byte	.LFB74
 6388 006c 2C000000 		.4byte	.LFE74-.LFB74
 6389 0070 00000000 		.4byte	.LFB75
 6390 0074 06000000 		.4byte	.LFE75-.LFB75
 6391 0078 00000000 		.4byte	.LFB76
 6392 007c 14000000 		.4byte	.LFE76-.LFB76
 6393 0080 00000000 		.4byte	0
 6394 0084 00000000 		.4byte	0
 6395              		.section	.debug_ranges,"",%progbits
 6396              	.Ldebug_ranges0:
 6397 0000 02000000 		.4byte	.LBB40
 6398 0004 0A000000 		.4byte	.LBE40
 6399 0008 0C000000 		.4byte	.LBB43
 6400 000c 10000000 		.4byte	.LBE43
 6401 0010 00000000 		.4byte	0
 6402 0014 00000000 		.4byte	0
 6403 0018 28000000 		.4byte	.LBB46
 6404 001c 30000000 		.4byte	.LBE46
 6405 0020 32000000 		.4byte	.LBB49
 6406 0024 36000000 		.4byte	.LBE49
 6407 0028 00000000 		.4byte	0
 6408 002c 00000000 		.4byte	0
 6409 0030 4A000000 		.4byte	.LBB52
 6410 0034 52000000 		.4byte	.LBE52
 6411 0038 54000000 		.4byte	.LBB55
ARM GAS  C:\Users\Patrick\AppData\Local\Temp\cc1OctCg.s 			page 166


 6412 003c 58000000 		.4byte	.LBE55
 6413 0040 00000000 		.4byte	0
 6414 0044 00000000 		.4byte	0
 6415 0048 6C000000 		.4byte	.LBB58
 6416 004c 74000000 		.4byte	.LBE58
 6417 0050 76000000 		.4byte	.LBB61
 6418 0054 7A000000 		.4byte	.LBE61
 6419 0058 00000000 		.4byte	0
 6420 005c 00000000 		.4byte	0
 6421 0060 04000000 		.4byte	.LBB92
 6422 0064 06000000 		.4byte	.LBE92
 6423 0068 08000000 		.4byte	.LBB96
 6424 006c 0A000000 		.4byte	.LBE96
 6425 0070 46000000 		.4byte	.LBB107
 6426 0074 60000000 		.4byte	.LBE107
 6427 0078 00000000 		.4byte	0
 6428 007c 00000000 		.4byte	0
 6429 0080 0E000000 		.4byte	.LBB97
 6430 0084 12000000 		.4byte	.LBE97
 6431 0088 64000000 		.4byte	.LBB109
 6432 008c 7E000000 		.4byte	.LBE109
 6433 0090 00000000 		.4byte	0
 6434 0094 00000000 		.4byte	0
 6435 0098 30000000 		.4byte	.LBB100
 6436 009c 32000000 		.4byte	.LBE100
 6437 00a0 60000000 		.4byte	.LBB108
 6438 00a4 64000000 		.4byte	.LBE108
 6439 00a8 7E000000 		.4byte	.LBB110
 6440 00ac 98000000 		.4byte	.LBE110
 6441 00b0 00000000 		.4byte	0
 6442 00b4 00000000 		.4byte	0
 6443 00b8 44000000 		.4byte	.LBB104
 6444 00bc 46000000 		.4byte	.LBE104
 6445 00c0 98000000 		.4byte	.LBB111
 6446 00c4 AC000000 		.4byte	.LBE111
 6447 00c8 00000000 		.4byte	0
 6448 00cc 00000000 		.4byte	0
 6449 00d0 BA000000 		.4byte	.LBB114
 6450 00d4 BE000000 		.4byte	.LBE114
 6451 00d8 C4000000 		.4byte	.LBB117
 6452 00dc C8000000 		.4byte	.LBE117
 6453 00e0 00000000 		.4byte	0
 6454 00e4 00000000 		.4byte	0
 6455 00e8 CE000000 		.4byte	.LBB118
 6456 00ec D0000000 		.4byte	.LBE118
 6457 00f0 D4000000 		.4byte	.LBB134
 6458 00f4 D8000000 		.4byte	.LBE134
 6459 00f8 E8000000 		.4byte	.LBB137
 6460 00fc EC000000 		.4byte	.LBE137
 6461 0100 F0000000 		.4byte	.LBB139
 6462 0104 F4000000 		.4byte	.LBE139
 6463 0108 F8000000 		.4byte	.LBB141
 6464 010c FC000000 		.4byte	.LBE141
 6465 0110 00000000 		.4byte	0
 6466 0114 00000000 		.4byte	0
 6467 0118 D0000000 		.4byte	.LBB124
 6468 011c D2000000 		.4byte	.LBE124
ARM GAS  C:\Users\Patrick\AppData\Local\Temp\cc1OctCg.s 			page 167


 6469 0120 F4000000 		.4byte	.LBB140
 6470 0124 F8000000 		.4byte	.LBE140
 6471 0128 FC000000 		.4byte	.LBB142
 6472 012c 00010000 		.4byte	.LBE142
 6473 0130 04010000 		.4byte	.LBB144
 6474 0134 08010000 		.4byte	.LBE144
 6475 0138 00000000 		.4byte	0
 6476 013c 00000000 		.4byte	0
 6477 0140 D2000000 		.4byte	.LBB129
 6478 0144 D4000000 		.4byte	.LBE129
 6479 0148 EC000000 		.4byte	.LBB138
 6480 014c F0000000 		.4byte	.LBE138
 6481 0150 00010000 		.4byte	.LBB143
 6482 0154 04010000 		.4byte	.LBE143
 6483 0158 08010000 		.4byte	.LBB145
 6484 015c 0C010000 		.4byte	.LBE145
 6485 0160 00000000 		.4byte	0
 6486 0164 00000000 		.4byte	0
 6487 0168 CE010000 		.4byte	.LBB146
 6488 016c 18020000 		.4byte	.LBE146
 6489 0170 EC020000 		.4byte	.LBB158
 6490 0174 1E030000 		.4byte	.LBE158
 6491 0178 00000000 		.4byte	0
 6492 017c 00000000 		.4byte	0
 6493 0180 22020000 		.4byte	.LBB149
 6494 0184 52020000 		.4byte	.LBE149
 6495 0188 44040000 		.4byte	.LBB161
 6496 018c 3C050000 		.4byte	.LBE161
 6497 0190 00000000 		.4byte	0
 6498 0194 00000000 		.4byte	0
 6499 0198 52020000 		.4byte	.LBB152
 6500 019c 9A020000 		.4byte	.LBE152
 6501 01a0 1E030000 		.4byte	.LBB159
 6502 01a4 50030000 		.4byte	.LBE159
 6503 01a8 00000000 		.4byte	0
 6504 01ac 00000000 		.4byte	0
 6505 01b0 9A020000 		.4byte	.LBB155
 6506 01b4 EC020000 		.4byte	.LBE155
 6507 01b8 50030000 		.4byte	.LBB160
 6508 01bc 44040000 		.4byte	.LBE160
 6509 01c0 00000000 		.4byte	0
 6510 01c4 00000000 		.4byte	0
 6511 01c8 00000000 		.4byte	.LFB67
 6512 01cc B8000000 		.4byte	.LFE67
 6513 01d0 00000000 		.4byte	.LFB63
 6514 01d4 80010000 		.4byte	.LFE63
 6515 01d8 00000000 		.4byte	.LFB64
 6516 01dc 1C000000 		.4byte	.LFE64
 6517 01e0 00000000 		.4byte	.LFB65
 6518 01e4 64000000 		.4byte	.LFE65
 6519 01e8 00000000 		.4byte	.LFB66
 6520 01ec 18000000 		.4byte	.LFE66
 6521 01f0 00000000 		.4byte	.LFB68
 6522 01f4 3C050000 		.4byte	.LFE68
 6523 01f8 00000000 		.4byte	.LFB69
 6524 01fc 7A000000 		.4byte	.LFE69
 6525 0200 00000000 		.4byte	.LFB70
ARM GAS  C:\Users\Patrick\AppData\Local\Temp\cc1OctCg.s 			page 168


 6526 0204 18010000 		.4byte	.LFE70
 6527 0208 00000000 		.4byte	.LFB71
 6528 020c 1A000000 		.4byte	.LFE71
 6529 0210 00000000 		.4byte	.LFB72
 6530 0214 18000000 		.4byte	.LFE72
 6531 0218 00000000 		.4byte	.LFB73
 6532 021c 1A000000 		.4byte	.LFE73
 6533 0220 00000000 		.4byte	.LFB74
 6534 0224 2C000000 		.4byte	.LFE74
 6535 0228 00000000 		.4byte	.LFB75
 6536 022c 06000000 		.4byte	.LFE75
 6537 0230 00000000 		.4byte	.LFB76
 6538 0234 14000000 		.4byte	.LFE76
 6539 0238 00000000 		.4byte	0
 6540 023c 00000000 		.4byte	0
 6541              		.section	.debug_line,"",%progbits
 6542              	.Ldebug_line0:
 6543 0000 51050000 		.section	.debug_str,"MS",%progbits,1
 6543      02002102 
 6543      00000201 
 6543      FB0E0D00 
 6543      01010101 
 6544              	.LASF94:
 6545 0000 53656E73 		.ascii	"Sensor\000"
 6545      6F7200
 6546              	.LASF80:
 6547 0007 43504143 		.ascii	"CPACR\000"
 6547      5200
 6548              	.LASF148:
 6549 000d 4144435F 		.ascii	"ADC_SAR_1_IsEndConversion\000"
 6549      5341525F 
 6549      315F4973 
 6549      456E6443 
 6549      6F6E7665 
 6550              	.LASF139:
 6551 0027 5278466C 		.ascii	"RxFlag1\000"
 6551      61673100 
 6552              	.LASF120:
 6553 002f 6D657373 		.ascii	"message\000"
 6553      61676500 
 6554              	.LASF117:
 6555 0037 72656754 		.ascii	"regTemp\000"
 6555      656D7000 
 6556              	.LASF65:
 6557 003f 53544952 		.ascii	"STIR\000"
 6557      00
 6558              	.LASF159:
 6559 0044 4144435F 		.ascii	"ADC_SAR_1_StartConvert\000"
 6559      5341525F 
 6559      315F5374 
 6559      61727443 
 6559      6F6E7665 
 6560              	.LASF178:
 6561 005b 4E564943 		.ascii	"NVIC_SetPriority\000"
 6561      5F536574 
 6561      5072696F 
 6561      72697479 
ARM GAS  C:\Users\Patrick\AppData\Local\Temp\cc1OctCg.s 			page 169


 6561      00
 6562              	.LASF109:
 6563 006c 72617465 		.ascii	"rate_set\000"
 6563      5F736574 
 6563      00
 6564              	.LASF11:
 6565 0075 756E7369 		.ascii	"unsigned int\000"
 6565      676E6564 
 6565      20696E74 
 6565      00
 6566              	.LASF112:
 6567 0082 47657452 		.ascii	"GetRPM\000"
 6567      504D00
 6568              	.LASF83:
 6569 0089 4C4F4144 		.ascii	"LOAD\000"
 6569      00
 6570              	.LASF35:
 6571 008e 7278616D 		.ascii	"rxamr\000"
 6571      7200
 6572              	.LASF74:
 6573 0094 44465352 		.ascii	"DFSR\000"
 6573      00
 6574              	.LASF130:
 6575 0099 7A65726F 		.ascii	"zero\000"
 6575      00
 6576              	.LASF5:
 6577 009e 5F5F696E 		.ascii	"__int32_t\000"
 6577      7433325F 
 6577      7400
 6578              	.LASF31:
 6579 00a8 43414E5F 		.ascii	"CAN_1_TX_MSG\000"
 6579      315F5458 
 6579      5F4D5347 
 6579      00
 6580              	.LASF18:
 6581 00b5 696E7431 		.ascii	"int16\000"
 6581      3600
 6582              	.LASF23:
 6583 00bb 72656738 		.ascii	"reg8\000"
 6583      00
 6584              	.LASF84:
 6585 00c0 43414C49 		.ascii	"CALIB\000"
 6585      4200
 6586              	.LASF157:
 6587 00c6 72696768 		.ascii	"rightEncTimer_ReadCounter\000"
 6587      74456E63 
 6587      54696D65 
 6587      725F5265 
 6587      6164436F 
 6588              	.LASF118:
 6589 00e0 53797354 		.ascii	"SysTick_ISR\000"
 6589      69636B5F 
 6589      49535200 
 6590              	.LASF177:
 6591 00ec 433A5C55 		.ascii	"C:\\Users\\Patrick\\Documents\\GitHub\\PSoC 5LP FIl"
 6591      73657273 
 6591      5C506174 
ARM GAS  C:\Users\Patrick\AppData\Local\Temp\cc1OctCg.s 			page 170


 6591      7269636B 
 6591      5C446F63 
 6592 011a 65735C43 		.ascii	"es\\C-CAN_PSoC_DevKit\\C-CAN.cydsn\000"
 6592      2D43414E 
 6592      5F50536F 
 6592      435F4465 
 6592      764B6974 
 6593              	.LASF164:
 6594 013b 456E636F 		.ascii	"Encoder_Right_Start\000"
 6594      6465725F 
 6594      52696768 
 6594      745F5374 
 6594      61727400 
 6595              	.LASF40:
 6596 014f 7478636D 		.ascii	"txcmd\000"
 6596      6400
 6597              	.LASF106:
 6598 0155 53656E73 		.ascii	"SensorSet\000"
 6598      6F725365 
 6598      7400
 6599              	.LASF127:
 6600 015f 53656E64 		.ascii	"SendSingleByte\000"
 6600      53696E67 
 6600      6C654279 
 6600      746500
 6601              	.LASF98:
 6602 016e 456E636F 		.ascii	"Encoders\000"
 6602      64657273 
 6602      00
 6603              	.LASF46:
 6604 0177 4D656D6F 		.ascii	"MemoryManagement_IRQn\000"
 6604      72794D61 
 6604      6E616765 
 6604      6D656E74 
 6604      5F495251 
 6605              	.LASF43:
 6606 018d 43414E5F 		.ascii	"CAN_1_TX_STRUCT\000"
 6606      315F5458 
 6606      5F535452 
 6606      55435400 
 6607              	.LASF14:
 6608 019d 75696E74 		.ascii	"uint32_t\000"
 6608      33325F74 
 6608      00
 6609              	.LASF89:
 6610 01a6 6E756D62 		.ascii	"number\000"
 6610      657200
 6611              	.LASF78:
 6612 01ad 4D4D4652 		.ascii	"MMFR\000"
 6612      00
 6613              	.LASF54:
 6614 01b2 49534552 		.ascii	"ISER\000"
 6614      00
 6615              	.LASF19:
 6616 01b7 666C6F61 		.ascii	"float\000"
 6616      7400
 6617              	.LASF114:
ARM GAS  C:\Users\Patrick\AppData\Local\Temp\cc1OctCg.s 			page 171


 6618 01bd 73686966 		.ascii	"shift\000"
 6618      7400
 6619              	.LASF90:
 6620 01c3 696E6465 		.ascii	"index\000"
 6620      7800
 6621              	.LASF57:
 6622 01c9 52534552 		.ascii	"RSERVED1\000"
 6622      56454431 
 6622      00
 6623              	.LASF140:
 6624 01d2 62496E64 		.ascii	"bIndex\000"
 6624      657800
 6625              	.LASF110:
 6626 01d9 53657446 		.ascii	"SetFlag\000"
 6626      6C616700 
 6627              	.LASF116:
 6628 01e1 72657375 		.ascii	"result\000"
 6628      6C7400
 6629              	.LASF162:
 6630 01e8 414D7578 		.ascii	"AMux_1_Start\000"
 6630      5F315F53 
 6630      74617274 
 6630      00
 6631              	.LASF10:
 6632 01f5 6C6F6E67 		.ascii	"long long unsigned int\000"
 6632      206C6F6E 
 6632      6720756E 
 6632      7369676E 
 6632      65642069 
 6633              	.LASF173:
 6634 020c 55415254 		.ascii	"UART_1_GetChar\000"
 6634      5F315F47 
 6634      65744368 
 6634      617200
 6635              	.LASF105:
 6636 021b 7469636B 		.ascii	"ticks\000"
 6636      7300
 6637              	.LASF138:
 6638 0221 5258444C 		.ascii	"RXDLC1\000"
 6638      433100
 6639              	.LASF149:
 6640 0228 4144435F 		.ascii	"ADC_SAR_1_CountsTo_mVolts\000"
 6640      5341525F 
 6640      315F436F 
 6640      756E7473 
 6640      546F5F6D 
 6641              	.LASF154:
 6642 0242 6C656674 		.ascii	"leftEncTimer_WriteCounter\000"
 6642      456E6354 
 6642      696D6572 
 6642      5F577269 
 6642      7465436F 
 6643              	.LASF152:
 6644 025c 456E636F 		.ascii	"Encoder_Left_WriteCounter\000"
 6644      6465725F 
 6644      4C656674 
 6644      5F577269 
ARM GAS  C:\Users\Patrick\AppData\Local\Temp\cc1OctCg.s 			page 172


 6644      7465436F 
 6645              	.LASF147:
 6646 0276 47657452 		.ascii	"GetRate\000"
 6646      61746500 
 6647              	.LASF53:
 6648 027e 4952516E 		.ascii	"IRQn_Type\000"
 6648      5F547970 
 6648      6500
 6649              	.LASF104:
 6650 0288 656E636F 		.ascii	"encoder\000"
 6650      64657200 
 6651              	.LASF160:
 6652 0290 4144435F 		.ascii	"ADC_SAR_1_Start\000"
 6652      5341525F 
 6652      315F5374 
 6652      61727400 
 6653              	.LASF172:
 6654 02a0 55415254 		.ascii	"UART_1_PutString\000"
 6654      5F315F50 
 6654      75745374 
 6654      72696E67 
 6654      00
 6655              	.LASF67:
 6656 02b1 43505549 		.ascii	"CPUID\000"
 6656      4400
 6657              	.LASF179:
 6658 02b7 53797354 		.ascii	"SysTick_Config\000"
 6658      69636B5F 
 6658      436F6E66 
 6658      696700
 6659              	.LASF77:
 6660 02c6 41465352 		.ascii	"AFSR\000"
 6660      00
 6661              	.LASF153:
 6662 02cb 6C656674 		.ascii	"leftEncTimer_ReadCounter\000"
 6662      456E6354 
 6662      696D6572 
 6662      5F526561 
 6662      64436F75 
 6663              	.LASF27:
 6664 02e4 43414E5F 		.ascii	"CAN_1_DATA_BYTES_MSG\000"
 6664      315F4441 
 6664      54415F42 
 6664      59544553 
 6664      5F4D5347 
 6665              	.LASF97:
 6666 02f9 73656E73 		.ascii	"sensor\000"
 6666      6F7200
 6667              	.LASF73:
 6668 0300 48465352 		.ascii	"HFSR\000"
 6668      00
 6669              	.LASF151:
 6670 0305 456E636F 		.ascii	"Encoder_Left_ReadCounter\000"
 6670      6465725F 
 6670      4C656674 
 6670      5F526561 
 6670      64436F75 
ARM GAS  C:\Users\Patrick\AppData\Local\Temp\cc1OctCg.s 			page 173


 6671              	.LASF22:
 6672 031e 63686172 		.ascii	"char\000"
 6672      00
 6673              	.LASF93:
 6674 0323 72617465 		.ascii	"rate\000"
 6674      00
 6675              	.LASF70:
 6676 0328 41495243 		.ascii	"AIRCR\000"
 6676      5200
 6677              	.LASF36:
 6678 032e 72786163 		.ascii	"rxacr\000"
 6678      7200
 6679              	.LASF129:
 6680 0334 43414E5F 		.ascii	"CAN_Send\000"
 6680      53656E64 
 6680      00
 6681              	.LASF150:
 6682 033d 4144435F 		.ascii	"ADC_SAR_1_GetResult16\000"
 6682      5341525F 
 6682      315F4765 
 6682      74526573 
 6682      756C7431 
 6683              	.LASF37:
 6684 0353 7278616D 		.ascii	"rxamrd\000"
 6684      726400
 6685              	.LASF137:
 6686 035a 52784D65 		.ascii	"RxMessage1\000"
 6686      73736167 
 6686      653100
 6687              	.LASF16:
 6688 0365 75696E74 		.ascii	"uint16\000"
 6688      313600
 6689              	.LASF87:
 6690 036c 64617461 		.ascii	"data\000"
 6690      00
 6691              	.LASF12:
 6692 0371 75696E74 		.ascii	"uint8_t\000"
 6692      385F7400 
 6693              	.LASF21:
 6694 0379 63686172 		.ascii	"char8\000"
 6694      3800
 6695              	.LASF108:
 6696 037f 77696E64 		.ascii	"window_set\000"
 6696      6F775F73 
 6696      657400
 6697              	.LASF38:
 6698 038a 72786163 		.ascii	"rxacrd\000"
 6698      726400
 6699              	.LASF99:
 6700 0391 456E636F 		.ascii	"Encoder\000"
 6700      64657200 
 6701              	.LASF96:
 6702 0399 506F7473 		.ascii	"Pots\000"
 6702      00
 6703              	.LASF29:
 6704 039e 43414E5F 		.ascii	"CAN_1_DATA_BYTES\000"
 6704      315F4441 
ARM GAS  C:\Users\Patrick\AppData\Local\Temp\cc1OctCg.s 			page 174


 6704      54415F42 
 6704      59544553 
 6704      00
 6705              	.LASF145:
 6706 03af 72696768 		.ascii	"right\000"
 6706      7400
 6707              	.LASF9:
 6708 03b5 6C6F6E67 		.ascii	"long long int\000"
 6708      206C6F6E 
 6708      6720696E 
 6708      7400
 6709              	.LASF71:
 6710 03c3 53484353 		.ascii	"SHCSR\000"
 6710      5200
 6711              	.LASF91:
 6712 03c9 77696E64 		.ascii	"window\000"
 6712      6F7700
 6713              	.LASF72:
 6714 03d0 43465352 		.ascii	"CFSR\000"
 6714      00
 6715              	.LASF95:
 6716 03d5 53656E73 		.ascii	"Sensors\000"
 6716      6F727300 
 6717              	.LASF86:
 6718 03dd 626F6F6C 		.ascii	"bool\000"
 6718      00
 6719              	.LASF167:
 6720 03e2 43414E5F 		.ascii	"CAN_1_Start\000"
 6720      315F5374 
 6720      61727400 
 6721              	.LASF34:
 6722 03ee 72786461 		.ascii	"rxdata\000"
 6722      746100
 6723              	.LASF47:
 6724 03f5 42757346 		.ascii	"BusFault_IRQn\000"
 6724      61756C74 
 6724      5F495251 
 6724      6E00
 6725              	.LASF170:
 6726 0403 6D656D73 		.ascii	"memset\000"
 6726      657400
 6727              	.LASF25:
 6728 040a 63796973 		.ascii	"cyisraddress\000"
 6728      72616464 
 6728      72657373 
 6728      00
 6729              	.LASF146:
 6730 0417 414D7578 		.ascii	"AMux_1_FastSelect\000"
 6730      5F315F46 
 6730      61737453 
 6730      656C6563 
 6730      7400
 6731              	.LASF51:
 6732 0429 50656E64 		.ascii	"PendSV_IRQn\000"
 6732      53565F49 
 6732      52516E00 
 6733              	.LASF17:
ARM GAS  C:\Users\Patrick\AppData\Local\Temp\cc1OctCg.s 			page 175


 6734 0435 75696E74 		.ascii	"uint32\000"
 6734      333200
 6735              	.LASF134:
 6736 043c 73657665 		.ascii	"seven\000"
 6736      6E00
 6737              	.LASF156:
 6738 0442 456E636F 		.ascii	"Encoder_Right_WriteCounter\000"
 6738      6465725F 
 6738      52696768 
 6738      745F5772 
 6738      69746543 
 6739              	.LASF142:
 6740 045d 73746565 		.ascii	"steering\000"
 6740      72696E67 
 6740      00
 6741              	.LASF60:
 6742 0466 49435052 		.ascii	"ICPR\000"
 6742      00
 6743              	.LASF102:
 6744 046b 506F7449 		.ascii	"PotInit\000"
 6744      6E697400 
 6745              	.LASF39:
 6746 0473 43414E5F 		.ascii	"CAN_1_RX_STRUCT\000"
 6746      315F5258 
 6746      5F535452 
 6746      55435400 
 6747              	.LASF85:
 6748 0483 53797354 		.ascii	"SysTick_Type\000"
 6748      69636B5F 
 6748      54797065 
 6748      00
 6749              	.LASF174:
 6750 0490 73707269 		.ascii	"sprintf\000"
 6750      6E746600 
 6751              	.LASF100:
 6752 0498 4952516E 		.ascii	"IRQn\000"
 6752      00
 6753              	.LASF24:
 6754 049d 72656733 		.ascii	"reg32\000"
 6754      3200
 6755              	.LASF103:
 6756 04a3 456E636F 		.ascii	"EncoderInit\000"
 6756      64657249 
 6756      6E697400 
 6757              	.LASF107:
 6758 04af 6E756D62 		.ascii	"number_set\000"
 6758      65725F73 
 6758      657400
 6759              	.LASF75:
 6760 04ba 4D4D4641 		.ascii	"MMFAR\000"
 6760      5200
 6761              	.LASF55:
 6762 04c0 52455345 		.ascii	"RESERVED0\000"
 6762      52564544 
 6762      3000
 6763              	.LASF59:
 6764 04ca 52455345 		.ascii	"RESERVED2\000"
ARM GAS  C:\Users\Patrick\AppData\Local\Temp\cc1OctCg.s 			page 176


 6764      52564544 
 6764      3200
 6765              	.LASF61:
 6766 04d4 52455345 		.ascii	"RESERVED3\000"
 6766      52564544 
 6766      3300
 6767              	.LASF63:
 6768 04de 52455345 		.ascii	"RESERVED4\000"
 6768      52564544 
 6768      3400
 6769              	.LASF64:
 6770 04e8 52455345 		.ascii	"RESERVED5\000"
 6770      52564544 
 6770      3500
 6771              	.LASF2:
 6772 04f2 73686F72 		.ascii	"short int\000"
 6772      7420696E 
 6772      7400
 6773              	.LASF113:
 6774 04fc 47657453 		.ascii	"GetSample\000"
 6774      616D706C 
 6774      6500
 6775              	.LASF6:
 6776 0506 6C6F6E67 		.ascii	"long int\000"
 6776      20696E74 
 6776      00
 6777              	.LASF111:
 6778 050f 666C6167 		.ascii	"flag_set\000"
 6778      5F736574 
 6778      00
 6779              	.LASF135:
 6780 0518 49544D5F 		.ascii	"ITM_RxBuffer\000"
 6780      52784275 
 6780      66666572 
 6780      00
 6781              	.LASF171:
 6782 0525 4379496E 		.ascii	"CyIntSetSysVector\000"
 6782      74536574 
 6782      53797356 
 6782      6563746F 
 6782      7200
 6783              	.LASF44:
 6784 0537 4E6F6E4D 		.ascii	"NonMaskableInt_IRQn\000"
 6784      61736B61 
 6784      626C6549 
 6784      6E745F49 
 6784      52516E00 
 6785              	.LASF101:
 6786 054b 7072696F 		.ascii	"priority\000"
 6786      72697479 
 6786      00
 6787              	.LASF128:
 6788 0554 5472616E 		.ascii	"TransmitBuffer\000"
 6788      736D6974 
 6788      42756666 
 6788      657200
 6789              	.LASF132:
ARM GAS  C:\Users\Patrick\AppData\Local\Temp\cc1OctCg.s 			page 177


 6790 0563 666F7572 		.ascii	"four\000"
 6790      00
 6791              	.LASF92:
 6792 0568 666C6167 		.ascii	"flag\000"
 6792      00
 6793              	.LASF30:
 6794 056d 43414E5F 		.ascii	"CAN_1_REG_32\000"
 6794      315F5245 
 6794      475F3332 
 6794      00
 6795              	.LASF165:
 6796 057a 6C656674 		.ascii	"leftEncTimer_Start\000"
 6796      456E6354 
 6796      696D6572 
 6796      5F537461 
 6796      727400
 6797              	.LASF124:
 6798 058d 43414E5F 		.ascii	"CAN_1_ReceiveMsg\000"
 6798      315F5265 
 6798      63656976 
 6798      654D7367 
 6798      00
 6799              	.LASF131:
 6800 059e 74687265 		.ascii	"three\000"
 6800      6500
 6801              	.LASF144:
 6802 05a4 6C656674 		.ascii	"left\000"
 6802      00
 6803              	.LASF88:
 6804 05a9 61636375 		.ascii	"accumulator\000"
 6804      6D756C61 
 6804      746F7200 
 6805              	.LASF4:
 6806 05b5 5F5F7569 		.ascii	"__uint8_t\000"
 6806      6E74385F 
 6806      7400
 6807              	.LASF66:
 6808 05bf 4E564943 		.ascii	"NVIC_Type\000"
 6808      5F547970 
 6808      6500
 6809              	.LASF81:
 6810 05c9 5343425F 		.ascii	"SCB_Type\000"
 6810      54797065 
 6810      00
 6811              	.LASF76:
 6812 05d2 42464152 		.ascii	"BFAR\000"
 6812      00
 6813              	.LASF175:
 6814 05d7 474E5520 		.ascii	"GNU C 4.9.3 20150303 (release) [ARM/embedded-4_9-br"
 6814      4320342E 
 6814      392E3320 
 6814      32303135 
 6814      30333033 
 6815 060a 616E6368 		.ascii	"anch revision 221220] -mcpu=cortex-m3 -mthumb -g -O"
 6815      20726576 
 6815      6973696F 
 6815      6E203232 
ARM GAS  C:\Users\Patrick\AppData\Local\Temp\cc1OctCg.s 			page 178


 6815      31323230 
 6816 063d 33202D66 		.ascii	"3 -ffunction-sections -ffat-lto-objects\000"
 6816      66756E63 
 6816      74696F6E 
 6816      2D736563 
 6816      74696F6E 
 6817              	.LASF161:
 6818 0665 55415254 		.ascii	"UART_1_Start\000"
 6818      5F315F53 
 6818      74617274 
 6818      00
 6819              	.LASF69:
 6820 0672 56544F52 		.ascii	"VTOR\000"
 6820      00
 6821              	.LASF52:
 6822 0677 53797354 		.ascii	"SysTick_IRQn\000"
 6822      69636B5F 
 6822      4952516E 
 6822      00
 6823              	.LASF155:
 6824 0684 456E636F 		.ascii	"Encoder_Right_ReadCounter\000"
 6824      6465725F 
 6824      52696768 
 6824      745F5265 
 6824      6164436F 
 6825              	.LASF26:
 6826 069e 73697A65 		.ascii	"sizetype\000"
 6826      74797065 
 6826      00
 6827              	.LASF68:
 6828 06a7 49435352 		.ascii	"ICSR\000"
 6828      00
 6829              	.LASF8:
 6830 06ac 6C6F6E67 		.ascii	"long unsigned int\000"
 6830      20756E73 
 6830      69676E65 
 6830      6420696E 
 6830      7400
 6831              	.LASF119:
 6832 06be 43414E5F 		.ascii	"CAN_1_TxCancel\000"
 6832      315F5478 
 6832      43616E63 
 6832      656C00
 6833              	.LASF158:
 6834 06cd 72696768 		.ascii	"rightEncTimer_WriteCounter\000"
 6834      74456E63 
 6834      54696D65 
 6834      725F5772 
 6834      69746543 
 6835              	.LASF13:
 6836 06e8 696E7433 		.ascii	"int32_t\000"
 6836      325F7400 
 6837              	.LASF115:
 6838 06f0 72657472 		.ascii	"retry\000"
 6838      7900
 6839              	.LASF42:
 6840 06f6 74786461 		.ascii	"txdata\000"
ARM GAS  C:\Users\Patrick\AppData\Local\Temp\cc1OctCg.s 			page 179


 6840      746100
 6841              	.LASF28:
 6842 06fd 62797465 		.ascii	"byte\000"
 6842      00
 6843              	.LASF33:
 6844 0702 72786964 		.ascii	"rxid\000"
 6844      00
 6845              	.LASF123:
 6846 0707 43414E5F 		.ascii	"CAN_1_SendMsg0\000"
 6846      315F5365 
 6846      6E644D73 
 6846      673000
 6847              	.LASF50:
 6848 0716 44656275 		.ascii	"DebugMonitor_IRQn\000"
 6848      674D6F6E 
 6848      69746F72 
 6848      5F495251 
 6848      6E00
 6849              	.LASF48:
 6850 0728 55736167 		.ascii	"UsageFault_IRQn\000"
 6850      65466175 
 6850      6C745F49 
 6850      52516E00 
 6851              	.LASF1:
 6852 0738 756E7369 		.ascii	"unsigned char\000"
 6852      676E6564 
 6852      20636861 
 6852      7200
 6853              	.LASF7:
 6854 0746 5F5F7569 		.ascii	"__uint32_t\000"
 6854      6E743332 
 6854      5F7400
 6855              	.LASF49:
 6856 0751 53564361 		.ascii	"SVCall_IRQn\000"
 6856      6C6C5F49 
 6856      52516E00 
 6857              	.LASF32:
 6858 075d 7278636D 		.ascii	"rxcmd\000"
 6858      6400
 6859              	.LASF56:
 6860 0763 49434552 		.ascii	"ICER\000"
 6860      00
 6861              	.LASF62:
 6862 0768 49414252 		.ascii	"IABR\000"
 6862      00
 6863              	.LASF126:
 6864 076d 436F6E74 		.ascii	"ContinuouslySendData\000"
 6864      696E756F 
 6864      75736C79 
 6864      53656E64 
 6864      44617461 
 6865              	.LASF136:
 6866 0782 54784D65 		.ascii	"TxMessage1\000"
 6866      73736167 
 6866      653100
 6867              	.LASF122:
 6868 078d 43414E5F 		.ascii	"CAN_1_SendMsg\000"
ARM GAS  C:\Users\Patrick\AppData\Local\Temp\cc1OctCg.s 			page 180


 6868      315F5365 
 6868      6E644D73 
 6868      6700
 6869              	.LASF133:
 6870 079b 66697665 		.ascii	"five\000"
 6870      00
 6871              	.LASF0:
 6872 07a0 7369676E 		.ascii	"signed char\000"
 6872      65642063 
 6872      68617200 
 6873              	.LASF169:
 6874 07ac 43414E5F 		.ascii	"CAN_TIMER_Start\000"
 6874      54494D45 
 6874      525F5374 
 6874      61727400 
 6875              	.LASF121:
 6876 07bc 62756666 		.ascii	"bufferId\000"
 6876      65724964 
 6876      00
 6877              	.LASF3:
 6878 07c5 73686F72 		.ascii	"short unsigned int\000"
 6878      7420756E 
 6878      7369676E 
 6878      65642069 
 6878      6E7400
 6879              	.LASF180:
 6880 07d8 6D61696E 		.ascii	"main\000"
 6880      00
 6881              	.LASF45:
 6882 07dd 48617264 		.ascii	"HardFault_IRQn\000"
 6882      4661756C 
 6882      745F4952 
 6882      516E00
 6883              	.LASF58:
 6884 07ec 49535052 		.ascii	"ISPR\000"
 6884      00
 6885              	.LASF15:
 6886 07f1 75696E74 		.ascii	"uint8\000"
 6886      3800
 6887              	.LASF20:
 6888 07f7 646F7562 		.ascii	"double\000"
 6888      6C6500
 6889              	.LASF166:
 6890 07fe 72696768 		.ascii	"rightEncTimer_Start\000"
 6890      74456E63 
 6890      54696D65 
 6890      725F5374 
 6890      61727400 
 6891              	.LASF79:
 6892 0812 49534152 		.ascii	"ISAR\000"
 6892      00
 6893              	.LASF125:
 6894 0817 72784D61 		.ascii	"rxMailbox\000"
 6894      696C626F 
 6894      7800
 6895              	.LASF143:
 6896 0821 7468726F 		.ascii	"throttle\000"
ARM GAS  C:\Users\Patrick\AppData\Local\Temp\cc1OctCg.s 			page 181


 6896      74746C65 
 6896      00
 6897              	.LASF141:
 6898 082a 74696D65 		.ascii	"timer\000"
 6898      7200
 6899              	.LASF41:
 6900 0830 74786964 		.ascii	"txid\000"
 6900      00
 6901              	.LASF168:
 6902 0835 43414E5F 		.ascii	"CAN_ISR_Start\000"
 6902      4953525F 
 6902      53746172 
 6902      7400
 6903              	.LASF163:
 6904 0843 456E636F 		.ascii	"Encoder_Left_Start\000"
 6904      6465725F 
 6904      4C656674 
 6904      5F537461 
 6904      727400
 6905              	.LASF176:
 6906 0856 2E5C6D61 		.ascii	".\\main.c\000"
 6906      696E2E63 
 6906      00
 6907              	.LASF82:
 6908 085f 4354524C 		.ascii	"CTRL\000"
 6908      00
 6909              		.ident	"GCC: (GNU Tools for ARM Embedded Processors) 4.9.3 20150303 (release) [ARM/embedded-4_9-br
