ARM GAS  C:\Users\Patrick\AppData\Local\Temp\ccQYkIqY.s 			page 1


   1              		.syntax unified
   2              		.cpu cortex-m3
   3              		.fpu softvfp
   4              		.eabi_attribute 20, 1
   5              		.eabi_attribute 21, 1
   6              		.eabi_attribute 23, 3
   7              		.eabi_attribute 24, 1
   8              		.eabi_attribute 25, 1
   9              		.eabi_attribute 26, 1
  10              		.eabi_attribute 30, 6
  11              		.eabi_attribute 34, 1
  12              		.eabi_attribute 18, 4
  13              		.thumb
  14              		.file	"myUART.c"
  15              		.text
  16              	.Ltext0:
  17              		.cfi_sections	.debug_frame
  18              		.comm	RB,20,4
  19              		.comm	RxBuffer,128,4
  20              		.global	RxReadIndex
  21              		.data
  22              		.align	2
  23              		.type	RxReadIndex, %object
  24              		.size	RxReadIndex, 4
  25              	RxReadIndex:
  26 0000 00000000 		.word	RxBuffer
  27              		.global	RxWriteIndex
  28              		.align	2
  29              		.type	RxWriteIndex, %object
  30              		.size	RxWriteIndex, 4
  31              	RxWriteIndex:
  32 0004 00000000 		.word	RxBuffer
  33              		.global	RxStrIndex
  34              		.align	2
  35              		.type	RxStrIndex, %object
  36              		.size	RxStrIndex, 4
  37              	RxStrIndex:
  38 0008 00000000 		.word	RB
  39              		.section	.text.MyRxInt,"ax",%progbits
  40              		.align	2
  41              		.global	MyRxInt
  42              		.thumb
  43              		.thumb_func
  44              		.type	MyRxInt, %function
  45              	MyRxInt:
  46              	.LFB63:
  47              		.file 1 ".\\myUART.c"
   1:.\myUART.c    **** /* ==================================================
   2:.\myUART.c    ****  * Followed by project posted by 
   3:.\myUART.c    ****  * Bob Marlowe TxRx20
   4:.\myUART.c    ****  * http://www.cypress.com/?app=forum&id=2233&rID=63901
   5:.\myUART.c    **** 
   6:.\myUART.c    ****  * Provided As-is, without any warranties to perform
   7:.\myUART.c    ****  * under license terms CREATIVE COMMONS - SHARE ALIKE
   8:.\myUART.c    ****  *
   9:.\myUART.c    ****  * ==================================================
  10:.\myUART.c    **** */
ARM GAS  C:\Users\Patrick\AppData\Local\Temp\ccQYkIqY.s 			page 2


  11:.\myUART.c    **** 
  12:.\myUART.c    ****     
  13:.\myUART.c    **** #include <myUART.h>
  14:.\myUART.c    **** 
  15:.\myUART.c    **** 
  16:.\myUART.c    **** // defines ==================================================================
  17:.\myUART.c    **** 
  18:.\myUART.c    **** 
  19:.\myUART.c    **** uint8	RxBuffer[RxBufferSize];     // Rx circular buffer to hold all incoming command
  20:.\myUART.c    **** uint8  *RxReadIndex	 = RxBuffer;    // pointer to position in RxBuffer to write incoming Rx bytes
  21:.\myUART.c    **** uint8  *RxWriteIndex = RxBuffer;    // pointer to position in RxBuffer to read and process bytes
  22:.\myUART.c    **** 
  23:.\myUART.c    **** 
  24:.\myUART.c    **** char   *RxStrIndex = RB.RxStr;      // pointer to command string buffer (processed messages)
  25:.\myUART.c    ****                                     // each Rx command consists of: <byte command><string value><CR
  26:.\myUART.c    **** 
  27:.\myUART.c    **** //===========================================================================
  28:.\myUART.c    **** 
  29:.\myUART.c    **** CY_ISR(MyRxInt) //interrupt on Rx byte received
  30:.\myUART.c    **** {   
  48              		.loc 1 30 0
  49              		.cfi_startproc
  50              		@ args = 0, pretend = 0, frame = 0
  51              		@ frame_needed = 1, uses_anonymous_args = 0
  52 0000 98B5     		push	{r3, r4, r7, lr}
  53              		.cfi_def_cfa_offset 16
  54              		.cfi_offset 3, -16
  55              		.cfi_offset 4, -12
  56              		.cfi_offset 7, -8
  57              		.cfi_offset 14, -4
  58 0002 00AF     		add	r7, sp, #0
  59              		.cfi_def_cfa_register 7
  31:.\myUART.c    ****     //move all available characters from Rx queue to RxBuffer
  32:.\myUART.c    ****     while(UART_1_ReadRxStatus() & UART_1_RX_STS_FIFO_NOTEMPTY)
  60              		.loc 1 32 0
  61 0004 10E0     		b	.L2
  62              	.L3:
  33:.\myUART.c    **** 	{
  34:.\myUART.c    **** 		*RxWriteIndex++ = UART_1_ReadRxData();
  63              		.loc 1 34 0
  64 0006 0C4B     		ldr	r3, .L4
  65 0008 1C68     		ldr	r4, [r3]
  66 000a 631C     		adds	r3, r4, #1
  67 000c 0A4A     		ldr	r2, .L4
  68 000e 1360     		str	r3, [r2]
  69 0010 FFF7FEFF 		bl	UART_1_ReadRxData
  70 0014 0346     		mov	r3, r0
  71 0016 2370     		strb	r3, [r4]
  35:.\myUART.c    **** 		if (RxWriteIndex >= RxBuffer + RxBufferSize) RxWriteIndex = RxBuffer;      
  72              		.loc 1 35 0
  73 0018 074B     		ldr	r3, .L4
  74 001a 1B68     		ldr	r3, [r3]
  75 001c 074A     		ldr	r2, .L4+4
  76 001e 9342     		cmp	r3, r2
  77 0020 02D3     		bcc	.L2
  78              		.loc 1 35 0 is_stmt 0 discriminator 1
  79 0022 054B     		ldr	r3, .L4
ARM GAS  C:\Users\Patrick\AppData\Local\Temp\ccQYkIqY.s 			page 3


  80 0024 064A     		ldr	r2, .L4+8
  81 0026 1A60     		str	r2, [r3]
  82              	.L2:
  32:.\myUART.c    **** 	{
  83              		.loc 1 32 0 is_stmt 1
  84 0028 FFF7FEFF 		bl	UART_1_ReadRxStatus
  85 002c 0346     		mov	r3, r0
  86 002e 03F02003 		and	r3, r3, #32
  87 0032 002B     		cmp	r3, #0
  88 0034 E7D1     		bne	.L3
  36:.\myUART.c    **** 	}   
  37:.\myUART.c    **** }
  89              		.loc 1 37 0
  90 0036 98BD     		pop	{r3, r4, r7, pc}
  91              	.L5:
  92              		.align	2
  93              	.L4:
  94 0038 00000000 		.word	RxWriteIndex
  95 003c 80000000 		.word	RxBuffer+128
  96 0040 00000000 		.word	RxBuffer
  97              		.cfi_endproc
  98              	.LFE63:
  99              		.size	MyRxInt, .-MyRxInt
 100              		.section	.text.IsCharReady,"ax",%progbits
 101              		.align	2
 102              		.global	IsCharReady
 103              		.thumb
 104              		.thumb_func
 105              		.type	IsCharReady, %function
 106              	IsCharReady:
 107              	.LFB64:
  38:.\myUART.c    **** 
  39:.\myUART.c    **** //===========================================================================
  40:.\myUART.c    **** uint8 IsCharReady(void) 
  41:.\myUART.c    **** {
 108              		.loc 1 41 0
 109              		.cfi_startproc
 110              		@ args = 0, pretend = 0, frame = 0
 111              		@ frame_needed = 1, uses_anonymous_args = 0
 112              		@ link register save eliminated.
 113 0000 80B4     		push	{r7}
 114              		.cfi_def_cfa_offset 4
 115              		.cfi_offset 7, -4
 116 0002 00AF     		add	r7, sp, #0
 117              		.cfi_def_cfa_register 7
  42:.\myUART.c    **** 	return !(RxWriteIndex == RxReadIndex);
 118              		.loc 1 42 0
 119 0004 064B     		ldr	r3, .L8
 120 0006 1A68     		ldr	r2, [r3]
 121 0008 064B     		ldr	r3, .L8+4
 122 000a 1B68     		ldr	r3, [r3]
 123 000c 9A42     		cmp	r2, r3
 124 000e 14BF     		ite	ne
 125 0010 0123     		movne	r3, #1
 126 0012 0023     		moveq	r3, #0
 127 0014 DBB2     		uxtb	r3, r3
  43:.\myUART.c    **** }
ARM GAS  C:\Users\Patrick\AppData\Local\Temp\ccQYkIqY.s 			page 4


 128              		.loc 1 43 0
 129 0016 1846     		mov	r0, r3
 130 0018 BD46     		mov	sp, r7
 131              		.cfi_def_cfa_register 13
 132              		@ sp needed
 133 001a 5DF8047B 		ldr	r7, [sp], #4
 134              		.cfi_restore 7
 135              		.cfi_def_cfa_offset 0
 136 001e 7047     		bx	lr
 137              	.L9:
 138              		.align	2
 139              	.L8:
 140 0020 00000000 		.word	RxWriteIndex
 141 0024 00000000 		.word	RxReadIndex
 142              		.cfi_endproc
 143              	.LFE64:
 144              		.size	IsCharReady, .-IsCharReady
 145              		.section	.text.GetRxStr,"ax",%progbits
 146              		.align	2
 147              		.global	GetRxStr
 148              		.thumb
 149              		.thumb_func
 150              		.type	GetRxStr, %function
 151              	GetRxStr:
 152              	.LFB65:
  44:.\myUART.c    **** 
  45:.\myUART.c    **** //===========================================================================
  46:.\myUART.c    **** 
  47:.\myUART.c    **** uint8 GetRxStr(void)
  48:.\myUART.c    **** {
 153              		.loc 1 48 0
 154              		.cfi_startproc
 155              		@ args = 0, pretend = 0, frame = 8
 156              		@ frame_needed = 1, uses_anonymous_args = 0
 157              		@ link register save eliminated.
 158 0000 80B4     		push	{r7}
 159              		.cfi_def_cfa_offset 4
 160              		.cfi_offset 7, -4
 161 0002 83B0     		sub	sp, sp, #12
 162              		.cfi_def_cfa_offset 16
 163 0004 00AF     		add	r7, sp, #0
 164              		.cfi_def_cfa_register 7
  49:.\myUART.c    ****     uint8 RxStr_flag = 0;
 165              		.loc 1 49 0
 166 0006 0023     		movs	r3, #0
 167 0008 FB71     		strb	r3, [r7, #7]
  50:.\myUART.c    ****     static uint8 Ch;//static?
  51:.\myUART.c    ****    
  52:.\myUART.c    **** 	Ch = *RxReadIndex++;       //read next char in buffer
 168              		.loc 1 52 0
 169 000a 1B4B     		ldr	r3, .L17
 170 000c 1B68     		ldr	r3, [r3]
 171 000e 5A1C     		adds	r2, r3, #1
 172 0010 1949     		ldr	r1, .L17
 173 0012 0A60     		str	r2, [r1]
 174 0014 1A78     		ldrb	r2, [r3]	@ zero_extendqisi2
 175 0016 194B     		ldr	r3, .L17+4
ARM GAS  C:\Users\Patrick\AppData\Local\Temp\ccQYkIqY.s 			page 5


 176 0018 1A70     		strb	r2, [r3]
  53:.\myUART.c    ****     if (RxReadIndex >= RxBuffer + RxBufferSize) RxReadIndex = RxBuffer;
 177              		.loc 1 53 0
 178 001a 174B     		ldr	r3, .L17
 179 001c 1B68     		ldr	r3, [r3]
 180 001e 184A     		ldr	r2, .L17+8
 181 0020 9342     		cmp	r3, r2
 182 0022 02D3     		bcc	.L11
 183              		.loc 1 53 0 is_stmt 0 discriminator 1
 184 0024 144B     		ldr	r3, .L17
 185 0026 174A     		ldr	r2, .L17+12
 186 0028 1A60     		str	r2, [r3]
 187              	.L11:
  54:.\myUART.c    ****             
  55:.\myUART.c    ****     //if (Ch == EOM_char)
  56:.\myUART.c    ****     if ( (Ch == EOM_CR) || (Ch == EOM_LF) ) //any standard terminator
 188              		.loc 1 56 0 is_stmt 1
 189 002a 144B     		ldr	r3, .L17+4
 190 002c 1B78     		ldrb	r3, [r3]	@ zero_extendqisi2
 191 002e 0D2B     		cmp	r3, #13
 192 0030 03D0     		beq	.L12
 193              		.loc 1 56 0 is_stmt 0 discriminator 1
 194 0032 124B     		ldr	r3, .L17+4
 195 0034 1B78     		ldrb	r3, [r3]	@ zero_extendqisi2
 196 0036 0A2B     		cmp	r3, #10
 197 0038 0ED1     		bne	.L13
 198              	.L12:
  57:.\myUART.c    ****     {
  58:.\myUART.c    ****         *RxStrIndex = 0;        //terminate string excluding EOM_char
 199              		.loc 1 58 0 is_stmt 1
 200 003a 134B     		ldr	r3, .L17+16
 201 003c 1B68     		ldr	r3, [r3]
 202 003e 0022     		movs	r2, #0
 203 0040 1A70     		strb	r2, [r3]
  59:.\myUART.c    ****         RxStrIndex = RB.RxStr;  //reset pointer
 204              		.loc 1 59 0
 205 0042 114B     		ldr	r3, .L17+16
 206 0044 114A     		ldr	r2, .L17+20
 207 0046 1A60     		str	r2, [r3]
  60:.\myUART.c    ****         if (strlen(RB.RxStr) > 0)//non-empty message received
 208              		.loc 1 60 0
 209 0048 104B     		ldr	r3, .L17+20
 210 004a 1B78     		ldrb	r3, [r3]	@ zero_extendqisi2
 211 004c 002B     		cmp	r3, #0
 212 004e 02D0     		beq	.L14
  61:.\myUART.c    ****         {
  62:.\myUART.c    ****             RxStr_flag  = 1;    //set flag to process message
 213              		.loc 1 62 0
 214 0050 0123     		movs	r3, #1
 215 0052 FB71     		strb	r3, [r7, #7]
  60:.\myUART.c    ****         if (strlen(RB.RxStr) > 0)//non-empty message received
 216              		.loc 1 60 0
 217 0054 08E0     		b	.L15
 218              	.L14:
 219 0056 07E0     		b	.L15
 220              	.L13:
  63:.\myUART.c    ****         }   
ARM GAS  C:\Users\Patrick\AppData\Local\Temp\ccQYkIqY.s 			page 6


  64:.\myUART.c    ****     }
  65:.\myUART.c    ****     else                        //string body char received
  66:.\myUART.c    ****     {
  67:.\myUART.c    ****         *RxStrIndex++ = Ch;     //build command message   
 221              		.loc 1 67 0
 222 0058 0B4B     		ldr	r3, .L17+16
 223 005a 1B68     		ldr	r3, [r3]
 224 005c 5A1C     		adds	r2, r3, #1
 225 005e 0A49     		ldr	r1, .L17+16
 226 0060 0A60     		str	r2, [r1]
 227 0062 064A     		ldr	r2, .L17+4
 228 0064 1278     		ldrb	r2, [r2]	@ zero_extendqisi2
 229 0066 1A70     		strb	r2, [r3]
 230              	.L15:
  68:.\myUART.c    ****         //todo: problem if first char is empty space
  69:.\myUART.c    ****     }   
  70:.\myUART.c    **** 
  71:.\myUART.c    ****     return RxStr_flag;        
 231              		.loc 1 71 0
 232 0068 FB79     		ldrb	r3, [r7, #7]	@ zero_extendqisi2
  72:.\myUART.c    **** }
 233              		.loc 1 72 0
 234 006a 1846     		mov	r0, r3
 235 006c 0C37     		adds	r7, r7, #12
 236              		.cfi_def_cfa_offset 4
 237 006e BD46     		mov	sp, r7
 238              		.cfi_def_cfa_register 13
 239              		@ sp needed
 240 0070 5DF8047B 		ldr	r7, [sp], #4
 241              		.cfi_restore 7
 242              		.cfi_def_cfa_offset 0
 243 0074 7047     		bx	lr
 244              	.L18:
 245 0076 00BF     		.align	2
 246              	.L17:
 247 0078 00000000 		.word	RxReadIndex
 248 007c 00000000 		.word	Ch.6103
 249 0080 80000000 		.word	RxBuffer+128
 250 0084 00000000 		.word	RxBuffer
 251 0088 00000000 		.word	RxStrIndex
 252 008c 00000000 		.word	RB
 253              		.cfi_endproc
 254              	.LFE65:
 255              		.size	GetRxStr, .-GetRxStr
 256              		.bss
 257              	Ch.6103:
 258 0000 00       		.space	1
 259              		.text
 260              	.Letext0:
 261              		.file 2 "c:\\program files (x86)\\cypress\\psoc creator\\3.3\\psoc creator\\import\\gnu\\arm\\4.9.
 262              		.file 3 "c:\\program files (x86)\\cypress\\psoc creator\\3.3\\psoc creator\\import\\gnu\\arm\\4.9.
 263              		.file 4 "Generated_Source\\PSoC5/cytypes.h"
 264              		.file 5 "Generated_Source\\PSoC5/core_cm3.h"
 265              		.file 6 "./myUART.h"