ARM GAS  C:\Users\Patrick\AppData\Local\Temp\ccBj80lx.s 			page 1


   1              		.syntax unified
   2              		.cpu cortex-m3
   3              		.fpu softvfp
   4              		.eabi_attribute 20, 1
   5              		.eabi_attribute 21, 1
   6              		.eabi_attribute 23, 3
   7              		.eabi_attribute 24, 1
   8              		.eabi_attribute 25, 1
   9              		.eabi_attribute 26, 1
  10              		.eabi_attribute 30, 2
  11              		.eabi_attribute 34, 1
  12              		.eabi_attribute 18, 4
  13              		.thumb
  14              		.file	"rightEncTimer.c"
  15              		.text
  16              	.Ltext0:
  17              		.cfi_sections	.debug_frame
  18              		.section	.text.rightEncTimer_Init,"ax",%progbits
  19              		.align	2
  20              		.global	rightEncTimer_Init
  21              		.thumb
  22              		.thumb_func
  23              		.type	rightEncTimer_Init, %function
  24              	rightEncTimer_Init:
  25              	.LFB0:
  26              		.file 1 ".\\Generated_Source\\PSoC5\\rightEncTimer.c"
   1:.\Generated_Source\PSoC5/rightEncTimer.c **** /*******************************************************************************
   2:.\Generated_Source\PSoC5/rightEncTimer.c **** * File Name: rightEncTimer.c  
   3:.\Generated_Source\PSoC5/rightEncTimer.c **** * Version 3.0
   4:.\Generated_Source\PSoC5/rightEncTimer.c **** *
   5:.\Generated_Source\PSoC5/rightEncTimer.c **** *  Description:
   6:.\Generated_Source\PSoC5/rightEncTimer.c **** *     The Counter component consists of a 8, 16, 24 or 32-bit counter with
   7:.\Generated_Source\PSoC5/rightEncTimer.c **** *     a selectable period between 2 and 2^Width - 1.  
   8:.\Generated_Source\PSoC5/rightEncTimer.c **** *
   9:.\Generated_Source\PSoC5/rightEncTimer.c **** *   Note:
  10:.\Generated_Source\PSoC5/rightEncTimer.c **** *     None
  11:.\Generated_Source\PSoC5/rightEncTimer.c **** *
  12:.\Generated_Source\PSoC5/rightEncTimer.c **** ********************************************************************************
  13:.\Generated_Source\PSoC5/rightEncTimer.c **** * Copyright 2008-2012, Cypress Semiconductor Corporation.  All rights reserved.
  14:.\Generated_Source\PSoC5/rightEncTimer.c **** * You may use this file only in accordance with the license, terms, conditions, 
  15:.\Generated_Source\PSoC5/rightEncTimer.c **** * disclaimers, and limitations in the end user license agreement accompanying 
  16:.\Generated_Source\PSoC5/rightEncTimer.c **** * the software package with which this file was provided.
  17:.\Generated_Source\PSoC5/rightEncTimer.c **** *******************************************************************************/
  18:.\Generated_Source\PSoC5/rightEncTimer.c **** 
  19:.\Generated_Source\PSoC5/rightEncTimer.c **** #include "rightEncTimer.h"
  20:.\Generated_Source\PSoC5/rightEncTimer.c **** 
  21:.\Generated_Source\PSoC5/rightEncTimer.c **** uint8 rightEncTimer_initVar = 0u;
  22:.\Generated_Source\PSoC5/rightEncTimer.c **** 
  23:.\Generated_Source\PSoC5/rightEncTimer.c **** 
  24:.\Generated_Source\PSoC5/rightEncTimer.c **** /*******************************************************************************
  25:.\Generated_Source\PSoC5/rightEncTimer.c **** * Function Name: rightEncTimer_Init
  26:.\Generated_Source\PSoC5/rightEncTimer.c **** ********************************************************************************
  27:.\Generated_Source\PSoC5/rightEncTimer.c **** * Summary:
  28:.\Generated_Source\PSoC5/rightEncTimer.c **** *     Initialize to the schematic state
  29:.\Generated_Source\PSoC5/rightEncTimer.c **** * 
  30:.\Generated_Source\PSoC5/rightEncTimer.c **** * Parameters:  
  31:.\Generated_Source\PSoC5/rightEncTimer.c **** *  void  
ARM GAS  C:\Users\Patrick\AppData\Local\Temp\ccBj80lx.s 			page 2


  32:.\Generated_Source\PSoC5/rightEncTimer.c **** *
  33:.\Generated_Source\PSoC5/rightEncTimer.c **** * Return: 
  34:.\Generated_Source\PSoC5/rightEncTimer.c **** *  void
  35:.\Generated_Source\PSoC5/rightEncTimer.c **** *
  36:.\Generated_Source\PSoC5/rightEncTimer.c **** *******************************************************************************/
  37:.\Generated_Source\PSoC5/rightEncTimer.c **** void rightEncTimer_Init(void) 
  38:.\Generated_Source\PSoC5/rightEncTimer.c **** {
  27              		.loc 1 38 0
  28              		.cfi_startproc
  29              		@ args = 0, pretend = 0, frame = 0
  30              		@ frame_needed = 0, uses_anonymous_args = 0
  31 0000 38B5     		push	{r3, r4, r5, lr}
  32              		.cfi_def_cfa_offset 16
  33              		.cfi_offset 3, -16
  34              		.cfi_offset 4, -12
  35              		.cfi_offset 5, -8
  36              		.cfi_offset 14, -4
  39:.\Generated_Source\PSoC5/rightEncTimer.c ****         #if (!rightEncTimer_UsingFixedFunction && !rightEncTimer_ControlRegRemoved)
  40:.\Generated_Source\PSoC5/rightEncTimer.c ****             uint8 ctrl;
  41:.\Generated_Source\PSoC5/rightEncTimer.c ****         #endif /* (!rightEncTimer_UsingFixedFunction && !rightEncTimer_ControlRegRemoved) */
  42:.\Generated_Source\PSoC5/rightEncTimer.c ****         
  43:.\Generated_Source\PSoC5/rightEncTimer.c ****         #if(!rightEncTimer_UsingFixedFunction) 
  44:.\Generated_Source\PSoC5/rightEncTimer.c ****             /* Interrupt State Backup for Critical Region*/
  45:.\Generated_Source\PSoC5/rightEncTimer.c ****             uint8 rightEncTimer_interruptState;
  46:.\Generated_Source\PSoC5/rightEncTimer.c ****         #endif /* (!rightEncTimer_UsingFixedFunction) */
  47:.\Generated_Source\PSoC5/rightEncTimer.c ****         
  48:.\Generated_Source\PSoC5/rightEncTimer.c ****         #if (rightEncTimer_UsingFixedFunction)
  49:.\Generated_Source\PSoC5/rightEncTimer.c ****             /* Clear all bits but the enable bit (if it's already set for Timer operation */
  50:.\Generated_Source\PSoC5/rightEncTimer.c ****             rightEncTimer_CONTROL &= rightEncTimer_CTRL_ENABLE;
  51:.\Generated_Source\PSoC5/rightEncTimer.c ****             
  52:.\Generated_Source\PSoC5/rightEncTimer.c ****             /* Clear the mode bits for continuous run mode */
  53:.\Generated_Source\PSoC5/rightEncTimer.c ****             #if (CY_PSOC5A)
  54:.\Generated_Source\PSoC5/rightEncTimer.c ****                 rightEncTimer_CONTROL2 &= ((uint8)(~rightEncTimer_CTRL_MODE_MASK));
  55:.\Generated_Source\PSoC5/rightEncTimer.c ****             #endif /* (CY_PSOC5A) */
  56:.\Generated_Source\PSoC5/rightEncTimer.c ****             #if (CY_PSOC3 || CY_PSOC5LP)
  57:.\Generated_Source\PSoC5/rightEncTimer.c ****                 rightEncTimer_CONTROL3 &= ((uint8)(~rightEncTimer_CTRL_MODE_MASK));                
  58:.\Generated_Source\PSoC5/rightEncTimer.c ****             #endif /* (CY_PSOC3 || CY_PSOC5LP) */
  59:.\Generated_Source\PSoC5/rightEncTimer.c ****             /* Check if One Shot mode is enabled i.e. RunMode !=0*/
  60:.\Generated_Source\PSoC5/rightEncTimer.c ****             #if (rightEncTimer_RunModeUsed != 0x0u)
  61:.\Generated_Source\PSoC5/rightEncTimer.c ****                 /* Set 3rd bit of Control register to enable one shot mode */
  62:.\Generated_Source\PSoC5/rightEncTimer.c ****                 rightEncTimer_CONTROL |= rightEncTimer_ONESHOT;
  63:.\Generated_Source\PSoC5/rightEncTimer.c ****             #endif /* (rightEncTimer_RunModeUsed != 0x0u) */
  64:.\Generated_Source\PSoC5/rightEncTimer.c ****             
  65:.\Generated_Source\PSoC5/rightEncTimer.c ****             /* Set the IRQ to use the status register interrupts */
  66:.\Generated_Source\PSoC5/rightEncTimer.c ****             rightEncTimer_CONTROL2 |= rightEncTimer_CTRL2_IRQ_SEL;
  67:.\Generated_Source\PSoC5/rightEncTimer.c ****             
  68:.\Generated_Source\PSoC5/rightEncTimer.c ****             /* Clear and Set SYNCTC and SYNCCMP bits of RT1 register */
  69:.\Generated_Source\PSoC5/rightEncTimer.c ****             rightEncTimer_RT1 &= ((uint8)(~rightEncTimer_RT1_MASK));
  70:.\Generated_Source\PSoC5/rightEncTimer.c ****             rightEncTimer_RT1 |= rightEncTimer_SYNC;     
  71:.\Generated_Source\PSoC5/rightEncTimer.c ****                     
  72:.\Generated_Source\PSoC5/rightEncTimer.c ****             /*Enable DSI Sync all all inputs of the Timer*/
  73:.\Generated_Source\PSoC5/rightEncTimer.c ****             rightEncTimer_RT1 &= ((uint8)(~rightEncTimer_SYNCDSI_MASK));
  74:.\Generated_Source\PSoC5/rightEncTimer.c ****             rightEncTimer_RT1 |= rightEncTimer_SYNCDSI_EN;
  75:.\Generated_Source\PSoC5/rightEncTimer.c **** 
  76:.\Generated_Source\PSoC5/rightEncTimer.c ****         #else
  77:.\Generated_Source\PSoC5/rightEncTimer.c ****             #if(!rightEncTimer_ControlRegRemoved)
  78:.\Generated_Source\PSoC5/rightEncTimer.c ****             /* Set the default compare mode defined in the parameter */
ARM GAS  C:\Users\Patrick\AppData\Local\Temp\ccBj80lx.s 			page 3


  79:.\Generated_Source\PSoC5/rightEncTimer.c ****             ctrl = rightEncTimer_CONTROL & ((uint8)(~rightEncTimer_CTRL_CMPMODE_MASK));
  37              		.loc 1 79 0
  38 0002 1549     		ldr	r1, .L11
  39              	.LBB40:
  40              	.LBB41:
  41              	.LBB42:
  42              	.LBB43:
  80:.\Generated_Source\PSoC5/rightEncTimer.c ****             rightEncTimer_CONTROL = ctrl | rightEncTimer_DEFAULT_COMPARE_MODE;
  81:.\Generated_Source\PSoC5/rightEncTimer.c ****             
  82:.\Generated_Source\PSoC5/rightEncTimer.c ****             /* Set the default capture mode defined in the parameter */
  83:.\Generated_Source\PSoC5/rightEncTimer.c ****             ctrl = rightEncTimer_CONTROL & ((uint8)(~rightEncTimer_CTRL_CAPMODE_MASK));
  84:.\Generated_Source\PSoC5/rightEncTimer.c ****             
  85:.\Generated_Source\PSoC5/rightEncTimer.c ****             #if( 0 != rightEncTimer_CAPTURE_MODE_CONF)
  86:.\Generated_Source\PSoC5/rightEncTimer.c ****                 rightEncTimer_CONTROL = ctrl | rightEncTimer_DEFAULT_CAPTURE_MODE;
  87:.\Generated_Source\PSoC5/rightEncTimer.c ****             #else
  88:.\Generated_Source\PSoC5/rightEncTimer.c ****                 rightEncTimer_CONTROL = ctrl;
  89:.\Generated_Source\PSoC5/rightEncTimer.c ****             #endif /* 0 != rightEncTimer_CAPTURE_MODE */ 
  90:.\Generated_Source\PSoC5/rightEncTimer.c ****             
  91:.\Generated_Source\PSoC5/rightEncTimer.c ****             #endif /* (!rightEncTimer_ControlRegRemoved) */
  92:.\Generated_Source\PSoC5/rightEncTimer.c ****         #endif /* (rightEncTimer_UsingFixedFunction) */
  93:.\Generated_Source\PSoC5/rightEncTimer.c ****         
  94:.\Generated_Source\PSoC5/rightEncTimer.c ****         /* Clear all data in the FIFO's */
  95:.\Generated_Source\PSoC5/rightEncTimer.c ****         #if (!rightEncTimer_UsingFixedFunction)
  96:.\Generated_Source\PSoC5/rightEncTimer.c ****             rightEncTimer_ClearFIFO();
  97:.\Generated_Source\PSoC5/rightEncTimer.c ****         #endif /* (!rightEncTimer_UsingFixedFunction) */
  98:.\Generated_Source\PSoC5/rightEncTimer.c ****         
  99:.\Generated_Source\PSoC5/rightEncTimer.c ****         /* Set Initial values from Configuration */
 100:.\Generated_Source\PSoC5/rightEncTimer.c ****         rightEncTimer_WritePeriod(rightEncTimer_INIT_PERIOD_VALUE);
 101:.\Generated_Source\PSoC5/rightEncTimer.c ****         #if (!(rightEncTimer_UsingFixedFunction && (CY_PSOC5A)))
 102:.\Generated_Source\PSoC5/rightEncTimer.c ****             rightEncTimer_WriteCounter(rightEncTimer_INIT_COUNTER_VALUE);
 103:.\Generated_Source\PSoC5/rightEncTimer.c ****         #endif /* (!(rightEncTimer_UsingFixedFunction && (CY_PSOC5A))) */
 104:.\Generated_Source\PSoC5/rightEncTimer.c ****         rightEncTimer_SetInterruptMode(rightEncTimer_INIT_INTERRUPTS_MASK);
 105:.\Generated_Source\PSoC5/rightEncTimer.c ****         
 106:.\Generated_Source\PSoC5/rightEncTimer.c ****         #if (!rightEncTimer_UsingFixedFunction)
 107:.\Generated_Source\PSoC5/rightEncTimer.c ****             /* Read the status register to clear the unwanted interrupts */
 108:.\Generated_Source\PSoC5/rightEncTimer.c ****             (void)rightEncTimer_ReadStatusRegister();
 109:.\Generated_Source\PSoC5/rightEncTimer.c ****             /* Set the compare value (only available to non-fixed function implementation */
 110:.\Generated_Source\PSoC5/rightEncTimer.c ****             rightEncTimer_WriteCompare(rightEncTimer_INIT_COMPARE_VALUE);
 111:.\Generated_Source\PSoC5/rightEncTimer.c ****             /* Use the interrupt output of the status register for IRQ output */
 112:.\Generated_Source\PSoC5/rightEncTimer.c ****             
 113:.\Generated_Source\PSoC5/rightEncTimer.c ****             /* CyEnterCriticalRegion and CyExitCriticalRegion are used to mark following region cri
 114:.\Generated_Source\PSoC5/rightEncTimer.c ****             /* Enter Critical Region*/
 115:.\Generated_Source\PSoC5/rightEncTimer.c ****             rightEncTimer_interruptState = CyEnterCriticalSection();
 116:.\Generated_Source\PSoC5/rightEncTimer.c ****             
 117:.\Generated_Source\PSoC5/rightEncTimer.c ****             rightEncTimer_STATUS_AUX_CTRL |= rightEncTimer_STATUS_ACTL_INT_EN_MASK;
 118:.\Generated_Source\PSoC5/rightEncTimer.c ****             
 119:.\Generated_Source\PSoC5/rightEncTimer.c ****             /* Exit Critical Region*/
 120:.\Generated_Source\PSoC5/rightEncTimer.c ****             CyExitCriticalSection(rightEncTimer_interruptState);
 121:.\Generated_Source\PSoC5/rightEncTimer.c ****             
 122:.\Generated_Source\PSoC5/rightEncTimer.c ****         #endif /* (!rightEncTimer_UsingFixedFunction) */
 123:.\Generated_Source\PSoC5/rightEncTimer.c **** }
 124:.\Generated_Source\PSoC5/rightEncTimer.c **** 
 125:.\Generated_Source\PSoC5/rightEncTimer.c **** 
 126:.\Generated_Source\PSoC5/rightEncTimer.c **** /*******************************************************************************
 127:.\Generated_Source\PSoC5/rightEncTimer.c **** * Function Name: rightEncTimer_Enable
 128:.\Generated_Source\PSoC5/rightEncTimer.c **** ********************************************************************************
 129:.\Generated_Source\PSoC5/rightEncTimer.c **** * Summary:
ARM GAS  C:\Users\Patrick\AppData\Local\Temp\ccBj80lx.s 			page 4


 130:.\Generated_Source\PSoC5/rightEncTimer.c **** *     Enable the Counter
 131:.\Generated_Source\PSoC5/rightEncTimer.c **** * 
 132:.\Generated_Source\PSoC5/rightEncTimer.c **** * Parameters:  
 133:.\Generated_Source\PSoC5/rightEncTimer.c **** *  void  
 134:.\Generated_Source\PSoC5/rightEncTimer.c **** *
 135:.\Generated_Source\PSoC5/rightEncTimer.c **** * Return: 
 136:.\Generated_Source\PSoC5/rightEncTimer.c **** *  void
 137:.\Generated_Source\PSoC5/rightEncTimer.c **** *
 138:.\Generated_Source\PSoC5/rightEncTimer.c **** * Side Effects: 
 139:.\Generated_Source\PSoC5/rightEncTimer.c **** *   If the Enable mode is set to Hardware only then this function has no effect 
 140:.\Generated_Source\PSoC5/rightEncTimer.c **** *   on the operation of the counter.
 141:.\Generated_Source\PSoC5/rightEncTimer.c **** *
 142:.\Generated_Source\PSoC5/rightEncTimer.c **** *******************************************************************************/
 143:.\Generated_Source\PSoC5/rightEncTimer.c **** void rightEncTimer_Enable(void) 
 144:.\Generated_Source\PSoC5/rightEncTimer.c **** {
 145:.\Generated_Source\PSoC5/rightEncTimer.c ****     /* Globally Enable the Fixed Function Block chosen */
 146:.\Generated_Source\PSoC5/rightEncTimer.c ****     #if (rightEncTimer_UsingFixedFunction)
 147:.\Generated_Source\PSoC5/rightEncTimer.c ****         rightEncTimer_GLOBAL_ENABLE |= rightEncTimer_BLOCK_EN_MASK;
 148:.\Generated_Source\PSoC5/rightEncTimer.c ****         rightEncTimer_GLOBAL_STBY_ENABLE |= rightEncTimer_BLOCK_STBY_EN_MASK;
 149:.\Generated_Source\PSoC5/rightEncTimer.c ****     #endif /* (rightEncTimer_UsingFixedFunction) */  
 150:.\Generated_Source\PSoC5/rightEncTimer.c ****         
 151:.\Generated_Source\PSoC5/rightEncTimer.c ****     /* Enable the counter from the control register  */
 152:.\Generated_Source\PSoC5/rightEncTimer.c ****     /* If Fixed Function then make sure Mode is set correctly */
 153:.\Generated_Source\PSoC5/rightEncTimer.c ****     /* else make sure reset is clear */
 154:.\Generated_Source\PSoC5/rightEncTimer.c ****     #if(!rightEncTimer_ControlRegRemoved || rightEncTimer_UsingFixedFunction)
 155:.\Generated_Source\PSoC5/rightEncTimer.c ****         rightEncTimer_CONTROL |= rightEncTimer_CTRL_ENABLE;                
 156:.\Generated_Source\PSoC5/rightEncTimer.c ****     #endif /* (!rightEncTimer_ControlRegRemoved || rightEncTimer_UsingFixedFunction) */
 157:.\Generated_Source\PSoC5/rightEncTimer.c ****     
 158:.\Generated_Source\PSoC5/rightEncTimer.c **** }
 159:.\Generated_Source\PSoC5/rightEncTimer.c **** 
 160:.\Generated_Source\PSoC5/rightEncTimer.c **** 
 161:.\Generated_Source\PSoC5/rightEncTimer.c **** /*******************************************************************************
 162:.\Generated_Source\PSoC5/rightEncTimer.c **** * Function Name: rightEncTimer_Start
 163:.\Generated_Source\PSoC5/rightEncTimer.c **** ********************************************************************************
 164:.\Generated_Source\PSoC5/rightEncTimer.c **** * Summary:
 165:.\Generated_Source\PSoC5/rightEncTimer.c **** *  Enables the counter for operation 
 166:.\Generated_Source\PSoC5/rightEncTimer.c **** *
 167:.\Generated_Source\PSoC5/rightEncTimer.c **** * Parameters:  
 168:.\Generated_Source\PSoC5/rightEncTimer.c **** *  void  
 169:.\Generated_Source\PSoC5/rightEncTimer.c **** *
 170:.\Generated_Source\PSoC5/rightEncTimer.c **** * Return: 
 171:.\Generated_Source\PSoC5/rightEncTimer.c **** *  void
 172:.\Generated_Source\PSoC5/rightEncTimer.c **** *
 173:.\Generated_Source\PSoC5/rightEncTimer.c **** * Global variables:
 174:.\Generated_Source\PSoC5/rightEncTimer.c **** *  rightEncTimer_initVar: Is modified when this function is called for the  
 175:.\Generated_Source\PSoC5/rightEncTimer.c **** *   first time. Is used to ensure that initialization happens only once.
 176:.\Generated_Source\PSoC5/rightEncTimer.c **** *
 177:.\Generated_Source\PSoC5/rightEncTimer.c **** *******************************************************************************/
 178:.\Generated_Source\PSoC5/rightEncTimer.c **** void rightEncTimer_Start(void) 
 179:.\Generated_Source\PSoC5/rightEncTimer.c **** {
 180:.\Generated_Source\PSoC5/rightEncTimer.c ****     if(rightEncTimer_initVar == 0u)
 181:.\Generated_Source\PSoC5/rightEncTimer.c ****     {
 182:.\Generated_Source\PSoC5/rightEncTimer.c ****         rightEncTimer_Init();
 183:.\Generated_Source\PSoC5/rightEncTimer.c ****         
 184:.\Generated_Source\PSoC5/rightEncTimer.c ****         rightEncTimer_initVar = 1u; /* Clear this bit for Initialization */        
 185:.\Generated_Source\PSoC5/rightEncTimer.c ****     }
 186:.\Generated_Source\PSoC5/rightEncTimer.c ****     
ARM GAS  C:\Users\Patrick\AppData\Local\Temp\ccBj80lx.s 			page 5


 187:.\Generated_Source\PSoC5/rightEncTimer.c ****     /* Enable the Counter */
 188:.\Generated_Source\PSoC5/rightEncTimer.c ****     rightEncTimer_Enable();        
 189:.\Generated_Source\PSoC5/rightEncTimer.c **** }
 190:.\Generated_Source\PSoC5/rightEncTimer.c **** 
 191:.\Generated_Source\PSoC5/rightEncTimer.c **** 
 192:.\Generated_Source\PSoC5/rightEncTimer.c **** /*******************************************************************************
 193:.\Generated_Source\PSoC5/rightEncTimer.c **** * Function Name: rightEncTimer_Stop
 194:.\Generated_Source\PSoC5/rightEncTimer.c **** ********************************************************************************
 195:.\Generated_Source\PSoC5/rightEncTimer.c **** * Summary:
 196:.\Generated_Source\PSoC5/rightEncTimer.c **** * Halts the counter, but does not change any modes or disable interrupts.
 197:.\Generated_Source\PSoC5/rightEncTimer.c **** *
 198:.\Generated_Source\PSoC5/rightEncTimer.c **** * Parameters:  
 199:.\Generated_Source\PSoC5/rightEncTimer.c **** *  void  
 200:.\Generated_Source\PSoC5/rightEncTimer.c **** *
 201:.\Generated_Source\PSoC5/rightEncTimer.c **** * Return: 
 202:.\Generated_Source\PSoC5/rightEncTimer.c **** *  void
 203:.\Generated_Source\PSoC5/rightEncTimer.c **** *
 204:.\Generated_Source\PSoC5/rightEncTimer.c **** * Side Effects: If the Enable mode is set to Hardware only then this function
 205:.\Generated_Source\PSoC5/rightEncTimer.c **** *               has no effect on the operation of the counter.
 206:.\Generated_Source\PSoC5/rightEncTimer.c **** *
 207:.\Generated_Source\PSoC5/rightEncTimer.c **** *******************************************************************************/
 208:.\Generated_Source\PSoC5/rightEncTimer.c **** void rightEncTimer_Stop(void) 
 209:.\Generated_Source\PSoC5/rightEncTimer.c **** {
 210:.\Generated_Source\PSoC5/rightEncTimer.c ****     /* Disable Counter */
 211:.\Generated_Source\PSoC5/rightEncTimer.c ****     #if(!rightEncTimer_ControlRegRemoved || rightEncTimer_UsingFixedFunction)
 212:.\Generated_Source\PSoC5/rightEncTimer.c ****         rightEncTimer_CONTROL &= ((uint8)(~rightEncTimer_CTRL_ENABLE));        
 213:.\Generated_Source\PSoC5/rightEncTimer.c ****     #endif /* (!rightEncTimer_ControlRegRemoved || rightEncTimer_UsingFixedFunction) */
 214:.\Generated_Source\PSoC5/rightEncTimer.c ****     
 215:.\Generated_Source\PSoC5/rightEncTimer.c ****     /* Globally disable the Fixed Function Block chosen */
 216:.\Generated_Source\PSoC5/rightEncTimer.c ****     #if (rightEncTimer_UsingFixedFunction)
 217:.\Generated_Source\PSoC5/rightEncTimer.c ****         rightEncTimer_GLOBAL_ENABLE &= ((uint8)(~rightEncTimer_BLOCK_EN_MASK));
 218:.\Generated_Source\PSoC5/rightEncTimer.c ****         rightEncTimer_GLOBAL_STBY_ENABLE &= ((uint8)(~rightEncTimer_BLOCK_STBY_EN_MASK));
 219:.\Generated_Source\PSoC5/rightEncTimer.c ****     #endif /* (rightEncTimer_UsingFixedFunction) */
 220:.\Generated_Source\PSoC5/rightEncTimer.c **** }
 221:.\Generated_Source\PSoC5/rightEncTimer.c **** 
 222:.\Generated_Source\PSoC5/rightEncTimer.c **** 
 223:.\Generated_Source\PSoC5/rightEncTimer.c **** /*******************************************************************************
 224:.\Generated_Source\PSoC5/rightEncTimer.c **** * Function Name: rightEncTimer_SetInterruptMode
 225:.\Generated_Source\PSoC5/rightEncTimer.c **** ********************************************************************************
 226:.\Generated_Source\PSoC5/rightEncTimer.c **** * Summary:
 227:.\Generated_Source\PSoC5/rightEncTimer.c **** * Configures which interrupt sources are enabled to generate the final interrupt
 228:.\Generated_Source\PSoC5/rightEncTimer.c **** *
 229:.\Generated_Source\PSoC5/rightEncTimer.c **** * Parameters:  
 230:.\Generated_Source\PSoC5/rightEncTimer.c **** *  InterruptsMask: This parameter is an or'd collection of the status bits
 231:.\Generated_Source\PSoC5/rightEncTimer.c **** *                   which will be allowed to generate the counters interrupt.   
 232:.\Generated_Source\PSoC5/rightEncTimer.c **** *
 233:.\Generated_Source\PSoC5/rightEncTimer.c **** * Return: 
 234:.\Generated_Source\PSoC5/rightEncTimer.c **** *  void
 235:.\Generated_Source\PSoC5/rightEncTimer.c **** *
 236:.\Generated_Source\PSoC5/rightEncTimer.c **** *******************************************************************************/
 237:.\Generated_Source\PSoC5/rightEncTimer.c **** void rightEncTimer_SetInterruptMode(uint8 interruptsMask) 
 238:.\Generated_Source\PSoC5/rightEncTimer.c **** {
 239:.\Generated_Source\PSoC5/rightEncTimer.c ****     rightEncTimer_STATUS_MASK = interruptsMask;
 240:.\Generated_Source\PSoC5/rightEncTimer.c **** }
 241:.\Generated_Source\PSoC5/rightEncTimer.c **** 
 242:.\Generated_Source\PSoC5/rightEncTimer.c **** 
 243:.\Generated_Source\PSoC5/rightEncTimer.c **** /*******************************************************************************
ARM GAS  C:\Users\Patrick\AppData\Local\Temp\ccBj80lx.s 			page 6


 244:.\Generated_Source\PSoC5/rightEncTimer.c **** * Function Name: rightEncTimer_ReadStatusRegister
 245:.\Generated_Source\PSoC5/rightEncTimer.c **** ********************************************************************************
 246:.\Generated_Source\PSoC5/rightEncTimer.c **** * Summary:
 247:.\Generated_Source\PSoC5/rightEncTimer.c **** *   Reads the status register and returns it's state. This function should use
 248:.\Generated_Source\PSoC5/rightEncTimer.c **** *       defined types for the bit-field information as the bits in this
 249:.\Generated_Source\PSoC5/rightEncTimer.c **** *       register may be permuteable.
 250:.\Generated_Source\PSoC5/rightEncTimer.c **** *
 251:.\Generated_Source\PSoC5/rightEncTimer.c **** * Parameters:  
 252:.\Generated_Source\PSoC5/rightEncTimer.c **** *  void
 253:.\Generated_Source\PSoC5/rightEncTimer.c **** *
 254:.\Generated_Source\PSoC5/rightEncTimer.c **** * Return: 
 255:.\Generated_Source\PSoC5/rightEncTimer.c **** *  (uint8) The contents of the status register
 256:.\Generated_Source\PSoC5/rightEncTimer.c **** *
 257:.\Generated_Source\PSoC5/rightEncTimer.c **** * Side Effects:
 258:.\Generated_Source\PSoC5/rightEncTimer.c **** *   Status register bits may be clear on read. 
 259:.\Generated_Source\PSoC5/rightEncTimer.c **** *
 260:.\Generated_Source\PSoC5/rightEncTimer.c **** *******************************************************************************/
 261:.\Generated_Source\PSoC5/rightEncTimer.c **** uint8   rightEncTimer_ReadStatusRegister(void) 
 262:.\Generated_Source\PSoC5/rightEncTimer.c **** {
 263:.\Generated_Source\PSoC5/rightEncTimer.c ****     return rightEncTimer_STATUS;
  43              		.loc 1 263 0
  44 0004 154A     		ldr	r2, .L11+4
  45              	.LBE43:
  46              	.LBE42:
  47              	.LBE41:
  48              	.LBE40:
  79:.\Generated_Source\PSoC5/rightEncTimer.c ****             rightEncTimer_CONTROL = ctrl | rightEncTimer_DEFAULT_COMPARE_MODE;
  49              		.loc 1 79 0
  50 0006 0B78     		ldrb	r3, [r1]	@ zero_extendqisi2
  51              	.LVL0:
  52 0008 03F0F803 		and	r3, r3, #248
  53              	.LVL1:
  80:.\Generated_Source\PSoC5/rightEncTimer.c ****             rightEncTimer_CONTROL = ctrl | rightEncTimer_DEFAULT_COMPARE_MODE;
  54              		.loc 1 80 0
  55 000c 43F00103 		orr	r3, r3, #1
  56 0010 0B70     		strb	r3, [r1]
  83:.\Generated_Source\PSoC5/rightEncTimer.c ****             
  57              		.loc 1 83 0
  58 0012 0B78     		ldrb	r3, [r1]	@ zero_extendqisi2
  59 0014 03F0FC03 		and	r3, r3, #252
  60              	.LVL2:
  88:.\Generated_Source\PSoC5/rightEncTimer.c ****             #endif /* 0 != rightEncTimer_CAPTURE_MODE */ 
  61              		.loc 1 88 0
  62 0018 0B70     		strb	r3, [r1]
  63              	.LBB51:
  64              	.LBB50:
  65              	.LBB46:
  66              	.LBB44:
  67              		.loc 1 263 0
  68 001a 1378     		ldrb	r3, [r2]	@ zero_extendqisi2
  69              	.LVL3:
  70              	.LBE44:
  71              	.LBE46:
 264:.\Generated_Source\PSoC5/rightEncTimer.c **** }
 265:.\Generated_Source\PSoC5/rightEncTimer.c **** 
 266:.\Generated_Source\PSoC5/rightEncTimer.c **** 
 267:.\Generated_Source\PSoC5/rightEncTimer.c **** #if(!rightEncTimer_ControlRegRemoved)
ARM GAS  C:\Users\Patrick\AppData\Local\Temp\ccBj80lx.s 			page 7


 268:.\Generated_Source\PSoC5/rightEncTimer.c **** /*******************************************************************************
 269:.\Generated_Source\PSoC5/rightEncTimer.c **** * Function Name: rightEncTimer_ReadControlRegister
 270:.\Generated_Source\PSoC5/rightEncTimer.c **** ********************************************************************************
 271:.\Generated_Source\PSoC5/rightEncTimer.c **** * Summary:
 272:.\Generated_Source\PSoC5/rightEncTimer.c **** *   Reads the control register and returns it's state. This function should use
 273:.\Generated_Source\PSoC5/rightEncTimer.c **** *       defined types for the bit-field information as the bits in this
 274:.\Generated_Source\PSoC5/rightEncTimer.c **** *       register may be permuteable.
 275:.\Generated_Source\PSoC5/rightEncTimer.c **** *
 276:.\Generated_Source\PSoC5/rightEncTimer.c **** * Parameters:  
 277:.\Generated_Source\PSoC5/rightEncTimer.c **** *  void
 278:.\Generated_Source\PSoC5/rightEncTimer.c **** *
 279:.\Generated_Source\PSoC5/rightEncTimer.c **** * Return: 
 280:.\Generated_Source\PSoC5/rightEncTimer.c **** *  (uint8) The contents of the control register
 281:.\Generated_Source\PSoC5/rightEncTimer.c **** *
 282:.\Generated_Source\PSoC5/rightEncTimer.c **** *******************************************************************************/
 283:.\Generated_Source\PSoC5/rightEncTimer.c **** uint8   rightEncTimer_ReadControlRegister(void) 
 284:.\Generated_Source\PSoC5/rightEncTimer.c **** {
 285:.\Generated_Source\PSoC5/rightEncTimer.c ****     return rightEncTimer_CONTROL;
 286:.\Generated_Source\PSoC5/rightEncTimer.c **** }
 287:.\Generated_Source\PSoC5/rightEncTimer.c **** 
 288:.\Generated_Source\PSoC5/rightEncTimer.c **** 
 289:.\Generated_Source\PSoC5/rightEncTimer.c **** /*******************************************************************************
 290:.\Generated_Source\PSoC5/rightEncTimer.c **** * Function Name: rightEncTimer_WriteControlRegister
 291:.\Generated_Source\PSoC5/rightEncTimer.c **** ********************************************************************************
 292:.\Generated_Source\PSoC5/rightEncTimer.c **** * Summary:
 293:.\Generated_Source\PSoC5/rightEncTimer.c **** *   Sets the bit-field of the control register.  This function should use
 294:.\Generated_Source\PSoC5/rightEncTimer.c **** *       defined types for the bit-field information as the bits in this
 295:.\Generated_Source\PSoC5/rightEncTimer.c **** *       register may be permuteable.
 296:.\Generated_Source\PSoC5/rightEncTimer.c **** *
 297:.\Generated_Source\PSoC5/rightEncTimer.c **** * Parameters:  
 298:.\Generated_Source\PSoC5/rightEncTimer.c **** *  void
 299:.\Generated_Source\PSoC5/rightEncTimer.c **** *
 300:.\Generated_Source\PSoC5/rightEncTimer.c **** * Return: 
 301:.\Generated_Source\PSoC5/rightEncTimer.c **** *  (uint8) The contents of the control register
 302:.\Generated_Source\PSoC5/rightEncTimer.c **** *
 303:.\Generated_Source\PSoC5/rightEncTimer.c **** *******************************************************************************/
 304:.\Generated_Source\PSoC5/rightEncTimer.c **** void    rightEncTimer_WriteControlRegister(uint8 control) 
 305:.\Generated_Source\PSoC5/rightEncTimer.c **** {
 306:.\Generated_Source\PSoC5/rightEncTimer.c ****     rightEncTimer_CONTROL = control;
 307:.\Generated_Source\PSoC5/rightEncTimer.c **** }
 308:.\Generated_Source\PSoC5/rightEncTimer.c **** 
 309:.\Generated_Source\PSoC5/rightEncTimer.c **** #endif  /* (!rightEncTimer_ControlRegRemoved) */
 310:.\Generated_Source\PSoC5/rightEncTimer.c **** 
 311:.\Generated_Source\PSoC5/rightEncTimer.c **** 
 312:.\Generated_Source\PSoC5/rightEncTimer.c **** #if (!(rightEncTimer_UsingFixedFunction && (CY_PSOC5A)))
 313:.\Generated_Source\PSoC5/rightEncTimer.c **** /*******************************************************************************
 314:.\Generated_Source\PSoC5/rightEncTimer.c **** * Function Name: rightEncTimer_WriteCounter
 315:.\Generated_Source\PSoC5/rightEncTimer.c **** ********************************************************************************
 316:.\Generated_Source\PSoC5/rightEncTimer.c **** * Summary:
 317:.\Generated_Source\PSoC5/rightEncTimer.c **** *   This funtion is used to set the counter to a specific value
 318:.\Generated_Source\PSoC5/rightEncTimer.c **** *
 319:.\Generated_Source\PSoC5/rightEncTimer.c **** * Parameters:  
 320:.\Generated_Source\PSoC5/rightEncTimer.c **** *  counter:  New counter value. 
 321:.\Generated_Source\PSoC5/rightEncTimer.c **** *
 322:.\Generated_Source\PSoC5/rightEncTimer.c **** * Return: 
 323:.\Generated_Source\PSoC5/rightEncTimer.c **** *  void 
 324:.\Generated_Source\PSoC5/rightEncTimer.c **** *
ARM GAS  C:\Users\Patrick\AppData\Local\Temp\ccBj80lx.s 			page 8


 325:.\Generated_Source\PSoC5/rightEncTimer.c **** *******************************************************************************/
 326:.\Generated_Source\PSoC5/rightEncTimer.c **** void rightEncTimer_WriteCounter(uint16 counter) \
 327:.\Generated_Source\PSoC5/rightEncTimer.c ****                                    
 328:.\Generated_Source\PSoC5/rightEncTimer.c **** {
 329:.\Generated_Source\PSoC5/rightEncTimer.c ****     #if(rightEncTimer_UsingFixedFunction)
 330:.\Generated_Source\PSoC5/rightEncTimer.c ****         /* assert if block is already enabled */
 331:.\Generated_Source\PSoC5/rightEncTimer.c ****         CYASSERT (0u == (rightEncTimer_GLOBAL_ENABLE & rightEncTimer_BLOCK_EN_MASK));
 332:.\Generated_Source\PSoC5/rightEncTimer.c ****         /* If block is disabled, enable it and then write the counter */
 333:.\Generated_Source\PSoC5/rightEncTimer.c ****         rightEncTimer_GLOBAL_ENABLE |= rightEncTimer_BLOCK_EN_MASK;
 334:.\Generated_Source\PSoC5/rightEncTimer.c ****         CY_SET_REG16(rightEncTimer_COUNTER_LSB_PTR, (uint16)counter);
 335:.\Generated_Source\PSoC5/rightEncTimer.c ****         rightEncTimer_GLOBAL_ENABLE &= ((uint8)(~rightEncTimer_BLOCK_EN_MASK));
 336:.\Generated_Source\PSoC5/rightEncTimer.c ****     #else
 337:.\Generated_Source\PSoC5/rightEncTimer.c ****         CY_SET_REG16(rightEncTimer_COUNTER_LSB_PTR, counter);
 338:.\Generated_Source\PSoC5/rightEncTimer.c ****     #endif /* (rightEncTimer_UsingFixedFunction) */
 339:.\Generated_Source\PSoC5/rightEncTimer.c **** }
 340:.\Generated_Source\PSoC5/rightEncTimer.c **** #endif /* (!(rightEncTimer_UsingFixedFunction && (CY_PSOC5A))) */
 341:.\Generated_Source\PSoC5/rightEncTimer.c **** 
 342:.\Generated_Source\PSoC5/rightEncTimer.c **** 
 343:.\Generated_Source\PSoC5/rightEncTimer.c **** /*******************************************************************************
 344:.\Generated_Source\PSoC5/rightEncTimer.c **** * Function Name: rightEncTimer_ReadCounter
 345:.\Generated_Source\PSoC5/rightEncTimer.c **** ********************************************************************************
 346:.\Generated_Source\PSoC5/rightEncTimer.c **** * Summary:
 347:.\Generated_Source\PSoC5/rightEncTimer.c **** * Returns the current value of the counter.  It doesn't matter
 348:.\Generated_Source\PSoC5/rightEncTimer.c **** * if the counter is enabled or running.
 349:.\Generated_Source\PSoC5/rightEncTimer.c **** *
 350:.\Generated_Source\PSoC5/rightEncTimer.c **** * Parameters:  
 351:.\Generated_Source\PSoC5/rightEncTimer.c **** *  void:  
 352:.\Generated_Source\PSoC5/rightEncTimer.c **** *
 353:.\Generated_Source\PSoC5/rightEncTimer.c **** * Return: 
 354:.\Generated_Source\PSoC5/rightEncTimer.c **** *  (uint16) The present value of the counter.
 355:.\Generated_Source\PSoC5/rightEncTimer.c **** *
 356:.\Generated_Source\PSoC5/rightEncTimer.c **** *******************************************************************************/
 357:.\Generated_Source\PSoC5/rightEncTimer.c **** uint16 rightEncTimer_ReadCounter(void) 
 358:.\Generated_Source\PSoC5/rightEncTimer.c **** {
 359:.\Generated_Source\PSoC5/rightEncTimer.c ****     /* Force capture by reading Accumulator */
 360:.\Generated_Source\PSoC5/rightEncTimer.c ****     /* Must first do a software capture to be able to read the counter */
 361:.\Generated_Source\PSoC5/rightEncTimer.c ****     /* It is up to the user code to make sure there isn't already captured data in the FIFO */
 362:.\Generated_Source\PSoC5/rightEncTimer.c ****     #if(rightEncTimer_UsingFixedFunction)
 363:.\Generated_Source\PSoC5/rightEncTimer.c **** 		(void)CY_GET_REG16(rightEncTimer_COUNTER_LSB_PTR);
 364:.\Generated_Source\PSoC5/rightEncTimer.c **** 	#else
 365:.\Generated_Source\PSoC5/rightEncTimer.c **** 		(void)CY_GET_REG8(rightEncTimer_COUNTER_LSB_PTR_8BIT);
 366:.\Generated_Source\PSoC5/rightEncTimer.c **** 	#endif/* (rightEncTimer_UsingFixedFunction) */
 367:.\Generated_Source\PSoC5/rightEncTimer.c ****     
 368:.\Generated_Source\PSoC5/rightEncTimer.c ****     /* Read the data from the FIFO (or capture register for Fixed Function)*/
 369:.\Generated_Source\PSoC5/rightEncTimer.c ****     #if(rightEncTimer_UsingFixedFunction)
 370:.\Generated_Source\PSoC5/rightEncTimer.c ****         return ((uint16)CY_GET_REG16(rightEncTimer_STATICCOUNT_LSB_PTR));
 371:.\Generated_Source\PSoC5/rightEncTimer.c ****     #else
 372:.\Generated_Source\PSoC5/rightEncTimer.c ****         return (CY_GET_REG16(rightEncTimer_STATICCOUNT_LSB_PTR));
 373:.\Generated_Source\PSoC5/rightEncTimer.c ****     #endif /* (rightEncTimer_UsingFixedFunction) */
 374:.\Generated_Source\PSoC5/rightEncTimer.c **** }
 375:.\Generated_Source\PSoC5/rightEncTimer.c **** 
 376:.\Generated_Source\PSoC5/rightEncTimer.c **** 
 377:.\Generated_Source\PSoC5/rightEncTimer.c **** /*******************************************************************************
 378:.\Generated_Source\PSoC5/rightEncTimer.c **** * Function Name: rightEncTimer_ReadCapture
 379:.\Generated_Source\PSoC5/rightEncTimer.c **** ********************************************************************************
 380:.\Generated_Source\PSoC5/rightEncTimer.c **** * Summary:
 381:.\Generated_Source\PSoC5/rightEncTimer.c **** *   This function returns the last value captured.
ARM GAS  C:\Users\Patrick\AppData\Local\Temp\ccBj80lx.s 			page 9


 382:.\Generated_Source\PSoC5/rightEncTimer.c **** *
 383:.\Generated_Source\PSoC5/rightEncTimer.c **** * Parameters:  
 384:.\Generated_Source\PSoC5/rightEncTimer.c **** *  void
 385:.\Generated_Source\PSoC5/rightEncTimer.c **** *
 386:.\Generated_Source\PSoC5/rightEncTimer.c **** * Return: 
 387:.\Generated_Source\PSoC5/rightEncTimer.c **** *  (uint16) Present Capture value.
 388:.\Generated_Source\PSoC5/rightEncTimer.c **** *
 389:.\Generated_Source\PSoC5/rightEncTimer.c **** *******************************************************************************/
 390:.\Generated_Source\PSoC5/rightEncTimer.c **** uint16 rightEncTimer_ReadCapture(void) 
 391:.\Generated_Source\PSoC5/rightEncTimer.c **** {
 392:.\Generated_Source\PSoC5/rightEncTimer.c ****     #if(rightEncTimer_UsingFixedFunction)
 393:.\Generated_Source\PSoC5/rightEncTimer.c ****         return ((uint16)CY_GET_REG16(rightEncTimer_STATICCOUNT_LSB_PTR));
 394:.\Generated_Source\PSoC5/rightEncTimer.c ****     #else
 395:.\Generated_Source\PSoC5/rightEncTimer.c ****         return (CY_GET_REG16(rightEncTimer_STATICCOUNT_LSB_PTR));
 396:.\Generated_Source\PSoC5/rightEncTimer.c ****     #endif /* (rightEncTimer_UsingFixedFunction) */
 397:.\Generated_Source\PSoC5/rightEncTimer.c **** }
 398:.\Generated_Source\PSoC5/rightEncTimer.c **** 
 399:.\Generated_Source\PSoC5/rightEncTimer.c **** 
 400:.\Generated_Source\PSoC5/rightEncTimer.c **** /*******************************************************************************
 401:.\Generated_Source\PSoC5/rightEncTimer.c **** * Function Name: rightEncTimer_WritePeriod
 402:.\Generated_Source\PSoC5/rightEncTimer.c **** ********************************************************************************
 403:.\Generated_Source\PSoC5/rightEncTimer.c **** * Summary:
 404:.\Generated_Source\PSoC5/rightEncTimer.c **** * Changes the period of the counter.  The new period 
 405:.\Generated_Source\PSoC5/rightEncTimer.c **** * will be loaded the next time terminal count is detected.
 406:.\Generated_Source\PSoC5/rightEncTimer.c **** *
 407:.\Generated_Source\PSoC5/rightEncTimer.c **** * Parameters:  
 408:.\Generated_Source\PSoC5/rightEncTimer.c **** *  period: (uint16) A value of 0 will result in
 409:.\Generated_Source\PSoC5/rightEncTimer.c **** *         the counter remaining at zero.  
 410:.\Generated_Source\PSoC5/rightEncTimer.c **** *
 411:.\Generated_Source\PSoC5/rightEncTimer.c **** * Return: 
 412:.\Generated_Source\PSoC5/rightEncTimer.c **** *  void
 413:.\Generated_Source\PSoC5/rightEncTimer.c **** *
 414:.\Generated_Source\PSoC5/rightEncTimer.c **** *******************************************************************************/
 415:.\Generated_Source\PSoC5/rightEncTimer.c **** void rightEncTimer_WritePeriod(uint16 period) 
 416:.\Generated_Source\PSoC5/rightEncTimer.c **** {
 417:.\Generated_Source\PSoC5/rightEncTimer.c ****     #if(rightEncTimer_UsingFixedFunction)
 418:.\Generated_Source\PSoC5/rightEncTimer.c ****         CY_SET_REG16(rightEncTimer_PERIOD_LSB_PTR,(uint16)period);
 419:.\Generated_Source\PSoC5/rightEncTimer.c ****     #else
 420:.\Generated_Source\PSoC5/rightEncTimer.c ****         CY_SET_REG16(rightEncTimer_PERIOD_LSB_PTR, period);
 421:.\Generated_Source\PSoC5/rightEncTimer.c ****     #endif /* (rightEncTimer_UsingFixedFunction) */
 422:.\Generated_Source\PSoC5/rightEncTimer.c **** }
 423:.\Generated_Source\PSoC5/rightEncTimer.c **** 
 424:.\Generated_Source\PSoC5/rightEncTimer.c **** 
 425:.\Generated_Source\PSoC5/rightEncTimer.c **** /*******************************************************************************
 426:.\Generated_Source\PSoC5/rightEncTimer.c **** * Function Name: rightEncTimer_ReadPeriod
 427:.\Generated_Source\PSoC5/rightEncTimer.c **** ********************************************************************************
 428:.\Generated_Source\PSoC5/rightEncTimer.c **** * Summary:
 429:.\Generated_Source\PSoC5/rightEncTimer.c **** * Reads the current period value without affecting counter operation.
 430:.\Generated_Source\PSoC5/rightEncTimer.c **** *
 431:.\Generated_Source\PSoC5/rightEncTimer.c **** * Parameters:  
 432:.\Generated_Source\PSoC5/rightEncTimer.c **** *  void:  
 433:.\Generated_Source\PSoC5/rightEncTimer.c **** *
 434:.\Generated_Source\PSoC5/rightEncTimer.c **** * Return: 
 435:.\Generated_Source\PSoC5/rightEncTimer.c **** *  (uint16) Present period value.
 436:.\Generated_Source\PSoC5/rightEncTimer.c **** *
 437:.\Generated_Source\PSoC5/rightEncTimer.c **** *******************************************************************************/
 438:.\Generated_Source\PSoC5/rightEncTimer.c **** uint16 rightEncTimer_ReadPeriod(void) 
ARM GAS  C:\Users\Patrick\AppData\Local\Temp\ccBj80lx.s 			page 10


 439:.\Generated_Source\PSoC5/rightEncTimer.c **** {
 440:.\Generated_Source\PSoC5/rightEncTimer.c ****     #if(rightEncTimer_UsingFixedFunction)
 441:.\Generated_Source\PSoC5/rightEncTimer.c ****         return ((uint16)CY_GET_REG16(rightEncTimer_PERIOD_LSB_PTR));
 442:.\Generated_Source\PSoC5/rightEncTimer.c ****     #else
 443:.\Generated_Source\PSoC5/rightEncTimer.c ****         return (CY_GET_REG16(rightEncTimer_PERIOD_LSB_PTR));
 444:.\Generated_Source\PSoC5/rightEncTimer.c ****     #endif /* (rightEncTimer_UsingFixedFunction) */
 445:.\Generated_Source\PSoC5/rightEncTimer.c **** }
 446:.\Generated_Source\PSoC5/rightEncTimer.c **** 
 447:.\Generated_Source\PSoC5/rightEncTimer.c **** 
 448:.\Generated_Source\PSoC5/rightEncTimer.c **** #if (!rightEncTimer_UsingFixedFunction)
 449:.\Generated_Source\PSoC5/rightEncTimer.c **** /*******************************************************************************
 450:.\Generated_Source\PSoC5/rightEncTimer.c **** * Function Name: rightEncTimer_WriteCompare
 451:.\Generated_Source\PSoC5/rightEncTimer.c **** ********************************************************************************
 452:.\Generated_Source\PSoC5/rightEncTimer.c **** * Summary:
 453:.\Generated_Source\PSoC5/rightEncTimer.c **** * Changes the compare value.  The compare output will 
 454:.\Generated_Source\PSoC5/rightEncTimer.c **** * reflect the new value on the next UDB clock.  The compare output will be 
 455:.\Generated_Source\PSoC5/rightEncTimer.c **** * driven high when the present counter value compares true based on the 
 456:.\Generated_Source\PSoC5/rightEncTimer.c **** * configured compare mode setting. 
 457:.\Generated_Source\PSoC5/rightEncTimer.c **** *
 458:.\Generated_Source\PSoC5/rightEncTimer.c **** * Parameters:  
 459:.\Generated_Source\PSoC5/rightEncTimer.c **** *  Compare:  New compare value. 
 460:.\Generated_Source\PSoC5/rightEncTimer.c **** *
 461:.\Generated_Source\PSoC5/rightEncTimer.c **** * Return: 
 462:.\Generated_Source\PSoC5/rightEncTimer.c **** *  void
 463:.\Generated_Source\PSoC5/rightEncTimer.c **** *
 464:.\Generated_Source\PSoC5/rightEncTimer.c **** *******************************************************************************/
 465:.\Generated_Source\PSoC5/rightEncTimer.c **** void rightEncTimer_WriteCompare(uint16 compare) \
 466:.\Generated_Source\PSoC5/rightEncTimer.c ****                                    
 467:.\Generated_Source\PSoC5/rightEncTimer.c **** {
 468:.\Generated_Source\PSoC5/rightEncTimer.c ****     #if(rightEncTimer_UsingFixedFunction)
 469:.\Generated_Source\PSoC5/rightEncTimer.c ****         CY_SET_REG16(rightEncTimer_COMPARE_LSB_PTR, (uint16)compare);
 470:.\Generated_Source\PSoC5/rightEncTimer.c ****     #else
 471:.\Generated_Source\PSoC5/rightEncTimer.c ****         CY_SET_REG16(rightEncTimer_COMPARE_LSB_PTR, compare);
 472:.\Generated_Source\PSoC5/rightEncTimer.c ****     #endif /* (rightEncTimer_UsingFixedFunction) */
 473:.\Generated_Source\PSoC5/rightEncTimer.c **** }
 474:.\Generated_Source\PSoC5/rightEncTimer.c **** 
 475:.\Generated_Source\PSoC5/rightEncTimer.c **** 
 476:.\Generated_Source\PSoC5/rightEncTimer.c **** /*******************************************************************************
 477:.\Generated_Source\PSoC5/rightEncTimer.c **** * Function Name: rightEncTimer_ReadCompare
 478:.\Generated_Source\PSoC5/rightEncTimer.c **** ********************************************************************************
 479:.\Generated_Source\PSoC5/rightEncTimer.c **** * Summary:
 480:.\Generated_Source\PSoC5/rightEncTimer.c **** * Returns the compare value.
 481:.\Generated_Source\PSoC5/rightEncTimer.c **** *
 482:.\Generated_Source\PSoC5/rightEncTimer.c **** * Parameters:  
 483:.\Generated_Source\PSoC5/rightEncTimer.c **** *  void:
 484:.\Generated_Source\PSoC5/rightEncTimer.c **** *
 485:.\Generated_Source\PSoC5/rightEncTimer.c **** * Return: 
 486:.\Generated_Source\PSoC5/rightEncTimer.c **** *  (uint16) Present compare value.
 487:.\Generated_Source\PSoC5/rightEncTimer.c **** *
 488:.\Generated_Source\PSoC5/rightEncTimer.c **** *******************************************************************************/
 489:.\Generated_Source\PSoC5/rightEncTimer.c **** uint16 rightEncTimer_ReadCompare(void) 
 490:.\Generated_Source\PSoC5/rightEncTimer.c **** {
 491:.\Generated_Source\PSoC5/rightEncTimer.c ****     return (CY_GET_REG16(rightEncTimer_COMPARE_LSB_PTR));
 492:.\Generated_Source\PSoC5/rightEncTimer.c **** }
 493:.\Generated_Source\PSoC5/rightEncTimer.c **** 
 494:.\Generated_Source\PSoC5/rightEncTimer.c **** 
 495:.\Generated_Source\PSoC5/rightEncTimer.c **** #if (rightEncTimer_COMPARE_MODE_SOFTWARE)
ARM GAS  C:\Users\Patrick\AppData\Local\Temp\ccBj80lx.s 			page 11


 496:.\Generated_Source\PSoC5/rightEncTimer.c **** /*******************************************************************************
 497:.\Generated_Source\PSoC5/rightEncTimer.c **** * Function Name: rightEncTimer_SetCompareMode
 498:.\Generated_Source\PSoC5/rightEncTimer.c **** ********************************************************************************
 499:.\Generated_Source\PSoC5/rightEncTimer.c **** * Summary:
 500:.\Generated_Source\PSoC5/rightEncTimer.c **** *  Sets the software controlled Compare Mode.
 501:.\Generated_Source\PSoC5/rightEncTimer.c **** *
 502:.\Generated_Source\PSoC5/rightEncTimer.c **** * Parameters:
 503:.\Generated_Source\PSoC5/rightEncTimer.c **** *  compareMode:  Compare Mode Enumerated Type.
 504:.\Generated_Source\PSoC5/rightEncTimer.c **** *
 505:.\Generated_Source\PSoC5/rightEncTimer.c **** * Return:
 506:.\Generated_Source\PSoC5/rightEncTimer.c **** *  void
 507:.\Generated_Source\PSoC5/rightEncTimer.c **** *
 508:.\Generated_Source\PSoC5/rightEncTimer.c **** *******************************************************************************/
 509:.\Generated_Source\PSoC5/rightEncTimer.c **** void rightEncTimer_SetCompareMode(uint8 compareMode) 
 510:.\Generated_Source\PSoC5/rightEncTimer.c **** {
 511:.\Generated_Source\PSoC5/rightEncTimer.c ****     /* Clear the compare mode bits in the control register */
 512:.\Generated_Source\PSoC5/rightEncTimer.c ****     rightEncTimer_CONTROL &= ((uint8)(~rightEncTimer_CTRL_CMPMODE_MASK));
 513:.\Generated_Source\PSoC5/rightEncTimer.c ****     
 514:.\Generated_Source\PSoC5/rightEncTimer.c ****     /* Write the new setting */
 515:.\Generated_Source\PSoC5/rightEncTimer.c ****     rightEncTimer_CONTROL |= compareMode;
 516:.\Generated_Source\PSoC5/rightEncTimer.c **** }
 517:.\Generated_Source\PSoC5/rightEncTimer.c **** #endif  /* (rightEncTimer_COMPARE_MODE_SOFTWARE) */
 518:.\Generated_Source\PSoC5/rightEncTimer.c **** 
 519:.\Generated_Source\PSoC5/rightEncTimer.c **** 
 520:.\Generated_Source\PSoC5/rightEncTimer.c **** #if (rightEncTimer_CAPTURE_MODE_SOFTWARE)
 521:.\Generated_Source\PSoC5/rightEncTimer.c **** /*******************************************************************************
 522:.\Generated_Source\PSoC5/rightEncTimer.c **** * Function Name: rightEncTimer_SetCaptureMode
 523:.\Generated_Source\PSoC5/rightEncTimer.c **** ********************************************************************************
 524:.\Generated_Source\PSoC5/rightEncTimer.c **** * Summary:
 525:.\Generated_Source\PSoC5/rightEncTimer.c **** *  Sets the software controlled Capture Mode.
 526:.\Generated_Source\PSoC5/rightEncTimer.c **** *
 527:.\Generated_Source\PSoC5/rightEncTimer.c **** * Parameters:
 528:.\Generated_Source\PSoC5/rightEncTimer.c **** *  captureMode:  Capture Mode Enumerated Type.
 529:.\Generated_Source\PSoC5/rightEncTimer.c **** *
 530:.\Generated_Source\PSoC5/rightEncTimer.c **** * Return:
 531:.\Generated_Source\PSoC5/rightEncTimer.c **** *  void
 532:.\Generated_Source\PSoC5/rightEncTimer.c **** *
 533:.\Generated_Source\PSoC5/rightEncTimer.c **** *******************************************************************************/
 534:.\Generated_Source\PSoC5/rightEncTimer.c **** void rightEncTimer_SetCaptureMode(uint8 captureMode) 
 535:.\Generated_Source\PSoC5/rightEncTimer.c **** {
 536:.\Generated_Source\PSoC5/rightEncTimer.c ****     /* Clear the capture mode bits in the control register */
 537:.\Generated_Source\PSoC5/rightEncTimer.c ****     rightEncTimer_CONTROL &= ((uint8)(~rightEncTimer_CTRL_CAPMODE_MASK));
 538:.\Generated_Source\PSoC5/rightEncTimer.c ****     
 539:.\Generated_Source\PSoC5/rightEncTimer.c ****     /* Write the new setting */
 540:.\Generated_Source\PSoC5/rightEncTimer.c ****     rightEncTimer_CONTROL |= ((uint8)((uint8)captureMode << rightEncTimer_CTRL_CAPMODE0_SHIFT));
 541:.\Generated_Source\PSoC5/rightEncTimer.c **** }
 542:.\Generated_Source\PSoC5/rightEncTimer.c **** #endif  /* (rightEncTimer_CAPTURE_MODE_SOFTWARE) */
 543:.\Generated_Source\PSoC5/rightEncTimer.c **** 
 544:.\Generated_Source\PSoC5/rightEncTimer.c **** 
 545:.\Generated_Source\PSoC5/rightEncTimer.c **** /*******************************************************************************
 546:.\Generated_Source\PSoC5/rightEncTimer.c **** * Function Name: rightEncTimer_ClearFIFO
 547:.\Generated_Source\PSoC5/rightEncTimer.c **** ********************************************************************************
 548:.\Generated_Source\PSoC5/rightEncTimer.c **** * Summary:
 549:.\Generated_Source\PSoC5/rightEncTimer.c **** *   This function clears all capture data from the capture FIFO
 550:.\Generated_Source\PSoC5/rightEncTimer.c **** *
 551:.\Generated_Source\PSoC5/rightEncTimer.c **** * Parameters:  
 552:.\Generated_Source\PSoC5/rightEncTimer.c **** *  void:
ARM GAS  C:\Users\Patrick\AppData\Local\Temp\ccBj80lx.s 			page 12


 553:.\Generated_Source\PSoC5/rightEncTimer.c **** *
 554:.\Generated_Source\PSoC5/rightEncTimer.c **** * Return: 
 555:.\Generated_Source\PSoC5/rightEncTimer.c **** *  None
 556:.\Generated_Source\PSoC5/rightEncTimer.c **** *
 557:.\Generated_Source\PSoC5/rightEncTimer.c **** *******************************************************************************/
 558:.\Generated_Source\PSoC5/rightEncTimer.c **** void rightEncTimer_ClearFIFO(void) 
 559:.\Generated_Source\PSoC5/rightEncTimer.c **** {
 560:.\Generated_Source\PSoC5/rightEncTimer.c **** 
 561:.\Generated_Source\PSoC5/rightEncTimer.c ****     while(0u != (rightEncTimer_ReadStatusRegister() & rightEncTimer_STATUS_FIFONEMP))
  72              		.loc 1 561 0
  73 001c 5806     		lsls	r0, r3, #25
  74 001e 05D5     		bpl	.L2
  75              	.LBB47:
  76              	.LBB48:
 395:.\Generated_Source\PSoC5/rightEncTimer.c ****     #endif /* (rightEncTimer_UsingFixedFunction) */
  77              		.loc 1 395 0
  78 0020 01F21441 		addw	r1, r1, #1044
  79              	.LVL4:
  80              	.L6:
  81 0024 0B88     		ldrh	r3, [r1]
  82              	.LBE48:
  83              	.LBE47:
  84              	.LBB49:
  85              	.LBB45:
 263:.\Generated_Source\PSoC5/rightEncTimer.c **** }
  86              		.loc 1 263 0
  87 0026 1378     		ldrb	r3, [r2]	@ zero_extendqisi2
  88              	.LBE45:
  89              	.LBE49:
  90              		.loc 1 561 0
  91 0028 5B06     		lsls	r3, r3, #25
  92 002a FBD4     		bmi	.L6
  93              	.L2:
  94              	.LVL5:
  95              	.LBE50:
  96              	.LBE51:
  97              	.LBB52:
  98              	.LBB53:
 420:.\Generated_Source\PSoC5/rightEncTimer.c ****     #endif /* (rightEncTimer_UsingFixedFunction) */
  99              		.loc 1 420 0
 100 002c 0C4D     		ldr	r5, .L11+8
 101              	.LBE53:
 102              	.LBE52:
 103              	.LBB56:
 104              	.LBB57:
 337:.\Generated_Source\PSoC5/rightEncTimer.c ****     #endif /* (rightEncTimer_UsingFixedFunction) */
 105              		.loc 1 337 0
 106 002e 0D4C     		ldr	r4, .L11+12
 107              	.LBE57:
 108              	.LBE56:
 109              	.LBB59:
 110              	.LBB60:
 239:.\Generated_Source\PSoC5/rightEncTimer.c **** }
 111              		.loc 1 239 0
 112 0030 0D48     		ldr	r0, .L11+16
 113              	.LBE60:
 114              	.LBE59:
ARM GAS  C:\Users\Patrick\AppData\Local\Temp\ccBj80lx.s 			page 13


 115              	.LBB62:
 116              	.LBB54:
 420:.\Generated_Source\PSoC5/rightEncTimer.c ****     #endif /* (rightEncTimer_UsingFixedFunction) */
 117              		.loc 1 420 0
 118 0032 0023     		movs	r3, #0
 119              	.LBE54:
 120              	.LBE62:
 121              	.LBB63:
 122              	.LBB64:
 471:.\Generated_Source\PSoC5/rightEncTimer.c ****     #endif /* (rightEncTimer_UsingFixedFunction) */
 123              		.loc 1 471 0
 124 0034 0D4A     		ldr	r2, .L11+20
 125              	.LBE64:
 126              	.LBE63:
 127              	.LBB66:
 128              	.LBB67:
 263:.\Generated_Source\PSoC5/rightEncTimer.c **** }
 129              		.loc 1 263 0
 130 0036 0949     		ldr	r1, .L11+4
 131              	.LBE67:
 132              	.LBE66:
 133              	.LBB69:
 134              	.LBB55:
 420:.\Generated_Source\PSoC5/rightEncTimer.c ****     #endif /* (rightEncTimer_UsingFixedFunction) */
 135              		.loc 1 420 0
 136 0038 2B80     		strh	r3, [r5]	@ movhi
 137              	.LVL6:
 138              	.LBE55:
 139              	.LBE69:
 140              	.LBB70:
 141              	.LBB58:
 337:.\Generated_Source\PSoC5/rightEncTimer.c ****     #endif /* (rightEncTimer_UsingFixedFunction) */
 142              		.loc 1 337 0
 143 003a 2380     		strh	r3, [r4]	@ movhi
 144              	.LVL7:
 145              	.LBE58:
 146              	.LBE70:
 147              	.LBB71:
 148              	.LBB61:
 239:.\Generated_Source\PSoC5/rightEncTimer.c **** }
 149              		.loc 1 239 0
 150 003c 0370     		strb	r3, [r0]
 151              	.LBE61:
 152              	.LBE71:
 153              	.LBB72:
 154              	.LBB68:
 263:.\Generated_Source\PSoC5/rightEncTimer.c **** }
 155              		.loc 1 263 0
 156 003e 0978     		ldrb	r1, [r1]	@ zero_extendqisi2
 157              	.LVL8:
 158              	.LBE68:
 159              	.LBE72:
 160              	.LBB73:
 161              	.LBB65:
 471:.\Generated_Source\PSoC5/rightEncTimer.c ****     #endif /* (rightEncTimer_UsingFixedFunction) */
 162              		.loc 1 471 0
 163 0040 1380     		strh	r3, [r2]	@ movhi
ARM GAS  C:\Users\Patrick\AppData\Local\Temp\ccBj80lx.s 			page 14


 164              	.LBE65:
 165              	.LBE73:
 115:.\Generated_Source\PSoC5/rightEncTimer.c ****             
 166              		.loc 1 115 0
 167 0042 FFF7FEFF 		bl	CyEnterCriticalSection
 168              	.LVL9:
 117:.\Generated_Source\PSoC5/rightEncTimer.c ****             
 169              		.loc 1 117 0
 170 0046 0A4A     		ldr	r2, .L11+24
 171 0048 1378     		ldrb	r3, [r2]	@ zero_extendqisi2
 172 004a 43F01003 		orr	r3, r3, #16
 173 004e 1370     		strb	r3, [r2]
 123:.\Generated_Source\PSoC5/rightEncTimer.c **** 
 174              		.loc 1 123 0
 175 0050 BDE83840 		pop	{r3, r4, r5, lr}
 176              		.cfi_restore 14
 177              		.cfi_restore 5
 178              		.cfi_restore 4
 179              		.cfi_restore 3
 180              		.cfi_def_cfa_offset 0
 120:.\Generated_Source\PSoC5/rightEncTimer.c ****             
 181              		.loc 1 120 0
 182 0054 FFF7FEBF 		b	CyExitCriticalSection
 183              	.LVL10:
 184              	.L12:
 185              		.align	2
 186              	.L11:
 187 0058 74640040 		.word	1073767540
 188 005c 65640040 		.word	1073767525
 189 0060 48680040 		.word	1073768520
 190 0064 08680040 		.word	1073768456
 191 0068 85640040 		.word	1073767557
 192 006c 68680040 		.word	1073768552
 193 0070 95640040 		.word	1073767573
 194              		.cfi_endproc
 195              	.LFE0:
 196              		.size	rightEncTimer_Init, .-rightEncTimer_Init
 197              		.section	.text.rightEncTimer_Enable,"ax",%progbits
 198              		.align	2
 199              		.global	rightEncTimer_Enable
 200              		.thumb
 201              		.thumb_func
 202              		.type	rightEncTimer_Enable, %function
 203              	rightEncTimer_Enable:
 204              	.LFB1:
 144:.\Generated_Source\PSoC5/rightEncTimer.c ****     /* Globally Enable the Fixed Function Block chosen */
 205              		.loc 1 144 0
 206              		.cfi_startproc
 207              		@ args = 0, pretend = 0, frame = 0
 208              		@ frame_needed = 0, uses_anonymous_args = 0
 209              		@ link register save eliminated.
 155:.\Generated_Source\PSoC5/rightEncTimer.c ****     #endif /* (!rightEncTimer_ControlRegRemoved || rightEncTimer_UsingFixedFunction) */
 210              		.loc 1 155 0
 211 0000 024A     		ldr	r2, .L14
 212 0002 1378     		ldrb	r3, [r2]	@ zero_extendqisi2
 213 0004 43F08003 		orr	r3, r3, #128
 214 0008 1370     		strb	r3, [r2]
ARM GAS  C:\Users\Patrick\AppData\Local\Temp\ccBj80lx.s 			page 15


 215 000a 7047     		bx	lr
 216              	.L15:
 217              		.align	2
 218              	.L14:
 219 000c 74640040 		.word	1073767540
 220              		.cfi_endproc
 221              	.LFE1:
 222              		.size	rightEncTimer_Enable, .-rightEncTimer_Enable
 223              		.section	.text.rightEncTimer_Start,"ax",%progbits
 224              		.align	2
 225              		.global	rightEncTimer_Start
 226              		.thumb
 227              		.thumb_func
 228              		.type	rightEncTimer_Start, %function
 229              	rightEncTimer_Start:
 230              	.LFB2:
 179:.\Generated_Source\PSoC5/rightEncTimer.c ****     if(rightEncTimer_initVar == 0u)
 231              		.loc 1 179 0
 232              		.cfi_startproc
 233              		@ args = 0, pretend = 0, frame = 0
 234              		@ frame_needed = 0, uses_anonymous_args = 0
 235 0000 70B5     		push	{r4, r5, r6, lr}
 236              		.cfi_def_cfa_offset 16
 237              		.cfi_offset 4, -16
 238              		.cfi_offset 5, -12
 239              		.cfi_offset 6, -8
 240              		.cfi_offset 14, -4
 180:.\Generated_Source\PSoC5/rightEncTimer.c ****     {
 241              		.loc 1 180 0
 242 0002 1A4C     		ldr	r4, .L27
 243 0004 2378     		ldrb	r3, [r4]	@ zero_extendqisi2
 244 0006 2BB1     		cbz	r3, .L26
 245              	.L17:
 246              	.LBB94:
 247              	.LBB95:
 155:.\Generated_Source\PSoC5/rightEncTimer.c ****     #endif /* (!rightEncTimer_ControlRegRemoved || rightEncTimer_UsingFixedFunction) */
 248              		.loc 1 155 0
 249 0008 194A     		ldr	r2, .L27+4
 250 000a 1378     		ldrb	r3, [r2]	@ zero_extendqisi2
 251 000c 43F08003 		orr	r3, r3, #128
 252 0010 1370     		strb	r3, [r2]
 253 0012 70BD     		pop	{r4, r5, r6, pc}
 254              	.L26:
 255              	.LBE95:
 256              	.LBE94:
 257              	.LBB96:
 258              	.LBB97:
  79:.\Generated_Source\PSoC5/rightEncTimer.c ****             rightEncTimer_CONTROL = ctrl | rightEncTimer_DEFAULT_COMPARE_MODE;
 259              		.loc 1 79 0
 260 0014 1649     		ldr	r1, .L27+4
 261              	.LBB98:
 262              	.LBB99:
 263              	.LBB100:
 264              	.LBB101:
 263:.\Generated_Source\PSoC5/rightEncTimer.c **** }
 265              		.loc 1 263 0
 266 0016 174A     		ldr	r2, .L27+8
ARM GAS  C:\Users\Patrick\AppData\Local\Temp\ccBj80lx.s 			page 16


 267              	.LBE101:
 268              	.LBE100:
 269              	.LBE99:
 270              	.LBE98:
  79:.\Generated_Source\PSoC5/rightEncTimer.c ****             rightEncTimer_CONTROL = ctrl | rightEncTimer_DEFAULT_COMPARE_MODE;
 271              		.loc 1 79 0
 272 0018 0B78     		ldrb	r3, [r1]	@ zero_extendqisi2
 273              	.LVL11:
 274 001a 03F0F803 		and	r3, r3, #248
 275              	.LVL12:
  80:.\Generated_Source\PSoC5/rightEncTimer.c ****             
 276              		.loc 1 80 0
 277 001e 43F00103 		orr	r3, r3, #1
 278 0022 0B70     		strb	r3, [r1]
  83:.\Generated_Source\PSoC5/rightEncTimer.c ****             
 279              		.loc 1 83 0
 280 0024 0B78     		ldrb	r3, [r1]	@ zero_extendqisi2
 281 0026 03F0FC03 		and	r3, r3, #252
 282              	.LVL13:
  88:.\Generated_Source\PSoC5/rightEncTimer.c ****             #endif /* 0 != rightEncTimer_CAPTURE_MODE */ 
 283              		.loc 1 88 0
 284 002a 0B70     		strb	r3, [r1]
 285              	.LBB109:
 286              	.LBB108:
 287              	.LBB104:
 288              	.LBB102:
 263:.\Generated_Source\PSoC5/rightEncTimer.c **** }
 289              		.loc 1 263 0
 290 002c 1378     		ldrb	r3, [r2]	@ zero_extendqisi2
 291              	.LVL14:
 292              	.LBE102:
 293              	.LBE104:
 294              		.loc 1 561 0
 295 002e 5806     		lsls	r0, r3, #25
 296 0030 05D5     		bpl	.L18
 297              	.LBB105:
 298              	.LBB106:
 395:.\Generated_Source\PSoC5/rightEncTimer.c ****     #endif /* (rightEncTimer_UsingFixedFunction) */
 299              		.loc 1 395 0
 300 0032 01F21441 		addw	r1, r1, #1044
 301              	.LVL15:
 302              	.L22:
 303 0036 0B88     		ldrh	r3, [r1]
 304              	.LBE106:
 305              	.LBE105:
 306              	.LBB107:
 307              	.LBB103:
 263:.\Generated_Source\PSoC5/rightEncTimer.c **** }
 308              		.loc 1 263 0
 309 0038 1378     		ldrb	r3, [r2]	@ zero_extendqisi2
 310              	.LBE103:
 311              	.LBE107:
 312              		.loc 1 561 0
 313 003a 5B06     		lsls	r3, r3, #25
 314 003c FBD4     		bmi	.L22
 315              	.L18:
 316              	.LVL16:
ARM GAS  C:\Users\Patrick\AppData\Local\Temp\ccBj80lx.s 			page 17


 317              	.LBE108:
 318              	.LBE109:
 319              	.LBB110:
 320              	.LBB111:
 239:.\Generated_Source\PSoC5/rightEncTimer.c **** }
 321              		.loc 1 239 0
 322 003e 0E48     		ldr	r0, .L27+12
 323              	.LBE111:
 324              	.LBE110:
 325              	.LBB113:
 326              	.LBB114:
 420:.\Generated_Source\PSoC5/rightEncTimer.c ****     #endif /* (rightEncTimer_UsingFixedFunction) */
 327              		.loc 1 420 0
 328 0040 0E4E     		ldr	r6, .L27+16
 329              	.LBE114:
 330              	.LBE113:
 331              	.LBB117:
 332              	.LBB118:
 337:.\Generated_Source\PSoC5/rightEncTimer.c ****     #endif /* (rightEncTimer_UsingFixedFunction) */
 333              		.loc 1 337 0
 334 0042 0F4D     		ldr	r5, .L27+20
 335              	.LBE118:
 336              	.LBE117:
 337              	.LBB120:
 338              	.LBB115:
 420:.\Generated_Source\PSoC5/rightEncTimer.c ****     #endif /* (rightEncTimer_UsingFixedFunction) */
 339              		.loc 1 420 0
 340 0044 0023     		movs	r3, #0
 341              	.LBE115:
 342              	.LBE120:
 343              	.LBB121:
 344              	.LBB122:
 471:.\Generated_Source\PSoC5/rightEncTimer.c ****     #endif /* (rightEncTimer_UsingFixedFunction) */
 345              		.loc 1 471 0
 346 0046 0F4A     		ldr	r2, .L27+24
 347              	.LBE122:
 348              	.LBE121:
 349              	.LBB124:
 350              	.LBB125:
 263:.\Generated_Source\PSoC5/rightEncTimer.c **** }
 351              		.loc 1 263 0
 352 0048 0A49     		ldr	r1, .L27+8
 353              	.LBE125:
 354              	.LBE124:
 355              	.LBB127:
 356              	.LBB116:
 420:.\Generated_Source\PSoC5/rightEncTimer.c ****     #endif /* (rightEncTimer_UsingFixedFunction) */
 357              		.loc 1 420 0
 358 004a 3380     		strh	r3, [r6]	@ movhi
 359              	.LVL17:
 360              	.LBE116:
 361              	.LBE127:
 362              	.LBB128:
 363              	.LBB119:
 337:.\Generated_Source\PSoC5/rightEncTimer.c ****     #endif /* (rightEncTimer_UsingFixedFunction) */
 364              		.loc 1 337 0
 365 004c 2B80     		strh	r3, [r5]	@ movhi
ARM GAS  C:\Users\Patrick\AppData\Local\Temp\ccBj80lx.s 			page 18


 366              	.LVL18:
 367              	.LBE119:
 368              	.LBE128:
 369              	.LBB129:
 370              	.LBB112:
 239:.\Generated_Source\PSoC5/rightEncTimer.c **** }
 371              		.loc 1 239 0
 372 004e 0370     		strb	r3, [r0]
 373              	.LBE112:
 374              	.LBE129:
 375              	.LBB130:
 376              	.LBB126:
 263:.\Generated_Source\PSoC5/rightEncTimer.c **** }
 377              		.loc 1 263 0
 378 0050 0978     		ldrb	r1, [r1]	@ zero_extendqisi2
 379              	.LVL19:
 380              	.LBE126:
 381              	.LBE130:
 382              	.LBB131:
 383              	.LBB123:
 471:.\Generated_Source\PSoC5/rightEncTimer.c ****     #endif /* (rightEncTimer_UsingFixedFunction) */
 384              		.loc 1 471 0
 385 0052 1380     		strh	r3, [r2]	@ movhi
 386              	.LBE123:
 387              	.LBE131:
 115:.\Generated_Source\PSoC5/rightEncTimer.c ****             
 388              		.loc 1 115 0
 389 0054 FFF7FEFF 		bl	CyEnterCriticalSection
 390              	.LVL20:
 117:.\Generated_Source\PSoC5/rightEncTimer.c ****             
 391              		.loc 1 117 0
 392 0058 0B4A     		ldr	r2, .L27+28
 393 005a 1378     		ldrb	r3, [r2]	@ zero_extendqisi2
 394 005c 43F01003 		orr	r3, r3, #16
 395 0060 1370     		strb	r3, [r2]
 120:.\Generated_Source\PSoC5/rightEncTimer.c ****             
 396              		.loc 1 120 0
 397 0062 FFF7FEFF 		bl	CyExitCriticalSection
 398              	.LVL21:
 399              	.LBE97:
 400              	.LBE96:
 184:.\Generated_Source\PSoC5/rightEncTimer.c ****     }
 401              		.loc 1 184 0
 402 0066 0123     		movs	r3, #1
 403 0068 2370     		strb	r3, [r4]
 404 006a CDE7     		b	.L17
 405              	.L28:
 406              		.align	2
 407              	.L27:
 408 006c 00000000 		.word	.LANCHOR0
 409 0070 74640040 		.word	1073767540
 410 0074 65640040 		.word	1073767525
 411 0078 85640040 		.word	1073767557
 412 007c 48680040 		.word	1073768520
 413 0080 08680040 		.word	1073768456
 414 0084 68680040 		.word	1073768552
 415 0088 95640040 		.word	1073767573
ARM GAS  C:\Users\Patrick\AppData\Local\Temp\ccBj80lx.s 			page 19


 416              		.cfi_endproc
 417              	.LFE2:
 418              		.size	rightEncTimer_Start, .-rightEncTimer_Start
 419              		.section	.text.rightEncTimer_Stop,"ax",%progbits
 420              		.align	2
 421              		.global	rightEncTimer_Stop
 422              		.thumb
 423              		.thumb_func
 424              		.type	rightEncTimer_Stop, %function
 425              	rightEncTimer_Stop:
 426              	.LFB3:
 209:.\Generated_Source\PSoC5/rightEncTimer.c ****     /* Disable Counter */
 427              		.loc 1 209 0
 428              		.cfi_startproc
 429              		@ args = 0, pretend = 0, frame = 0
 430              		@ frame_needed = 0, uses_anonymous_args = 0
 431              		@ link register save eliminated.
 212:.\Generated_Source\PSoC5/rightEncTimer.c ****     #endif /* (!rightEncTimer_ControlRegRemoved || rightEncTimer_UsingFixedFunction) */
 432              		.loc 1 212 0
 433 0000 024A     		ldr	r2, .L30
 434 0002 1378     		ldrb	r3, [r2]	@ zero_extendqisi2
 435 0004 03F07F03 		and	r3, r3, #127
 436 0008 1370     		strb	r3, [r2]
 437 000a 7047     		bx	lr
 438              	.L31:
 439              		.align	2
 440              	.L30:
 441 000c 74640040 		.word	1073767540
 442              		.cfi_endproc
 443              	.LFE3:
 444              		.size	rightEncTimer_Stop, .-rightEncTimer_Stop
 445              		.section	.text.rightEncTimer_SetInterruptMode,"ax",%progbits
 446              		.align	2
 447              		.global	rightEncTimer_SetInterruptMode
 448              		.thumb
 449              		.thumb_func
 450              		.type	rightEncTimer_SetInterruptMode, %function
 451              	rightEncTimer_SetInterruptMode:
 452              	.LFB4:
 238:.\Generated_Source\PSoC5/rightEncTimer.c ****     rightEncTimer_STATUS_MASK = interruptsMask;
 453              		.loc 1 238 0
 454              		.cfi_startproc
 455              		@ args = 0, pretend = 0, frame = 0
 456              		@ frame_needed = 0, uses_anonymous_args = 0
 457              		@ link register save eliminated.
 458              	.LVL22:
 239:.\Generated_Source\PSoC5/rightEncTimer.c **** }
 459              		.loc 1 239 0
 460 0000 014B     		ldr	r3, .L33
 461 0002 1870     		strb	r0, [r3]
 462 0004 7047     		bx	lr
 463              	.L34:
 464 0006 00BF     		.align	2
 465              	.L33:
 466 0008 85640040 		.word	1073767557
 467              		.cfi_endproc
 468              	.LFE4:
ARM GAS  C:\Users\Patrick\AppData\Local\Temp\ccBj80lx.s 			page 20


 469              		.size	rightEncTimer_SetInterruptMode, .-rightEncTimer_SetInterruptMode
 470              		.section	.text.rightEncTimer_ReadStatusRegister,"ax",%progbits
 471              		.align	2
 472              		.global	rightEncTimer_ReadStatusRegister
 473              		.thumb
 474              		.thumb_func
 475              		.type	rightEncTimer_ReadStatusRegister, %function
 476              	rightEncTimer_ReadStatusRegister:
 477              	.LFB5:
 262:.\Generated_Source\PSoC5/rightEncTimer.c ****     return rightEncTimer_STATUS;
 478              		.loc 1 262 0
 479              		.cfi_startproc
 480              		@ args = 0, pretend = 0, frame = 0
 481              		@ frame_needed = 0, uses_anonymous_args = 0
 482              		@ link register save eliminated.
 263:.\Generated_Source\PSoC5/rightEncTimer.c **** }
 483              		.loc 1 263 0
 484 0000 014B     		ldr	r3, .L36
 485 0002 1878     		ldrb	r0, [r3]	@ zero_extendqisi2
 264:.\Generated_Source\PSoC5/rightEncTimer.c **** 
 486              		.loc 1 264 0
 487 0004 7047     		bx	lr
 488              	.L37:
 489 0006 00BF     		.align	2
 490              	.L36:
 491 0008 65640040 		.word	1073767525
 492              		.cfi_endproc
 493              	.LFE5:
 494              		.size	rightEncTimer_ReadStatusRegister, .-rightEncTimer_ReadStatusRegister
 495              		.section	.text.rightEncTimer_ReadControlRegister,"ax",%progbits
 496              		.align	2
 497              		.global	rightEncTimer_ReadControlRegister
 498              		.thumb
 499              		.thumb_func
 500              		.type	rightEncTimer_ReadControlRegister, %function
 501              	rightEncTimer_ReadControlRegister:
 502              	.LFB6:
 284:.\Generated_Source\PSoC5/rightEncTimer.c ****     return rightEncTimer_CONTROL;
 503              		.loc 1 284 0
 504              		.cfi_startproc
 505              		@ args = 0, pretend = 0, frame = 0
 506              		@ frame_needed = 0, uses_anonymous_args = 0
 507              		@ link register save eliminated.
 285:.\Generated_Source\PSoC5/rightEncTimer.c **** }
 508              		.loc 1 285 0
 509 0000 014B     		ldr	r3, .L39
 510 0002 1878     		ldrb	r0, [r3]	@ zero_extendqisi2
 286:.\Generated_Source\PSoC5/rightEncTimer.c **** 
 511              		.loc 1 286 0
 512 0004 7047     		bx	lr
 513              	.L40:
 514 0006 00BF     		.align	2
 515              	.L39:
 516 0008 74640040 		.word	1073767540
 517              		.cfi_endproc
 518              	.LFE6:
 519              		.size	rightEncTimer_ReadControlRegister, .-rightEncTimer_ReadControlRegister
ARM GAS  C:\Users\Patrick\AppData\Local\Temp\ccBj80lx.s 			page 21


 520              		.section	.text.rightEncTimer_WriteControlRegister,"ax",%progbits
 521              		.align	2
 522              		.global	rightEncTimer_WriteControlRegister
 523              		.thumb
 524              		.thumb_func
 525              		.type	rightEncTimer_WriteControlRegister, %function
 526              	rightEncTimer_WriteControlRegister:
 527              	.LFB7:
 305:.\Generated_Source\PSoC5/rightEncTimer.c ****     rightEncTimer_CONTROL = control;
 528              		.loc 1 305 0
 529              		.cfi_startproc
 530              		@ args = 0, pretend = 0, frame = 0
 531              		@ frame_needed = 0, uses_anonymous_args = 0
 532              		@ link register save eliminated.
 533              	.LVL23:
 306:.\Generated_Source\PSoC5/rightEncTimer.c **** }
 534              		.loc 1 306 0
 535 0000 014B     		ldr	r3, .L42
 536 0002 1870     		strb	r0, [r3]
 537 0004 7047     		bx	lr
 538              	.L43:
 539 0006 00BF     		.align	2
 540              	.L42:
 541 0008 74640040 		.word	1073767540
 542              		.cfi_endproc
 543              	.LFE7:
 544              		.size	rightEncTimer_WriteControlRegister, .-rightEncTimer_WriteControlRegister
 545              		.section	.text.rightEncTimer_WriteCounter,"ax",%progbits
 546              		.align	2
 547              		.global	rightEncTimer_WriteCounter
 548              		.thumb
 549              		.thumb_func
 550              		.type	rightEncTimer_WriteCounter, %function
 551              	rightEncTimer_WriteCounter:
 552              	.LFB8:
 328:.\Generated_Source\PSoC5/rightEncTimer.c ****     #if(rightEncTimer_UsingFixedFunction)
 553              		.loc 1 328 0
 554              		.cfi_startproc
 555              		@ args = 0, pretend = 0, frame = 0
 556              		@ frame_needed = 0, uses_anonymous_args = 0
 557              		@ link register save eliminated.
 558              	.LVL24:
 337:.\Generated_Source\PSoC5/rightEncTimer.c ****     #endif /* (rightEncTimer_UsingFixedFunction) */
 559              		.loc 1 337 0
 560 0000 014B     		ldr	r3, .L45
 561 0002 1880     		strh	r0, [r3]	@ movhi
 562 0004 7047     		bx	lr
 563              	.L46:
 564 0006 00BF     		.align	2
 565              	.L45:
 566 0008 08680040 		.word	1073768456
 567              		.cfi_endproc
 568              	.LFE8:
 569              		.size	rightEncTimer_WriteCounter, .-rightEncTimer_WriteCounter
 570              		.section	.text.rightEncTimer_ReadCounter,"ax",%progbits
 571              		.align	2
 572              		.global	rightEncTimer_ReadCounter
ARM GAS  C:\Users\Patrick\AppData\Local\Temp\ccBj80lx.s 			page 22


 573              		.thumb
 574              		.thumb_func
 575              		.type	rightEncTimer_ReadCounter, %function
 576              	rightEncTimer_ReadCounter:
 577              	.LFB9:
 358:.\Generated_Source\PSoC5/rightEncTimer.c ****     /* Force capture by reading Accumulator */
 578              		.loc 1 358 0
 579              		.cfi_startproc
 580              		@ args = 0, pretend = 0, frame = 0
 581              		@ frame_needed = 0, uses_anonymous_args = 0
 582              		@ link register save eliminated.
 372:.\Generated_Source\PSoC5/rightEncTimer.c ****     #endif /* (rightEncTimer_UsingFixedFunction) */
 583              		.loc 1 372 0
 584 0000 024B     		ldr	r3, .L48
 365:.\Generated_Source\PSoC5/rightEncTimer.c **** 	#endif/* (rightEncTimer_UsingFixedFunction) */
 585              		.loc 1 365 0
 586 0002 034A     		ldr	r2, .L48+4
 587 0004 1278     		ldrb	r2, [r2]	@ zero_extendqisi2
 372:.\Generated_Source\PSoC5/rightEncTimer.c ****     #endif /* (rightEncTimer_UsingFixedFunction) */
 588              		.loc 1 372 0
 589 0006 1888     		ldrh	r0, [r3]
 374:.\Generated_Source\PSoC5/rightEncTimer.c **** 
 590              		.loc 1 374 0
 591 0008 80B2     		uxth	r0, r0
 592 000a 7047     		bx	lr
 593              	.L49:
 594              		.align	2
 595              	.L48:
 596 000c 88680040 		.word	1073768584
 597 0010 04640040 		.word	1073767428
 598              		.cfi_endproc
 599              	.LFE9:
 600              		.size	rightEncTimer_ReadCounter, .-rightEncTimer_ReadCounter
 601              		.section	.text.rightEncTimer_ReadCapture,"ax",%progbits
 602              		.align	2
 603              		.global	rightEncTimer_ReadCapture
 604              		.thumb
 605              		.thumb_func
 606              		.type	rightEncTimer_ReadCapture, %function
 607              	rightEncTimer_ReadCapture:
 608              	.LFB10:
 391:.\Generated_Source\PSoC5/rightEncTimer.c ****     #if(rightEncTimer_UsingFixedFunction)
 609              		.loc 1 391 0
 610              		.cfi_startproc
 611              		@ args = 0, pretend = 0, frame = 0
 612              		@ frame_needed = 0, uses_anonymous_args = 0
 613              		@ link register save eliminated.
 395:.\Generated_Source\PSoC5/rightEncTimer.c ****     #endif /* (rightEncTimer_UsingFixedFunction) */
 614              		.loc 1 395 0
 615 0000 014B     		ldr	r3, .L51
 616 0002 1888     		ldrh	r0, [r3]
 397:.\Generated_Source\PSoC5/rightEncTimer.c **** 
 617              		.loc 1 397 0
 618 0004 80B2     		uxth	r0, r0
 619 0006 7047     		bx	lr
 620              	.L52:
 621              		.align	2
ARM GAS  C:\Users\Patrick\AppData\Local\Temp\ccBj80lx.s 			page 23


 622              	.L51:
 623 0008 88680040 		.word	1073768584
 624              		.cfi_endproc
 625              	.LFE10:
 626              		.size	rightEncTimer_ReadCapture, .-rightEncTimer_ReadCapture
 627              		.section	.text.rightEncTimer_WritePeriod,"ax",%progbits
 628              		.align	2
 629              		.global	rightEncTimer_WritePeriod
 630              		.thumb
 631              		.thumb_func
 632              		.type	rightEncTimer_WritePeriod, %function
 633              	rightEncTimer_WritePeriod:
 634              	.LFB11:
 416:.\Generated_Source\PSoC5/rightEncTimer.c ****     #if(rightEncTimer_UsingFixedFunction)
 635              		.loc 1 416 0
 636              		.cfi_startproc
 637              		@ args = 0, pretend = 0, frame = 0
 638              		@ frame_needed = 0, uses_anonymous_args = 0
 639              		@ link register save eliminated.
 640              	.LVL25:
 420:.\Generated_Source\PSoC5/rightEncTimer.c ****     #endif /* (rightEncTimer_UsingFixedFunction) */
 641              		.loc 1 420 0
 642 0000 014B     		ldr	r3, .L54
 643 0002 1880     		strh	r0, [r3]	@ movhi
 644 0004 7047     		bx	lr
 645              	.L55:
 646 0006 00BF     		.align	2
 647              	.L54:
 648 0008 48680040 		.word	1073768520
 649              		.cfi_endproc
 650              	.LFE11:
 651              		.size	rightEncTimer_WritePeriod, .-rightEncTimer_WritePeriod
 652              		.section	.text.rightEncTimer_ReadPeriod,"ax",%progbits
 653              		.align	2
 654              		.global	rightEncTimer_ReadPeriod
 655              		.thumb
 656              		.thumb_func
 657              		.type	rightEncTimer_ReadPeriod, %function
 658              	rightEncTimer_ReadPeriod:
 659              	.LFB12:
 439:.\Generated_Source\PSoC5/rightEncTimer.c ****     #if(rightEncTimer_UsingFixedFunction)
 660              		.loc 1 439 0
 661              		.cfi_startproc
 662              		@ args = 0, pretend = 0, frame = 0
 663              		@ frame_needed = 0, uses_anonymous_args = 0
 664              		@ link register save eliminated.
 443:.\Generated_Source\PSoC5/rightEncTimer.c ****     #endif /* (rightEncTimer_UsingFixedFunction) */
 665              		.loc 1 443 0
 666 0000 014B     		ldr	r3, .L57
 667 0002 1888     		ldrh	r0, [r3]
 445:.\Generated_Source\PSoC5/rightEncTimer.c **** 
 668              		.loc 1 445 0
 669 0004 80B2     		uxth	r0, r0
 670 0006 7047     		bx	lr
 671              	.L58:
 672              		.align	2
 673              	.L57:
ARM GAS  C:\Users\Patrick\AppData\Local\Temp\ccBj80lx.s 			page 24


 674 0008 48680040 		.word	1073768520
 675              		.cfi_endproc
 676              	.LFE12:
 677              		.size	rightEncTimer_ReadPeriod, .-rightEncTimer_ReadPeriod
 678              		.section	.text.rightEncTimer_WriteCompare,"ax",%progbits
 679              		.align	2
 680              		.global	rightEncTimer_WriteCompare
 681              		.thumb
 682              		.thumb_func
 683              		.type	rightEncTimer_WriteCompare, %function
 684              	rightEncTimer_WriteCompare:
 685              	.LFB13:
 467:.\Generated_Source\PSoC5/rightEncTimer.c ****     #if(rightEncTimer_UsingFixedFunction)
 686              		.loc 1 467 0
 687              		.cfi_startproc
 688              		@ args = 0, pretend = 0, frame = 0
 689              		@ frame_needed = 0, uses_anonymous_args = 0
 690              		@ link register save eliminated.
 691              	.LVL26:
 471:.\Generated_Source\PSoC5/rightEncTimer.c ****     #endif /* (rightEncTimer_UsingFixedFunction) */
 692              		.loc 1 471 0
 693 0000 014B     		ldr	r3, .L60
 694 0002 1880     		strh	r0, [r3]	@ movhi
 695 0004 7047     		bx	lr
 696              	.L61:
 697 0006 00BF     		.align	2
 698              	.L60:
 699 0008 68680040 		.word	1073768552
 700              		.cfi_endproc
 701              	.LFE13:
 702              		.size	rightEncTimer_WriteCompare, .-rightEncTimer_WriteCompare
 703              		.section	.text.rightEncTimer_ReadCompare,"ax",%progbits
 704              		.align	2
 705              		.global	rightEncTimer_ReadCompare
 706              		.thumb
 707              		.thumb_func
 708              		.type	rightEncTimer_ReadCompare, %function
 709              	rightEncTimer_ReadCompare:
 710              	.LFB14:
 490:.\Generated_Source\PSoC5/rightEncTimer.c ****     return (CY_GET_REG16(rightEncTimer_COMPARE_LSB_PTR));
 711              		.loc 1 490 0
 712              		.cfi_startproc
 713              		@ args = 0, pretend = 0, frame = 0
 714              		@ frame_needed = 0, uses_anonymous_args = 0
 715              		@ link register save eliminated.
 491:.\Generated_Source\PSoC5/rightEncTimer.c **** }
 716              		.loc 1 491 0
 717 0000 014B     		ldr	r3, .L63
 718 0002 1888     		ldrh	r0, [r3]
 492:.\Generated_Source\PSoC5/rightEncTimer.c **** 
 719              		.loc 1 492 0
 720 0004 80B2     		uxth	r0, r0
 721 0006 7047     		bx	lr
 722              	.L64:
 723              		.align	2
 724              	.L63:
 725 0008 68680040 		.word	1073768552
ARM GAS  C:\Users\Patrick\AppData\Local\Temp\ccBj80lx.s 			page 25


 726              		.cfi_endproc
 727              	.LFE14:
 728              		.size	rightEncTimer_ReadCompare, .-rightEncTimer_ReadCompare
 729              		.section	.text.rightEncTimer_ClearFIFO,"ax",%progbits
 730              		.align	2
 731              		.global	rightEncTimer_ClearFIFO
 732              		.thumb
 733              		.thumb_func
 734              		.type	rightEncTimer_ClearFIFO, %function
 735              	rightEncTimer_ClearFIFO:
 736              	.LFB15:
 559:.\Generated_Source\PSoC5/rightEncTimer.c **** 
 737              		.loc 1 559 0
 738              		.cfi_startproc
 739              		@ args = 0, pretend = 0, frame = 0
 740              		@ frame_needed = 0, uses_anonymous_args = 0
 741              		@ link register save eliminated.
 742              	.LBB132:
 743              	.LBB133:
 263:.\Generated_Source\PSoC5/rightEncTimer.c **** }
 744              		.loc 1 263 0
 745 0000 044A     		ldr	r2, .L73
 746 0002 1378     		ldrb	r3, [r2]	@ zero_extendqisi2
 747              	.LBE133:
 748              	.LBE132:
 749              		.loc 1 561 0
 750 0004 5906     		lsls	r1, r3, #25
 751 0006 04D5     		bpl	.L65
 752              	.LBB135:
 753              	.LBB136:
 395:.\Generated_Source\PSoC5/rightEncTimer.c ****     #endif /* (rightEncTimer_UsingFixedFunction) */
 754              		.loc 1 395 0
 755 0008 0349     		ldr	r1, .L73+4
 756              	.L70:
 757 000a 0B88     		ldrh	r3, [r1]
 758              	.LBE136:
 759              	.LBE135:
 760              	.LBB137:
 761              	.LBB134:
 263:.\Generated_Source\PSoC5/rightEncTimer.c **** }
 762              		.loc 1 263 0
 763 000c 1378     		ldrb	r3, [r2]	@ zero_extendqisi2
 764              	.LBE134:
 765              	.LBE137:
 766              		.loc 1 561 0
 767 000e 5B06     		lsls	r3, r3, #25
 768 0010 FBD4     		bmi	.L70
 769              	.L65:
 770 0012 7047     		bx	lr
 771              	.L74:
 772              		.align	2
 773              	.L73:
 774 0014 65640040 		.word	1073767525
 775 0018 88680040 		.word	1073768584
 776              		.cfi_endproc
 777              	.LFE15:
 778              		.size	rightEncTimer_ClearFIFO, .-rightEncTimer_ClearFIFO
ARM GAS  C:\Users\Patrick\AppData\Local\Temp\ccBj80lx.s 			page 26


 779              		.global	rightEncTimer_initVar
 780              		.bss
 781              		.set	.LANCHOR0,. + 0
 782              		.type	rightEncTimer_initVar, %object
 783              		.size	rightEncTimer_initVar, 1
 784              	rightEncTimer_initVar:
 785 0000 00       		.space	1
 786              		.text
 787              	.Letext0:
 788              		.file 2 ".\\Generated_Source\\PSoC5\\cytypes.h"
 789              		.file 3 ".\\Generated_Source\\PSoC5\\CyLib.h"