ARM GAS  C:\Users\Patrick\AppData\Local\Temp\ccMAZXgj.s 			page 1


   1              		.syntax unified
   2              		.cpu cortex-m3
   3              		.fpu softvfp
   4              		.eabi_attribute 20, 1
   5              		.eabi_attribute 21, 1
   6              		.eabi_attribute 23, 3
   7              		.eabi_attribute 24, 1
   8              		.eabi_attribute 25, 1
   9              		.eabi_attribute 26, 1
  10              		.eabi_attribute 30, 2
  11              		.eabi_attribute 34, 1
  12              		.eabi_attribute 18, 4
  13              		.thumb
  14              		.file	"UART_1.c"
  15              		.text
  16              	.Ltext0:
  17              		.cfi_sections	.debug_frame
  18              		.section	.text.UART_1_Start,"ax",%progbits
  19              		.align	2
  20              		.global	UART_1_Start
  21              		.thumb
  22              		.thumb_func
  23              		.type	UART_1_Start, %function
  24              	UART_1_Start:
  25              	.LFB0:
  26              		.file 1 ".\\Generated_Source\\PSoC5\\UART_1.c"
   1:.\Generated_Source\PSoC5/UART_1.c **** /*******************************************************************************
   2:.\Generated_Source\PSoC5/UART_1.c **** * File Name: UART_1.c
   3:.\Generated_Source\PSoC5/UART_1.c **** * Version 2.50
   4:.\Generated_Source\PSoC5/UART_1.c **** *
   5:.\Generated_Source\PSoC5/UART_1.c **** * Description:
   6:.\Generated_Source\PSoC5/UART_1.c **** *  This file provides all API functionality of the UART component
   7:.\Generated_Source\PSoC5/UART_1.c **** *
   8:.\Generated_Source\PSoC5/UART_1.c **** * Note:
   9:.\Generated_Source\PSoC5/UART_1.c **** *
  10:.\Generated_Source\PSoC5/UART_1.c **** ********************************************************************************
  11:.\Generated_Source\PSoC5/UART_1.c **** * Copyright 2008-2015, Cypress Semiconductor Corporation.  All rights reserved.
  12:.\Generated_Source\PSoC5/UART_1.c **** * You may use this file only in accordance with the license, terms, conditions,
  13:.\Generated_Source\PSoC5/UART_1.c **** * disclaimers, and limitations in the end user license agreement accompanying
  14:.\Generated_Source\PSoC5/UART_1.c **** * the software package with which this file was provided.
  15:.\Generated_Source\PSoC5/UART_1.c **** *******************************************************************************/
  16:.\Generated_Source\PSoC5/UART_1.c **** 
  17:.\Generated_Source\PSoC5/UART_1.c **** #include "UART_1.h"
  18:.\Generated_Source\PSoC5/UART_1.c **** #if (UART_1_INTERNAL_CLOCK_USED)
  19:.\Generated_Source\PSoC5/UART_1.c ****     #include "UART_1_IntClock.h"
  20:.\Generated_Source\PSoC5/UART_1.c **** #endif /* End UART_1_INTERNAL_CLOCK_USED */
  21:.\Generated_Source\PSoC5/UART_1.c **** 
  22:.\Generated_Source\PSoC5/UART_1.c **** 
  23:.\Generated_Source\PSoC5/UART_1.c **** /***************************************
  24:.\Generated_Source\PSoC5/UART_1.c **** * Global data allocation
  25:.\Generated_Source\PSoC5/UART_1.c **** ***************************************/
  26:.\Generated_Source\PSoC5/UART_1.c **** 
  27:.\Generated_Source\PSoC5/UART_1.c **** uint8 UART_1_initVar = 0u;
  28:.\Generated_Source\PSoC5/UART_1.c **** 
  29:.\Generated_Source\PSoC5/UART_1.c **** #if (UART_1_TX_INTERRUPT_ENABLED && UART_1_TX_ENABLED)
  30:.\Generated_Source\PSoC5/UART_1.c ****     volatile uint8 UART_1_txBuffer[UART_1_TX_BUFFER_SIZE];
  31:.\Generated_Source\PSoC5/UART_1.c ****     volatile uint8 UART_1_txBufferRead = 0u;
ARM GAS  C:\Users\Patrick\AppData\Local\Temp\ccMAZXgj.s 			page 2


  32:.\Generated_Source\PSoC5/UART_1.c ****     uint8 UART_1_txBufferWrite = 0u;
  33:.\Generated_Source\PSoC5/UART_1.c **** #endif /* (UART_1_TX_INTERRUPT_ENABLED && UART_1_TX_ENABLED) */
  34:.\Generated_Source\PSoC5/UART_1.c **** 
  35:.\Generated_Source\PSoC5/UART_1.c **** #if (UART_1_RX_INTERRUPT_ENABLED && (UART_1_RX_ENABLED || UART_1_HD_ENABLED))
  36:.\Generated_Source\PSoC5/UART_1.c ****     uint8 UART_1_errorStatus = 0u;
  37:.\Generated_Source\PSoC5/UART_1.c ****     volatile uint8 UART_1_rxBuffer[UART_1_RX_BUFFER_SIZE];
  38:.\Generated_Source\PSoC5/UART_1.c ****     volatile uint8 UART_1_rxBufferRead  = 0u;
  39:.\Generated_Source\PSoC5/UART_1.c ****     volatile uint8 UART_1_rxBufferWrite = 0u;
  40:.\Generated_Source\PSoC5/UART_1.c ****     volatile uint8 UART_1_rxBufferLoopDetect = 0u;
  41:.\Generated_Source\PSoC5/UART_1.c ****     volatile uint8 UART_1_rxBufferOverflow   = 0u;
  42:.\Generated_Source\PSoC5/UART_1.c ****     #if (UART_1_RXHW_ADDRESS_ENABLED)
  43:.\Generated_Source\PSoC5/UART_1.c ****         volatile uint8 UART_1_rxAddressMode = UART_1_RX_ADDRESS_MODE;
  44:.\Generated_Source\PSoC5/UART_1.c ****         volatile uint8 UART_1_rxAddressDetected = 0u;
  45:.\Generated_Source\PSoC5/UART_1.c ****     #endif /* (UART_1_RXHW_ADDRESS_ENABLED) */
  46:.\Generated_Source\PSoC5/UART_1.c **** #endif /* (UART_1_RX_INTERRUPT_ENABLED && (UART_1_RX_ENABLED || UART_1_HD_ENABLED)) */
  47:.\Generated_Source\PSoC5/UART_1.c **** 
  48:.\Generated_Source\PSoC5/UART_1.c **** 
  49:.\Generated_Source\PSoC5/UART_1.c **** /*******************************************************************************
  50:.\Generated_Source\PSoC5/UART_1.c **** * Function Name: UART_1_Start
  51:.\Generated_Source\PSoC5/UART_1.c **** ********************************************************************************
  52:.\Generated_Source\PSoC5/UART_1.c **** *
  53:.\Generated_Source\PSoC5/UART_1.c **** * Summary:
  54:.\Generated_Source\PSoC5/UART_1.c **** *  This is the preferred method to begin component operation.
  55:.\Generated_Source\PSoC5/UART_1.c **** *  UART_1_Start() sets the initVar variable, calls the
  56:.\Generated_Source\PSoC5/UART_1.c **** *  UART_1_Init() function, and then calls the
  57:.\Generated_Source\PSoC5/UART_1.c **** *  UART_1_Enable() function.
  58:.\Generated_Source\PSoC5/UART_1.c **** *
  59:.\Generated_Source\PSoC5/UART_1.c **** * Parameters:
  60:.\Generated_Source\PSoC5/UART_1.c **** *  None.
  61:.\Generated_Source\PSoC5/UART_1.c **** *
  62:.\Generated_Source\PSoC5/UART_1.c **** * Return:
  63:.\Generated_Source\PSoC5/UART_1.c **** *  None.
  64:.\Generated_Source\PSoC5/UART_1.c **** *
  65:.\Generated_Source\PSoC5/UART_1.c **** * Global variables:
  66:.\Generated_Source\PSoC5/UART_1.c **** *  The UART_1_intiVar variable is used to indicate initial
  67:.\Generated_Source\PSoC5/UART_1.c **** *  configuration of this component. The variable is initialized to zero (0u)
  68:.\Generated_Source\PSoC5/UART_1.c **** *  and set to one (1u) the first time UART_1_Start() is called. This
  69:.\Generated_Source\PSoC5/UART_1.c **** *  allows for component initialization without re-initialization in all
  70:.\Generated_Source\PSoC5/UART_1.c **** *  subsequent calls to the UART_1_Start() routine.
  71:.\Generated_Source\PSoC5/UART_1.c **** *
  72:.\Generated_Source\PSoC5/UART_1.c **** * Reentrant:
  73:.\Generated_Source\PSoC5/UART_1.c **** *  No.
  74:.\Generated_Source\PSoC5/UART_1.c **** *
  75:.\Generated_Source\PSoC5/UART_1.c **** *******************************************************************************/
  76:.\Generated_Source\PSoC5/UART_1.c **** void UART_1_Start(void) 
  77:.\Generated_Source\PSoC5/UART_1.c **** {
  27              		.loc 1 77 0
  28              		.cfi_startproc
  29              		@ args = 0, pretend = 0, frame = 0
  30              		@ frame_needed = 0, uses_anonymous_args = 0
  31 0000 2DE9F843 		push	{r3, r4, r5, r6, r7, r8, r9, lr}
  32              		.cfi_def_cfa_offset 32
  33              		.cfi_offset 3, -32
  34              		.cfi_offset 4, -28
  35              		.cfi_offset 5, -24
  36              		.cfi_offset 6, -20
  37              		.cfi_offset 7, -16
ARM GAS  C:\Users\Patrick\AppData\Local\Temp\ccMAZXgj.s 			page 3


  38              		.cfi_offset 8, -12
  39              		.cfi_offset 9, -8
  40              		.cfi_offset 14, -4
  78:.\Generated_Source\PSoC5/UART_1.c ****     /* If not initialized then initialize all required hardware and software */
  79:.\Generated_Source\PSoC5/UART_1.c ****     if(UART_1_initVar == 0u)
  41              		.loc 1 79 0
  42 0004 184B     		ldr	r3, .L5
  43 0006 1A78     		ldrb	r2, [r3]	@ zero_extendqisi2
  44 0008 AAB9     		cbnz	r2, .L2
  45              	.LBB22:
  46              	.LBB23:
  80:.\Generated_Source\PSoC5/UART_1.c ****     {
  81:.\Generated_Source\PSoC5/UART_1.c ****         UART_1_Init();
  82:.\Generated_Source\PSoC5/UART_1.c ****         UART_1_initVar = 1u;
  83:.\Generated_Source\PSoC5/UART_1.c ****     }
  84:.\Generated_Source\PSoC5/UART_1.c **** 
  85:.\Generated_Source\PSoC5/UART_1.c ****     UART_1_Enable();
  86:.\Generated_Source\PSoC5/UART_1.c **** }
  87:.\Generated_Source\PSoC5/UART_1.c **** 
  88:.\Generated_Source\PSoC5/UART_1.c **** 
  89:.\Generated_Source\PSoC5/UART_1.c **** /*******************************************************************************
  90:.\Generated_Source\PSoC5/UART_1.c **** * Function Name: UART_1_Init
  91:.\Generated_Source\PSoC5/UART_1.c **** ********************************************************************************
  92:.\Generated_Source\PSoC5/UART_1.c **** *
  93:.\Generated_Source\PSoC5/UART_1.c **** * Summary:
  94:.\Generated_Source\PSoC5/UART_1.c **** *  Initializes or restores the component according to the customizer Configure
  95:.\Generated_Source\PSoC5/UART_1.c **** *  dialog settings. It is not necessary to call UART_1_Init() because
  96:.\Generated_Source\PSoC5/UART_1.c **** *  the UART_1_Start() API calls this function and is the preferred
  97:.\Generated_Source\PSoC5/UART_1.c **** *  method to begin component operation.
  98:.\Generated_Source\PSoC5/UART_1.c **** *
  99:.\Generated_Source\PSoC5/UART_1.c **** * Parameters:
 100:.\Generated_Source\PSoC5/UART_1.c **** *  None.
 101:.\Generated_Source\PSoC5/UART_1.c **** *
 102:.\Generated_Source\PSoC5/UART_1.c **** * Return:
 103:.\Generated_Source\PSoC5/UART_1.c **** *  None.
 104:.\Generated_Source\PSoC5/UART_1.c **** *
 105:.\Generated_Source\PSoC5/UART_1.c **** *******************************************************************************/
 106:.\Generated_Source\PSoC5/UART_1.c **** void UART_1_Init(void) 
 107:.\Generated_Source\PSoC5/UART_1.c **** {
 108:.\Generated_Source\PSoC5/UART_1.c ****     #if(UART_1_RX_ENABLED || UART_1_HD_ENABLED)
 109:.\Generated_Source\PSoC5/UART_1.c **** 
 110:.\Generated_Source\PSoC5/UART_1.c ****         #if (UART_1_RX_INTERRUPT_ENABLED)
 111:.\Generated_Source\PSoC5/UART_1.c ****             /* Set RX interrupt vector and priority */
 112:.\Generated_Source\PSoC5/UART_1.c ****             (void) CyIntSetVector(UART_1_RX_VECT_NUM, &UART_1_RXISR);
 113:.\Generated_Source\PSoC5/UART_1.c ****             CyIntSetPriority(UART_1_RX_VECT_NUM, UART_1_RX_PRIOR_NUM);
 114:.\Generated_Source\PSoC5/UART_1.c ****             UART_1_errorStatus = 0u;
 115:.\Generated_Source\PSoC5/UART_1.c ****         #endif /* (UART_1_RX_INTERRUPT_ENABLED) */
 116:.\Generated_Source\PSoC5/UART_1.c **** 
 117:.\Generated_Source\PSoC5/UART_1.c ****         #if (UART_1_RXHW_ADDRESS_ENABLED)
 118:.\Generated_Source\PSoC5/UART_1.c ****             UART_1_SetRxAddressMode(UART_1_RX_ADDRESS_MODE);
 119:.\Generated_Source\PSoC5/UART_1.c ****             UART_1_SetRxAddress1(UART_1_RX_HW_ADDRESS1);
 120:.\Generated_Source\PSoC5/UART_1.c ****             UART_1_SetRxAddress2(UART_1_RX_HW_ADDRESS2);
 121:.\Generated_Source\PSoC5/UART_1.c ****         #endif /* End UART_1_RXHW_ADDRESS_ENABLED */
 122:.\Generated_Source\PSoC5/UART_1.c **** 
 123:.\Generated_Source\PSoC5/UART_1.c ****         /* Init Count7 period */
 124:.\Generated_Source\PSoC5/UART_1.c ****         UART_1_RXBITCTR_PERIOD_REG = UART_1_RXBITCTR_INIT;
  47              		.loc 1 124 0
ARM GAS  C:\Users\Patrick\AppData\Local\Temp\ccMAZXgj.s 			page 4


  48 000a DFF87880 		ldr	r8, .L5+28
 125:.\Generated_Source\PSoC5/UART_1.c ****         /* Configure the Initial RX interrupt mask */
 126:.\Generated_Source\PSoC5/UART_1.c ****         UART_1_RXSTATUS_MASK_REG  = UART_1_INIT_RX_INTERRUPTS_MASK;
  49              		.loc 1 126 0
  50 000e DFF878E0 		ldr	lr, .L5+32
 127:.\Generated_Source\PSoC5/UART_1.c ****     #endif /* End UART_1_RX_ENABLED || UART_1_HD_ENABLED*/
 128:.\Generated_Source\PSoC5/UART_1.c **** 
 129:.\Generated_Source\PSoC5/UART_1.c ****     #if(UART_1_TX_ENABLED)
 130:.\Generated_Source\PSoC5/UART_1.c ****         #if (UART_1_TX_INTERRUPT_ENABLED)
 131:.\Generated_Source\PSoC5/UART_1.c ****             /* Set TX interrupt vector and priority */
 132:.\Generated_Source\PSoC5/UART_1.c ****             (void) CyIntSetVector(UART_1_TX_VECT_NUM, &UART_1_TXISR);
 133:.\Generated_Source\PSoC5/UART_1.c ****             CyIntSetPriority(UART_1_TX_VECT_NUM, UART_1_TX_PRIOR_NUM);
 134:.\Generated_Source\PSoC5/UART_1.c ****         #endif /* (UART_1_TX_INTERRUPT_ENABLED) */
 135:.\Generated_Source\PSoC5/UART_1.c **** 
 136:.\Generated_Source\PSoC5/UART_1.c ****         /* Write Counter Value for TX Bit Clk Generator*/
 137:.\Generated_Source\PSoC5/UART_1.c ****         #if (UART_1_TXCLKGEN_DP)
 138:.\Generated_Source\PSoC5/UART_1.c ****             UART_1_TXBITCLKGEN_CTR_REG = UART_1_BIT_CENTER;
  51              		.loc 1 138 0
  52 0012 164E     		ldr	r6, .L5+4
 139:.\Generated_Source\PSoC5/UART_1.c ****             UART_1_TXBITCLKTX_COMPLETE_REG = ((UART_1_NUMBER_OF_DATA_BITS +
  53              		.loc 1 139 0
  54 0014 164C     		ldr	r4, .L5+8
 140:.\Generated_Source\PSoC5/UART_1.c ****                         UART_1_NUMBER_OF_START_BIT) * UART_1_OVER_SAMPLE_COUNT) - 1u;
 141:.\Generated_Source\PSoC5/UART_1.c ****         #else
 142:.\Generated_Source\PSoC5/UART_1.c ****             UART_1_TXBITCTR_PERIOD_REG = ((UART_1_NUMBER_OF_DATA_BITS +
 143:.\Generated_Source\PSoC5/UART_1.c ****                         UART_1_NUMBER_OF_START_BIT) * UART_1_OVER_SAMPLE_8) - 1u;
 144:.\Generated_Source\PSoC5/UART_1.c ****         #endif /* End UART_1_TXCLKGEN_DP */
 145:.\Generated_Source\PSoC5/UART_1.c **** 
 146:.\Generated_Source\PSoC5/UART_1.c ****         /* Configure the Initial TX interrupt mask */
 147:.\Generated_Source\PSoC5/UART_1.c ****         #if (UART_1_TX_INTERRUPT_ENABLED)
 148:.\Generated_Source\PSoC5/UART_1.c ****             UART_1_TXSTATUS_MASK_REG = UART_1_TX_STS_FIFO_EMPTY;
 149:.\Generated_Source\PSoC5/UART_1.c ****         #else
 150:.\Generated_Source\PSoC5/UART_1.c ****             UART_1_TXSTATUS_MASK_REG = UART_1_INIT_TX_INTERRUPTS_MASK;
  55              		.loc 1 150 0
  56 0016 1748     		ldr	r0, .L5+12
 124:.\Generated_Source\PSoC5/UART_1.c ****         /* Configure the Initial RX interrupt mask */
  57              		.loc 1 124 0
  58 0018 4FF07209 		mov	r9, #114
 126:.\Generated_Source\PSoC5/UART_1.c ****     #endif /* End UART_1_RX_ENABLED || UART_1_HD_ENABLED*/
  59              		.loc 1 126 0
  60 001c 4FF0200C 		mov	ip, #32
 138:.\Generated_Source\PSoC5/UART_1.c ****             UART_1_TXBITCLKTX_COMPLETE_REG = ((UART_1_NUMBER_OF_DATA_BITS +
  61              		.loc 1 138 0
  62 0020 0627     		movs	r7, #6
 139:.\Generated_Source\PSoC5/UART_1.c ****                         UART_1_NUMBER_OF_START_BIT) * UART_1_OVER_SAMPLE_COUNT) - 1u;
  63              		.loc 1 139 0
  64 0022 4725     		movs	r5, #71
  65              	.LBE23:
  66              	.LBE22:
  82:.\Generated_Source\PSoC5/UART_1.c ****     }
  67              		.loc 1 82 0
  68 0024 0121     		movs	r1, #1
  69              	.LBB25:
  70              	.LBB24:
 124:.\Generated_Source\PSoC5/UART_1.c ****         /* Configure the Initial RX interrupt mask */
  71              		.loc 1 124 0
  72 0026 88F80090 		strb	r9, [r8]
ARM GAS  C:\Users\Patrick\AppData\Local\Temp\ccMAZXgj.s 			page 5


 126:.\Generated_Source\PSoC5/UART_1.c ****     #endif /* End UART_1_RX_ENABLED || UART_1_HD_ENABLED*/
  73              		.loc 1 126 0
  74 002a 8EF800C0 		strb	ip, [lr]
 138:.\Generated_Source\PSoC5/UART_1.c ****             UART_1_TXBITCLKTX_COMPLETE_REG = ((UART_1_NUMBER_OF_DATA_BITS +
  75              		.loc 1 138 0
  76 002e 3770     		strb	r7, [r6]
 139:.\Generated_Source\PSoC5/UART_1.c ****                         UART_1_NUMBER_OF_START_BIT) * UART_1_OVER_SAMPLE_COUNT) - 1u;
  77              		.loc 1 139 0
  78 0030 2570     		strb	r5, [r4]
  79              		.loc 1 150 0
  80 0032 0270     		strb	r2, [r0]
  81              	.LBE24:
  82              	.LBE25:
  82:.\Generated_Source\PSoC5/UART_1.c ****     }
  83              		.loc 1 82 0
  84 0034 1970     		strb	r1, [r3]
  85              	.L2:
  86              	.LBB26:
  87              	.LBB27:
 151:.\Generated_Source\PSoC5/UART_1.c ****         #endif /*End UART_1_TX_INTERRUPT_ENABLED*/
 152:.\Generated_Source\PSoC5/UART_1.c **** 
 153:.\Generated_Source\PSoC5/UART_1.c ****     #endif /* End UART_1_TX_ENABLED */
 154:.\Generated_Source\PSoC5/UART_1.c **** 
 155:.\Generated_Source\PSoC5/UART_1.c ****     #if(UART_1_PARITY_TYPE_SW)  /* Write Parity to Control Register */
 156:.\Generated_Source\PSoC5/UART_1.c ****         UART_1_WriteControlRegister( \
 157:.\Generated_Source\PSoC5/UART_1.c ****             (UART_1_ReadControlRegister() & (uint8)~UART_1_CTRL_PARITY_TYPE_MASK) | \
 158:.\Generated_Source\PSoC5/UART_1.c ****             (uint8)(UART_1_PARITY_TYPE << UART_1_CTRL_PARITY_TYPE0_SHIFT) );
 159:.\Generated_Source\PSoC5/UART_1.c ****     #endif /* End UART_1_PARITY_TYPE_SW */
 160:.\Generated_Source\PSoC5/UART_1.c **** }
 161:.\Generated_Source\PSoC5/UART_1.c **** 
 162:.\Generated_Source\PSoC5/UART_1.c **** 
 163:.\Generated_Source\PSoC5/UART_1.c **** /*******************************************************************************
 164:.\Generated_Source\PSoC5/UART_1.c **** * Function Name: UART_1_Enable
 165:.\Generated_Source\PSoC5/UART_1.c **** ********************************************************************************
 166:.\Generated_Source\PSoC5/UART_1.c **** *
 167:.\Generated_Source\PSoC5/UART_1.c **** * Summary:
 168:.\Generated_Source\PSoC5/UART_1.c **** *  Activates the hardware and begins component operation. It is not necessary
 169:.\Generated_Source\PSoC5/UART_1.c **** *  to call UART_1_Enable() because the UART_1_Start() API
 170:.\Generated_Source\PSoC5/UART_1.c **** *  calls this function, which is the preferred method to begin component
 171:.\Generated_Source\PSoC5/UART_1.c **** *  operation.
 172:.\Generated_Source\PSoC5/UART_1.c **** 
 173:.\Generated_Source\PSoC5/UART_1.c **** * Parameters:
 174:.\Generated_Source\PSoC5/UART_1.c **** *  None.
 175:.\Generated_Source\PSoC5/UART_1.c **** *
 176:.\Generated_Source\PSoC5/UART_1.c **** * Return:
 177:.\Generated_Source\PSoC5/UART_1.c **** *  None.
 178:.\Generated_Source\PSoC5/UART_1.c **** *
 179:.\Generated_Source\PSoC5/UART_1.c **** * Global Variables:
 180:.\Generated_Source\PSoC5/UART_1.c **** *  UART_1_rxAddressDetected - set to initial state (0).
 181:.\Generated_Source\PSoC5/UART_1.c **** *
 182:.\Generated_Source\PSoC5/UART_1.c **** *******************************************************************************/
 183:.\Generated_Source\PSoC5/UART_1.c **** void UART_1_Enable(void) 
 184:.\Generated_Source\PSoC5/UART_1.c **** {
 185:.\Generated_Source\PSoC5/UART_1.c ****     uint8 enableInterrupts;
 186:.\Generated_Source\PSoC5/UART_1.c ****     enableInterrupts = CyEnterCriticalSection();
  88              		.loc 1 186 0
  89 0036 FFF7FEFF 		bl	CyEnterCriticalSection
ARM GAS  C:\Users\Patrick\AppData\Local\Temp\ccMAZXgj.s 			page 6


  90              	.LVL0:
  91 003a 0546     		mov	r5, r0
  92              	.LVL1:
 187:.\Generated_Source\PSoC5/UART_1.c **** 
 188:.\Generated_Source\PSoC5/UART_1.c ****     #if (UART_1_RX_ENABLED || UART_1_HD_ENABLED)
 189:.\Generated_Source\PSoC5/UART_1.c ****         /* RX Counter (Count7) Enable */
 190:.\Generated_Source\PSoC5/UART_1.c ****         UART_1_RXBITCTR_CONTROL_REG |= UART_1_CNTR_ENABLE;
  93              		.loc 1 190 0
  94 003c 0E4C     		ldr	r4, .L5+16
 191:.\Generated_Source\PSoC5/UART_1.c **** 
 192:.\Generated_Source\PSoC5/UART_1.c ****         /* Enable the RX Interrupt */
 193:.\Generated_Source\PSoC5/UART_1.c ****         UART_1_RXSTATUS_ACTL_REG  |= UART_1_INT_ENABLE;
  95              		.loc 1 193 0
  96 003e 0F49     		ldr	r1, .L5+20
 190:.\Generated_Source\PSoC5/UART_1.c **** 
  97              		.loc 1 190 0
  98 0040 2378     		ldrb	r3, [r4]	@ zero_extendqisi2
 194:.\Generated_Source\PSoC5/UART_1.c **** 
 195:.\Generated_Source\PSoC5/UART_1.c ****         #if (UART_1_RX_INTERRUPT_ENABLED)
 196:.\Generated_Source\PSoC5/UART_1.c ****             UART_1_EnableRxInt();
 197:.\Generated_Source\PSoC5/UART_1.c **** 
 198:.\Generated_Source\PSoC5/UART_1.c ****             #if (UART_1_RXHW_ADDRESS_ENABLED)
 199:.\Generated_Source\PSoC5/UART_1.c ****                 UART_1_rxAddressDetected = 0u;
 200:.\Generated_Source\PSoC5/UART_1.c ****             #endif /* (UART_1_RXHW_ADDRESS_ENABLED) */
 201:.\Generated_Source\PSoC5/UART_1.c ****         #endif /* (UART_1_RX_INTERRUPT_ENABLED) */
 202:.\Generated_Source\PSoC5/UART_1.c ****     #endif /* (UART_1_RX_ENABLED || UART_1_HD_ENABLED) */
 203:.\Generated_Source\PSoC5/UART_1.c **** 
 204:.\Generated_Source\PSoC5/UART_1.c ****     #if(UART_1_TX_ENABLED)
 205:.\Generated_Source\PSoC5/UART_1.c ****         /* TX Counter (DP/Count7) Enable */
 206:.\Generated_Source\PSoC5/UART_1.c ****         #if(!UART_1_TXCLKGEN_DP)
 207:.\Generated_Source\PSoC5/UART_1.c ****             UART_1_TXBITCTR_CONTROL_REG |= UART_1_CNTR_ENABLE;
 208:.\Generated_Source\PSoC5/UART_1.c ****         #endif /* End UART_1_TXCLKGEN_DP */
 209:.\Generated_Source\PSoC5/UART_1.c **** 
 210:.\Generated_Source\PSoC5/UART_1.c ****         /* Enable the TX Interrupt */
 211:.\Generated_Source\PSoC5/UART_1.c ****         UART_1_TXSTATUS_ACTL_REG |= UART_1_INT_ENABLE;
  99              		.loc 1 211 0
 100 0042 0F4A     		ldr	r2, .L5+24
 190:.\Generated_Source\PSoC5/UART_1.c **** 
 101              		.loc 1 190 0
 102 0044 43F02003 		orr	r3, r3, #32
 103 0048 2370     		strb	r3, [r4]
 193:.\Generated_Source\PSoC5/UART_1.c **** 
 104              		.loc 1 193 0
 105 004a 0B78     		ldrb	r3, [r1]	@ zero_extendqisi2
 106 004c 43F01003 		orr	r3, r3, #16
 107 0050 0B70     		strb	r3, [r1]
 108              		.loc 1 211 0
 109 0052 1378     		ldrb	r3, [r2]	@ zero_extendqisi2
 110 0054 43F01003 		orr	r3, r3, #16
 111 0058 1370     		strb	r3, [r2]
 212:.\Generated_Source\PSoC5/UART_1.c ****         #if (UART_1_TX_INTERRUPT_ENABLED)
 213:.\Generated_Source\PSoC5/UART_1.c ****             UART_1_ClearPendingTxInt(); /* Clear history of TX_NOT_EMPTY */
 214:.\Generated_Source\PSoC5/UART_1.c ****             UART_1_EnableTxInt();
 215:.\Generated_Source\PSoC5/UART_1.c ****         #endif /* (UART_1_TX_INTERRUPT_ENABLED) */
 216:.\Generated_Source\PSoC5/UART_1.c ****      #endif /* (UART_1_TX_INTERRUPT_ENABLED) */
 217:.\Generated_Source\PSoC5/UART_1.c **** 
 218:.\Generated_Source\PSoC5/UART_1.c ****     #if (UART_1_INTERNAL_CLOCK_USED)
ARM GAS  C:\Users\Patrick\AppData\Local\Temp\ccMAZXgj.s 			page 7


 219:.\Generated_Source\PSoC5/UART_1.c ****         UART_1_IntClock_Start();  /* Enable the clock */
 112              		.loc 1 219 0
 113 005a FFF7FEFF 		bl	UART_1_IntClock_Start
 114              	.LVL2:
 220:.\Generated_Source\PSoC5/UART_1.c ****     #endif /* (UART_1_INTERNAL_CLOCK_USED) */
 221:.\Generated_Source\PSoC5/UART_1.c **** 
 222:.\Generated_Source\PSoC5/UART_1.c ****     CyExitCriticalSection(enableInterrupts);
 115              		.loc 1 222 0
 116 005e 2846     		mov	r0, r5
 117              	.LBE27:
 118              	.LBE26:
  86:.\Generated_Source\PSoC5/UART_1.c **** 
 119              		.loc 1 86 0
 120 0060 BDE8F843 		pop	{r3, r4, r5, r6, r7, r8, r9, lr}
 121              		.cfi_restore 14
 122              		.cfi_restore 9
 123              		.cfi_restore 8
 124              		.cfi_restore 7
 125              		.cfi_restore 6
 126              		.cfi_restore 5
 127              		.cfi_restore 4
 128              		.cfi_restore 3
 129              		.cfi_def_cfa_offset 0
 130              	.LVL3:
 131              	.LBB29:
 132              	.LBB28:
 133              		.loc 1 222 0
 134 0064 FFF7FEBF 		b	CyExitCriticalSection
 135              	.LVL4:
 136              	.L6:
 137              		.align	2
 138              	.L5:
 139 0068 00000000 		.word	.LANCHOR0
 140 006c 2A650040 		.word	1073767722
 141 0070 3A650040 		.word	1073767738
 142 0074 88640040 		.word	1073767560
 143 0078 9A650040 		.word	1073767834
 144 007c 99650040 		.word	1073767833
 145 0080 98640040 		.word	1073767576
 146 0084 8A650040 		.word	1073767818
 147 0088 89650040 		.word	1073767817
 148              	.LBE28:
 149              	.LBE29:
 150              		.cfi_endproc
 151              	.LFE0:
 152              		.size	UART_1_Start, .-UART_1_Start
 153              		.section	.text.UART_1_Init,"ax",%progbits
 154              		.align	2
 155              		.global	UART_1_Init
 156              		.thumb
 157              		.thumb_func
 158              		.type	UART_1_Init, %function
 159              	UART_1_Init:
 160              	.LFB1:
 107:.\Generated_Source\PSoC5/UART_1.c ****     #if(UART_1_RX_ENABLED || UART_1_HD_ENABLED)
 161              		.loc 1 107 0
 162              		.cfi_startproc
ARM GAS  C:\Users\Patrick\AppData\Local\Temp\ccMAZXgj.s 			page 8


 163              		@ args = 0, pretend = 0, frame = 0
 164              		@ frame_needed = 0, uses_anonymous_args = 0
 165 0000 F0B5     		push	{r4, r5, r6, r7, lr}
 166              		.cfi_def_cfa_offset 20
 167              		.cfi_offset 4, -20
 168              		.cfi_offset 5, -16
 169              		.cfi_offset 6, -12
 170              		.cfi_offset 7, -8
 171              		.cfi_offset 14, -4
 139:.\Generated_Source\PSoC5/UART_1.c ****                         UART_1_NUMBER_OF_START_BIT) * UART_1_OVER_SAMPLE_COUNT) - 1u;
 172              		.loc 1 139 0
 173 0002 0949     		ldr	r1, .L9
 124:.\Generated_Source\PSoC5/UART_1.c ****         /* Configure the Initial RX interrupt mask */
 174              		.loc 1 124 0
 175 0004 DFF830E0 		ldr	lr, .L9+16
 126:.\Generated_Source\PSoC5/UART_1.c ****     #endif /* End UART_1_RX_ENABLED || UART_1_HD_ENABLED*/
 176              		.loc 1 126 0
 177 0008 084E     		ldr	r6, .L9+4
 138:.\Generated_Source\PSoC5/UART_1.c ****             UART_1_TXBITCLKTX_COMPLETE_REG = ((UART_1_NUMBER_OF_DATA_BITS +
 178              		.loc 1 138 0
 179 000a 094C     		ldr	r4, .L9+8
 150:.\Generated_Source\PSoC5/UART_1.c ****         #endif /*End UART_1_TX_INTERRUPT_ENABLED*/
 180              		.loc 1 150 0
 181 000c 094B     		ldr	r3, .L9+12
 124:.\Generated_Source\PSoC5/UART_1.c ****         /* Configure the Initial RX interrupt mask */
 182              		.loc 1 124 0
 183 000e 4FF0720C 		mov	ip, #114
 126:.\Generated_Source\PSoC5/UART_1.c ****     #endif /* End UART_1_RX_ENABLED || UART_1_HD_ENABLED*/
 184              		.loc 1 126 0
 185 0012 2027     		movs	r7, #32
 138:.\Generated_Source\PSoC5/UART_1.c ****             UART_1_TXBITCLKTX_COMPLETE_REG = ((UART_1_NUMBER_OF_DATA_BITS +
 186              		.loc 1 138 0
 187 0014 0625     		movs	r5, #6
 139:.\Generated_Source\PSoC5/UART_1.c ****                         UART_1_NUMBER_OF_START_BIT) * UART_1_OVER_SAMPLE_COUNT) - 1u;
 188              		.loc 1 139 0
 189 0016 4720     		movs	r0, #71
 150:.\Generated_Source\PSoC5/UART_1.c ****         #endif /*End UART_1_TX_INTERRUPT_ENABLED*/
 190              		.loc 1 150 0
 191 0018 0022     		movs	r2, #0
 124:.\Generated_Source\PSoC5/UART_1.c ****         /* Configure the Initial RX interrupt mask */
 192              		.loc 1 124 0
 193 001a 8EF800C0 		strb	ip, [lr]
 126:.\Generated_Source\PSoC5/UART_1.c ****     #endif /* End UART_1_RX_ENABLED || UART_1_HD_ENABLED*/
 194              		.loc 1 126 0
 195 001e 3770     		strb	r7, [r6]
 138:.\Generated_Source\PSoC5/UART_1.c ****             UART_1_TXBITCLKTX_COMPLETE_REG = ((UART_1_NUMBER_OF_DATA_BITS +
 196              		.loc 1 138 0
 197 0020 2570     		strb	r5, [r4]
 139:.\Generated_Source\PSoC5/UART_1.c ****                         UART_1_NUMBER_OF_START_BIT) * UART_1_OVER_SAMPLE_COUNT) - 1u;
 198              		.loc 1 139 0
 199 0022 0870     		strb	r0, [r1]
 150:.\Generated_Source\PSoC5/UART_1.c ****         #endif /*End UART_1_TX_INTERRUPT_ENABLED*/
 200              		.loc 1 150 0
 201 0024 1A70     		strb	r2, [r3]
 202 0026 F0BD     		pop	{r4, r5, r6, r7, pc}
 203              	.L10:
 204              		.align	2
ARM GAS  C:\Users\Patrick\AppData\Local\Temp\ccMAZXgj.s 			page 9


 205              	.L9:
 206 0028 3A650040 		.word	1073767738
 207 002c 89650040 		.word	1073767817
 208 0030 2A650040 		.word	1073767722
 209 0034 88640040 		.word	1073767560
 210 0038 8A650040 		.word	1073767818
 211              		.cfi_endproc
 212              	.LFE1:
 213              		.size	UART_1_Init, .-UART_1_Init
 214              		.section	.text.UART_1_Enable,"ax",%progbits
 215              		.align	2
 216              		.global	UART_1_Enable
 217              		.thumb
 218              		.thumb_func
 219              		.type	UART_1_Enable, %function
 220              	UART_1_Enable:
 221              	.LFB2:
 184:.\Generated_Source\PSoC5/UART_1.c ****     uint8 enableInterrupts;
 222              		.loc 1 184 0
 223              		.cfi_startproc
 224              		@ args = 0, pretend = 0, frame = 0
 225              		@ frame_needed = 0, uses_anonymous_args = 0
 226 0000 38B5     		push	{r3, r4, r5, lr}
 227              		.cfi_def_cfa_offset 16
 228              		.cfi_offset 3, -16
 229              		.cfi_offset 4, -12
 230              		.cfi_offset 5, -8
 231              		.cfi_offset 14, -4
 186:.\Generated_Source\PSoC5/UART_1.c **** 
 232              		.loc 1 186 0
 233 0002 FFF7FEFF 		bl	CyEnterCriticalSection
 234              	.LVL5:
 235 0006 0546     		mov	r5, r0
 236              	.LVL6:
 190:.\Generated_Source\PSoC5/UART_1.c **** 
 237              		.loc 1 190 0
 238 0008 0A4C     		ldr	r4, .L13
 193:.\Generated_Source\PSoC5/UART_1.c **** 
 239              		.loc 1 193 0
 240 000a 0B49     		ldr	r1, .L13+4
 190:.\Generated_Source\PSoC5/UART_1.c **** 
 241              		.loc 1 190 0
 242 000c 2378     		ldrb	r3, [r4]	@ zero_extendqisi2
 211:.\Generated_Source\PSoC5/UART_1.c ****         #if (UART_1_TX_INTERRUPT_ENABLED)
 243              		.loc 1 211 0
 244 000e 0B4A     		ldr	r2, .L13+8
 190:.\Generated_Source\PSoC5/UART_1.c **** 
 245              		.loc 1 190 0
 246 0010 43F02003 		orr	r3, r3, #32
 247 0014 2370     		strb	r3, [r4]
 193:.\Generated_Source\PSoC5/UART_1.c **** 
 248              		.loc 1 193 0
 249 0016 0B78     		ldrb	r3, [r1]	@ zero_extendqisi2
 250 0018 43F01003 		orr	r3, r3, #16
 251 001c 0B70     		strb	r3, [r1]
 211:.\Generated_Source\PSoC5/UART_1.c ****         #if (UART_1_TX_INTERRUPT_ENABLED)
 252              		.loc 1 211 0
ARM GAS  C:\Users\Patrick\AppData\Local\Temp\ccMAZXgj.s 			page 10


 253 001e 1378     		ldrb	r3, [r2]	@ zero_extendqisi2
 254 0020 43F01003 		orr	r3, r3, #16
 255 0024 1370     		strb	r3, [r2]
 219:.\Generated_Source\PSoC5/UART_1.c ****     #endif /* (UART_1_INTERNAL_CLOCK_USED) */
 256              		.loc 1 219 0
 257 0026 FFF7FEFF 		bl	UART_1_IntClock_Start
 258              	.LVL7:
 259              		.loc 1 222 0
 260 002a 2846     		mov	r0, r5
 223:.\Generated_Source\PSoC5/UART_1.c **** }
 261              		.loc 1 223 0
 262 002c BDE83840 		pop	{r3, r4, r5, lr}
 263              		.cfi_restore 14
 264              		.cfi_restore 5
 265              		.cfi_restore 4
 266              		.cfi_restore 3
 267              		.cfi_def_cfa_offset 0
 268              	.LVL8:
 222:.\Generated_Source\PSoC5/UART_1.c **** }
 269              		.loc 1 222 0
 270 0030 FFF7FEBF 		b	CyExitCriticalSection
 271              	.LVL9:
 272              	.L14:
 273              		.align	2
 274              	.L13:
 275 0034 9A650040 		.word	1073767834
 276 0038 99650040 		.word	1073767833
 277 003c 98640040 		.word	1073767576
 278              		.cfi_endproc
 279              	.LFE2:
 280              		.size	UART_1_Enable, .-UART_1_Enable
 281              		.section	.text.UART_1_Stop,"ax",%progbits
 282              		.align	2
 283              		.global	UART_1_Stop
 284              		.thumb
 285              		.thumb_func
 286              		.type	UART_1_Stop, %function
 287              	UART_1_Stop:
 288              	.LFB3:
 224:.\Generated_Source\PSoC5/UART_1.c **** 
 225:.\Generated_Source\PSoC5/UART_1.c **** 
 226:.\Generated_Source\PSoC5/UART_1.c **** /*******************************************************************************
 227:.\Generated_Source\PSoC5/UART_1.c **** * Function Name: UART_1_Stop
 228:.\Generated_Source\PSoC5/UART_1.c **** ********************************************************************************
 229:.\Generated_Source\PSoC5/UART_1.c **** *
 230:.\Generated_Source\PSoC5/UART_1.c **** * Summary:
 231:.\Generated_Source\PSoC5/UART_1.c **** *  Disables the UART operation.
 232:.\Generated_Source\PSoC5/UART_1.c **** *
 233:.\Generated_Source\PSoC5/UART_1.c **** * Parameters:
 234:.\Generated_Source\PSoC5/UART_1.c **** *  None.
 235:.\Generated_Source\PSoC5/UART_1.c **** *
 236:.\Generated_Source\PSoC5/UART_1.c **** * Return:
 237:.\Generated_Source\PSoC5/UART_1.c **** *  None.
 238:.\Generated_Source\PSoC5/UART_1.c **** *
 239:.\Generated_Source\PSoC5/UART_1.c **** *******************************************************************************/
 240:.\Generated_Source\PSoC5/UART_1.c **** void UART_1_Stop(void) 
 241:.\Generated_Source\PSoC5/UART_1.c **** {
ARM GAS  C:\Users\Patrick\AppData\Local\Temp\ccMAZXgj.s 			page 11


 289              		.loc 1 241 0
 290              		.cfi_startproc
 291              		@ args = 0, pretend = 0, frame = 0
 292              		@ frame_needed = 0, uses_anonymous_args = 0
 293 0000 10B5     		push	{r4, lr}
 294              		.cfi_def_cfa_offset 8
 295              		.cfi_offset 4, -8
 296              		.cfi_offset 14, -4
 242:.\Generated_Source\PSoC5/UART_1.c ****     uint8 enableInterrupts;
 243:.\Generated_Source\PSoC5/UART_1.c ****     enableInterrupts = CyEnterCriticalSection();
 297              		.loc 1 243 0
 298 0002 FFF7FEFF 		bl	CyEnterCriticalSection
 299              	.LVL10:
 300 0006 0446     		mov	r4, r0
 301              	.LVL11:
 244:.\Generated_Source\PSoC5/UART_1.c **** 
 245:.\Generated_Source\PSoC5/UART_1.c ****     /* Write Bit Counter Disable */
 246:.\Generated_Source\PSoC5/UART_1.c ****     #if (UART_1_RX_ENABLED || UART_1_HD_ENABLED)
 247:.\Generated_Source\PSoC5/UART_1.c ****         UART_1_RXBITCTR_CONTROL_REG &= (uint8) ~UART_1_CNTR_ENABLE;
 302              		.loc 1 247 0
 303 0008 0A4A     		ldr	r2, .L17
 304 000a 1378     		ldrb	r3, [r2]	@ zero_extendqisi2
 305 000c 03F0DF03 		and	r3, r3, #223
 306 0010 1370     		strb	r3, [r2]
 248:.\Generated_Source\PSoC5/UART_1.c ****     #endif /* (UART_1_RX_ENABLED || UART_1_HD_ENABLED) */
 249:.\Generated_Source\PSoC5/UART_1.c **** 
 250:.\Generated_Source\PSoC5/UART_1.c ****     #if (UART_1_TX_ENABLED)
 251:.\Generated_Source\PSoC5/UART_1.c ****         #if(!UART_1_TXCLKGEN_DP)
 252:.\Generated_Source\PSoC5/UART_1.c ****             UART_1_TXBITCTR_CONTROL_REG &= (uint8) ~UART_1_CNTR_ENABLE;
 253:.\Generated_Source\PSoC5/UART_1.c ****         #endif /* (!UART_1_TXCLKGEN_DP) */
 254:.\Generated_Source\PSoC5/UART_1.c ****     #endif /* (UART_1_TX_ENABLED) */
 255:.\Generated_Source\PSoC5/UART_1.c **** 
 256:.\Generated_Source\PSoC5/UART_1.c ****     #if (UART_1_INTERNAL_CLOCK_USED)
 257:.\Generated_Source\PSoC5/UART_1.c ****         UART_1_IntClock_Stop();   /* Disable the clock */
 307              		.loc 1 257 0
 308 0012 FFF7FEFF 		bl	UART_1_IntClock_Stop
 309              	.LVL12:
 258:.\Generated_Source\PSoC5/UART_1.c ****     #endif /* (UART_1_INTERNAL_CLOCK_USED) */
 259:.\Generated_Source\PSoC5/UART_1.c **** 
 260:.\Generated_Source\PSoC5/UART_1.c ****     /* Disable internal interrupt component */
 261:.\Generated_Source\PSoC5/UART_1.c ****     #if (UART_1_RX_ENABLED || UART_1_HD_ENABLED)
 262:.\Generated_Source\PSoC5/UART_1.c ****         UART_1_RXSTATUS_ACTL_REG  &= (uint8) ~UART_1_INT_ENABLE;
 310              		.loc 1 262 0
 311 0016 0849     		ldr	r1, .L17+4
 263:.\Generated_Source\PSoC5/UART_1.c **** 
 264:.\Generated_Source\PSoC5/UART_1.c ****         #if (UART_1_RX_INTERRUPT_ENABLED)
 265:.\Generated_Source\PSoC5/UART_1.c ****             UART_1_DisableRxInt();
 266:.\Generated_Source\PSoC5/UART_1.c ****         #endif /* (UART_1_RX_INTERRUPT_ENABLED) */
 267:.\Generated_Source\PSoC5/UART_1.c ****     #endif /* (UART_1_RX_ENABLED || UART_1_HD_ENABLED) */
 268:.\Generated_Source\PSoC5/UART_1.c **** 
 269:.\Generated_Source\PSoC5/UART_1.c ****     #if (UART_1_TX_ENABLED)
 270:.\Generated_Source\PSoC5/UART_1.c ****         UART_1_TXSTATUS_ACTL_REG &= (uint8) ~UART_1_INT_ENABLE;
 312              		.loc 1 270 0
 313 0018 084A     		ldr	r2, .L17+8
 262:.\Generated_Source\PSoC5/UART_1.c **** 
 314              		.loc 1 262 0
 315 001a 0B78     		ldrb	r3, [r1]	@ zero_extendqisi2
ARM GAS  C:\Users\Patrick\AppData\Local\Temp\ccMAZXgj.s 			page 12


 271:.\Generated_Source\PSoC5/UART_1.c **** 
 272:.\Generated_Source\PSoC5/UART_1.c ****         #if (UART_1_TX_INTERRUPT_ENABLED)
 273:.\Generated_Source\PSoC5/UART_1.c ****             UART_1_DisableTxInt();
 274:.\Generated_Source\PSoC5/UART_1.c ****         #endif /* (UART_1_TX_INTERRUPT_ENABLED) */
 275:.\Generated_Source\PSoC5/UART_1.c ****     #endif /* (UART_1_TX_ENABLED) */
 276:.\Generated_Source\PSoC5/UART_1.c **** 
 277:.\Generated_Source\PSoC5/UART_1.c ****     CyExitCriticalSection(enableInterrupts);
 316              		.loc 1 277 0
 317 001c 2046     		mov	r0, r4
 262:.\Generated_Source\PSoC5/UART_1.c **** 
 318              		.loc 1 262 0
 319 001e 03F0EF03 		and	r3, r3, #239
 320 0022 0B70     		strb	r3, [r1]
 270:.\Generated_Source\PSoC5/UART_1.c **** 
 321              		.loc 1 270 0
 322 0024 1378     		ldrb	r3, [r2]	@ zero_extendqisi2
 323 0026 03F0EF03 		and	r3, r3, #239
 324 002a 1370     		strb	r3, [r2]
 278:.\Generated_Source\PSoC5/UART_1.c **** }
 325              		.loc 1 278 0
 326 002c BDE81040 		pop	{r4, lr}
 327              		.cfi_restore 14
 328              		.cfi_restore 4
 329              		.cfi_def_cfa_offset 0
 330              	.LVL13:
 277:.\Generated_Source\PSoC5/UART_1.c **** }
 331              		.loc 1 277 0
 332 0030 FFF7FEBF 		b	CyExitCriticalSection
 333              	.LVL14:
 334              	.L18:
 335              		.align	2
 336              	.L17:
 337 0034 9A650040 		.word	1073767834
 338 0038 99650040 		.word	1073767833
 339 003c 98640040 		.word	1073767576
 340              		.cfi_endproc
 341              	.LFE3:
 342              		.size	UART_1_Stop, .-UART_1_Stop
 343              		.section	.text.UART_1_ReadControlRegister,"ax",%progbits
 344              		.align	2
 345              		.global	UART_1_ReadControlRegister
 346              		.thumb
 347              		.thumb_func
 348              		.type	UART_1_ReadControlRegister, %function
 349              	UART_1_ReadControlRegister:
 350              	.LFB4:
 279:.\Generated_Source\PSoC5/UART_1.c **** 
 280:.\Generated_Source\PSoC5/UART_1.c **** 
 281:.\Generated_Source\PSoC5/UART_1.c **** /*******************************************************************************
 282:.\Generated_Source\PSoC5/UART_1.c **** * Function Name: UART_1_ReadControlRegister
 283:.\Generated_Source\PSoC5/UART_1.c **** ********************************************************************************
 284:.\Generated_Source\PSoC5/UART_1.c **** *
 285:.\Generated_Source\PSoC5/UART_1.c **** * Summary:
 286:.\Generated_Source\PSoC5/UART_1.c **** *  Returns the current value of the control register.
 287:.\Generated_Source\PSoC5/UART_1.c **** *
 288:.\Generated_Source\PSoC5/UART_1.c **** * Parameters:
 289:.\Generated_Source\PSoC5/UART_1.c **** *  None.
ARM GAS  C:\Users\Patrick\AppData\Local\Temp\ccMAZXgj.s 			page 13


 290:.\Generated_Source\PSoC5/UART_1.c **** *
 291:.\Generated_Source\PSoC5/UART_1.c **** * Return:
 292:.\Generated_Source\PSoC5/UART_1.c **** *  Contents of the control register.
 293:.\Generated_Source\PSoC5/UART_1.c **** *
 294:.\Generated_Source\PSoC5/UART_1.c **** *******************************************************************************/
 295:.\Generated_Source\PSoC5/UART_1.c **** uint8 UART_1_ReadControlRegister(void) 
 296:.\Generated_Source\PSoC5/UART_1.c **** {
 351              		.loc 1 296 0
 352              		.cfi_startproc
 353              		@ args = 0, pretend = 0, frame = 0
 354              		@ frame_needed = 0, uses_anonymous_args = 0
 355              		@ link register save eliminated.
 297:.\Generated_Source\PSoC5/UART_1.c ****     #if (UART_1_CONTROL_REG_REMOVED)
 298:.\Generated_Source\PSoC5/UART_1.c ****         return(0u);
 299:.\Generated_Source\PSoC5/UART_1.c ****     #else
 300:.\Generated_Source\PSoC5/UART_1.c ****         return(UART_1_CONTROL_REG);
 301:.\Generated_Source\PSoC5/UART_1.c ****     #endif /* (UART_1_CONTROL_REG_REMOVED) */
 302:.\Generated_Source\PSoC5/UART_1.c **** }
 356              		.loc 1 302 0
 357 0000 0020     		movs	r0, #0
 358 0002 7047     		bx	lr
 359              		.cfi_endproc
 360              	.LFE4:
 361              		.size	UART_1_ReadControlRegister, .-UART_1_ReadControlRegister
 362              		.section	.text.UART_1_WriteControlRegister,"ax",%progbits
 363              		.align	2
 364              		.global	UART_1_WriteControlRegister
 365              		.thumb
 366              		.thumb_func
 367              		.type	UART_1_WriteControlRegister, %function
 368              	UART_1_WriteControlRegister:
 369              	.LFB5:
 303:.\Generated_Source\PSoC5/UART_1.c **** 
 304:.\Generated_Source\PSoC5/UART_1.c **** 
 305:.\Generated_Source\PSoC5/UART_1.c **** /*******************************************************************************
 306:.\Generated_Source\PSoC5/UART_1.c **** * Function Name: UART_1_WriteControlRegister
 307:.\Generated_Source\PSoC5/UART_1.c **** ********************************************************************************
 308:.\Generated_Source\PSoC5/UART_1.c **** *
 309:.\Generated_Source\PSoC5/UART_1.c **** * Summary:
 310:.\Generated_Source\PSoC5/UART_1.c **** *  Writes an 8-bit value into the control register
 311:.\Generated_Source\PSoC5/UART_1.c **** *
 312:.\Generated_Source\PSoC5/UART_1.c **** * Parameters:
 313:.\Generated_Source\PSoC5/UART_1.c **** *  control:  control register value
 314:.\Generated_Source\PSoC5/UART_1.c **** *
 315:.\Generated_Source\PSoC5/UART_1.c **** * Return:
 316:.\Generated_Source\PSoC5/UART_1.c **** *  None.
 317:.\Generated_Source\PSoC5/UART_1.c **** *
 318:.\Generated_Source\PSoC5/UART_1.c **** *******************************************************************************/
 319:.\Generated_Source\PSoC5/UART_1.c **** void  UART_1_WriteControlRegister(uint8 control) 
 320:.\Generated_Source\PSoC5/UART_1.c **** {
 370              		.loc 1 320 0
 371              		.cfi_startproc
 372              		@ args = 0, pretend = 0, frame = 0
 373              		@ frame_needed = 0, uses_anonymous_args = 0
 374              		@ link register save eliminated.
 375              	.LVL15:
 376 0000 7047     		bx	lr
ARM GAS  C:\Users\Patrick\AppData\Local\Temp\ccMAZXgj.s 			page 14


 377              		.cfi_endproc
 378              	.LFE5:
 379              		.size	UART_1_WriteControlRegister, .-UART_1_WriteControlRegister
 380 0002 00BF     		.section	.text.UART_1_SetRxInterruptMode,"ax",%progbits
 381              		.align	2
 382              		.global	UART_1_SetRxInterruptMode
 383              		.thumb
 384              		.thumb_func
 385              		.type	UART_1_SetRxInterruptMode, %function
 386              	UART_1_SetRxInterruptMode:
 387              	.LFB6:
 321:.\Generated_Source\PSoC5/UART_1.c ****     #if (UART_1_CONTROL_REG_REMOVED)
 322:.\Generated_Source\PSoC5/UART_1.c ****         if(0u != control)
 323:.\Generated_Source\PSoC5/UART_1.c ****         {
 324:.\Generated_Source\PSoC5/UART_1.c ****             /* Suppress compiler warning */
 325:.\Generated_Source\PSoC5/UART_1.c ****         }
 326:.\Generated_Source\PSoC5/UART_1.c ****     #else
 327:.\Generated_Source\PSoC5/UART_1.c ****        UART_1_CONTROL_REG = control;
 328:.\Generated_Source\PSoC5/UART_1.c ****     #endif /* (UART_1_CONTROL_REG_REMOVED) */
 329:.\Generated_Source\PSoC5/UART_1.c **** }
 330:.\Generated_Source\PSoC5/UART_1.c **** 
 331:.\Generated_Source\PSoC5/UART_1.c **** 
 332:.\Generated_Source\PSoC5/UART_1.c **** #if(UART_1_RX_ENABLED || UART_1_HD_ENABLED)
 333:.\Generated_Source\PSoC5/UART_1.c ****     /*******************************************************************************
 334:.\Generated_Source\PSoC5/UART_1.c ****     * Function Name: UART_1_SetRxInterruptMode
 335:.\Generated_Source\PSoC5/UART_1.c ****     ********************************************************************************
 336:.\Generated_Source\PSoC5/UART_1.c ****     *
 337:.\Generated_Source\PSoC5/UART_1.c ****     * Summary:
 338:.\Generated_Source\PSoC5/UART_1.c ****     *  Configures the RX interrupt sources enabled.
 339:.\Generated_Source\PSoC5/UART_1.c ****     *
 340:.\Generated_Source\PSoC5/UART_1.c ****     * Parameters:
 341:.\Generated_Source\PSoC5/UART_1.c ****     *  IntSrc:  Bit field containing the RX interrupts to enable. Based on the 
 342:.\Generated_Source\PSoC5/UART_1.c ****     *  bit-field arrangement of the status register. This value must be a 
 343:.\Generated_Source\PSoC5/UART_1.c ****     *  combination of status register bit-masks shown below:
 344:.\Generated_Source\PSoC5/UART_1.c ****     *      UART_1_RX_STS_FIFO_NOTEMPTY    Interrupt on byte received.
 345:.\Generated_Source\PSoC5/UART_1.c ****     *      UART_1_RX_STS_PAR_ERROR        Interrupt on parity error.
 346:.\Generated_Source\PSoC5/UART_1.c ****     *      UART_1_RX_STS_STOP_ERROR       Interrupt on stop error.
 347:.\Generated_Source\PSoC5/UART_1.c ****     *      UART_1_RX_STS_BREAK            Interrupt on break.
 348:.\Generated_Source\PSoC5/UART_1.c ****     *      UART_1_RX_STS_OVERRUN          Interrupt on overrun error.
 349:.\Generated_Source\PSoC5/UART_1.c ****     *      UART_1_RX_STS_ADDR_MATCH       Interrupt on address match.
 350:.\Generated_Source\PSoC5/UART_1.c ****     *      UART_1_RX_STS_MRKSPC           Interrupt on address detect.
 351:.\Generated_Source\PSoC5/UART_1.c ****     *
 352:.\Generated_Source\PSoC5/UART_1.c ****     * Return:
 353:.\Generated_Source\PSoC5/UART_1.c ****     *  None.
 354:.\Generated_Source\PSoC5/UART_1.c ****     *
 355:.\Generated_Source\PSoC5/UART_1.c ****     * Theory:
 356:.\Generated_Source\PSoC5/UART_1.c ****     *  Enables the output of specific status bits to the interrupt controller
 357:.\Generated_Source\PSoC5/UART_1.c ****     *
 358:.\Generated_Source\PSoC5/UART_1.c ****     *******************************************************************************/
 359:.\Generated_Source\PSoC5/UART_1.c ****     void UART_1_SetRxInterruptMode(uint8 intSrc) 
 360:.\Generated_Source\PSoC5/UART_1.c ****     {
 388              		.loc 1 360 0
 389              		.cfi_startproc
 390              		@ args = 0, pretend = 0, frame = 0
 391              		@ frame_needed = 0, uses_anonymous_args = 0
 392              		@ link register save eliminated.
 393              	.LVL16:
ARM GAS  C:\Users\Patrick\AppData\Local\Temp\ccMAZXgj.s 			page 15


 361:.\Generated_Source\PSoC5/UART_1.c ****         UART_1_RXSTATUS_MASK_REG  = intSrc;
 394              		.loc 1 361 0
 395 0000 014B     		ldr	r3, .L22
 396 0002 1870     		strb	r0, [r3]
 397 0004 7047     		bx	lr
 398              	.L23:
 399 0006 00BF     		.align	2
 400              	.L22:
 401 0008 89650040 		.word	1073767817
 402              		.cfi_endproc
 403              	.LFE6:
 404              		.size	UART_1_SetRxInterruptMode, .-UART_1_SetRxInterruptMode
 405              		.section	.text.UART_1_ReadRxData,"ax",%progbits
 406              		.align	2
 407              		.global	UART_1_ReadRxData
 408              		.thumb
 409              		.thumb_func
 410              		.type	UART_1_ReadRxData, %function
 411              	UART_1_ReadRxData:
 412              	.LFB7:
 362:.\Generated_Source\PSoC5/UART_1.c ****     }
 363:.\Generated_Source\PSoC5/UART_1.c **** 
 364:.\Generated_Source\PSoC5/UART_1.c **** 
 365:.\Generated_Source\PSoC5/UART_1.c ****     /*******************************************************************************
 366:.\Generated_Source\PSoC5/UART_1.c ****     * Function Name: UART_1_ReadRxData
 367:.\Generated_Source\PSoC5/UART_1.c ****     ********************************************************************************
 368:.\Generated_Source\PSoC5/UART_1.c ****     *
 369:.\Generated_Source\PSoC5/UART_1.c ****     * Summary:
 370:.\Generated_Source\PSoC5/UART_1.c ****     *  Returns the next byte of received data. This function returns data without
 371:.\Generated_Source\PSoC5/UART_1.c ****     *  checking the status. You must check the status separately.
 372:.\Generated_Source\PSoC5/UART_1.c ****     *
 373:.\Generated_Source\PSoC5/UART_1.c ****     * Parameters:
 374:.\Generated_Source\PSoC5/UART_1.c ****     *  None.
 375:.\Generated_Source\PSoC5/UART_1.c ****     *
 376:.\Generated_Source\PSoC5/UART_1.c ****     * Return:
 377:.\Generated_Source\PSoC5/UART_1.c ****     *  Received data from RX register
 378:.\Generated_Source\PSoC5/UART_1.c ****     *
 379:.\Generated_Source\PSoC5/UART_1.c ****     * Global Variables:
 380:.\Generated_Source\PSoC5/UART_1.c ****     *  UART_1_rxBuffer - RAM buffer pointer for save received data.
 381:.\Generated_Source\PSoC5/UART_1.c ****     *  UART_1_rxBufferWrite - cyclic index for write to rxBuffer,
 382:.\Generated_Source\PSoC5/UART_1.c ****     *     checked to identify new data.
 383:.\Generated_Source\PSoC5/UART_1.c ****     *  UART_1_rxBufferRead - cyclic index for read from rxBuffer,
 384:.\Generated_Source\PSoC5/UART_1.c ****     *     incremented after each byte has been read from buffer.
 385:.\Generated_Source\PSoC5/UART_1.c ****     *  UART_1_rxBufferLoopDetect - cleared if loop condition was detected
 386:.\Generated_Source\PSoC5/UART_1.c ****     *     in RX ISR.
 387:.\Generated_Source\PSoC5/UART_1.c ****     *
 388:.\Generated_Source\PSoC5/UART_1.c ****     * Reentrant:
 389:.\Generated_Source\PSoC5/UART_1.c ****     *  No.
 390:.\Generated_Source\PSoC5/UART_1.c ****     *
 391:.\Generated_Source\PSoC5/UART_1.c ****     *******************************************************************************/
 392:.\Generated_Source\PSoC5/UART_1.c ****     uint8 UART_1_ReadRxData(void) 
 393:.\Generated_Source\PSoC5/UART_1.c ****     {
 413              		.loc 1 393 0
 414              		.cfi_startproc
 415              		@ args = 0, pretend = 0, frame = 0
 416              		@ frame_needed = 0, uses_anonymous_args = 0
 417              		@ link register save eliminated.
ARM GAS  C:\Users\Patrick\AppData\Local\Temp\ccMAZXgj.s 			page 16


 394:.\Generated_Source\PSoC5/UART_1.c ****         uint8 rxData;
 395:.\Generated_Source\PSoC5/UART_1.c **** 
 396:.\Generated_Source\PSoC5/UART_1.c ****     #if (UART_1_RX_INTERRUPT_ENABLED)
 397:.\Generated_Source\PSoC5/UART_1.c **** 
 398:.\Generated_Source\PSoC5/UART_1.c ****         uint8 locRxBufferRead;
 399:.\Generated_Source\PSoC5/UART_1.c ****         uint8 locRxBufferWrite;
 400:.\Generated_Source\PSoC5/UART_1.c **** 
 401:.\Generated_Source\PSoC5/UART_1.c ****         /* Protect variables that could change on interrupt */
 402:.\Generated_Source\PSoC5/UART_1.c ****         UART_1_DisableRxInt();
 403:.\Generated_Source\PSoC5/UART_1.c **** 
 404:.\Generated_Source\PSoC5/UART_1.c ****         locRxBufferRead  = UART_1_rxBufferRead;
 405:.\Generated_Source\PSoC5/UART_1.c ****         locRxBufferWrite = UART_1_rxBufferWrite;
 406:.\Generated_Source\PSoC5/UART_1.c **** 
 407:.\Generated_Source\PSoC5/UART_1.c ****         if( (UART_1_rxBufferLoopDetect != 0u) || (locRxBufferRead != locRxBufferWrite) )
 408:.\Generated_Source\PSoC5/UART_1.c ****         {
 409:.\Generated_Source\PSoC5/UART_1.c ****             rxData = UART_1_rxBuffer[locRxBufferRead];
 410:.\Generated_Source\PSoC5/UART_1.c ****             locRxBufferRead++;
 411:.\Generated_Source\PSoC5/UART_1.c **** 
 412:.\Generated_Source\PSoC5/UART_1.c ****             if(locRxBufferRead >= UART_1_RX_BUFFER_SIZE)
 413:.\Generated_Source\PSoC5/UART_1.c ****             {
 414:.\Generated_Source\PSoC5/UART_1.c ****                 locRxBufferRead = 0u;
 415:.\Generated_Source\PSoC5/UART_1.c ****             }
 416:.\Generated_Source\PSoC5/UART_1.c ****             /* Update the real pointer */
 417:.\Generated_Source\PSoC5/UART_1.c ****             UART_1_rxBufferRead = locRxBufferRead;
 418:.\Generated_Source\PSoC5/UART_1.c **** 
 419:.\Generated_Source\PSoC5/UART_1.c ****             if(UART_1_rxBufferLoopDetect != 0u)
 420:.\Generated_Source\PSoC5/UART_1.c ****             {
 421:.\Generated_Source\PSoC5/UART_1.c ****                 UART_1_rxBufferLoopDetect = 0u;
 422:.\Generated_Source\PSoC5/UART_1.c ****                 #if ((UART_1_RX_INTERRUPT_ENABLED) && (UART_1_FLOW_CONTROL != 0u))
 423:.\Generated_Source\PSoC5/UART_1.c ****                     /* When Hardware Flow Control selected - return RX mask */
 424:.\Generated_Source\PSoC5/UART_1.c ****                     #if( UART_1_HD_ENABLED )
 425:.\Generated_Source\PSoC5/UART_1.c ****                         if((UART_1_CONTROL_REG & UART_1_CTRL_HD_SEND) == 0u)
 426:.\Generated_Source\PSoC5/UART_1.c ****                         {   /* In Half duplex mode return RX mask only in RX
 427:.\Generated_Source\PSoC5/UART_1.c ****                             *  configuration set, otherwise
 428:.\Generated_Source\PSoC5/UART_1.c ****                             *  mask will be returned in LoadRxConfig() API.
 429:.\Generated_Source\PSoC5/UART_1.c ****                             */
 430:.\Generated_Source\PSoC5/UART_1.c ****                             UART_1_RXSTATUS_MASK_REG  |= UART_1_RX_STS_FIFO_NOTEMPTY;
 431:.\Generated_Source\PSoC5/UART_1.c ****                         }
 432:.\Generated_Source\PSoC5/UART_1.c ****                     #else
 433:.\Generated_Source\PSoC5/UART_1.c ****                         UART_1_RXSTATUS_MASK_REG  |= UART_1_RX_STS_FIFO_NOTEMPTY;
 434:.\Generated_Source\PSoC5/UART_1.c ****                     #endif /* end UART_1_HD_ENABLED */
 435:.\Generated_Source\PSoC5/UART_1.c ****                 #endif /* ((UART_1_RX_INTERRUPT_ENABLED) && (UART_1_FLOW_CONTROL != 0u)) */
 436:.\Generated_Source\PSoC5/UART_1.c ****             }
 437:.\Generated_Source\PSoC5/UART_1.c ****         }
 438:.\Generated_Source\PSoC5/UART_1.c ****         else
 439:.\Generated_Source\PSoC5/UART_1.c ****         {   /* Needs to check status for RX_STS_FIFO_NOTEMPTY bit */
 440:.\Generated_Source\PSoC5/UART_1.c ****             rxData = UART_1_RXDATA_REG;
 441:.\Generated_Source\PSoC5/UART_1.c ****         }
 442:.\Generated_Source\PSoC5/UART_1.c **** 
 443:.\Generated_Source\PSoC5/UART_1.c ****         UART_1_EnableRxInt();
 444:.\Generated_Source\PSoC5/UART_1.c **** 
 445:.\Generated_Source\PSoC5/UART_1.c ****     #else
 446:.\Generated_Source\PSoC5/UART_1.c **** 
 447:.\Generated_Source\PSoC5/UART_1.c ****         /* Needs to check status for RX_STS_FIFO_NOTEMPTY bit */
 448:.\Generated_Source\PSoC5/UART_1.c ****         rxData = UART_1_RXDATA_REG;
 418              		.loc 1 448 0
 419 0000 014B     		ldr	r3, .L25
ARM GAS  C:\Users\Patrick\AppData\Local\Temp\ccMAZXgj.s 			page 17


 420 0002 1878     		ldrb	r0, [r3]	@ zero_extendqisi2
 421              	.LVL17:
 449:.\Generated_Source\PSoC5/UART_1.c **** 
 450:.\Generated_Source\PSoC5/UART_1.c ****     #endif /* (UART_1_RX_INTERRUPT_ENABLED) */
 451:.\Generated_Source\PSoC5/UART_1.c **** 
 452:.\Generated_Source\PSoC5/UART_1.c ****         return(rxData);
 453:.\Generated_Source\PSoC5/UART_1.c ****     }
 422              		.loc 1 453 0
 423 0004 7047     		bx	lr
 424              	.L26:
 425 0006 00BF     		.align	2
 426              	.L25:
 427 0008 49650040 		.word	1073767753
 428              		.cfi_endproc
 429              	.LFE7:
 430              		.size	UART_1_ReadRxData, .-UART_1_ReadRxData
 431              		.section	.text.UART_1_ReadRxStatus,"ax",%progbits
 432              		.align	2
 433              		.global	UART_1_ReadRxStatus
 434              		.thumb
 435              		.thumb_func
 436              		.type	UART_1_ReadRxStatus, %function
 437              	UART_1_ReadRxStatus:
 438              	.LFB8:
 454:.\Generated_Source\PSoC5/UART_1.c **** 
 455:.\Generated_Source\PSoC5/UART_1.c **** 
 456:.\Generated_Source\PSoC5/UART_1.c ****     /*******************************************************************************
 457:.\Generated_Source\PSoC5/UART_1.c ****     * Function Name: UART_1_ReadRxStatus
 458:.\Generated_Source\PSoC5/UART_1.c ****     ********************************************************************************
 459:.\Generated_Source\PSoC5/UART_1.c ****     *
 460:.\Generated_Source\PSoC5/UART_1.c ****     * Summary:
 461:.\Generated_Source\PSoC5/UART_1.c ****     *  Returns the current state of the receiver status register and the software
 462:.\Generated_Source\PSoC5/UART_1.c ****     *  buffer overflow status.
 463:.\Generated_Source\PSoC5/UART_1.c ****     *
 464:.\Generated_Source\PSoC5/UART_1.c ****     * Parameters:
 465:.\Generated_Source\PSoC5/UART_1.c ****     *  None.
 466:.\Generated_Source\PSoC5/UART_1.c ****     *
 467:.\Generated_Source\PSoC5/UART_1.c ****     * Return:
 468:.\Generated_Source\PSoC5/UART_1.c ****     *  Current state of the status register.
 469:.\Generated_Source\PSoC5/UART_1.c ****     *
 470:.\Generated_Source\PSoC5/UART_1.c ****     * Side Effect:
 471:.\Generated_Source\PSoC5/UART_1.c ****     *  All status register bits are clear-on-read except
 472:.\Generated_Source\PSoC5/UART_1.c ****     *  UART_1_RX_STS_FIFO_NOTEMPTY.
 473:.\Generated_Source\PSoC5/UART_1.c ****     *  UART_1_RX_STS_FIFO_NOTEMPTY clears immediately after RX data
 474:.\Generated_Source\PSoC5/UART_1.c ****     *  register read.
 475:.\Generated_Source\PSoC5/UART_1.c ****     *
 476:.\Generated_Source\PSoC5/UART_1.c ****     * Global Variables:
 477:.\Generated_Source\PSoC5/UART_1.c ****     *  UART_1_rxBufferOverflow - used to indicate overload condition.
 478:.\Generated_Source\PSoC5/UART_1.c ****     *   It set to one in RX interrupt when there isn't free space in
 479:.\Generated_Source\PSoC5/UART_1.c ****     *   UART_1_rxBufferRead to write new data. This condition returned
 480:.\Generated_Source\PSoC5/UART_1.c ****     *   and cleared to zero by this API as an
 481:.\Generated_Source\PSoC5/UART_1.c ****     *   UART_1_RX_STS_SOFT_BUFF_OVER bit along with RX Status register
 482:.\Generated_Source\PSoC5/UART_1.c ****     *   bits.
 483:.\Generated_Source\PSoC5/UART_1.c ****     *
 484:.\Generated_Source\PSoC5/UART_1.c ****     *******************************************************************************/
 485:.\Generated_Source\PSoC5/UART_1.c ****     uint8 UART_1_ReadRxStatus(void) 
 486:.\Generated_Source\PSoC5/UART_1.c ****     {
ARM GAS  C:\Users\Patrick\AppData\Local\Temp\ccMAZXgj.s 			page 18


 439              		.loc 1 486 0
 440              		.cfi_startproc
 441              		@ args = 0, pretend = 0, frame = 0
 442              		@ frame_needed = 0, uses_anonymous_args = 0
 443              		@ link register save eliminated.
 487:.\Generated_Source\PSoC5/UART_1.c ****         uint8 status;
 488:.\Generated_Source\PSoC5/UART_1.c **** 
 489:.\Generated_Source\PSoC5/UART_1.c ****         status = UART_1_RXSTATUS_REG & UART_1_RX_HW_MASK;
 444              		.loc 1 489 0
 445 0000 024B     		ldr	r3, .L28
 446 0002 1878     		ldrb	r0, [r3]	@ zero_extendqisi2
 447              	.LVL18:
 490:.\Generated_Source\PSoC5/UART_1.c **** 
 491:.\Generated_Source\PSoC5/UART_1.c ****     #if (UART_1_RX_INTERRUPT_ENABLED)
 492:.\Generated_Source\PSoC5/UART_1.c ****         if(UART_1_rxBufferOverflow != 0u)
 493:.\Generated_Source\PSoC5/UART_1.c ****         {
 494:.\Generated_Source\PSoC5/UART_1.c ****             status |= UART_1_RX_STS_SOFT_BUFF_OVER;
 495:.\Generated_Source\PSoC5/UART_1.c ****             UART_1_rxBufferOverflow = 0u;
 496:.\Generated_Source\PSoC5/UART_1.c ****         }
 497:.\Generated_Source\PSoC5/UART_1.c ****     #endif /* (UART_1_RX_INTERRUPT_ENABLED) */
 498:.\Generated_Source\PSoC5/UART_1.c **** 
 499:.\Generated_Source\PSoC5/UART_1.c ****         return(status);
 500:.\Generated_Source\PSoC5/UART_1.c ****     }
 448              		.loc 1 500 0
 449 0004 00F07F00 		and	r0, r0, #127
 450              	.LVL19:
 451 0008 7047     		bx	lr
 452              	.L29:
 453 000a 00BF     		.align	2
 454              	.L28:
 455 000c 69650040 		.word	1073767785
 456              		.cfi_endproc
 457              	.LFE8:
 458              		.size	UART_1_ReadRxStatus, .-UART_1_ReadRxStatus
 459              		.section	.text.UART_1_GetChar,"ax",%progbits
 460              		.align	2
 461              		.global	UART_1_GetChar
 462              		.thumb
 463              		.thumb_func
 464              		.type	UART_1_GetChar, %function
 465              	UART_1_GetChar:
 466              	.LFB9:
 501:.\Generated_Source\PSoC5/UART_1.c **** 
 502:.\Generated_Source\PSoC5/UART_1.c **** 
 503:.\Generated_Source\PSoC5/UART_1.c ****     /*******************************************************************************
 504:.\Generated_Source\PSoC5/UART_1.c ****     * Function Name: UART_1_GetChar
 505:.\Generated_Source\PSoC5/UART_1.c ****     ********************************************************************************
 506:.\Generated_Source\PSoC5/UART_1.c ****     *
 507:.\Generated_Source\PSoC5/UART_1.c ****     * Summary:
 508:.\Generated_Source\PSoC5/UART_1.c ****     *  Returns the last received byte of data. UART_1_GetChar() is
 509:.\Generated_Source\PSoC5/UART_1.c ****     *  designed for ASCII characters and returns a uint8 where 1 to 255 are values
 510:.\Generated_Source\PSoC5/UART_1.c ****     *  for valid characters and 0 indicates an error occurred or no data is present.
 511:.\Generated_Source\PSoC5/UART_1.c ****     *
 512:.\Generated_Source\PSoC5/UART_1.c ****     * Parameters:
 513:.\Generated_Source\PSoC5/UART_1.c ****     *  None.
 514:.\Generated_Source\PSoC5/UART_1.c ****     *
 515:.\Generated_Source\PSoC5/UART_1.c ****     * Return:
ARM GAS  C:\Users\Patrick\AppData\Local\Temp\ccMAZXgj.s 			page 19


 516:.\Generated_Source\PSoC5/UART_1.c ****     *  Character read from UART RX buffer. ASCII characters from 1 to 255 are valid.
 517:.\Generated_Source\PSoC5/UART_1.c ****     *  A returned zero signifies an error condition or no data available.
 518:.\Generated_Source\PSoC5/UART_1.c ****     *
 519:.\Generated_Source\PSoC5/UART_1.c ****     * Global Variables:
 520:.\Generated_Source\PSoC5/UART_1.c ****     *  UART_1_rxBuffer - RAM buffer pointer for save received data.
 521:.\Generated_Source\PSoC5/UART_1.c ****     *  UART_1_rxBufferWrite - cyclic index for write to rxBuffer,
 522:.\Generated_Source\PSoC5/UART_1.c ****     *     checked to identify new data.
 523:.\Generated_Source\PSoC5/UART_1.c ****     *  UART_1_rxBufferRead - cyclic index for read from rxBuffer,
 524:.\Generated_Source\PSoC5/UART_1.c ****     *     incremented after each byte has been read from buffer.
 525:.\Generated_Source\PSoC5/UART_1.c ****     *  UART_1_rxBufferLoopDetect - cleared if loop condition was detected
 526:.\Generated_Source\PSoC5/UART_1.c ****     *     in RX ISR.
 527:.\Generated_Source\PSoC5/UART_1.c ****     *
 528:.\Generated_Source\PSoC5/UART_1.c ****     * Reentrant:
 529:.\Generated_Source\PSoC5/UART_1.c ****     *  No.
 530:.\Generated_Source\PSoC5/UART_1.c ****     *
 531:.\Generated_Source\PSoC5/UART_1.c ****     *******************************************************************************/
 532:.\Generated_Source\PSoC5/UART_1.c ****     uint8 UART_1_GetChar(void) 
 533:.\Generated_Source\PSoC5/UART_1.c ****     {
 467              		.loc 1 533 0
 468              		.cfi_startproc
 469              		@ args = 0, pretend = 0, frame = 0
 470              		@ frame_needed = 0, uses_anonymous_args = 0
 471              		@ link register save eliminated.
 472              	.LVL20:
 534:.\Generated_Source\PSoC5/UART_1.c ****         uint8 rxData = 0u;
 535:.\Generated_Source\PSoC5/UART_1.c ****         uint8 rxStatus;
 536:.\Generated_Source\PSoC5/UART_1.c **** 
 537:.\Generated_Source\PSoC5/UART_1.c ****     #if (UART_1_RX_INTERRUPT_ENABLED)
 538:.\Generated_Source\PSoC5/UART_1.c ****         uint8 locRxBufferRead;
 539:.\Generated_Source\PSoC5/UART_1.c ****         uint8 locRxBufferWrite;
 540:.\Generated_Source\PSoC5/UART_1.c **** 
 541:.\Generated_Source\PSoC5/UART_1.c ****         /* Protect variables that could change on interrupt */
 542:.\Generated_Source\PSoC5/UART_1.c ****         UART_1_DisableRxInt();
 543:.\Generated_Source\PSoC5/UART_1.c **** 
 544:.\Generated_Source\PSoC5/UART_1.c ****         locRxBufferRead  = UART_1_rxBufferRead;
 545:.\Generated_Source\PSoC5/UART_1.c ****         locRxBufferWrite = UART_1_rxBufferWrite;
 546:.\Generated_Source\PSoC5/UART_1.c **** 
 547:.\Generated_Source\PSoC5/UART_1.c ****         if( (UART_1_rxBufferLoopDetect != 0u) || (locRxBufferRead != locRxBufferWrite) )
 548:.\Generated_Source\PSoC5/UART_1.c ****         {
 549:.\Generated_Source\PSoC5/UART_1.c ****             rxData = UART_1_rxBuffer[locRxBufferRead];
 550:.\Generated_Source\PSoC5/UART_1.c ****             locRxBufferRead++;
 551:.\Generated_Source\PSoC5/UART_1.c ****             if(locRxBufferRead >= UART_1_RX_BUFFER_SIZE)
 552:.\Generated_Source\PSoC5/UART_1.c ****             {
 553:.\Generated_Source\PSoC5/UART_1.c ****                 locRxBufferRead = 0u;
 554:.\Generated_Source\PSoC5/UART_1.c ****             }
 555:.\Generated_Source\PSoC5/UART_1.c ****             /* Update the real pointer */
 556:.\Generated_Source\PSoC5/UART_1.c ****             UART_1_rxBufferRead = locRxBufferRead;
 557:.\Generated_Source\PSoC5/UART_1.c **** 
 558:.\Generated_Source\PSoC5/UART_1.c ****             if(UART_1_rxBufferLoopDetect != 0u)
 559:.\Generated_Source\PSoC5/UART_1.c ****             {
 560:.\Generated_Source\PSoC5/UART_1.c ****                 UART_1_rxBufferLoopDetect = 0u;
 561:.\Generated_Source\PSoC5/UART_1.c ****                 #if( (UART_1_RX_INTERRUPT_ENABLED) && (UART_1_FLOW_CONTROL != 0u) )
 562:.\Generated_Source\PSoC5/UART_1.c ****                     /* When Hardware Flow Control selected - return RX mask */
 563:.\Generated_Source\PSoC5/UART_1.c ****                     #if( UART_1_HD_ENABLED )
 564:.\Generated_Source\PSoC5/UART_1.c ****                         if((UART_1_CONTROL_REG & UART_1_CTRL_HD_SEND) == 0u)
 565:.\Generated_Source\PSoC5/UART_1.c ****                         {   /* In Half duplex mode return RX mask only if
 566:.\Generated_Source\PSoC5/UART_1.c ****                             *  RX configuration set, otherwise
ARM GAS  C:\Users\Patrick\AppData\Local\Temp\ccMAZXgj.s 			page 20


 567:.\Generated_Source\PSoC5/UART_1.c ****                             *  mask will be returned in LoadRxConfig() API.
 568:.\Generated_Source\PSoC5/UART_1.c ****                             */
 569:.\Generated_Source\PSoC5/UART_1.c ****                             UART_1_RXSTATUS_MASK_REG |= UART_1_RX_STS_FIFO_NOTEMPTY;
 570:.\Generated_Source\PSoC5/UART_1.c ****                         }
 571:.\Generated_Source\PSoC5/UART_1.c ****                     #else
 572:.\Generated_Source\PSoC5/UART_1.c ****                         UART_1_RXSTATUS_MASK_REG |= UART_1_RX_STS_FIFO_NOTEMPTY;
 573:.\Generated_Source\PSoC5/UART_1.c ****                     #endif /* end UART_1_HD_ENABLED */
 574:.\Generated_Source\PSoC5/UART_1.c ****                 #endif /* UART_1_RX_INTERRUPT_ENABLED and Hardware flow control*/
 575:.\Generated_Source\PSoC5/UART_1.c ****             }
 576:.\Generated_Source\PSoC5/UART_1.c **** 
 577:.\Generated_Source\PSoC5/UART_1.c ****         }
 578:.\Generated_Source\PSoC5/UART_1.c ****         else
 579:.\Generated_Source\PSoC5/UART_1.c ****         {   rxStatus = UART_1_RXSTATUS_REG;
 580:.\Generated_Source\PSoC5/UART_1.c ****             if((rxStatus & UART_1_RX_STS_FIFO_NOTEMPTY) != 0u)
 581:.\Generated_Source\PSoC5/UART_1.c ****             {   /* Read received data from FIFO */
 582:.\Generated_Source\PSoC5/UART_1.c ****                 rxData = UART_1_RXDATA_REG;
 583:.\Generated_Source\PSoC5/UART_1.c ****                 /*Check status on error*/
 584:.\Generated_Source\PSoC5/UART_1.c ****                 if((rxStatus & (UART_1_RX_STS_BREAK | UART_1_RX_STS_PAR_ERROR |
 585:.\Generated_Source\PSoC5/UART_1.c ****                                 UART_1_RX_STS_STOP_ERROR | UART_1_RX_STS_OVERRUN)) != 0u)
 586:.\Generated_Source\PSoC5/UART_1.c ****                 {
 587:.\Generated_Source\PSoC5/UART_1.c ****                     rxData = 0u;
 588:.\Generated_Source\PSoC5/UART_1.c ****                 }
 589:.\Generated_Source\PSoC5/UART_1.c ****             }
 590:.\Generated_Source\PSoC5/UART_1.c ****         }
 591:.\Generated_Source\PSoC5/UART_1.c **** 
 592:.\Generated_Source\PSoC5/UART_1.c ****         UART_1_EnableRxInt();
 593:.\Generated_Source\PSoC5/UART_1.c **** 
 594:.\Generated_Source\PSoC5/UART_1.c ****     #else
 595:.\Generated_Source\PSoC5/UART_1.c **** 
 596:.\Generated_Source\PSoC5/UART_1.c ****         rxStatus =UART_1_RXSTATUS_REG;
 473              		.loc 1 596 0
 474 0000 074B     		ldr	r3, .L35
 475 0002 1B78     		ldrb	r3, [r3]	@ zero_extendqisi2
 476 0004 DBB2     		uxtb	r3, r3
 477              	.LVL21:
 597:.\Generated_Source\PSoC5/UART_1.c ****         if((rxStatus & UART_1_RX_STS_FIFO_NOTEMPTY) != 0u)
 478              		.loc 1 597 0
 479 0006 03F02002 		and	r2, r3, #32
 480 000a 02F0FF00 		and	r0, r2, #255
 481 000e 2AB1     		cbz	r2, .L31
 598:.\Generated_Source\PSoC5/UART_1.c ****         {
 599:.\Generated_Source\PSoC5/UART_1.c ****             /* Read received data from FIFO */
 600:.\Generated_Source\PSoC5/UART_1.c ****             rxData = UART_1_RXDATA_REG;
 482              		.loc 1 600 0
 483 0010 044A     		ldr	r2, .L35+4
 601:.\Generated_Source\PSoC5/UART_1.c **** 
 602:.\Generated_Source\PSoC5/UART_1.c ****             /*Check status on error*/
 603:.\Generated_Source\PSoC5/UART_1.c ****             if((rxStatus & (UART_1_RX_STS_BREAK | UART_1_RX_STS_PAR_ERROR |
 484              		.loc 1 603 0
 485 0012 13F01E0F 		tst	r3, #30
 600:.\Generated_Source\PSoC5/UART_1.c **** 
 486              		.loc 1 600 0
 487 0016 1078     		ldrb	r0, [r2]	@ zero_extendqisi2
 488              	.LVL22:
 604:.\Generated_Source\PSoC5/UART_1.c ****                             UART_1_RX_STS_STOP_ERROR | UART_1_RX_STS_OVERRUN)) != 0u)
 605:.\Generated_Source\PSoC5/UART_1.c ****             {
 606:.\Generated_Source\PSoC5/UART_1.c ****                 rxData = 0u;
ARM GAS  C:\Users\Patrick\AppData\Local\Temp\ccMAZXgj.s 			page 21


 489              		.loc 1 606 0
 490 0018 18BF     		it	ne
 491 001a 0020     		movne	r0, #0
 492              	.LVL23:
 493              	.L31:
 607:.\Generated_Source\PSoC5/UART_1.c ****             }
 608:.\Generated_Source\PSoC5/UART_1.c ****         }
 609:.\Generated_Source\PSoC5/UART_1.c ****     #endif /* (UART_1_RX_INTERRUPT_ENABLED) */
 610:.\Generated_Source\PSoC5/UART_1.c **** 
 611:.\Generated_Source\PSoC5/UART_1.c ****         return(rxData);
 612:.\Generated_Source\PSoC5/UART_1.c ****     }
 494              		.loc 1 612 0
 495 001c 7047     		bx	lr
 496              	.L36:
 497 001e 00BF     		.align	2
 498              	.L35:
 499 0020 69650040 		.word	1073767785
 500 0024 49650040 		.word	1073767753
 501              		.cfi_endproc
 502              	.LFE9:
 503              		.size	UART_1_GetChar, .-UART_1_GetChar
 504              		.section	.text.UART_1_GetByte,"ax",%progbits
 505              		.align	2
 506              		.global	UART_1_GetByte
 507              		.thumb
 508              		.thumb_func
 509              		.type	UART_1_GetByte, %function
 510              	UART_1_GetByte:
 511              	.LFB10:
 613:.\Generated_Source\PSoC5/UART_1.c **** 
 614:.\Generated_Source\PSoC5/UART_1.c **** 
 615:.\Generated_Source\PSoC5/UART_1.c ****     /*******************************************************************************
 616:.\Generated_Source\PSoC5/UART_1.c ****     * Function Name: UART_1_GetByte
 617:.\Generated_Source\PSoC5/UART_1.c ****     ********************************************************************************
 618:.\Generated_Source\PSoC5/UART_1.c ****     *
 619:.\Generated_Source\PSoC5/UART_1.c ****     * Summary:
 620:.\Generated_Source\PSoC5/UART_1.c ****     *  Reads UART RX buffer immediately, returns received character and error
 621:.\Generated_Source\PSoC5/UART_1.c ****     *  condition.
 622:.\Generated_Source\PSoC5/UART_1.c ****     *
 623:.\Generated_Source\PSoC5/UART_1.c ****     * Parameters:
 624:.\Generated_Source\PSoC5/UART_1.c ****     *  None.
 625:.\Generated_Source\PSoC5/UART_1.c ****     *
 626:.\Generated_Source\PSoC5/UART_1.c ****     * Return:
 627:.\Generated_Source\PSoC5/UART_1.c ****     *  MSB contains status and LSB contains UART RX data. If the MSB is nonzero,
 628:.\Generated_Source\PSoC5/UART_1.c ****     *  an error has occurred.
 629:.\Generated_Source\PSoC5/UART_1.c ****     *
 630:.\Generated_Source\PSoC5/UART_1.c ****     * Reentrant:
 631:.\Generated_Source\PSoC5/UART_1.c ****     *  No.
 632:.\Generated_Source\PSoC5/UART_1.c ****     *
 633:.\Generated_Source\PSoC5/UART_1.c ****     *******************************************************************************/
 634:.\Generated_Source\PSoC5/UART_1.c ****     uint16 UART_1_GetByte(void) 
 635:.\Generated_Source\PSoC5/UART_1.c ****     {
 512              		.loc 1 635 0
 513              		.cfi_startproc
 514              		@ args = 0, pretend = 0, frame = 0
 515              		@ frame_needed = 0, uses_anonymous_args = 0
 516              		@ link register save eliminated.
ARM GAS  C:\Users\Patrick\AppData\Local\Temp\ccMAZXgj.s 			page 22


 517              	.LBB30:
 518              	.LBB31:
 489:.\Generated_Source\PSoC5/UART_1.c **** 
 519              		.loc 1 489 0
 520 0000 044B     		ldr	r3, .L38
 521              	.LBE31:
 522              	.LBE30:
 523              	.LBB33:
 524              	.LBB34:
 448:.\Generated_Source\PSoC5/UART_1.c **** 
 525              		.loc 1 448 0
 526 0002 054A     		ldr	r2, .L38+4
 527              	.LBE34:
 528              	.LBE33:
 529              	.LBB36:
 530              	.LBB32:
 489:.\Generated_Source\PSoC5/UART_1.c **** 
 531              		.loc 1 489 0
 532 0004 1B78     		ldrb	r3, [r3]	@ zero_extendqisi2
 533              	.LVL24:
 534              	.LBE32:
 535              	.LBE36:
 536              	.LBB37:
 537              	.LBB35:
 448:.\Generated_Source\PSoC5/UART_1.c **** 
 538              		.loc 1 448 0
 539 0006 1078     		ldrb	r0, [r2]	@ zero_extendqisi2
 540              	.LVL25:
 541              	.LBE35:
 542              	.LBE37:
 636:.\Generated_Source\PSoC5/UART_1.c ****         
 637:.\Generated_Source\PSoC5/UART_1.c ****     #if (UART_1_RX_INTERRUPT_ENABLED)
 638:.\Generated_Source\PSoC5/UART_1.c ****         uint16 locErrorStatus;
 639:.\Generated_Source\PSoC5/UART_1.c ****         /* Protect variables that could change on interrupt */
 640:.\Generated_Source\PSoC5/UART_1.c ****         UART_1_DisableRxInt();
 641:.\Generated_Source\PSoC5/UART_1.c ****         locErrorStatus = (uint16)UART_1_errorStatus;
 642:.\Generated_Source\PSoC5/UART_1.c ****         UART_1_errorStatus = 0u;
 643:.\Generated_Source\PSoC5/UART_1.c ****         UART_1_EnableRxInt();
 644:.\Generated_Source\PSoC5/UART_1.c ****         return ( (uint16)(locErrorStatus << 8u) | UART_1_ReadRxData() );
 645:.\Generated_Source\PSoC5/UART_1.c ****     #else
 646:.\Generated_Source\PSoC5/UART_1.c ****         return ( ((uint16)UART_1_ReadRxStatus() << 8u) | UART_1_ReadRxData() );
 543              		.loc 1 646 0
 544 0008 03F07F03 		and	r3, r3, #127
 545              	.LVL26:
 647:.\Generated_Source\PSoC5/UART_1.c ****     #endif /* UART_1_RX_INTERRUPT_ENABLED */
 648:.\Generated_Source\PSoC5/UART_1.c ****         
 649:.\Generated_Source\PSoC5/UART_1.c ****     }
 546              		.loc 1 649 0
 547 000c 40EA0320 		orr	r0, r0, r3, lsl #8
 548              	.LVL27:
 549 0010 7047     		bx	lr
 550              	.L39:
 551 0012 00BF     		.align	2
 552              	.L38:
 553 0014 69650040 		.word	1073767785
 554 0018 49650040 		.word	1073767753
 555              		.cfi_endproc
ARM GAS  C:\Users\Patrick\AppData\Local\Temp\ccMAZXgj.s 			page 23


 556              	.LFE10:
 557              		.size	UART_1_GetByte, .-UART_1_GetByte
 558              		.section	.text.UART_1_GetRxBufferSize,"ax",%progbits
 559              		.align	2
 560              		.global	UART_1_GetRxBufferSize
 561              		.thumb
 562              		.thumb_func
 563              		.type	UART_1_GetRxBufferSize, %function
 564              	UART_1_GetRxBufferSize:
 565              	.LFB11:
 650:.\Generated_Source\PSoC5/UART_1.c **** 
 651:.\Generated_Source\PSoC5/UART_1.c **** 
 652:.\Generated_Source\PSoC5/UART_1.c ****     /*******************************************************************************
 653:.\Generated_Source\PSoC5/UART_1.c ****     * Function Name: UART_1_GetRxBufferSize
 654:.\Generated_Source\PSoC5/UART_1.c ****     ********************************************************************************
 655:.\Generated_Source\PSoC5/UART_1.c ****     *
 656:.\Generated_Source\PSoC5/UART_1.c ****     * Summary:
 657:.\Generated_Source\PSoC5/UART_1.c ****     *  Returns the number of received bytes available in the RX buffer.
 658:.\Generated_Source\PSoC5/UART_1.c ****     *  * RX software buffer is disabled (RX Buffer Size parameter is equal to 4): 
 659:.\Generated_Source\PSoC5/UART_1.c ****     *    returns 0 for empty RX FIFO or 1 for not empty RX FIFO.
 660:.\Generated_Source\PSoC5/UART_1.c ****     *  * RX software buffer is enabled: returns the number of bytes available in 
 661:.\Generated_Source\PSoC5/UART_1.c ****     *    the RX software buffer. Bytes available in the RX FIFO do not take to 
 662:.\Generated_Source\PSoC5/UART_1.c ****     *    account.
 663:.\Generated_Source\PSoC5/UART_1.c ****     *
 664:.\Generated_Source\PSoC5/UART_1.c ****     * Parameters:
 665:.\Generated_Source\PSoC5/UART_1.c ****     *  None.
 666:.\Generated_Source\PSoC5/UART_1.c ****     *
 667:.\Generated_Source\PSoC5/UART_1.c ****     * Return:
 668:.\Generated_Source\PSoC5/UART_1.c ****     *  uint8: Number of bytes in the RX buffer. 
 669:.\Generated_Source\PSoC5/UART_1.c ****     *    Return value type depends on RX Buffer Size parameter.
 670:.\Generated_Source\PSoC5/UART_1.c ****     *
 671:.\Generated_Source\PSoC5/UART_1.c ****     * Global Variables:
 672:.\Generated_Source\PSoC5/UART_1.c ****     *  UART_1_rxBufferWrite - used to calculate left bytes.
 673:.\Generated_Source\PSoC5/UART_1.c ****     *  UART_1_rxBufferRead - used to calculate left bytes.
 674:.\Generated_Source\PSoC5/UART_1.c ****     *  UART_1_rxBufferLoopDetect - checked to decide left bytes amount.
 675:.\Generated_Source\PSoC5/UART_1.c ****     *
 676:.\Generated_Source\PSoC5/UART_1.c ****     * Reentrant:
 677:.\Generated_Source\PSoC5/UART_1.c ****     *  No.
 678:.\Generated_Source\PSoC5/UART_1.c ****     *
 679:.\Generated_Source\PSoC5/UART_1.c ****     * Theory:
 680:.\Generated_Source\PSoC5/UART_1.c ****     *  Allows the user to find out how full the RX Buffer is.
 681:.\Generated_Source\PSoC5/UART_1.c ****     *
 682:.\Generated_Source\PSoC5/UART_1.c ****     *******************************************************************************/
 683:.\Generated_Source\PSoC5/UART_1.c ****     uint8 UART_1_GetRxBufferSize(void)
 684:.\Generated_Source\PSoC5/UART_1.c ****                                                             
 685:.\Generated_Source\PSoC5/UART_1.c ****     {
 566              		.loc 1 685 0
 567              		.cfi_startproc
 568              		@ args = 0, pretend = 0, frame = 0
 569              		@ frame_needed = 0, uses_anonymous_args = 0
 570              		@ link register save eliminated.
 686:.\Generated_Source\PSoC5/UART_1.c ****         uint8 size;
 687:.\Generated_Source\PSoC5/UART_1.c **** 
 688:.\Generated_Source\PSoC5/UART_1.c ****     #if (UART_1_RX_INTERRUPT_ENABLED)
 689:.\Generated_Source\PSoC5/UART_1.c **** 
 690:.\Generated_Source\PSoC5/UART_1.c ****         /* Protect variables that could change on interrupt */
 691:.\Generated_Source\PSoC5/UART_1.c ****         UART_1_DisableRxInt();
ARM GAS  C:\Users\Patrick\AppData\Local\Temp\ccMAZXgj.s 			page 24


 692:.\Generated_Source\PSoC5/UART_1.c **** 
 693:.\Generated_Source\PSoC5/UART_1.c ****         if(UART_1_rxBufferRead == UART_1_rxBufferWrite)
 694:.\Generated_Source\PSoC5/UART_1.c ****         {
 695:.\Generated_Source\PSoC5/UART_1.c ****             if(UART_1_rxBufferLoopDetect != 0u)
 696:.\Generated_Source\PSoC5/UART_1.c ****             {
 697:.\Generated_Source\PSoC5/UART_1.c ****                 size = UART_1_RX_BUFFER_SIZE;
 698:.\Generated_Source\PSoC5/UART_1.c ****             }
 699:.\Generated_Source\PSoC5/UART_1.c ****             else
 700:.\Generated_Source\PSoC5/UART_1.c ****             {
 701:.\Generated_Source\PSoC5/UART_1.c ****                 size = 0u;
 702:.\Generated_Source\PSoC5/UART_1.c ****             }
 703:.\Generated_Source\PSoC5/UART_1.c ****         }
 704:.\Generated_Source\PSoC5/UART_1.c ****         else if(UART_1_rxBufferRead < UART_1_rxBufferWrite)
 705:.\Generated_Source\PSoC5/UART_1.c ****         {
 706:.\Generated_Source\PSoC5/UART_1.c ****             size = (UART_1_rxBufferWrite - UART_1_rxBufferRead);
 707:.\Generated_Source\PSoC5/UART_1.c ****         }
 708:.\Generated_Source\PSoC5/UART_1.c ****         else
 709:.\Generated_Source\PSoC5/UART_1.c ****         {
 710:.\Generated_Source\PSoC5/UART_1.c ****             size = (UART_1_RX_BUFFER_SIZE - UART_1_rxBufferRead) + UART_1_rxBufferWrite;
 711:.\Generated_Source\PSoC5/UART_1.c ****         }
 712:.\Generated_Source\PSoC5/UART_1.c **** 
 713:.\Generated_Source\PSoC5/UART_1.c ****         UART_1_EnableRxInt();
 714:.\Generated_Source\PSoC5/UART_1.c **** 
 715:.\Generated_Source\PSoC5/UART_1.c ****     #else
 716:.\Generated_Source\PSoC5/UART_1.c **** 
 717:.\Generated_Source\PSoC5/UART_1.c ****         /* We can only know if there is data in the fifo. */
 718:.\Generated_Source\PSoC5/UART_1.c ****         size = ((UART_1_RXSTATUS_REG & UART_1_RX_STS_FIFO_NOTEMPTY) != 0u) ? 1u : 0u;
 571              		.loc 1 718 0
 572 0000 024B     		ldr	r3, .L41
 573 0002 1878     		ldrb	r0, [r3]	@ zero_extendqisi2
 574              	.LVL28:
 719:.\Generated_Source\PSoC5/UART_1.c **** 
 720:.\Generated_Source\PSoC5/UART_1.c ****     #endif /* (UART_1_RX_INTERRUPT_ENABLED) */
 721:.\Generated_Source\PSoC5/UART_1.c **** 
 722:.\Generated_Source\PSoC5/UART_1.c ****         return(size);
 723:.\Generated_Source\PSoC5/UART_1.c ****     }
 575              		.loc 1 723 0
 576 0004 C0F34010 		ubfx	r0, r0, #5, #1
 577              	.LVL29:
 578 0008 7047     		bx	lr
 579              	.L42:
 580 000a 00BF     		.align	2
 581              	.L41:
 582 000c 69650040 		.word	1073767785
 583              		.cfi_endproc
 584              	.LFE11:
 585              		.size	UART_1_GetRxBufferSize, .-UART_1_GetRxBufferSize
 586              		.section	.text.UART_1_ClearRxBuffer,"ax",%progbits
 587              		.align	2
 588              		.global	UART_1_ClearRxBuffer
 589              		.thumb
 590              		.thumb_func
 591              		.type	UART_1_ClearRxBuffer, %function
 592              	UART_1_ClearRxBuffer:
 593              	.LFB12:
 724:.\Generated_Source\PSoC5/UART_1.c **** 
 725:.\Generated_Source\PSoC5/UART_1.c **** 
ARM GAS  C:\Users\Patrick\AppData\Local\Temp\ccMAZXgj.s 			page 25


 726:.\Generated_Source\PSoC5/UART_1.c ****     /*******************************************************************************
 727:.\Generated_Source\PSoC5/UART_1.c ****     * Function Name: UART_1_ClearRxBuffer
 728:.\Generated_Source\PSoC5/UART_1.c ****     ********************************************************************************
 729:.\Generated_Source\PSoC5/UART_1.c ****     *
 730:.\Generated_Source\PSoC5/UART_1.c ****     * Summary:
 731:.\Generated_Source\PSoC5/UART_1.c ****     *  Clears the receiver memory buffer and hardware RX FIFO of all received data.
 732:.\Generated_Source\PSoC5/UART_1.c ****     *
 733:.\Generated_Source\PSoC5/UART_1.c ****     * Parameters:
 734:.\Generated_Source\PSoC5/UART_1.c ****     *  None.
 735:.\Generated_Source\PSoC5/UART_1.c ****     *
 736:.\Generated_Source\PSoC5/UART_1.c ****     * Return:
 737:.\Generated_Source\PSoC5/UART_1.c ****     *  None.
 738:.\Generated_Source\PSoC5/UART_1.c ****     *
 739:.\Generated_Source\PSoC5/UART_1.c ****     * Global Variables:
 740:.\Generated_Source\PSoC5/UART_1.c ****     *  UART_1_rxBufferWrite - cleared to zero.
 741:.\Generated_Source\PSoC5/UART_1.c ****     *  UART_1_rxBufferRead - cleared to zero.
 742:.\Generated_Source\PSoC5/UART_1.c ****     *  UART_1_rxBufferLoopDetect - cleared to zero.
 743:.\Generated_Source\PSoC5/UART_1.c ****     *  UART_1_rxBufferOverflow - cleared to zero.
 744:.\Generated_Source\PSoC5/UART_1.c ****     *
 745:.\Generated_Source\PSoC5/UART_1.c ****     * Reentrant:
 746:.\Generated_Source\PSoC5/UART_1.c ****     *  No.
 747:.\Generated_Source\PSoC5/UART_1.c ****     *
 748:.\Generated_Source\PSoC5/UART_1.c ****     * Theory:
 749:.\Generated_Source\PSoC5/UART_1.c ****     *  Setting the pointers to zero makes the system believe there is no data to
 750:.\Generated_Source\PSoC5/UART_1.c ****     *  read and writing will resume at address 0 overwriting any data that may
 751:.\Generated_Source\PSoC5/UART_1.c ****     *  have remained in the RAM.
 752:.\Generated_Source\PSoC5/UART_1.c ****     *
 753:.\Generated_Source\PSoC5/UART_1.c ****     * Side Effects:
 754:.\Generated_Source\PSoC5/UART_1.c ****     *  Any received data not read from the RAM or FIFO buffer will be lost.
 755:.\Generated_Source\PSoC5/UART_1.c ****     *
 756:.\Generated_Source\PSoC5/UART_1.c ****     *******************************************************************************/
 757:.\Generated_Source\PSoC5/UART_1.c ****     void UART_1_ClearRxBuffer(void) 
 758:.\Generated_Source\PSoC5/UART_1.c ****     {
 594              		.loc 1 758 0
 595              		.cfi_startproc
 596              		@ args = 0, pretend = 0, frame = 0
 597              		@ frame_needed = 0, uses_anonymous_args = 0
 598 0000 08B5     		push	{r3, lr}
 599              		.cfi_def_cfa_offset 8
 600              		.cfi_offset 3, -8
 601              		.cfi_offset 14, -4
 759:.\Generated_Source\PSoC5/UART_1.c ****         uint8 enableInterrupts;
 760:.\Generated_Source\PSoC5/UART_1.c **** 
 761:.\Generated_Source\PSoC5/UART_1.c ****         /* Clear the HW FIFO */
 762:.\Generated_Source\PSoC5/UART_1.c ****         enableInterrupts = CyEnterCriticalSection();
 602              		.loc 1 762 0
 603 0002 FFF7FEFF 		bl	CyEnterCriticalSection
 604              	.LVL30:
 763:.\Generated_Source\PSoC5/UART_1.c ****         UART_1_RXDATA_AUX_CTL_REG |= (uint8)  UART_1_RX_FIFO_CLR;
 605              		.loc 1 763 0
 606 0006 064B     		ldr	r3, .L45
 607 0008 1A78     		ldrb	r2, [r3]	@ zero_extendqisi2
 608 000a 42F00102 		orr	r2, r2, #1
 609 000e 1A70     		strb	r2, [r3]
 764:.\Generated_Source\PSoC5/UART_1.c ****         UART_1_RXDATA_AUX_CTL_REG &= (uint8) ~UART_1_RX_FIFO_CLR;
 610              		.loc 1 764 0
 611 0010 1A78     		ldrb	r2, [r3]	@ zero_extendqisi2
ARM GAS  C:\Users\Patrick\AppData\Local\Temp\ccMAZXgj.s 			page 26


 612 0012 02F0FE02 		and	r2, r2, #254
 613 0016 1A70     		strb	r2, [r3]
 765:.\Generated_Source\PSoC5/UART_1.c ****         CyExitCriticalSection(enableInterrupts);
 766:.\Generated_Source\PSoC5/UART_1.c **** 
 767:.\Generated_Source\PSoC5/UART_1.c ****     #if (UART_1_RX_INTERRUPT_ENABLED)
 768:.\Generated_Source\PSoC5/UART_1.c **** 
 769:.\Generated_Source\PSoC5/UART_1.c ****         /* Protect variables that could change on interrupt. */
 770:.\Generated_Source\PSoC5/UART_1.c ****         UART_1_DisableRxInt();
 771:.\Generated_Source\PSoC5/UART_1.c **** 
 772:.\Generated_Source\PSoC5/UART_1.c ****         UART_1_rxBufferRead = 0u;
 773:.\Generated_Source\PSoC5/UART_1.c ****         UART_1_rxBufferWrite = 0u;
 774:.\Generated_Source\PSoC5/UART_1.c ****         UART_1_rxBufferLoopDetect = 0u;
 775:.\Generated_Source\PSoC5/UART_1.c ****         UART_1_rxBufferOverflow = 0u;
 776:.\Generated_Source\PSoC5/UART_1.c **** 
 777:.\Generated_Source\PSoC5/UART_1.c ****         UART_1_EnableRxInt();
 778:.\Generated_Source\PSoC5/UART_1.c **** 
 779:.\Generated_Source\PSoC5/UART_1.c ****     #endif /* (UART_1_RX_INTERRUPT_ENABLED) */
 780:.\Generated_Source\PSoC5/UART_1.c **** 
 781:.\Generated_Source\PSoC5/UART_1.c ****     }
 614              		.loc 1 781 0
 615 0018 BDE80840 		pop	{r3, lr}
 616              		.cfi_restore 14
 617              		.cfi_restore 3
 618              		.cfi_def_cfa_offset 0
 765:.\Generated_Source\PSoC5/UART_1.c ****         CyExitCriticalSection(enableInterrupts);
 619              		.loc 1 765 0
 620 001c FFF7FEBF 		b	CyExitCriticalSection
 621              	.LVL31:
 622              	.L46:
 623              		.align	2
 624              	.L45:
 625 0020 99650040 		.word	1073767833
 626              		.cfi_endproc
 627              	.LFE12:
 628              		.size	UART_1_ClearRxBuffer, .-UART_1_ClearRxBuffer
 629              		.section	.text.UART_1_SetRxAddressMode,"ax",%progbits
 630              		.align	2
 631              		.global	UART_1_SetRxAddressMode
 632              		.thumb
 633              		.thumb_func
 634              		.type	UART_1_SetRxAddressMode, %function
 635              	UART_1_SetRxAddressMode:
 636              	.LFB13:
 782:.\Generated_Source\PSoC5/UART_1.c **** 
 783:.\Generated_Source\PSoC5/UART_1.c **** 
 784:.\Generated_Source\PSoC5/UART_1.c ****     /*******************************************************************************
 785:.\Generated_Source\PSoC5/UART_1.c ****     * Function Name: UART_1_SetRxAddressMode
 786:.\Generated_Source\PSoC5/UART_1.c ****     ********************************************************************************
 787:.\Generated_Source\PSoC5/UART_1.c ****     *
 788:.\Generated_Source\PSoC5/UART_1.c ****     * Summary:
 789:.\Generated_Source\PSoC5/UART_1.c ****     *  Sets the software controlled Addressing mode used by the RX portion of the
 790:.\Generated_Source\PSoC5/UART_1.c ****     *  UART.
 791:.\Generated_Source\PSoC5/UART_1.c ****     *
 792:.\Generated_Source\PSoC5/UART_1.c ****     * Parameters:
 793:.\Generated_Source\PSoC5/UART_1.c ****     *  addressMode: Enumerated value indicating the mode of RX addressing
 794:.\Generated_Source\PSoC5/UART_1.c ****     *  UART_1__B_UART__AM_SW_BYTE_BYTE -  Software Byte-by-Byte address
 795:.\Generated_Source\PSoC5/UART_1.c ****     *                                               detection
ARM GAS  C:\Users\Patrick\AppData\Local\Temp\ccMAZXgj.s 			page 27


 796:.\Generated_Source\PSoC5/UART_1.c ****     *  UART_1__B_UART__AM_SW_DETECT_TO_BUFFER - Software Detect to Buffer
 797:.\Generated_Source\PSoC5/UART_1.c ****     *                                               address detection
 798:.\Generated_Source\PSoC5/UART_1.c ****     *  UART_1__B_UART__AM_HW_BYTE_BY_BYTE - Hardware Byte-by-Byte address
 799:.\Generated_Source\PSoC5/UART_1.c ****     *                                               detection
 800:.\Generated_Source\PSoC5/UART_1.c ****     *  UART_1__B_UART__AM_HW_DETECT_TO_BUFFER - Hardware Detect to Buffer
 801:.\Generated_Source\PSoC5/UART_1.c ****     *                                               address detection
 802:.\Generated_Source\PSoC5/UART_1.c ****     *  UART_1__B_UART__AM_NONE - No address detection
 803:.\Generated_Source\PSoC5/UART_1.c ****     *
 804:.\Generated_Source\PSoC5/UART_1.c ****     * Return:
 805:.\Generated_Source\PSoC5/UART_1.c ****     *  None.
 806:.\Generated_Source\PSoC5/UART_1.c ****     *
 807:.\Generated_Source\PSoC5/UART_1.c ****     * Global Variables:
 808:.\Generated_Source\PSoC5/UART_1.c ****     *  UART_1_rxAddressMode - the parameter stored in this variable for
 809:.\Generated_Source\PSoC5/UART_1.c ****     *   the farther usage in RX ISR.
 810:.\Generated_Source\PSoC5/UART_1.c ****     *  UART_1_rxAddressDetected - set to initial state (0).
 811:.\Generated_Source\PSoC5/UART_1.c ****     *
 812:.\Generated_Source\PSoC5/UART_1.c ****     *******************************************************************************/
 813:.\Generated_Source\PSoC5/UART_1.c ****     void UART_1_SetRxAddressMode(uint8 addressMode)
 814:.\Generated_Source\PSoC5/UART_1.c ****                                                         
 815:.\Generated_Source\PSoC5/UART_1.c ****     {
 637              		.loc 1 815 0
 638              		.cfi_startproc
 639              		@ args = 0, pretend = 0, frame = 0
 640              		@ frame_needed = 0, uses_anonymous_args = 0
 641              		@ link register save eliminated.
 642              	.LVL32:
 643 0000 7047     		bx	lr
 644              		.cfi_endproc
 645              	.LFE13:
 646              		.size	UART_1_SetRxAddressMode, .-UART_1_SetRxAddressMode
 647 0002 00BF     		.section	.text.UART_1_SetRxAddress1,"ax",%progbits
 648              		.align	2
 649              		.global	UART_1_SetRxAddress1
 650              		.thumb
 651              		.thumb_func
 652              		.type	UART_1_SetRxAddress1, %function
 653              	UART_1_SetRxAddress1:
 654              	.LFB14:
 816:.\Generated_Source\PSoC5/UART_1.c ****         #if(UART_1_RXHW_ADDRESS_ENABLED)
 817:.\Generated_Source\PSoC5/UART_1.c ****             #if(UART_1_CONTROL_REG_REMOVED)
 818:.\Generated_Source\PSoC5/UART_1.c ****                 if(0u != addressMode)
 819:.\Generated_Source\PSoC5/UART_1.c ****                 {
 820:.\Generated_Source\PSoC5/UART_1.c ****                     /* Suppress compiler warning */
 821:.\Generated_Source\PSoC5/UART_1.c ****                 }
 822:.\Generated_Source\PSoC5/UART_1.c ****             #else /* UART_1_CONTROL_REG_REMOVED */
 823:.\Generated_Source\PSoC5/UART_1.c ****                 uint8 tmpCtrl;
 824:.\Generated_Source\PSoC5/UART_1.c ****                 tmpCtrl = UART_1_CONTROL_REG & (uint8)~UART_1_CTRL_RXADDR_MODE_MASK;
 825:.\Generated_Source\PSoC5/UART_1.c ****                 tmpCtrl |= (uint8)(addressMode << UART_1_CTRL_RXADDR_MODE0_SHIFT);
 826:.\Generated_Source\PSoC5/UART_1.c ****                 UART_1_CONTROL_REG = tmpCtrl;
 827:.\Generated_Source\PSoC5/UART_1.c **** 
 828:.\Generated_Source\PSoC5/UART_1.c ****                 #if(UART_1_RX_INTERRUPT_ENABLED && \
 829:.\Generated_Source\PSoC5/UART_1.c ****                    (UART_1_RXBUFFERSIZE > UART_1_FIFO_LENGTH) )
 830:.\Generated_Source\PSoC5/UART_1.c ****                     UART_1_rxAddressMode = addressMode;
 831:.\Generated_Source\PSoC5/UART_1.c ****                     UART_1_rxAddressDetected = 0u;
 832:.\Generated_Source\PSoC5/UART_1.c ****                 #endif /* End UART_1_RXBUFFERSIZE > UART_1_FIFO_LENGTH*/
 833:.\Generated_Source\PSoC5/UART_1.c ****             #endif /* End UART_1_CONTROL_REG_REMOVED */
 834:.\Generated_Source\PSoC5/UART_1.c ****         #else /* UART_1_RXHW_ADDRESS_ENABLED */
ARM GAS  C:\Users\Patrick\AppData\Local\Temp\ccMAZXgj.s 			page 28


 835:.\Generated_Source\PSoC5/UART_1.c ****             if(0u != addressMode)
 836:.\Generated_Source\PSoC5/UART_1.c ****             {
 837:.\Generated_Source\PSoC5/UART_1.c ****                 /* Suppress compiler warning */
 838:.\Generated_Source\PSoC5/UART_1.c ****             }
 839:.\Generated_Source\PSoC5/UART_1.c ****         #endif /* End UART_1_RXHW_ADDRESS_ENABLED */
 840:.\Generated_Source\PSoC5/UART_1.c ****     }
 841:.\Generated_Source\PSoC5/UART_1.c **** 
 842:.\Generated_Source\PSoC5/UART_1.c **** 
 843:.\Generated_Source\PSoC5/UART_1.c ****     /*******************************************************************************
 844:.\Generated_Source\PSoC5/UART_1.c ****     * Function Name: UART_1_SetRxAddress1
 845:.\Generated_Source\PSoC5/UART_1.c ****     ********************************************************************************
 846:.\Generated_Source\PSoC5/UART_1.c ****     *
 847:.\Generated_Source\PSoC5/UART_1.c ****     * Summary:
 848:.\Generated_Source\PSoC5/UART_1.c ****     *  Sets the first of two hardware-detectable receiver addresses.
 849:.\Generated_Source\PSoC5/UART_1.c ****     *
 850:.\Generated_Source\PSoC5/UART_1.c ****     * Parameters:
 851:.\Generated_Source\PSoC5/UART_1.c ****     *  address: Address #1 for hardware address detection.
 852:.\Generated_Source\PSoC5/UART_1.c ****     *
 853:.\Generated_Source\PSoC5/UART_1.c ****     * Return:
 854:.\Generated_Source\PSoC5/UART_1.c ****     *  None.
 855:.\Generated_Source\PSoC5/UART_1.c ****     *
 856:.\Generated_Source\PSoC5/UART_1.c ****     *******************************************************************************/
 857:.\Generated_Source\PSoC5/UART_1.c ****     void UART_1_SetRxAddress1(uint8 address) 
 858:.\Generated_Source\PSoC5/UART_1.c ****     {
 655              		.loc 1 858 0
 656              		.cfi_startproc
 657              		@ args = 0, pretend = 0, frame = 0
 658              		@ frame_needed = 0, uses_anonymous_args = 0
 659              		@ link register save eliminated.
 660              	.LVL33:
 859:.\Generated_Source\PSoC5/UART_1.c ****         UART_1_RXADDRESS1_REG = address;
 661              		.loc 1 859 0
 662 0000 014B     		ldr	r3, .L49
 663 0002 1870     		strb	r0, [r3]
 664 0004 7047     		bx	lr
 665              	.L50:
 666 0006 00BF     		.align	2
 667              	.L49:
 668 0008 29650040 		.word	1073767721
 669              		.cfi_endproc
 670              	.LFE14:
 671              		.size	UART_1_SetRxAddress1, .-UART_1_SetRxAddress1
 672              		.section	.text.UART_1_SetRxAddress2,"ax",%progbits
 673              		.align	2
 674              		.global	UART_1_SetRxAddress2
 675              		.thumb
 676              		.thumb_func
 677              		.type	UART_1_SetRxAddress2, %function
 678              	UART_1_SetRxAddress2:
 679              	.LFB15:
 860:.\Generated_Source\PSoC5/UART_1.c ****     }
 861:.\Generated_Source\PSoC5/UART_1.c **** 
 862:.\Generated_Source\PSoC5/UART_1.c **** 
 863:.\Generated_Source\PSoC5/UART_1.c ****     /*******************************************************************************
 864:.\Generated_Source\PSoC5/UART_1.c ****     * Function Name: UART_1_SetRxAddress2
 865:.\Generated_Source\PSoC5/UART_1.c ****     ********************************************************************************
 866:.\Generated_Source\PSoC5/UART_1.c ****     *
ARM GAS  C:\Users\Patrick\AppData\Local\Temp\ccMAZXgj.s 			page 29


 867:.\Generated_Source\PSoC5/UART_1.c ****     * Summary:
 868:.\Generated_Source\PSoC5/UART_1.c ****     *  Sets the second of two hardware-detectable receiver addresses.
 869:.\Generated_Source\PSoC5/UART_1.c ****     *
 870:.\Generated_Source\PSoC5/UART_1.c ****     * Parameters:
 871:.\Generated_Source\PSoC5/UART_1.c ****     *  address: Address #2 for hardware address detection.
 872:.\Generated_Source\PSoC5/UART_1.c ****     *
 873:.\Generated_Source\PSoC5/UART_1.c ****     * Return:
 874:.\Generated_Source\PSoC5/UART_1.c ****     *  None.
 875:.\Generated_Source\PSoC5/UART_1.c ****     *
 876:.\Generated_Source\PSoC5/UART_1.c ****     *******************************************************************************/
 877:.\Generated_Source\PSoC5/UART_1.c ****     void UART_1_SetRxAddress2(uint8 address) 
 878:.\Generated_Source\PSoC5/UART_1.c ****     {
 680              		.loc 1 878 0
 681              		.cfi_startproc
 682              		@ args = 0, pretend = 0, frame = 0
 683              		@ frame_needed = 0, uses_anonymous_args = 0
 684              		@ link register save eliminated.
 685              	.LVL34:
 879:.\Generated_Source\PSoC5/UART_1.c ****         UART_1_RXADDRESS2_REG = address;
 686              		.loc 1 879 0
 687 0000 014B     		ldr	r3, .L52
 688 0002 1870     		strb	r0, [r3]
 689 0004 7047     		bx	lr
 690              	.L53:
 691 0006 00BF     		.align	2
 692              	.L52:
 693 0008 39650040 		.word	1073767737
 694              		.cfi_endproc
 695              	.LFE15:
 696              		.size	UART_1_SetRxAddress2, .-UART_1_SetRxAddress2
 697              		.section	.text.UART_1_SetTxInterruptMode,"ax",%progbits
 698              		.align	2
 699              		.global	UART_1_SetTxInterruptMode
 700              		.thumb
 701              		.thumb_func
 702              		.type	UART_1_SetTxInterruptMode, %function
 703              	UART_1_SetTxInterruptMode:
 704              	.LFB16:
 880:.\Generated_Source\PSoC5/UART_1.c ****     }
 881:.\Generated_Source\PSoC5/UART_1.c **** 
 882:.\Generated_Source\PSoC5/UART_1.c **** #endif  /* UART_1_RX_ENABLED || UART_1_HD_ENABLED*/
 883:.\Generated_Source\PSoC5/UART_1.c **** 
 884:.\Generated_Source\PSoC5/UART_1.c **** 
 885:.\Generated_Source\PSoC5/UART_1.c **** #if( (UART_1_TX_ENABLED) || (UART_1_HD_ENABLED) )
 886:.\Generated_Source\PSoC5/UART_1.c ****     /*******************************************************************************
 887:.\Generated_Source\PSoC5/UART_1.c ****     * Function Name: UART_1_SetTxInterruptMode
 888:.\Generated_Source\PSoC5/UART_1.c ****     ********************************************************************************
 889:.\Generated_Source\PSoC5/UART_1.c ****     *
 890:.\Generated_Source\PSoC5/UART_1.c ****     * Summary:
 891:.\Generated_Source\PSoC5/UART_1.c ****     *  Configures the TX interrupt sources to be enabled, but does not enable the
 892:.\Generated_Source\PSoC5/UART_1.c ****     *  interrupt.
 893:.\Generated_Source\PSoC5/UART_1.c ****     *
 894:.\Generated_Source\PSoC5/UART_1.c ****     * Parameters:
 895:.\Generated_Source\PSoC5/UART_1.c ****     *  intSrc: Bit field containing the TX interrupt sources to enable
 896:.\Generated_Source\PSoC5/UART_1.c ****     *   UART_1_TX_STS_COMPLETE        Interrupt on TX byte complete
 897:.\Generated_Source\PSoC5/UART_1.c ****     *   UART_1_TX_STS_FIFO_EMPTY      Interrupt when TX FIFO is empty
 898:.\Generated_Source\PSoC5/UART_1.c ****     *   UART_1_TX_STS_FIFO_FULL       Interrupt when TX FIFO is full
ARM GAS  C:\Users\Patrick\AppData\Local\Temp\ccMAZXgj.s 			page 30


 899:.\Generated_Source\PSoC5/UART_1.c ****     *   UART_1_TX_STS_FIFO_NOT_FULL   Interrupt when TX FIFO is not full
 900:.\Generated_Source\PSoC5/UART_1.c ****     *
 901:.\Generated_Source\PSoC5/UART_1.c ****     * Return:
 902:.\Generated_Source\PSoC5/UART_1.c ****     *  None.
 903:.\Generated_Source\PSoC5/UART_1.c ****     *
 904:.\Generated_Source\PSoC5/UART_1.c ****     * Theory:
 905:.\Generated_Source\PSoC5/UART_1.c ****     *  Enables the output of specific status bits to the interrupt controller
 906:.\Generated_Source\PSoC5/UART_1.c ****     *
 907:.\Generated_Source\PSoC5/UART_1.c ****     *******************************************************************************/
 908:.\Generated_Source\PSoC5/UART_1.c ****     void UART_1_SetTxInterruptMode(uint8 intSrc) 
 909:.\Generated_Source\PSoC5/UART_1.c ****     {
 705              		.loc 1 909 0
 706              		.cfi_startproc
 707              		@ args = 0, pretend = 0, frame = 0
 708              		@ frame_needed = 0, uses_anonymous_args = 0
 709              		@ link register save eliminated.
 710              	.LVL35:
 910:.\Generated_Source\PSoC5/UART_1.c ****         UART_1_TXSTATUS_MASK_REG = intSrc;
 711              		.loc 1 910 0
 712 0000 014B     		ldr	r3, .L55
 713 0002 1870     		strb	r0, [r3]
 714 0004 7047     		bx	lr
 715              	.L56:
 716 0006 00BF     		.align	2
 717              	.L55:
 718 0008 88640040 		.word	1073767560
 719              		.cfi_endproc
 720              	.LFE16:
 721              		.size	UART_1_SetTxInterruptMode, .-UART_1_SetTxInterruptMode
 722              		.section	.text.UART_1_WriteTxData,"ax",%progbits
 723              		.align	2
 724              		.global	UART_1_WriteTxData
 725              		.thumb
 726              		.thumb_func
 727              		.type	UART_1_WriteTxData, %function
 728              	UART_1_WriteTxData:
 729              	.LFB17:
 911:.\Generated_Source\PSoC5/UART_1.c ****     }
 912:.\Generated_Source\PSoC5/UART_1.c **** 
 913:.\Generated_Source\PSoC5/UART_1.c **** 
 914:.\Generated_Source\PSoC5/UART_1.c ****     /*******************************************************************************
 915:.\Generated_Source\PSoC5/UART_1.c ****     * Function Name: UART_1_WriteTxData
 916:.\Generated_Source\PSoC5/UART_1.c ****     ********************************************************************************
 917:.\Generated_Source\PSoC5/UART_1.c ****     *
 918:.\Generated_Source\PSoC5/UART_1.c ****     * Summary:
 919:.\Generated_Source\PSoC5/UART_1.c ****     *  Places a byte of data into the transmit buffer to be sent when the bus is
 920:.\Generated_Source\PSoC5/UART_1.c ****     *  available without checking the TX status register. You must check status
 921:.\Generated_Source\PSoC5/UART_1.c ****     *  separately.
 922:.\Generated_Source\PSoC5/UART_1.c ****     *
 923:.\Generated_Source\PSoC5/UART_1.c ****     * Parameters:
 924:.\Generated_Source\PSoC5/UART_1.c ****     *  txDataByte: data byte
 925:.\Generated_Source\PSoC5/UART_1.c ****     *
 926:.\Generated_Source\PSoC5/UART_1.c ****     * Return:
 927:.\Generated_Source\PSoC5/UART_1.c ****     * None.
 928:.\Generated_Source\PSoC5/UART_1.c ****     *
 929:.\Generated_Source\PSoC5/UART_1.c ****     * Global Variables:
 930:.\Generated_Source\PSoC5/UART_1.c ****     *  UART_1_txBuffer - RAM buffer pointer for save data for transmission
ARM GAS  C:\Users\Patrick\AppData\Local\Temp\ccMAZXgj.s 			page 31


 931:.\Generated_Source\PSoC5/UART_1.c ****     *  UART_1_txBufferWrite - cyclic index for write to txBuffer,
 932:.\Generated_Source\PSoC5/UART_1.c ****     *    incremented after each byte saved to buffer.
 933:.\Generated_Source\PSoC5/UART_1.c ****     *  UART_1_txBufferRead - cyclic index for read from txBuffer,
 934:.\Generated_Source\PSoC5/UART_1.c ****     *    checked to identify the condition to write to FIFO directly or to TX buffer
 935:.\Generated_Source\PSoC5/UART_1.c ****     *  UART_1_initVar - checked to identify that the component has been
 936:.\Generated_Source\PSoC5/UART_1.c ****     *    initialized.
 937:.\Generated_Source\PSoC5/UART_1.c ****     *
 938:.\Generated_Source\PSoC5/UART_1.c ****     * Reentrant:
 939:.\Generated_Source\PSoC5/UART_1.c ****     *  No.
 940:.\Generated_Source\PSoC5/UART_1.c ****     *
 941:.\Generated_Source\PSoC5/UART_1.c ****     *******************************************************************************/
 942:.\Generated_Source\PSoC5/UART_1.c ****     void UART_1_WriteTxData(uint8 txDataByte) 
 943:.\Generated_Source\PSoC5/UART_1.c ****     {
 730              		.loc 1 943 0
 731              		.cfi_startproc
 732              		@ args = 0, pretend = 0, frame = 0
 733              		@ frame_needed = 0, uses_anonymous_args = 0
 734              		@ link register save eliminated.
 735              	.LVL36:
 944:.\Generated_Source\PSoC5/UART_1.c ****         /* If not Initialized then skip this function*/
 945:.\Generated_Source\PSoC5/UART_1.c ****         if(UART_1_initVar != 0u)
 736              		.loc 1 945 0
 737 0000 024B     		ldr	r3, .L62
 738 0002 1B78     		ldrb	r3, [r3]	@ zero_extendqisi2
 739 0004 0BB1     		cbz	r3, .L57
 946:.\Generated_Source\PSoC5/UART_1.c ****         {
 947:.\Generated_Source\PSoC5/UART_1.c ****         #if (UART_1_TX_INTERRUPT_ENABLED)
 948:.\Generated_Source\PSoC5/UART_1.c **** 
 949:.\Generated_Source\PSoC5/UART_1.c ****             /* Protect variables that could change on interrupt. */
 950:.\Generated_Source\PSoC5/UART_1.c ****             UART_1_DisableTxInt();
 951:.\Generated_Source\PSoC5/UART_1.c **** 
 952:.\Generated_Source\PSoC5/UART_1.c ****             if( (UART_1_txBufferRead == UART_1_txBufferWrite) &&
 953:.\Generated_Source\PSoC5/UART_1.c ****                 ((UART_1_TXSTATUS_REG & UART_1_TX_STS_FIFO_FULL) == 0u) )
 954:.\Generated_Source\PSoC5/UART_1.c ****             {
 955:.\Generated_Source\PSoC5/UART_1.c ****                 /* Add directly to the FIFO. */
 956:.\Generated_Source\PSoC5/UART_1.c ****                 UART_1_TXDATA_REG = txDataByte;
 957:.\Generated_Source\PSoC5/UART_1.c ****             }
 958:.\Generated_Source\PSoC5/UART_1.c ****             else
 959:.\Generated_Source\PSoC5/UART_1.c ****             {
 960:.\Generated_Source\PSoC5/UART_1.c ****                 if(UART_1_txBufferWrite >= UART_1_TX_BUFFER_SIZE)
 961:.\Generated_Source\PSoC5/UART_1.c ****                 {
 962:.\Generated_Source\PSoC5/UART_1.c ****                     UART_1_txBufferWrite = 0u;
 963:.\Generated_Source\PSoC5/UART_1.c ****                 }
 964:.\Generated_Source\PSoC5/UART_1.c **** 
 965:.\Generated_Source\PSoC5/UART_1.c ****                 UART_1_txBuffer[UART_1_txBufferWrite] = txDataByte;
 966:.\Generated_Source\PSoC5/UART_1.c **** 
 967:.\Generated_Source\PSoC5/UART_1.c ****                 /* Add to the software buffer. */
 968:.\Generated_Source\PSoC5/UART_1.c ****                 UART_1_txBufferWrite++;
 969:.\Generated_Source\PSoC5/UART_1.c ****             }
 970:.\Generated_Source\PSoC5/UART_1.c **** 
 971:.\Generated_Source\PSoC5/UART_1.c ****             UART_1_EnableTxInt();
 972:.\Generated_Source\PSoC5/UART_1.c **** 
 973:.\Generated_Source\PSoC5/UART_1.c ****         #else
 974:.\Generated_Source\PSoC5/UART_1.c **** 
 975:.\Generated_Source\PSoC5/UART_1.c ****             /* Add directly to the FIFO. */
 976:.\Generated_Source\PSoC5/UART_1.c ****             UART_1_TXDATA_REG = txDataByte;
 740              		.loc 1 976 0
ARM GAS  C:\Users\Patrick\AppData\Local\Temp\ccMAZXgj.s 			page 32


 741 0006 024B     		ldr	r3, .L62+4
 742 0008 1870     		strb	r0, [r3]
 743              	.L57:
 744 000a 7047     		bx	lr
 745              	.L63:
 746              		.align	2
 747              	.L62:
 748 000c 00000000 		.word	.LANCHOR0
 749 0010 48650040 		.word	1073767752
 750              		.cfi_endproc
 751              	.LFE17:
 752              		.size	UART_1_WriteTxData, .-UART_1_WriteTxData
 753              		.section	.text.UART_1_ReadTxStatus,"ax",%progbits
 754              		.align	2
 755              		.global	UART_1_ReadTxStatus
 756              		.thumb
 757              		.thumb_func
 758              		.type	UART_1_ReadTxStatus, %function
 759              	UART_1_ReadTxStatus:
 760              	.LFB18:
 977:.\Generated_Source\PSoC5/UART_1.c **** 
 978:.\Generated_Source\PSoC5/UART_1.c ****         #endif /*(UART_1_TX_INTERRUPT_ENABLED) */
 979:.\Generated_Source\PSoC5/UART_1.c ****         }
 980:.\Generated_Source\PSoC5/UART_1.c ****     }
 981:.\Generated_Source\PSoC5/UART_1.c **** 
 982:.\Generated_Source\PSoC5/UART_1.c **** 
 983:.\Generated_Source\PSoC5/UART_1.c ****     /*******************************************************************************
 984:.\Generated_Source\PSoC5/UART_1.c ****     * Function Name: UART_1_ReadTxStatus
 985:.\Generated_Source\PSoC5/UART_1.c ****     ********************************************************************************
 986:.\Generated_Source\PSoC5/UART_1.c ****     *
 987:.\Generated_Source\PSoC5/UART_1.c ****     * Summary:
 988:.\Generated_Source\PSoC5/UART_1.c ****     *  Reads the status register for the TX portion of the UART.
 989:.\Generated_Source\PSoC5/UART_1.c ****     *
 990:.\Generated_Source\PSoC5/UART_1.c ****     * Parameters:
 991:.\Generated_Source\PSoC5/UART_1.c ****     *  None.
 992:.\Generated_Source\PSoC5/UART_1.c ****     *
 993:.\Generated_Source\PSoC5/UART_1.c ****     * Return:
 994:.\Generated_Source\PSoC5/UART_1.c ****     *  Contents of the status register
 995:.\Generated_Source\PSoC5/UART_1.c ****     *
 996:.\Generated_Source\PSoC5/UART_1.c ****     * Theory:
 997:.\Generated_Source\PSoC5/UART_1.c ****     *  This function reads the TX status register, which is cleared on read.
 998:.\Generated_Source\PSoC5/UART_1.c ****     *  It is up to the user to handle all bits in this return value accordingly,
 999:.\Generated_Source\PSoC5/UART_1.c ****     *  even if the bit was not enabled as an interrupt source the event happened
1000:.\Generated_Source\PSoC5/UART_1.c ****     *  and must be handled accordingly.
1001:.\Generated_Source\PSoC5/UART_1.c ****     *
1002:.\Generated_Source\PSoC5/UART_1.c ****     *******************************************************************************/
1003:.\Generated_Source\PSoC5/UART_1.c ****     uint8 UART_1_ReadTxStatus(void) 
1004:.\Generated_Source\PSoC5/UART_1.c ****     {
 761              		.loc 1 1004 0
 762              		.cfi_startproc
 763              		@ args = 0, pretend = 0, frame = 0
 764              		@ frame_needed = 0, uses_anonymous_args = 0
 765              		@ link register save eliminated.
1005:.\Generated_Source\PSoC5/UART_1.c ****         return(UART_1_TXSTATUS_REG);
 766              		.loc 1 1005 0
 767 0000 014B     		ldr	r3, .L65
 768 0002 1878     		ldrb	r0, [r3]	@ zero_extendqisi2
ARM GAS  C:\Users\Patrick\AppData\Local\Temp\ccMAZXgj.s 			page 33


1006:.\Generated_Source\PSoC5/UART_1.c ****     }
 769              		.loc 1 1006 0
 770 0004 7047     		bx	lr
 771              	.L66:
 772 0006 00BF     		.align	2
 773              	.L65:
 774 0008 68640040 		.word	1073767528
 775              		.cfi_endproc
 776              	.LFE18:
 777              		.size	UART_1_ReadTxStatus, .-UART_1_ReadTxStatus
 778              		.section	.text.UART_1_PutChar,"ax",%progbits
 779              		.align	2
 780              		.global	UART_1_PutChar
 781              		.thumb
 782              		.thumb_func
 783              		.type	UART_1_PutChar, %function
 784              	UART_1_PutChar:
 785              	.LFB19:
1007:.\Generated_Source\PSoC5/UART_1.c **** 
1008:.\Generated_Source\PSoC5/UART_1.c **** 
1009:.\Generated_Source\PSoC5/UART_1.c ****     /*******************************************************************************
1010:.\Generated_Source\PSoC5/UART_1.c ****     * Function Name: UART_1_PutChar
1011:.\Generated_Source\PSoC5/UART_1.c ****     ********************************************************************************
1012:.\Generated_Source\PSoC5/UART_1.c ****     *
1013:.\Generated_Source\PSoC5/UART_1.c ****     * Summary:
1014:.\Generated_Source\PSoC5/UART_1.c ****     *  Puts a byte of data into the transmit buffer to be sent when the bus is
1015:.\Generated_Source\PSoC5/UART_1.c ****     *  available. This is a blocking API that waits until the TX buffer has room to
1016:.\Generated_Source\PSoC5/UART_1.c ****     *  hold the data.
1017:.\Generated_Source\PSoC5/UART_1.c ****     *
1018:.\Generated_Source\PSoC5/UART_1.c ****     * Parameters:
1019:.\Generated_Source\PSoC5/UART_1.c ****     *  txDataByte: Byte containing the data to transmit
1020:.\Generated_Source\PSoC5/UART_1.c ****     *
1021:.\Generated_Source\PSoC5/UART_1.c ****     * Return:
1022:.\Generated_Source\PSoC5/UART_1.c ****     *  None.
1023:.\Generated_Source\PSoC5/UART_1.c ****     *
1024:.\Generated_Source\PSoC5/UART_1.c ****     * Global Variables:
1025:.\Generated_Source\PSoC5/UART_1.c ****     *  UART_1_txBuffer - RAM buffer pointer for save data for transmission
1026:.\Generated_Source\PSoC5/UART_1.c ****     *  UART_1_txBufferWrite - cyclic index for write to txBuffer,
1027:.\Generated_Source\PSoC5/UART_1.c ****     *     checked to identify free space in txBuffer and incremented after each byte
1028:.\Generated_Source\PSoC5/UART_1.c ****     *     saved to buffer.
1029:.\Generated_Source\PSoC5/UART_1.c ****     *  UART_1_txBufferRead - cyclic index for read from txBuffer,
1030:.\Generated_Source\PSoC5/UART_1.c ****     *     checked to identify free space in txBuffer.
1031:.\Generated_Source\PSoC5/UART_1.c ****     *  UART_1_initVar - checked to identify that the component has been
1032:.\Generated_Source\PSoC5/UART_1.c ****     *     initialized.
1033:.\Generated_Source\PSoC5/UART_1.c ****     *
1034:.\Generated_Source\PSoC5/UART_1.c ****     * Reentrant:
1035:.\Generated_Source\PSoC5/UART_1.c ****     *  No.
1036:.\Generated_Source\PSoC5/UART_1.c ****     *
1037:.\Generated_Source\PSoC5/UART_1.c ****     * Theory:
1038:.\Generated_Source\PSoC5/UART_1.c ****     *  Allows the user to transmit any byte of data in a single transfer
1039:.\Generated_Source\PSoC5/UART_1.c ****     *
1040:.\Generated_Source\PSoC5/UART_1.c ****     *******************************************************************************/
1041:.\Generated_Source\PSoC5/UART_1.c ****     void UART_1_PutChar(uint8 txDataByte) 
1042:.\Generated_Source\PSoC5/UART_1.c ****     {
 786              		.loc 1 1042 0
 787              		.cfi_startproc
 788              		@ args = 0, pretend = 0, frame = 0
ARM GAS  C:\Users\Patrick\AppData\Local\Temp\ccMAZXgj.s 			page 34


 789              		@ frame_needed = 0, uses_anonymous_args = 0
 790              		@ link register save eliminated.
 791              	.LVL37:
1043:.\Generated_Source\PSoC5/UART_1.c ****     #if (UART_1_TX_INTERRUPT_ENABLED)
1044:.\Generated_Source\PSoC5/UART_1.c ****         /* The temporary output pointer is used since it takes two instructions
1045:.\Generated_Source\PSoC5/UART_1.c ****         *  to increment with a wrap, and we can't risk doing that with the real
1046:.\Generated_Source\PSoC5/UART_1.c ****         *  pointer and getting an interrupt in between instructions.
1047:.\Generated_Source\PSoC5/UART_1.c ****         */
1048:.\Generated_Source\PSoC5/UART_1.c ****         uint8 locTxBufferWrite;
1049:.\Generated_Source\PSoC5/UART_1.c ****         uint8 locTxBufferRead;
1050:.\Generated_Source\PSoC5/UART_1.c **** 
1051:.\Generated_Source\PSoC5/UART_1.c ****         do
1052:.\Generated_Source\PSoC5/UART_1.c ****         { /* Block if software buffer is full, so we don't overwrite. */
1053:.\Generated_Source\PSoC5/UART_1.c **** 
1054:.\Generated_Source\PSoC5/UART_1.c ****         #if ((UART_1_TX_BUFFER_SIZE > UART_1_MAX_BYTE_VALUE) && (CY_PSOC3))
1055:.\Generated_Source\PSoC5/UART_1.c ****             /* Disable TX interrupt to protect variables from modification */
1056:.\Generated_Source\PSoC5/UART_1.c ****             UART_1_DisableTxInt();
1057:.\Generated_Source\PSoC5/UART_1.c ****         #endif /* (UART_1_TX_BUFFER_SIZE > UART_1_MAX_BYTE_VALUE) && (CY_PSOC3) */
1058:.\Generated_Source\PSoC5/UART_1.c **** 
1059:.\Generated_Source\PSoC5/UART_1.c ****             locTxBufferWrite = UART_1_txBufferWrite;
1060:.\Generated_Source\PSoC5/UART_1.c ****             locTxBufferRead  = UART_1_txBufferRead;
1061:.\Generated_Source\PSoC5/UART_1.c **** 
1062:.\Generated_Source\PSoC5/UART_1.c ****         #if ((UART_1_TX_BUFFER_SIZE > UART_1_MAX_BYTE_VALUE) && (CY_PSOC3))
1063:.\Generated_Source\PSoC5/UART_1.c ****             /* Enable interrupt to continue transmission */
1064:.\Generated_Source\PSoC5/UART_1.c ****             UART_1_EnableTxInt();
1065:.\Generated_Source\PSoC5/UART_1.c ****         #endif /* (UART_1_TX_BUFFER_SIZE > UART_1_MAX_BYTE_VALUE) && (CY_PSOC3) */
1066:.\Generated_Source\PSoC5/UART_1.c ****         }
1067:.\Generated_Source\PSoC5/UART_1.c ****         while( (locTxBufferWrite < locTxBufferRead) ? (locTxBufferWrite == (locTxBufferRead - 1u)) 
1068:.\Generated_Source\PSoC5/UART_1.c ****                                 ((locTxBufferWrite - locTxBufferRead) ==
1069:.\Generated_Source\PSoC5/UART_1.c ****                                 (uint8)(UART_1_TX_BUFFER_SIZE - 1u)) );
1070:.\Generated_Source\PSoC5/UART_1.c **** 
1071:.\Generated_Source\PSoC5/UART_1.c ****         if( (locTxBufferRead == locTxBufferWrite) &&
1072:.\Generated_Source\PSoC5/UART_1.c ****             ((UART_1_TXSTATUS_REG & UART_1_TX_STS_FIFO_FULL) == 0u) )
1073:.\Generated_Source\PSoC5/UART_1.c ****         {
1074:.\Generated_Source\PSoC5/UART_1.c ****             /* Add directly to the FIFO */
1075:.\Generated_Source\PSoC5/UART_1.c ****             UART_1_TXDATA_REG = txDataByte;
1076:.\Generated_Source\PSoC5/UART_1.c ****         }
1077:.\Generated_Source\PSoC5/UART_1.c ****         else
1078:.\Generated_Source\PSoC5/UART_1.c ****         {
1079:.\Generated_Source\PSoC5/UART_1.c ****             if(locTxBufferWrite >= UART_1_TX_BUFFER_SIZE)
1080:.\Generated_Source\PSoC5/UART_1.c ****             {
1081:.\Generated_Source\PSoC5/UART_1.c ****                 locTxBufferWrite = 0u;
1082:.\Generated_Source\PSoC5/UART_1.c ****             }
1083:.\Generated_Source\PSoC5/UART_1.c ****             /* Add to the software buffer. */
1084:.\Generated_Source\PSoC5/UART_1.c ****             UART_1_txBuffer[locTxBufferWrite] = txDataByte;
1085:.\Generated_Source\PSoC5/UART_1.c ****             locTxBufferWrite++;
1086:.\Generated_Source\PSoC5/UART_1.c **** 
1087:.\Generated_Source\PSoC5/UART_1.c ****             /* Finally, update the real output pointer */
1088:.\Generated_Source\PSoC5/UART_1.c ****         #if ((UART_1_TX_BUFFER_SIZE > UART_1_MAX_BYTE_VALUE) && (CY_PSOC3))
1089:.\Generated_Source\PSoC5/UART_1.c ****             UART_1_DisableTxInt();
1090:.\Generated_Source\PSoC5/UART_1.c ****         #endif /* (UART_1_TX_BUFFER_SIZE > UART_1_MAX_BYTE_VALUE) && (CY_PSOC3) */
1091:.\Generated_Source\PSoC5/UART_1.c **** 
1092:.\Generated_Source\PSoC5/UART_1.c ****             UART_1_txBufferWrite = locTxBufferWrite;
1093:.\Generated_Source\PSoC5/UART_1.c **** 
1094:.\Generated_Source\PSoC5/UART_1.c ****         #if ((UART_1_TX_BUFFER_SIZE > UART_1_MAX_BYTE_VALUE) && (CY_PSOC3))
1095:.\Generated_Source\PSoC5/UART_1.c ****             UART_1_EnableTxInt();
1096:.\Generated_Source\PSoC5/UART_1.c ****         #endif /* (UART_1_TX_BUFFER_SIZE > UART_1_MAX_BYTE_VALUE) && (CY_PSOC3) */
ARM GAS  C:\Users\Patrick\AppData\Local\Temp\ccMAZXgj.s 			page 35


1097:.\Generated_Source\PSoC5/UART_1.c **** 
1098:.\Generated_Source\PSoC5/UART_1.c ****             if(0u != (UART_1_TXSTATUS_REG & UART_1_TX_STS_FIFO_EMPTY))
1099:.\Generated_Source\PSoC5/UART_1.c ****             {
1100:.\Generated_Source\PSoC5/UART_1.c ****                 /* Trigger TX interrupt to send software buffer */
1101:.\Generated_Source\PSoC5/UART_1.c ****                 UART_1_SetPendingTxInt();
1102:.\Generated_Source\PSoC5/UART_1.c ****             }
1103:.\Generated_Source\PSoC5/UART_1.c ****         }
1104:.\Generated_Source\PSoC5/UART_1.c **** 
1105:.\Generated_Source\PSoC5/UART_1.c ****     #else
1106:.\Generated_Source\PSoC5/UART_1.c **** 
1107:.\Generated_Source\PSoC5/UART_1.c ****         while((UART_1_TXSTATUS_REG & UART_1_TX_STS_FIFO_FULL) != 0u)
 792              		.loc 1 1107 0
 793 0000 034A     		ldr	r2, .L70
 794              	.L68:
 795              		.loc 1 1107 0 is_stmt 0 discriminator 1
 796 0002 1378     		ldrb	r3, [r2]	@ zero_extendqisi2
 797 0004 5B07     		lsls	r3, r3, #29
 798 0006 FCD4     		bmi	.L68
1108:.\Generated_Source\PSoC5/UART_1.c ****         {
1109:.\Generated_Source\PSoC5/UART_1.c ****             /* Wait for room in the FIFO */
1110:.\Generated_Source\PSoC5/UART_1.c ****         }
1111:.\Generated_Source\PSoC5/UART_1.c **** 
1112:.\Generated_Source\PSoC5/UART_1.c ****         /* Add directly to the FIFO */
1113:.\Generated_Source\PSoC5/UART_1.c ****         UART_1_TXDATA_REG = txDataByte;
 799              		.loc 1 1113 0 is_stmt 1
 800 0008 024B     		ldr	r3, .L70+4
 801 000a 1870     		strb	r0, [r3]
 802 000c 7047     		bx	lr
 803              	.L71:
 804 000e 00BF     		.align	2
 805              	.L70:
 806 0010 68640040 		.word	1073767528
 807 0014 48650040 		.word	1073767752
 808              		.cfi_endproc
 809              	.LFE19:
 810              		.size	UART_1_PutChar, .-UART_1_PutChar
 811              		.section	.text.UART_1_PutString,"ax",%progbits
 812              		.align	2
 813              		.global	UART_1_PutString
 814              		.thumb
 815              		.thumb_func
 816              		.type	UART_1_PutString, %function
 817              	UART_1_PutString:
 818              	.LFB20:
1114:.\Generated_Source\PSoC5/UART_1.c **** 
1115:.\Generated_Source\PSoC5/UART_1.c ****     #endif /* UART_1_TX_INTERRUPT_ENABLED */
1116:.\Generated_Source\PSoC5/UART_1.c ****     }
1117:.\Generated_Source\PSoC5/UART_1.c **** 
1118:.\Generated_Source\PSoC5/UART_1.c **** 
1119:.\Generated_Source\PSoC5/UART_1.c ****     /*******************************************************************************
1120:.\Generated_Source\PSoC5/UART_1.c ****     * Function Name: UART_1_PutString
1121:.\Generated_Source\PSoC5/UART_1.c ****     ********************************************************************************
1122:.\Generated_Source\PSoC5/UART_1.c ****     *
1123:.\Generated_Source\PSoC5/UART_1.c ****     * Summary:
1124:.\Generated_Source\PSoC5/UART_1.c ****     *  Sends a NULL terminated string to the TX buffer for transmission.
1125:.\Generated_Source\PSoC5/UART_1.c ****     *
1126:.\Generated_Source\PSoC5/UART_1.c ****     * Parameters:
ARM GAS  C:\Users\Patrick\AppData\Local\Temp\ccMAZXgj.s 			page 36


1127:.\Generated_Source\PSoC5/UART_1.c ****     *  string[]: Pointer to the null terminated string array residing in RAM or ROM
1128:.\Generated_Source\PSoC5/UART_1.c ****     *
1129:.\Generated_Source\PSoC5/UART_1.c ****     * Return:
1130:.\Generated_Source\PSoC5/UART_1.c ****     *  None.
1131:.\Generated_Source\PSoC5/UART_1.c ****     *
1132:.\Generated_Source\PSoC5/UART_1.c ****     * Global Variables:
1133:.\Generated_Source\PSoC5/UART_1.c ****     *  UART_1_initVar - checked to identify that the component has been
1134:.\Generated_Source\PSoC5/UART_1.c ****     *     initialized.
1135:.\Generated_Source\PSoC5/UART_1.c ****     *
1136:.\Generated_Source\PSoC5/UART_1.c ****     * Reentrant:
1137:.\Generated_Source\PSoC5/UART_1.c ****     *  No.
1138:.\Generated_Source\PSoC5/UART_1.c ****     *
1139:.\Generated_Source\PSoC5/UART_1.c ****     * Theory:
1140:.\Generated_Source\PSoC5/UART_1.c ****     *  If there is not enough memory in the TX buffer for the entire string, this
1141:.\Generated_Source\PSoC5/UART_1.c ****     *  function blocks until the last character of the string is loaded into the
1142:.\Generated_Source\PSoC5/UART_1.c ****     *  TX buffer.
1143:.\Generated_Source\PSoC5/UART_1.c ****     *
1144:.\Generated_Source\PSoC5/UART_1.c ****     *******************************************************************************/
1145:.\Generated_Source\PSoC5/UART_1.c ****     void UART_1_PutString(const char8 string[]) 
1146:.\Generated_Source\PSoC5/UART_1.c ****     {
 819              		.loc 1 1146 0
 820              		.cfi_startproc
 821              		@ args = 0, pretend = 0, frame = 0
 822              		@ frame_needed = 0, uses_anonymous_args = 0
 823              		@ link register save eliminated.
 824              	.LVL38:
1147:.\Generated_Source\PSoC5/UART_1.c ****         uint16 bufIndex = 0u;
1148:.\Generated_Source\PSoC5/UART_1.c **** 
1149:.\Generated_Source\PSoC5/UART_1.c ****         /* If not Initialized then skip this function */
1150:.\Generated_Source\PSoC5/UART_1.c ****         if(UART_1_initVar != 0u)
 825              		.loc 1 1150 0
 826 0000 094B     		ldr	r3, .L85
 827 0002 1B78     		ldrb	r3, [r3]	@ zero_extendqisi2
 828 0004 7BB1     		cbz	r3, .L84
1146:.\Generated_Source\PSoC5/UART_1.c ****         uint16 bufIndex = 0u;
 829              		.loc 1 1146 0
 830 0006 30B4     		push	{r4, r5}
 831              		.cfi_def_cfa_offset 8
 832              		.cfi_offset 4, -8
 833              		.cfi_offset 5, -4
1151:.\Generated_Source\PSoC5/UART_1.c ****         {
1152:.\Generated_Source\PSoC5/UART_1.c ****             /* This is a blocking function, it will not exit until all data is sent */
1153:.\Generated_Source\PSoC5/UART_1.c ****             while(string[bufIndex] != (char8) 0)
 834              		.loc 1 1153 0
 835 0008 0478     		ldrb	r4, [r0]	@ zero_extendqisi2
 836 000a 5CB1     		cbz	r4, .L72
 837              	.LBB38:
 838              	.LBB39:
1107:.\Generated_Source\PSoC5/UART_1.c ****         {
 839              		.loc 1 1107 0
 840 000c 074A     		ldr	r2, .L85+4
1113:.\Generated_Source\PSoC5/UART_1.c **** 
 841              		.loc 1 1113 0
 842 000e 084D     		ldr	r5, .L85+8
 843              	.LBE39:
 844              	.LBE38:
 845              		.loc 1 1153 0
ARM GAS  C:\Users\Patrick\AppData\Local\Temp\ccMAZXgj.s 			page 37


 846 0010 0021     		movs	r1, #0
 847              	.LVL39:
 848              	.L75:
 849              	.LBB42:
 850              	.LBB40:
1107:.\Generated_Source\PSoC5/UART_1.c ****         {
 851              		.loc 1 1107 0
 852 0012 1378     		ldrb	r3, [r2]	@ zero_extendqisi2
 853 0014 5B07     		lsls	r3, r3, #29
 854 0016 FCD4     		bmi	.L75
 855              	.LBE40:
 856              	.LBE42:
1154:.\Generated_Source\PSoC5/UART_1.c ****             {
1155:.\Generated_Source\PSoC5/UART_1.c ****                 UART_1_PutChar((uint8)string[bufIndex]);
1156:.\Generated_Source\PSoC5/UART_1.c ****                 bufIndex++;
 857              		.loc 1 1156 0
 858 0018 0131     		adds	r1, r1, #1
 859 001a 89B2     		uxth	r1, r1
 860              	.LVL40:
 861              	.LBB43:
 862              	.LBB41:
1113:.\Generated_Source\PSoC5/UART_1.c **** 
 863              		.loc 1 1113 0
 864 001c 2C70     		strb	r4, [r5]
 865              	.LBE41:
 866              	.LBE43:
1153:.\Generated_Source\PSoC5/UART_1.c ****             {
 867              		.loc 1 1153 0
 868 001e 445C     		ldrb	r4, [r0, r1]	@ zero_extendqisi2
 869 0020 002C     		cmp	r4, #0
 870 0022 F6D1     		bne	.L75
 871              	.LVL41:
 872              	.L72:
1157:.\Generated_Source\PSoC5/UART_1.c ****             }
1158:.\Generated_Source\PSoC5/UART_1.c ****         }
1159:.\Generated_Source\PSoC5/UART_1.c ****     }
 873              		.loc 1 1159 0
 874 0024 30BC     		pop	{r4, r5}
 875              		.cfi_restore 5
 876              		.cfi_restore 4
 877              		.cfi_def_cfa_offset 0
 878              	.L84:
 879 0026 7047     		bx	lr
 880              	.L86:
 881              		.align	2
 882              	.L85:
 883 0028 00000000 		.word	.LANCHOR0
 884 002c 68640040 		.word	1073767528
 885 0030 48650040 		.word	1073767752
 886              		.cfi_endproc
 887              	.LFE20:
 888              		.size	UART_1_PutString, .-UART_1_PutString
 889              		.section	.text.UART_1_PutArray,"ax",%progbits
 890              		.align	2
 891              		.global	UART_1_PutArray
 892              		.thumb
 893              		.thumb_func
ARM GAS  C:\Users\Patrick\AppData\Local\Temp\ccMAZXgj.s 			page 38


 894              		.type	UART_1_PutArray, %function
 895              	UART_1_PutArray:
 896              	.LFB21:
1160:.\Generated_Source\PSoC5/UART_1.c **** 
1161:.\Generated_Source\PSoC5/UART_1.c **** 
1162:.\Generated_Source\PSoC5/UART_1.c ****     /*******************************************************************************
1163:.\Generated_Source\PSoC5/UART_1.c ****     * Function Name: UART_1_PutArray
1164:.\Generated_Source\PSoC5/UART_1.c ****     ********************************************************************************
1165:.\Generated_Source\PSoC5/UART_1.c ****     *
1166:.\Generated_Source\PSoC5/UART_1.c ****     * Summary:
1167:.\Generated_Source\PSoC5/UART_1.c ****     *  Places N bytes of data from a memory array into the TX buffer for
1168:.\Generated_Source\PSoC5/UART_1.c ****     *  transmission.
1169:.\Generated_Source\PSoC5/UART_1.c ****     *
1170:.\Generated_Source\PSoC5/UART_1.c ****     * Parameters:
1171:.\Generated_Source\PSoC5/UART_1.c ****     *  string[]: Address of the memory array residing in RAM or ROM.
1172:.\Generated_Source\PSoC5/UART_1.c ****     *  byteCount: Number of bytes to be transmitted. The type depends on TX Buffer
1173:.\Generated_Source\PSoC5/UART_1.c ****     *             Size parameter.
1174:.\Generated_Source\PSoC5/UART_1.c ****     *
1175:.\Generated_Source\PSoC5/UART_1.c ****     * Return:
1176:.\Generated_Source\PSoC5/UART_1.c ****     *  None.
1177:.\Generated_Source\PSoC5/UART_1.c ****     *
1178:.\Generated_Source\PSoC5/UART_1.c ****     * Global Variables:
1179:.\Generated_Source\PSoC5/UART_1.c ****     *  UART_1_initVar - checked to identify that the component has been
1180:.\Generated_Source\PSoC5/UART_1.c ****     *     initialized.
1181:.\Generated_Source\PSoC5/UART_1.c ****     *
1182:.\Generated_Source\PSoC5/UART_1.c ****     * Reentrant:
1183:.\Generated_Source\PSoC5/UART_1.c ****     *  No.
1184:.\Generated_Source\PSoC5/UART_1.c ****     *
1185:.\Generated_Source\PSoC5/UART_1.c ****     * Theory:
1186:.\Generated_Source\PSoC5/UART_1.c ****     *  If there is not enough memory in the TX buffer for the entire string, this
1187:.\Generated_Source\PSoC5/UART_1.c ****     *  function blocks until the last character of the string is loaded into the
1188:.\Generated_Source\PSoC5/UART_1.c ****     *  TX buffer.
1189:.\Generated_Source\PSoC5/UART_1.c ****     *
1190:.\Generated_Source\PSoC5/UART_1.c ****     *******************************************************************************/
1191:.\Generated_Source\PSoC5/UART_1.c ****     void UART_1_PutArray(const uint8 string[], uint8 byteCount)
1192:.\Generated_Source\PSoC5/UART_1.c ****                                                                     
1193:.\Generated_Source\PSoC5/UART_1.c ****     {
 897              		.loc 1 1193 0
 898              		.cfi_startproc
 899              		@ args = 0, pretend = 0, frame = 0
 900              		@ frame_needed = 0, uses_anonymous_args = 0
 901              		@ link register save eliminated.
 902              	.LVL42:
1194:.\Generated_Source\PSoC5/UART_1.c ****         uint8 bufIndex = 0u;
1195:.\Generated_Source\PSoC5/UART_1.c **** 
1196:.\Generated_Source\PSoC5/UART_1.c ****         /* If not Initialized then skip this function */
1197:.\Generated_Source\PSoC5/UART_1.c ****         if(UART_1_initVar != 0u)
 903              		.loc 1 1197 0
 904 0000 0A4B     		ldr	r3, .L100
 905 0002 1B78     		ldrb	r3, [r3]	@ zero_extendqisi2
 906 0004 83B1     		cbz	r3, .L99
1198:.\Generated_Source\PSoC5/UART_1.c ****         {
1199:.\Generated_Source\PSoC5/UART_1.c ****             while(bufIndex < byteCount)
 907              		.loc 1 1199 0
 908 0006 79B1     		cbz	r1, .L99
1193:.\Generated_Source\PSoC5/UART_1.c ****         uint8 bufIndex = 0u;
 909              		.loc 1 1193 0
ARM GAS  C:\Users\Patrick\AppData\Local\Temp\ccMAZXgj.s 			page 39


 910 0008 30B4     		push	{r4, r5}
 911              		.cfi_def_cfa_offset 8
 912              		.cfi_offset 4, -8
 913              		.cfi_offset 5, -4
 914 000a 4C1E     		subs	r4, r1, #1
 915 000c E4B2     		uxtb	r4, r4
 916              	.LBB44:
 917              	.LBB45:
1107:.\Generated_Source\PSoC5/UART_1.c ****         {
 918              		.loc 1 1107 0
 919 000e 084A     		ldr	r2, .L100+4
1113:.\Generated_Source\PSoC5/UART_1.c **** 
 920              		.loc 1 1113 0
 921 0010 084D     		ldr	r5, .L100+8
 922 0012 0444     		add	r4, r4, r0
 923 0014 411E     		subs	r1, r0, #1
 924              	.LVL43:
 925              	.L91:
 926              	.LBE45:
 927              	.LBE44:
1200:.\Generated_Source\PSoC5/UART_1.c ****             {
1201:.\Generated_Source\PSoC5/UART_1.c ****                 UART_1_PutChar(string[bufIndex]);
 928              		.loc 1 1201 0
 929 0016 11F8010F 		ldrb	r0, [r1, #1]!	@ zero_extendqisi2
 930              	.LVL44:
 931              	.L90:
 932              	.LBB48:
 933              	.LBB46:
1107:.\Generated_Source\PSoC5/UART_1.c ****         {
 934              		.loc 1 1107 0
 935 001a 1378     		ldrb	r3, [r2]	@ zero_extendqisi2
 936 001c 5B07     		lsls	r3, r3, #29
 937 001e FCD4     		bmi	.L90
 938              	.LBE46:
 939              	.LBE48:
1199:.\Generated_Source\PSoC5/UART_1.c ****             {
 940              		.loc 1 1199 0
 941 0020 A142     		cmp	r1, r4
 942              	.LBB49:
 943              	.LBB47:
1113:.\Generated_Source\PSoC5/UART_1.c **** 
 944              		.loc 1 1113 0
 945 0022 2870     		strb	r0, [r5]
 946              	.LVL45:
 947              	.LBE47:
 948              	.LBE49:
1199:.\Generated_Source\PSoC5/UART_1.c ****             {
 949              		.loc 1 1199 0
 950 0024 F7D1     		bne	.L91
1202:.\Generated_Source\PSoC5/UART_1.c ****                 bufIndex++;
1203:.\Generated_Source\PSoC5/UART_1.c ****             }
1204:.\Generated_Source\PSoC5/UART_1.c ****         }
1205:.\Generated_Source\PSoC5/UART_1.c ****     }
 951              		.loc 1 1205 0
 952 0026 30BC     		pop	{r4, r5}
 953              		.cfi_restore 5
 954              		.cfi_restore 4
ARM GAS  C:\Users\Patrick\AppData\Local\Temp\ccMAZXgj.s 			page 40


 955              		.cfi_def_cfa_offset 0
 956              	.LVL46:
 957              	.L99:
 958 0028 7047     		bx	lr
 959              	.L101:
 960 002a 00BF     		.align	2
 961              	.L100:
 962 002c 00000000 		.word	.LANCHOR0
 963 0030 68640040 		.word	1073767528
 964 0034 48650040 		.word	1073767752
 965              		.cfi_endproc
 966              	.LFE21:
 967              		.size	UART_1_PutArray, .-UART_1_PutArray
 968              		.section	.text.UART_1_PutCRLF,"ax",%progbits
 969              		.align	2
 970              		.global	UART_1_PutCRLF
 971              		.thumb
 972              		.thumb_func
 973              		.type	UART_1_PutCRLF, %function
 974              	UART_1_PutCRLF:
 975              	.LFB22:
1206:.\Generated_Source\PSoC5/UART_1.c **** 
1207:.\Generated_Source\PSoC5/UART_1.c **** 
1208:.\Generated_Source\PSoC5/UART_1.c ****     /*******************************************************************************
1209:.\Generated_Source\PSoC5/UART_1.c ****     * Function Name: UART_1_PutCRLF
1210:.\Generated_Source\PSoC5/UART_1.c ****     ********************************************************************************
1211:.\Generated_Source\PSoC5/UART_1.c ****     *
1212:.\Generated_Source\PSoC5/UART_1.c ****     * Summary:
1213:.\Generated_Source\PSoC5/UART_1.c ****     *  Writes a byte of data followed by a carriage return (0x0D) and line feed
1214:.\Generated_Source\PSoC5/UART_1.c ****     *  (0x0A) to the transmit buffer.
1215:.\Generated_Source\PSoC5/UART_1.c ****     *
1216:.\Generated_Source\PSoC5/UART_1.c ****     * Parameters:
1217:.\Generated_Source\PSoC5/UART_1.c ****     *  txDataByte: Data byte to transmit before the carriage return and line feed.
1218:.\Generated_Source\PSoC5/UART_1.c ****     *
1219:.\Generated_Source\PSoC5/UART_1.c ****     * Return:
1220:.\Generated_Source\PSoC5/UART_1.c ****     *  None.
1221:.\Generated_Source\PSoC5/UART_1.c ****     *
1222:.\Generated_Source\PSoC5/UART_1.c ****     * Global Variables:
1223:.\Generated_Source\PSoC5/UART_1.c ****     *  UART_1_initVar - checked to identify that the component has been
1224:.\Generated_Source\PSoC5/UART_1.c ****     *     initialized.
1225:.\Generated_Source\PSoC5/UART_1.c ****     *
1226:.\Generated_Source\PSoC5/UART_1.c ****     * Reentrant:
1227:.\Generated_Source\PSoC5/UART_1.c ****     *  No.
1228:.\Generated_Source\PSoC5/UART_1.c ****     *
1229:.\Generated_Source\PSoC5/UART_1.c ****     *******************************************************************************/
1230:.\Generated_Source\PSoC5/UART_1.c ****     void UART_1_PutCRLF(uint8 txDataByte) 
1231:.\Generated_Source\PSoC5/UART_1.c ****     {
 976              		.loc 1 1231 0
 977              		.cfi_startproc
 978              		@ args = 0, pretend = 0, frame = 0
 979              		@ frame_needed = 0, uses_anonymous_args = 0
 980              		@ link register save eliminated.
 981              	.LVL47:
1232:.\Generated_Source\PSoC5/UART_1.c ****         /* If not Initialized then skip this function */
1233:.\Generated_Source\PSoC5/UART_1.c ****         if(UART_1_initVar != 0u)
 982              		.loc 1 1233 0
 983 0000 0B4B     		ldr	r3, .L114
ARM GAS  C:\Users\Patrick\AppData\Local\Temp\ccMAZXgj.s 			page 41


 984 0002 1B78     		ldrb	r3, [r3]	@ zero_extendqisi2
 985 0004 9BB1     		cbz	r3, .L102
 986              	.LBB50:
 987              	.LBB51:
1107:.\Generated_Source\PSoC5/UART_1.c ****         {
 988              		.loc 1 1107 0
 989 0006 0B4A     		ldr	r2, .L114+4
 990              	.L109:
 991 0008 1378     		ldrb	r3, [r2]	@ zero_extendqisi2
 992 000a 5B07     		lsls	r3, r3, #29
 993 000c FCD4     		bmi	.L109
1113:.\Generated_Source\PSoC5/UART_1.c **** 
 994              		.loc 1 1113 0
 995 000e 0A4B     		ldr	r3, .L114+8
 996              	.LBE51:
 997              	.LBE50:
 998              	.LBB53:
 999              	.LBB54:
1107:.\Generated_Source\PSoC5/UART_1.c ****         {
 1000              		.loc 1 1107 0
 1001 0010 084A     		ldr	r2, .L114+4
 1002              	.LBE54:
 1003              	.LBE53:
 1004              	.LBB57:
 1005              	.LBB52:
1113:.\Generated_Source\PSoC5/UART_1.c **** 
 1006              		.loc 1 1113 0
 1007 0012 1870     		strb	r0, [r3]
 1008              	.LVL48:
 1009              	.L105:
 1010              	.LBE52:
 1011              	.LBE57:
 1012              	.LBB58:
 1013              	.LBB55:
1107:.\Generated_Source\PSoC5/UART_1.c ****         {
 1014              		.loc 1 1107 0
 1015 0014 1378     		ldrb	r3, [r2]	@ zero_extendqisi2
 1016 0016 5907     		lsls	r1, r3, #29
 1017 0018 FCD4     		bmi	.L105
1113:.\Generated_Source\PSoC5/UART_1.c **** 
 1018              		.loc 1 1113 0
 1019 001a 074B     		ldr	r3, .L114+8
 1020 001c 0D21     		movs	r1, #13
 1021              	.LBE55:
 1022              	.LBE58:
 1023              	.LBB59:
 1024              	.LBB60:
1107:.\Generated_Source\PSoC5/UART_1.c ****         {
 1025              		.loc 1 1107 0
 1026 001e 054A     		ldr	r2, .L114+4
 1027              	.LBE60:
 1028              	.LBE59:
 1029              	.LBB62:
 1030              	.LBB56:
1113:.\Generated_Source\PSoC5/UART_1.c **** 
 1031              		.loc 1 1113 0
 1032 0020 1970     		strb	r1, [r3]
ARM GAS  C:\Users\Patrick\AppData\Local\Temp\ccMAZXgj.s 			page 42


 1033              	.LVL49:
 1034              	.L106:
 1035              	.LBE56:
 1036              	.LBE62:
 1037              	.LBB63:
 1038              	.LBB61:
1107:.\Generated_Source\PSoC5/UART_1.c ****         {
 1039              		.loc 1 1107 0
 1040 0022 1378     		ldrb	r3, [r2]	@ zero_extendqisi2
 1041 0024 5B07     		lsls	r3, r3, #29
 1042 0026 FCD4     		bmi	.L106
1113:.\Generated_Source\PSoC5/UART_1.c **** 
 1043              		.loc 1 1113 0
 1044 0028 034B     		ldr	r3, .L114+8
 1045 002a 0A22     		movs	r2, #10
 1046 002c 1A70     		strb	r2, [r3]
 1047              	.LVL50:
 1048              	.L102:
 1049 002e 7047     		bx	lr
 1050              	.L115:
 1051              		.align	2
 1052              	.L114:
 1053 0030 00000000 		.word	.LANCHOR0
 1054 0034 68640040 		.word	1073767528
 1055 0038 48650040 		.word	1073767752
 1056              	.LBE61:
 1057              	.LBE63:
 1058              		.cfi_endproc
 1059              	.LFE22:
 1060              		.size	UART_1_PutCRLF, .-UART_1_PutCRLF
 1061              		.section	.text.UART_1_GetTxBufferSize,"ax",%progbits
 1062              		.align	2
 1063              		.global	UART_1_GetTxBufferSize
 1064              		.thumb
 1065              		.thumb_func
 1066              		.type	UART_1_GetTxBufferSize, %function
 1067              	UART_1_GetTxBufferSize:
 1068              	.LFB23:
1234:.\Generated_Source\PSoC5/UART_1.c ****         {
1235:.\Generated_Source\PSoC5/UART_1.c ****             UART_1_PutChar(txDataByte);
1236:.\Generated_Source\PSoC5/UART_1.c ****             UART_1_PutChar(0x0Du);
1237:.\Generated_Source\PSoC5/UART_1.c ****             UART_1_PutChar(0x0Au);
1238:.\Generated_Source\PSoC5/UART_1.c ****         }
1239:.\Generated_Source\PSoC5/UART_1.c ****     }
1240:.\Generated_Source\PSoC5/UART_1.c **** 
1241:.\Generated_Source\PSoC5/UART_1.c **** 
1242:.\Generated_Source\PSoC5/UART_1.c ****     /*******************************************************************************
1243:.\Generated_Source\PSoC5/UART_1.c ****     * Function Name: UART_1_GetTxBufferSize
1244:.\Generated_Source\PSoC5/UART_1.c ****     ********************************************************************************
1245:.\Generated_Source\PSoC5/UART_1.c ****     *
1246:.\Generated_Source\PSoC5/UART_1.c ****     * Summary:
1247:.\Generated_Source\PSoC5/UART_1.c ****     *  Returns the number of bytes in the TX buffer which are waiting to be 
1248:.\Generated_Source\PSoC5/UART_1.c ****     *  transmitted.
1249:.\Generated_Source\PSoC5/UART_1.c ****     *  * TX software buffer is disabled (TX Buffer Size parameter is equal to 4): 
1250:.\Generated_Source\PSoC5/UART_1.c ****     *    returns 0 for empty TX FIFO, 1 for not full TX FIFO or 4 for full TX FIFO.
1251:.\Generated_Source\PSoC5/UART_1.c ****     *  * TX software buffer is enabled: returns the number of bytes in the TX 
1252:.\Generated_Source\PSoC5/UART_1.c ****     *    software buffer which are waiting to be transmitted. Bytes available in the
ARM GAS  C:\Users\Patrick\AppData\Local\Temp\ccMAZXgj.s 			page 43


1253:.\Generated_Source\PSoC5/UART_1.c ****     *    TX FIFO do not count.
1254:.\Generated_Source\PSoC5/UART_1.c ****     *
1255:.\Generated_Source\PSoC5/UART_1.c ****     * Parameters:
1256:.\Generated_Source\PSoC5/UART_1.c ****     *  None.
1257:.\Generated_Source\PSoC5/UART_1.c ****     *
1258:.\Generated_Source\PSoC5/UART_1.c ****     * Return:
1259:.\Generated_Source\PSoC5/UART_1.c ****     *  Number of bytes used in the TX buffer. Return value type depends on the TX 
1260:.\Generated_Source\PSoC5/UART_1.c ****     *  Buffer Size parameter.
1261:.\Generated_Source\PSoC5/UART_1.c ****     *
1262:.\Generated_Source\PSoC5/UART_1.c ****     * Global Variables:
1263:.\Generated_Source\PSoC5/UART_1.c ****     *  UART_1_txBufferWrite - used to calculate left space.
1264:.\Generated_Source\PSoC5/UART_1.c ****     *  UART_1_txBufferRead - used to calculate left space.
1265:.\Generated_Source\PSoC5/UART_1.c ****     *
1266:.\Generated_Source\PSoC5/UART_1.c ****     * Reentrant:
1267:.\Generated_Source\PSoC5/UART_1.c ****     *  No.
1268:.\Generated_Source\PSoC5/UART_1.c ****     *
1269:.\Generated_Source\PSoC5/UART_1.c ****     * Theory:
1270:.\Generated_Source\PSoC5/UART_1.c ****     *  Allows the user to find out how full the TX Buffer is.
1271:.\Generated_Source\PSoC5/UART_1.c ****     *
1272:.\Generated_Source\PSoC5/UART_1.c ****     *******************************************************************************/
1273:.\Generated_Source\PSoC5/UART_1.c ****     uint8 UART_1_GetTxBufferSize(void)
1274:.\Generated_Source\PSoC5/UART_1.c ****                                                             
1275:.\Generated_Source\PSoC5/UART_1.c ****     {
 1069              		.loc 1 1275 0
 1070              		.cfi_startproc
 1071              		@ args = 0, pretend = 0, frame = 0
 1072              		@ frame_needed = 0, uses_anonymous_args = 0
 1073              		@ link register save eliminated.
1276:.\Generated_Source\PSoC5/UART_1.c ****         uint8 size;
1277:.\Generated_Source\PSoC5/UART_1.c **** 
1278:.\Generated_Source\PSoC5/UART_1.c ****     #if (UART_1_TX_INTERRUPT_ENABLED)
1279:.\Generated_Source\PSoC5/UART_1.c **** 
1280:.\Generated_Source\PSoC5/UART_1.c ****         /* Protect variables that could change on interrupt. */
1281:.\Generated_Source\PSoC5/UART_1.c ****         UART_1_DisableTxInt();
1282:.\Generated_Source\PSoC5/UART_1.c **** 
1283:.\Generated_Source\PSoC5/UART_1.c ****         if(UART_1_txBufferRead == UART_1_txBufferWrite)
1284:.\Generated_Source\PSoC5/UART_1.c ****         {
1285:.\Generated_Source\PSoC5/UART_1.c ****             size = 0u;
1286:.\Generated_Source\PSoC5/UART_1.c ****         }
1287:.\Generated_Source\PSoC5/UART_1.c ****         else if(UART_1_txBufferRead < UART_1_txBufferWrite)
1288:.\Generated_Source\PSoC5/UART_1.c ****         {
1289:.\Generated_Source\PSoC5/UART_1.c ****             size = (UART_1_txBufferWrite - UART_1_txBufferRead);
1290:.\Generated_Source\PSoC5/UART_1.c ****         }
1291:.\Generated_Source\PSoC5/UART_1.c ****         else
1292:.\Generated_Source\PSoC5/UART_1.c ****         {
1293:.\Generated_Source\PSoC5/UART_1.c ****             size = (UART_1_TX_BUFFER_SIZE - UART_1_txBufferRead) +
1294:.\Generated_Source\PSoC5/UART_1.c ****                     UART_1_txBufferWrite;
1295:.\Generated_Source\PSoC5/UART_1.c ****         }
1296:.\Generated_Source\PSoC5/UART_1.c **** 
1297:.\Generated_Source\PSoC5/UART_1.c ****         UART_1_EnableTxInt();
1298:.\Generated_Source\PSoC5/UART_1.c **** 
1299:.\Generated_Source\PSoC5/UART_1.c ****     #else
1300:.\Generated_Source\PSoC5/UART_1.c **** 
1301:.\Generated_Source\PSoC5/UART_1.c ****         size = UART_1_TXSTATUS_REG;
 1074              		.loc 1 1301 0
 1075 0000 054B     		ldr	r3, .L119
 1076 0002 1878     		ldrb	r0, [r3]	@ zero_extendqisi2
ARM GAS  C:\Users\Patrick\AppData\Local\Temp\ccMAZXgj.s 			page 44


 1077 0004 C0B2     		uxtb	r0, r0
 1078              	.LVL51:
1302:.\Generated_Source\PSoC5/UART_1.c **** 
1303:.\Generated_Source\PSoC5/UART_1.c ****         /* Is the fifo is full. */
1304:.\Generated_Source\PSoC5/UART_1.c ****         if((size & UART_1_TX_STS_FIFO_FULL) != 0u)
 1079              		.loc 1 1304 0
 1080 0006 4307     		lsls	r3, r0, #29
1305:.\Generated_Source\PSoC5/UART_1.c ****         {
1306:.\Generated_Source\PSoC5/UART_1.c ****             size = UART_1_FIFO_LENGTH;
1307:.\Generated_Source\PSoC5/UART_1.c ****         }
1308:.\Generated_Source\PSoC5/UART_1.c ****         else if((size & UART_1_TX_STS_FIFO_EMPTY) != 0u)
 1081              		.loc 1 1308 0
 1082 0008 5ABF     		itte	pl
 1083 000a 80F00200 		eorpl	r0, r0, #2
 1084              	.LVL52:
 1085 000e C0F34000 		ubfxpl	r0, r0, #1, #1
1306:.\Generated_Source\PSoC5/UART_1.c ****         }
 1086              		.loc 1 1306 0
 1087 0012 0420     		movmi	r0, #4
 1088              	.LVL53:
1309:.\Generated_Source\PSoC5/UART_1.c ****         {
1310:.\Generated_Source\PSoC5/UART_1.c ****             size = 0u;
1311:.\Generated_Source\PSoC5/UART_1.c ****         }
1312:.\Generated_Source\PSoC5/UART_1.c ****         else
1313:.\Generated_Source\PSoC5/UART_1.c ****         {
1314:.\Generated_Source\PSoC5/UART_1.c ****             /* We only know there is data in the fifo. */
1315:.\Generated_Source\PSoC5/UART_1.c ****             size = 1u;
1316:.\Generated_Source\PSoC5/UART_1.c ****         }
1317:.\Generated_Source\PSoC5/UART_1.c **** 
1318:.\Generated_Source\PSoC5/UART_1.c ****     #endif /* (UART_1_TX_INTERRUPT_ENABLED) */
1319:.\Generated_Source\PSoC5/UART_1.c **** 
1320:.\Generated_Source\PSoC5/UART_1.c ****     return(size);
1321:.\Generated_Source\PSoC5/UART_1.c ****     }
 1089              		.loc 1 1321 0
 1090 0014 7047     		bx	lr
 1091              	.L120:
 1092 0016 00BF     		.align	2
 1093              	.L119:
 1094 0018 68640040 		.word	1073767528
 1095              		.cfi_endproc
 1096              	.LFE23:
 1097              		.size	UART_1_GetTxBufferSize, .-UART_1_GetTxBufferSize
 1098              		.section	.text.UART_1_ClearTxBuffer,"ax",%progbits
 1099              		.align	2
 1100              		.global	UART_1_ClearTxBuffer
 1101              		.thumb
 1102              		.thumb_func
 1103              		.type	UART_1_ClearTxBuffer, %function
 1104              	UART_1_ClearTxBuffer:
 1105              	.LFB24:
1322:.\Generated_Source\PSoC5/UART_1.c **** 
1323:.\Generated_Source\PSoC5/UART_1.c **** 
1324:.\Generated_Source\PSoC5/UART_1.c ****     /*******************************************************************************
1325:.\Generated_Source\PSoC5/UART_1.c ****     * Function Name: UART_1_ClearTxBuffer
1326:.\Generated_Source\PSoC5/UART_1.c ****     ********************************************************************************
1327:.\Generated_Source\PSoC5/UART_1.c ****     *
1328:.\Generated_Source\PSoC5/UART_1.c ****     * Summary:
ARM GAS  C:\Users\Patrick\AppData\Local\Temp\ccMAZXgj.s 			page 45


1329:.\Generated_Source\PSoC5/UART_1.c ****     *  Clears all data from the TX buffer and hardware TX FIFO.
1330:.\Generated_Source\PSoC5/UART_1.c ****     *
1331:.\Generated_Source\PSoC5/UART_1.c ****     * Parameters:
1332:.\Generated_Source\PSoC5/UART_1.c ****     *  None.
1333:.\Generated_Source\PSoC5/UART_1.c ****     *
1334:.\Generated_Source\PSoC5/UART_1.c ****     * Return:
1335:.\Generated_Source\PSoC5/UART_1.c ****     *  None.
1336:.\Generated_Source\PSoC5/UART_1.c ****     *
1337:.\Generated_Source\PSoC5/UART_1.c ****     * Global Variables:
1338:.\Generated_Source\PSoC5/UART_1.c ****     *  UART_1_txBufferWrite - cleared to zero.
1339:.\Generated_Source\PSoC5/UART_1.c ****     *  UART_1_txBufferRead - cleared to zero.
1340:.\Generated_Source\PSoC5/UART_1.c ****     *
1341:.\Generated_Source\PSoC5/UART_1.c ****     * Reentrant:
1342:.\Generated_Source\PSoC5/UART_1.c ****     *  No.
1343:.\Generated_Source\PSoC5/UART_1.c ****     *
1344:.\Generated_Source\PSoC5/UART_1.c ****     * Theory:
1345:.\Generated_Source\PSoC5/UART_1.c ****     *  Setting the pointers to zero makes the system believe there is no data to
1346:.\Generated_Source\PSoC5/UART_1.c ****     *  read and writing will resume at address 0 overwriting any data that may have
1347:.\Generated_Source\PSoC5/UART_1.c ****     *  remained in the RAM.
1348:.\Generated_Source\PSoC5/UART_1.c ****     *
1349:.\Generated_Source\PSoC5/UART_1.c ****     * Side Effects:
1350:.\Generated_Source\PSoC5/UART_1.c ****     *  Data waiting in the transmit buffer is not sent; a byte that is currently
1351:.\Generated_Source\PSoC5/UART_1.c ****     *  transmitting finishes transmitting.
1352:.\Generated_Source\PSoC5/UART_1.c ****     *
1353:.\Generated_Source\PSoC5/UART_1.c ****     *******************************************************************************/
1354:.\Generated_Source\PSoC5/UART_1.c ****     void UART_1_ClearTxBuffer(void) 
1355:.\Generated_Source\PSoC5/UART_1.c ****     {
 1106              		.loc 1 1355 0
 1107              		.cfi_startproc
 1108              		@ args = 0, pretend = 0, frame = 0
 1109              		@ frame_needed = 0, uses_anonymous_args = 0
 1110 0000 08B5     		push	{r3, lr}
 1111              		.cfi_def_cfa_offset 8
 1112              		.cfi_offset 3, -8
 1113              		.cfi_offset 14, -4
1356:.\Generated_Source\PSoC5/UART_1.c ****         uint8 enableInterrupts;
1357:.\Generated_Source\PSoC5/UART_1.c **** 
1358:.\Generated_Source\PSoC5/UART_1.c ****         enableInterrupts = CyEnterCriticalSection();
 1114              		.loc 1 1358 0
 1115 0002 FFF7FEFF 		bl	CyEnterCriticalSection
 1116              	.LVL54:
1359:.\Generated_Source\PSoC5/UART_1.c ****         /* Clear the HW FIFO */
1360:.\Generated_Source\PSoC5/UART_1.c ****         UART_1_TXDATA_AUX_CTL_REG |= (uint8)  UART_1_TX_FIFO_CLR;
 1117              		.loc 1 1360 0
 1118 0006 064B     		ldr	r3, .L123
 1119 0008 1A78     		ldrb	r2, [r3]	@ zero_extendqisi2
 1120 000a 42F00102 		orr	r2, r2, #1
 1121 000e 1A70     		strb	r2, [r3]
1361:.\Generated_Source\PSoC5/UART_1.c ****         UART_1_TXDATA_AUX_CTL_REG &= (uint8) ~UART_1_TX_FIFO_CLR;
 1122              		.loc 1 1361 0
 1123 0010 1A78     		ldrb	r2, [r3]	@ zero_extendqisi2
 1124 0012 02F0FE02 		and	r2, r2, #254
 1125 0016 1A70     		strb	r2, [r3]
1362:.\Generated_Source\PSoC5/UART_1.c ****         CyExitCriticalSection(enableInterrupts);
1363:.\Generated_Source\PSoC5/UART_1.c **** 
1364:.\Generated_Source\PSoC5/UART_1.c ****     #if (UART_1_TX_INTERRUPT_ENABLED)
1365:.\Generated_Source\PSoC5/UART_1.c **** 
ARM GAS  C:\Users\Patrick\AppData\Local\Temp\ccMAZXgj.s 			page 46


1366:.\Generated_Source\PSoC5/UART_1.c ****         /* Protect variables that could change on interrupt. */
1367:.\Generated_Source\PSoC5/UART_1.c ****         UART_1_DisableTxInt();
1368:.\Generated_Source\PSoC5/UART_1.c **** 
1369:.\Generated_Source\PSoC5/UART_1.c ****         UART_1_txBufferRead = 0u;
1370:.\Generated_Source\PSoC5/UART_1.c ****         UART_1_txBufferWrite = 0u;
1371:.\Generated_Source\PSoC5/UART_1.c **** 
1372:.\Generated_Source\PSoC5/UART_1.c ****         /* Enable Tx interrupt. */
1373:.\Generated_Source\PSoC5/UART_1.c ****         UART_1_EnableTxInt();
1374:.\Generated_Source\PSoC5/UART_1.c **** 
1375:.\Generated_Source\PSoC5/UART_1.c ****     #endif /* (UART_1_TX_INTERRUPT_ENABLED) */
1376:.\Generated_Source\PSoC5/UART_1.c ****     }
 1126              		.loc 1 1376 0
 1127 0018 BDE80840 		pop	{r3, lr}
 1128              		.cfi_restore 14
 1129              		.cfi_restore 3
 1130              		.cfi_def_cfa_offset 0
1362:.\Generated_Source\PSoC5/UART_1.c ****         CyExitCriticalSection(enableInterrupts);
 1131              		.loc 1 1362 0
 1132 001c FFF7FEBF 		b	CyExitCriticalSection
 1133              	.LVL55:
 1134              	.L124:
 1135              		.align	2
 1136              	.L123:
 1137 0020 98650040 		.word	1073767832
 1138              		.cfi_endproc
 1139              	.LFE24:
 1140              		.size	UART_1_ClearTxBuffer, .-UART_1_ClearTxBuffer
 1141              		.section	.text.UART_1_SendBreak,"ax",%progbits
 1142              		.align	2
 1143              		.global	UART_1_SendBreak
 1144              		.thumb
 1145              		.thumb_func
 1146              		.type	UART_1_SendBreak, %function
 1147              	UART_1_SendBreak:
 1148              	.LFB25:
1377:.\Generated_Source\PSoC5/UART_1.c **** 
1378:.\Generated_Source\PSoC5/UART_1.c **** 
1379:.\Generated_Source\PSoC5/UART_1.c ****     /*******************************************************************************
1380:.\Generated_Source\PSoC5/UART_1.c ****     * Function Name: UART_1_SendBreak
1381:.\Generated_Source\PSoC5/UART_1.c ****     ********************************************************************************
1382:.\Generated_Source\PSoC5/UART_1.c ****     *
1383:.\Generated_Source\PSoC5/UART_1.c ****     * Summary:
1384:.\Generated_Source\PSoC5/UART_1.c ****     *  Transmits a break signal on the bus.
1385:.\Generated_Source\PSoC5/UART_1.c ****     *
1386:.\Generated_Source\PSoC5/UART_1.c ****     * Parameters:
1387:.\Generated_Source\PSoC5/UART_1.c ****     *  uint8 retMode:  Send Break return mode. See the following table for options.
1388:.\Generated_Source\PSoC5/UART_1.c ****     *   UART_1_SEND_BREAK - Initialize registers for break, send the Break
1389:.\Generated_Source\PSoC5/UART_1.c ****     *       signal and return immediately.
1390:.\Generated_Source\PSoC5/UART_1.c ****     *   UART_1_WAIT_FOR_COMPLETE_REINIT - Wait until break transmission is
1391:.\Generated_Source\PSoC5/UART_1.c ****     *       complete, reinitialize registers to normal transmission mode then return
1392:.\Generated_Source\PSoC5/UART_1.c ****     *   UART_1_REINIT - Reinitialize registers to normal transmission mode
1393:.\Generated_Source\PSoC5/UART_1.c ****     *       then return.
1394:.\Generated_Source\PSoC5/UART_1.c ****     *   UART_1_SEND_WAIT_REINIT - Performs both options: 
1395:.\Generated_Source\PSoC5/UART_1.c ****     *      UART_1_SEND_BREAK and UART_1_WAIT_FOR_COMPLETE_REINIT.
1396:.\Generated_Source\PSoC5/UART_1.c ****     *      This option is recommended for most cases.
1397:.\Generated_Source\PSoC5/UART_1.c ****     *
1398:.\Generated_Source\PSoC5/UART_1.c ****     * Return:
ARM GAS  C:\Users\Patrick\AppData\Local\Temp\ccMAZXgj.s 			page 47


1399:.\Generated_Source\PSoC5/UART_1.c ****     *  None.
1400:.\Generated_Source\PSoC5/UART_1.c ****     *
1401:.\Generated_Source\PSoC5/UART_1.c ****     * Global Variables:
1402:.\Generated_Source\PSoC5/UART_1.c ****     *  UART_1_initVar - checked to identify that the component has been
1403:.\Generated_Source\PSoC5/UART_1.c ****     *     initialized.
1404:.\Generated_Source\PSoC5/UART_1.c ****     *  txPeriod - static variable, used for keeping TX period configuration.
1405:.\Generated_Source\PSoC5/UART_1.c ****     *
1406:.\Generated_Source\PSoC5/UART_1.c ****     * Reentrant:
1407:.\Generated_Source\PSoC5/UART_1.c ****     *  No.
1408:.\Generated_Source\PSoC5/UART_1.c ****     *
1409:.\Generated_Source\PSoC5/UART_1.c ****     * Theory:
1410:.\Generated_Source\PSoC5/UART_1.c ****     *  SendBreak function initializes registers to send 13-bit break signal. It is
1411:.\Generated_Source\PSoC5/UART_1.c ****     *  important to return the registers configuration to normal for continue 8-bit
1412:.\Generated_Source\PSoC5/UART_1.c ****     *  operation.
1413:.\Generated_Source\PSoC5/UART_1.c ****     *  There are 3 variants for this API usage:
1414:.\Generated_Source\PSoC5/UART_1.c ****     *  1) SendBreak(3) - function will send the Break signal and take care on the
1415:.\Generated_Source\PSoC5/UART_1.c ****     *     configuration returning. Function will block CPU until transmission
1416:.\Generated_Source\PSoC5/UART_1.c ****     *     complete.
1417:.\Generated_Source\PSoC5/UART_1.c ****     *  2) User may want to use blocking time if UART configured to the low speed
1418:.\Generated_Source\PSoC5/UART_1.c ****     *     operation
1419:.\Generated_Source\PSoC5/UART_1.c ****     *     Example for this case:
1420:.\Generated_Source\PSoC5/UART_1.c ****     *     SendBreak(0);     - initialize Break signal transmission
1421:.\Generated_Source\PSoC5/UART_1.c ****     *         Add your code here to use CPU time
1422:.\Generated_Source\PSoC5/UART_1.c ****     *     SendBreak(1);     - complete Break operation
1423:.\Generated_Source\PSoC5/UART_1.c ****     *  3) Same to 2) but user may want to initialize and use the interrupt to
1424:.\Generated_Source\PSoC5/UART_1.c ****     *     complete break operation.
1425:.\Generated_Source\PSoC5/UART_1.c ****     *     Example for this case:
1426:.\Generated_Source\PSoC5/UART_1.c ****     *     Initialize TX interrupt with "TX - On TX Complete" parameter
1427:.\Generated_Source\PSoC5/UART_1.c ****     *     SendBreak(0);     - initialize Break signal transmission
1428:.\Generated_Source\PSoC5/UART_1.c ****     *         Add your code here to use CPU time
1429:.\Generated_Source\PSoC5/UART_1.c ****     *     When interrupt appear with UART_1_TX_STS_COMPLETE status:
1430:.\Generated_Source\PSoC5/UART_1.c ****     *     SendBreak(2);     - complete Break operation
1431:.\Generated_Source\PSoC5/UART_1.c ****     *
1432:.\Generated_Source\PSoC5/UART_1.c ****     * Side Effects:
1433:.\Generated_Source\PSoC5/UART_1.c ****     *  The UART_1_SendBreak() function initializes registers to send a
1434:.\Generated_Source\PSoC5/UART_1.c ****     *  break signal.
1435:.\Generated_Source\PSoC5/UART_1.c ****     *  Break signal length depends on the break signal bits configuration.
1436:.\Generated_Source\PSoC5/UART_1.c ****     *  The register configuration should be reinitialized before normal 8-bit
1437:.\Generated_Source\PSoC5/UART_1.c ****     *  communication can continue.
1438:.\Generated_Source\PSoC5/UART_1.c ****     *
1439:.\Generated_Source\PSoC5/UART_1.c ****     *******************************************************************************/
1440:.\Generated_Source\PSoC5/UART_1.c ****     void UART_1_SendBreak(uint8 retMode) 
1441:.\Generated_Source\PSoC5/UART_1.c ****     {
 1149              		.loc 1 1441 0
 1150              		.cfi_startproc
 1151              		@ args = 0, pretend = 0, frame = 0
 1152              		@ frame_needed = 0, uses_anonymous_args = 0
 1153              		@ link register save eliminated.
 1154              	.LVL56:
1442:.\Generated_Source\PSoC5/UART_1.c **** 
1443:.\Generated_Source\PSoC5/UART_1.c ****         /* If not Initialized then skip this function*/
1444:.\Generated_Source\PSoC5/UART_1.c ****         if(UART_1_initVar != 0u)
 1155              		.loc 1 1444 0
 1156 0000 1249     		ldr	r1, .L151
 1157 0002 0B78     		ldrb	r3, [r1]	@ zero_extendqisi2
 1158 0004 C3B1     		cbz	r3, .L149
1441:.\Generated_Source\PSoC5/UART_1.c **** 
ARM GAS  C:\Users\Patrick\AppData\Local\Temp\ccMAZXgj.s 			page 48


 1159              		.loc 1 1441 0
 1160 0006 F0B4     		push	{r4, r5, r6, r7}
 1161              		.cfi_def_cfa_offset 16
 1162              		.cfi_offset 4, -16
 1163              		.cfi_offset 5, -12
 1164              		.cfi_offset 6, -8
 1165              		.cfi_offset 7, -4
 1166              	.LBB64:
1445:.\Generated_Source\PSoC5/UART_1.c ****         {
1446:.\Generated_Source\PSoC5/UART_1.c ****             /* Set the Counter to 13-bits and transmit a 00 byte */
1447:.\Generated_Source\PSoC5/UART_1.c ****             /* When that is done then reset the counter value back */
1448:.\Generated_Source\PSoC5/UART_1.c ****             uint8 tmpStat;
1449:.\Generated_Source\PSoC5/UART_1.c **** 
1450:.\Generated_Source\PSoC5/UART_1.c ****         #if(UART_1_HD_ENABLED) /* Half Duplex mode*/
1451:.\Generated_Source\PSoC5/UART_1.c **** 
1452:.\Generated_Source\PSoC5/UART_1.c ****             if( (retMode == UART_1_SEND_BREAK) ||
1453:.\Generated_Source\PSoC5/UART_1.c ****                 (retMode == UART_1_SEND_WAIT_REINIT ) )
1454:.\Generated_Source\PSoC5/UART_1.c ****             {
1455:.\Generated_Source\PSoC5/UART_1.c ****                 /* CTRL_HD_SEND_BREAK - sends break bits in HD mode */
1456:.\Generated_Source\PSoC5/UART_1.c ****                 UART_1_WriteControlRegister(UART_1_ReadControlRegister() |
1457:.\Generated_Source\PSoC5/UART_1.c ****                                                       UART_1_CTRL_HD_SEND_BREAK);
1458:.\Generated_Source\PSoC5/UART_1.c ****                 /* Send zeros */
1459:.\Generated_Source\PSoC5/UART_1.c ****                 UART_1_TXDATA_REG = 0u;
1460:.\Generated_Source\PSoC5/UART_1.c **** 
1461:.\Generated_Source\PSoC5/UART_1.c ****                 do /* Wait until transmit starts */
1462:.\Generated_Source\PSoC5/UART_1.c ****                 {
1463:.\Generated_Source\PSoC5/UART_1.c ****                     tmpStat = UART_1_TXSTATUS_REG;
1464:.\Generated_Source\PSoC5/UART_1.c ****                 }
1465:.\Generated_Source\PSoC5/UART_1.c ****                 while((tmpStat & UART_1_TX_STS_FIFO_EMPTY) != 0u);
1466:.\Generated_Source\PSoC5/UART_1.c ****             }
1467:.\Generated_Source\PSoC5/UART_1.c **** 
1468:.\Generated_Source\PSoC5/UART_1.c ****             if( (retMode == UART_1_WAIT_FOR_COMPLETE_REINIT) ||
1469:.\Generated_Source\PSoC5/UART_1.c ****                 (retMode == UART_1_SEND_WAIT_REINIT) )
1470:.\Generated_Source\PSoC5/UART_1.c ****             {
1471:.\Generated_Source\PSoC5/UART_1.c ****                 do /* Wait until transmit complete */
1472:.\Generated_Source\PSoC5/UART_1.c ****                 {
1473:.\Generated_Source\PSoC5/UART_1.c ****                     tmpStat = UART_1_TXSTATUS_REG;
1474:.\Generated_Source\PSoC5/UART_1.c ****                 }
1475:.\Generated_Source\PSoC5/UART_1.c ****                 while(((uint8)~tmpStat & UART_1_TX_STS_COMPLETE) != 0u);
1476:.\Generated_Source\PSoC5/UART_1.c ****             }
1477:.\Generated_Source\PSoC5/UART_1.c **** 
1478:.\Generated_Source\PSoC5/UART_1.c ****             if( (retMode == UART_1_WAIT_FOR_COMPLETE_REINIT) ||
1479:.\Generated_Source\PSoC5/UART_1.c ****                 (retMode == UART_1_REINIT) ||
1480:.\Generated_Source\PSoC5/UART_1.c ****                 (retMode == UART_1_SEND_WAIT_REINIT) )
1481:.\Generated_Source\PSoC5/UART_1.c ****             {
1482:.\Generated_Source\PSoC5/UART_1.c ****                 UART_1_WriteControlRegister(UART_1_ReadControlRegister() &
1483:.\Generated_Source\PSoC5/UART_1.c ****                                               (uint8)~UART_1_CTRL_HD_SEND_BREAK);
1484:.\Generated_Source\PSoC5/UART_1.c ****             }
1485:.\Generated_Source\PSoC5/UART_1.c **** 
1486:.\Generated_Source\PSoC5/UART_1.c ****         #else /* UART_1_HD_ENABLED Full Duplex mode */
1487:.\Generated_Source\PSoC5/UART_1.c **** 
1488:.\Generated_Source\PSoC5/UART_1.c ****             static uint8 txPeriod;
1489:.\Generated_Source\PSoC5/UART_1.c **** 
1490:.\Generated_Source\PSoC5/UART_1.c ****             if( (retMode == UART_1_SEND_BREAK) ||
 1167              		.loc 1 1490 0
 1168 0008 B8B9     		cbnz	r0, .L150
 1169              	.L128:
ARM GAS  C:\Users\Patrick\AppData\Local\Temp\ccMAZXgj.s 			page 49


1491:.\Generated_Source\PSoC5/UART_1.c ****                 (retMode == UART_1_SEND_WAIT_REINIT) )
1492:.\Generated_Source\PSoC5/UART_1.c ****             {
1493:.\Generated_Source\PSoC5/UART_1.c ****                 /* CTRL_HD_SEND_BREAK - skip to send parity bit at Break signal in Full Duplex mode
1494:.\Generated_Source\PSoC5/UART_1.c ****                 #if( (UART_1_PARITY_TYPE != UART_1__B_UART__NONE_REVB) || \
1495:.\Generated_Source\PSoC5/UART_1.c ****                                     (UART_1_PARITY_TYPE_SW != 0u) )
1496:.\Generated_Source\PSoC5/UART_1.c ****                     UART_1_WriteControlRegister(UART_1_ReadControlRegister() |
1497:.\Generated_Source\PSoC5/UART_1.c ****                                                           UART_1_CTRL_HD_SEND_BREAK);
1498:.\Generated_Source\PSoC5/UART_1.c ****                 #endif /* End UART_1_PARITY_TYPE != UART_1__B_UART__NONE_REVB  */
1499:.\Generated_Source\PSoC5/UART_1.c **** 
1500:.\Generated_Source\PSoC5/UART_1.c ****                 #if(UART_1_TXCLKGEN_DP)
1501:.\Generated_Source\PSoC5/UART_1.c ****                     txPeriod = UART_1_TXBITCLKTX_COMPLETE_REG;
 1170              		.loc 1 1501 0
 1171 000a 114B     		ldr	r3, .L151+4
1502:.\Generated_Source\PSoC5/UART_1.c ****                     UART_1_TXBITCLKTX_COMPLETE_REG = UART_1_TXBITCTR_BREAKBITS;
1503:.\Generated_Source\PSoC5/UART_1.c ****                 #else
1504:.\Generated_Source\PSoC5/UART_1.c ****                     txPeriod = UART_1_TXBITCTR_PERIOD_REG;
1505:.\Generated_Source\PSoC5/UART_1.c ****                     UART_1_TXBITCTR_PERIOD_REG = UART_1_TXBITCTR_BREAKBITS8X;
1506:.\Generated_Source\PSoC5/UART_1.c ****                 #endif /* End UART_1_TXCLKGEN_DP */
1507:.\Generated_Source\PSoC5/UART_1.c **** 
1508:.\Generated_Source\PSoC5/UART_1.c ****                 /* Send zeros */
1509:.\Generated_Source\PSoC5/UART_1.c ****                 UART_1_TXDATA_REG = 0u;
 1172              		.loc 1 1509 0
 1173 000c 114C     		ldr	r4, .L151+8
1501:.\Generated_Source\PSoC5/UART_1.c ****                     UART_1_TXBITCLKTX_COMPLETE_REG = UART_1_TXBITCTR_BREAKBITS;
 1174              		.loc 1 1501 0
 1175 000e 1F78     		ldrb	r7, [r3]	@ zero_extendqisi2
1502:.\Generated_Source\PSoC5/UART_1.c ****                     UART_1_TXBITCLKTX_COMPLETE_REG = UART_1_TXBITCTR_BREAKBITS;
 1176              		.loc 1 1502 0
 1177 0010 6726     		movs	r6, #103
 1178              		.loc 1 1509 0
 1179 0012 0025     		movs	r5, #0
1510:.\Generated_Source\PSoC5/UART_1.c **** 
1511:.\Generated_Source\PSoC5/UART_1.c ****                 do /* Wait until transmit starts */
1512:.\Generated_Source\PSoC5/UART_1.c ****                 {
1513:.\Generated_Source\PSoC5/UART_1.c ****                     tmpStat = UART_1_TXSTATUS_REG;
 1180              		.loc 1 1513 0
 1181 0014 104A     		ldr	r2, .L151+12
1501:.\Generated_Source\PSoC5/UART_1.c ****                     UART_1_TXBITCLKTX_COMPLETE_REG = UART_1_TXBITCTR_BREAKBITS;
 1182              		.loc 1 1501 0
 1183 0016 4F70     		strb	r7, [r1, #1]
1502:.\Generated_Source\PSoC5/UART_1.c ****                 #else
 1184              		.loc 1 1502 0
 1185 0018 1E70     		strb	r6, [r3]
1509:.\Generated_Source\PSoC5/UART_1.c **** 
 1186              		.loc 1 1509 0
 1187 001a 2570     		strb	r5, [r4]
 1188              	.L130:
 1189              		.loc 1 1513 0 discriminator 1
 1190 001c 1378     		ldrb	r3, [r2]	@ zero_extendqisi2
 1191              	.LVL57:
1514:.\Generated_Source\PSoC5/UART_1.c ****                 }
1515:.\Generated_Source\PSoC5/UART_1.c ****                 while((tmpStat & UART_1_TX_STS_FIFO_EMPTY) != 0u);
 1192              		.loc 1 1515 0 discriminator 1
 1193 001e 9C07     		lsls	r4, r3, #30
 1194 0020 FCD4     		bmi	.L130
1516:.\Generated_Source\PSoC5/UART_1.c ****             }
1517:.\Generated_Source\PSoC5/UART_1.c **** 
ARM GAS  C:\Users\Patrick\AppData\Local\Temp\ccMAZXgj.s 			page 50


1518:.\Generated_Source\PSoC5/UART_1.c ****             if( (retMode == UART_1_WAIT_FOR_COMPLETE_REINIT) ||
 1195              		.loc 1 1518 0
 1196 0022 00F0FD03 		and	r3, r0, #253
 1197              	.LVL58:
 1198 0026 012B     		cmp	r3, #1
 1199 0028 0BD0     		beq	.L131
 1200              	.L135:
1519:.\Generated_Source\PSoC5/UART_1.c ****                 (retMode == UART_1_SEND_WAIT_REINIT) )
1520:.\Generated_Source\PSoC5/UART_1.c ****             {
1521:.\Generated_Source\PSoC5/UART_1.c ****                 do /* Wait until transmit complete */
1522:.\Generated_Source\PSoC5/UART_1.c ****                 {
1523:.\Generated_Source\PSoC5/UART_1.c ****                     tmpStat = UART_1_TXSTATUS_REG;
1524:.\Generated_Source\PSoC5/UART_1.c ****                 }
1525:.\Generated_Source\PSoC5/UART_1.c ****                 while(((uint8)~tmpStat & UART_1_TX_STS_COMPLETE) != 0u);
1526:.\Generated_Source\PSoC5/UART_1.c ****             }
1527:.\Generated_Source\PSoC5/UART_1.c **** 
1528:.\Generated_Source\PSoC5/UART_1.c ****             if( (retMode == UART_1_WAIT_FOR_COMPLETE_REINIT) ||
 1201              		.loc 1 1528 0
 1202 002a 0138     		subs	r0, r0, #1
 1203              	.LVL59:
 1204 002c 0228     		cmp	r0, #2
 1205 002e 02D8     		bhi	.L125
1529:.\Generated_Source\PSoC5/UART_1.c ****                 (retMode == UART_1_REINIT) ||
1530:.\Generated_Source\PSoC5/UART_1.c ****                 (retMode == UART_1_SEND_WAIT_REINIT) )
1531:.\Generated_Source\PSoC5/UART_1.c ****             {
1532:.\Generated_Source\PSoC5/UART_1.c **** 
1533:.\Generated_Source\PSoC5/UART_1.c ****             #if(UART_1_TXCLKGEN_DP)
1534:.\Generated_Source\PSoC5/UART_1.c ****                 UART_1_TXBITCLKTX_COMPLETE_REG = txPeriod;
 1206              		.loc 1 1534 0
 1207 0030 4A78     		ldrb	r2, [r1, #1]	@ zero_extendqisi2
 1208 0032 074B     		ldr	r3, .L151+4
 1209 0034 1A70     		strb	r2, [r3]
 1210              	.L125:
 1211              	.LBE64:
1535:.\Generated_Source\PSoC5/UART_1.c ****             #else
1536:.\Generated_Source\PSoC5/UART_1.c ****                 UART_1_TXBITCTR_PERIOD_REG = txPeriod;
1537:.\Generated_Source\PSoC5/UART_1.c ****             #endif /* End UART_1_TXCLKGEN_DP */
1538:.\Generated_Source\PSoC5/UART_1.c **** 
1539:.\Generated_Source\PSoC5/UART_1.c ****             #if( (UART_1_PARITY_TYPE != UART_1__B_UART__NONE_REVB) || \
1540:.\Generated_Source\PSoC5/UART_1.c ****                  (UART_1_PARITY_TYPE_SW != 0u) )
1541:.\Generated_Source\PSoC5/UART_1.c ****                 UART_1_WriteControlRegister(UART_1_ReadControlRegister() &
1542:.\Generated_Source\PSoC5/UART_1.c ****                                                       (uint8) ~UART_1_CTRL_HD_SEND_BREAK);
1543:.\Generated_Source\PSoC5/UART_1.c ****             #endif /* End UART_1_PARITY_TYPE != NONE */
1544:.\Generated_Source\PSoC5/UART_1.c ****             }
1545:.\Generated_Source\PSoC5/UART_1.c ****         #endif    /* End UART_1_HD_ENABLED */
1546:.\Generated_Source\PSoC5/UART_1.c ****         }
1547:.\Generated_Source\PSoC5/UART_1.c ****     }
 1212              		.loc 1 1547 0
 1213 0036 F0BC     		pop	{r4, r5, r6, r7}
 1214              		.cfi_restore 7
 1215              		.cfi_restore 6
 1216              		.cfi_restore 5
 1217              		.cfi_restore 4
 1218              		.cfi_def_cfa_offset 0
 1219              	.L149:
 1220 0038 7047     		bx	lr
 1221              	.LVL60:
ARM GAS  C:\Users\Patrick\AppData\Local\Temp\ccMAZXgj.s 			page 51


 1222              	.L150:
 1223              		.cfi_def_cfa_offset 16
 1224              		.cfi_offset 4, -16
 1225              		.cfi_offset 5, -12
 1226              		.cfi_offset 6, -8
 1227              		.cfi_offset 7, -4
 1228              	.LBB65:
1490:.\Generated_Source\PSoC5/UART_1.c ****                 (retMode == UART_1_SEND_WAIT_REINIT) )
 1229              		.loc 1 1490 0 discriminator 1
 1230 003a 0328     		cmp	r0, #3
 1231 003c E5D0     		beq	.L128
1518:.\Generated_Source\PSoC5/UART_1.c ****                 (retMode == UART_1_SEND_WAIT_REINIT) )
 1232              		.loc 1 1518 0
 1233 003e 0128     		cmp	r0, #1
 1234 0040 F3D1     		bne	.L135
 1235              	.L131:
1523:.\Generated_Source\PSoC5/UART_1.c ****                 }
 1236              		.loc 1 1523 0
 1237 0042 054A     		ldr	r2, .L151+12
 1238              	.L134:
1523:.\Generated_Source\PSoC5/UART_1.c ****                 }
 1239              		.loc 1 1523 0 is_stmt 0 discriminator 1
 1240 0044 1378     		ldrb	r3, [r2]	@ zero_extendqisi2
 1241              	.LVL61:
1525:.\Generated_Source\PSoC5/UART_1.c ****             }
 1242              		.loc 1 1525 0 is_stmt 1 discriminator 1
 1243 0046 DB07     		lsls	r3, r3, #31
 1244              	.LVL62:
 1245 0048 FCD5     		bpl	.L134
 1246 004a EEE7     		b	.L135
 1247              	.L152:
 1248              		.align	2
 1249              	.L151:
 1250 004c 00000000 		.word	.LANCHOR0
 1251 0050 3A650040 		.word	1073767738
 1252 0054 48650040 		.word	1073767752
 1253 0058 68640040 		.word	1073767528
 1254              	.LBE65:
 1255              		.cfi_endproc
 1256              	.LFE25:
 1257              		.size	UART_1_SendBreak, .-UART_1_SendBreak
 1258              		.section	.text.UART_1_SetTxAddressMode,"ax",%progbits
 1259              		.align	2
 1260              		.global	UART_1_SetTxAddressMode
 1261              		.thumb
 1262              		.thumb_func
 1263              		.type	UART_1_SetTxAddressMode, %function
 1264              	UART_1_SetTxAddressMode:
 1265              	.LFB26:
1548:.\Generated_Source\PSoC5/UART_1.c **** 
1549:.\Generated_Source\PSoC5/UART_1.c **** 
1550:.\Generated_Source\PSoC5/UART_1.c ****     /*******************************************************************************
1551:.\Generated_Source\PSoC5/UART_1.c ****     * Function Name: UART_1_SetTxAddressMode
1552:.\Generated_Source\PSoC5/UART_1.c ****     ********************************************************************************
1553:.\Generated_Source\PSoC5/UART_1.c ****     *
1554:.\Generated_Source\PSoC5/UART_1.c ****     * Summary:
1555:.\Generated_Source\PSoC5/UART_1.c ****     *  Configures the transmitter to signal the next bytes is address or data.
ARM GAS  C:\Users\Patrick\AppData\Local\Temp\ccMAZXgj.s 			page 52


1556:.\Generated_Source\PSoC5/UART_1.c ****     *
1557:.\Generated_Source\PSoC5/UART_1.c ****     * Parameters:
1558:.\Generated_Source\PSoC5/UART_1.c ****     *  addressMode: 
1559:.\Generated_Source\PSoC5/UART_1.c ****     *       UART_1_SET_SPACE - Configure the transmitter to send the next
1560:.\Generated_Source\PSoC5/UART_1.c ****     *                                    byte as a data.
1561:.\Generated_Source\PSoC5/UART_1.c ****     *       UART_1_SET_MARK  - Configure the transmitter to send the next
1562:.\Generated_Source\PSoC5/UART_1.c ****     *                                    byte as an address.
1563:.\Generated_Source\PSoC5/UART_1.c ****     *
1564:.\Generated_Source\PSoC5/UART_1.c ****     * Return:
1565:.\Generated_Source\PSoC5/UART_1.c ****     *  None.
1566:.\Generated_Source\PSoC5/UART_1.c ****     *
1567:.\Generated_Source\PSoC5/UART_1.c ****     * Side Effects:
1568:.\Generated_Source\PSoC5/UART_1.c ****     *  This function sets and clears UART_1_CTRL_MARK bit in the Control
1569:.\Generated_Source\PSoC5/UART_1.c ****     *  register.
1570:.\Generated_Source\PSoC5/UART_1.c ****     *
1571:.\Generated_Source\PSoC5/UART_1.c ****     *******************************************************************************/
1572:.\Generated_Source\PSoC5/UART_1.c ****     void UART_1_SetTxAddressMode(uint8 addressMode) 
1573:.\Generated_Source\PSoC5/UART_1.c ****     {
 1266              		.loc 1 1573 0
 1267              		.cfi_startproc
 1268              		@ args = 0, pretend = 0, frame = 0
 1269              		@ frame_needed = 0, uses_anonymous_args = 0
 1270              		@ link register save eliminated.
 1271              	.LVL63:
 1272 0000 7047     		bx	lr
 1273              		.cfi_endproc
 1274              	.LFE26:
 1275              		.size	UART_1_SetTxAddressMode, .-UART_1_SetTxAddressMode
 1276              		.global	UART_1_initVar
 1277 0002 00BF     		.bss
 1278              		.set	.LANCHOR0,. + 0
 1279              		.type	UART_1_initVar, %object
 1280              		.size	UART_1_initVar, 1
 1281              	UART_1_initVar:
 1282 0000 00       		.space	1
 1283              		.type	txPeriod.4989, %object
 1284              		.size	txPeriod.4989, 1
 1285              	txPeriod.4989:
 1286 0001 00       		.space	1
 1287              		.text
 1288              	.Letext0:
 1289              		.file 2 ".\\Generated_Source\\PSoC5\\cytypes.h"
 1290              		.file 3 ".\\Generated_Source\\PSoC5\\UART_1_IntClock.h"
 1291              		.file 4 ".\\Generated_Source\\PSoC5\\CyLib.h"
 1292              		.section	.debug_info,"",%progbits
 1293              	.Ldebug_info0:
 1294 0000 DF060000 		.4byte	0x6df
 1295 0004 0400     		.2byte	0x4
 1296 0006 00000000 		.4byte	.Ldebug_abbrev0
 1297 000a 04       		.byte	0x4
 1298 000b 01       		.uleb128 0x1
 1299 000c 09040000 		.4byte	.LASF63
 1300 0010 01       		.byte	0x1
 1301 0011 05010000 		.4byte	.LASF64
 1302 0015 51030000 		.4byte	.LASF65
 1303 0019 08010000 		.4byte	.Ldebug_ranges0+0x108
 1304 001d 00000000 		.4byte	0
ARM GAS  C:\Users\Patrick\AppData\Local\Temp\ccMAZXgj.s 			page 53


 1305 0021 00000000 		.4byte	.Ldebug_line0
 1306 0025 02       		.uleb128 0x2
 1307 0026 01       		.byte	0x1
 1308 0027 06       		.byte	0x6
 1309 0028 B2000000 		.4byte	.LASF0
 1310 002c 02       		.uleb128 0x2
 1311 002d 01       		.byte	0x1
 1312 002e 08       		.byte	0x8
 1313 002f E1020000 		.4byte	.LASF1
 1314 0033 02       		.uleb128 0x2
 1315 0034 02       		.byte	0x2
 1316 0035 05       		.byte	0x5
 1317 0036 EF020000 		.4byte	.LASF2
 1318 003a 02       		.uleb128 0x2
 1319 003b 02       		.byte	0x2
 1320 003c 07       		.byte	0x7
 1321 003d A0010000 		.4byte	.LASF3
 1322 0041 02       		.uleb128 0x2
 1323 0042 04       		.byte	0x4
 1324 0043 05       		.byte	0x5
 1325 0044 D6000000 		.4byte	.LASF4
 1326 0048 02       		.uleb128 0x2
 1327 0049 04       		.byte	0x4
 1328 004a 07       		.byte	0x7
 1329 004b 72010000 		.4byte	.LASF5
 1330 004f 02       		.uleb128 0x2
 1331 0050 08       		.byte	0x8
 1332 0051 05       		.byte	0x5
 1333 0052 A4000000 		.4byte	.LASF6
 1334 0056 02       		.uleb128 0x2
 1335 0057 08       		.byte	0x8
 1336 0058 07       		.byte	0x7
 1337 0059 76000000 		.4byte	.LASF7
 1338 005d 03       		.uleb128 0x3
 1339 005e 04       		.byte	0x4
 1340 005f 05       		.byte	0x5
 1341 0060 696E7400 		.ascii	"int\000"
 1342 0064 02       		.uleb128 0x2
 1343 0065 04       		.byte	0x4
 1344 0066 07       		.byte	0x7
 1345 0067 51010000 		.4byte	.LASF8
 1346 006b 04       		.uleb128 0x4
 1347 006c EC000000 		.4byte	.LASF9
 1348 0070 02       		.byte	0x2
 1349 0071 9201     		.2byte	0x192
 1350 0073 2C000000 		.4byte	0x2c
 1351 0077 04       		.uleb128 0x4
 1352 0078 00000000 		.4byte	.LASF10
 1353 007c 02       		.byte	0x2
 1354 007d 9301     		.2byte	0x193
 1355 007f 3A000000 		.4byte	0x3a
 1356 0083 02       		.uleb128 0x2
 1357 0084 04       		.byte	0x4
 1358 0085 04       		.byte	0x4
 1359 0086 98020000 		.4byte	.LASF11
 1360 008a 02       		.uleb128 0x2
 1361 008b 08       		.byte	0x8
ARM GAS  C:\Users\Patrick\AppData\Local\Temp\ccMAZXgj.s 			page 54


 1362 008c 04       		.byte	0x4
 1363 008d F2000000 		.4byte	.LASF12
 1364 0091 04       		.uleb128 0x4
 1365 0092 A0030000 		.4byte	.LASF13
 1366 0096 02       		.byte	0x2
 1367 0097 A301     		.2byte	0x1a3
 1368 0099 9D000000 		.4byte	0x9d
 1369 009d 02       		.uleb128 0x2
 1370 009e 01       		.byte	0x1
 1371 009f 08       		.byte	0x8
 1372 00a0 4C030000 		.4byte	.LASF14
 1373 00a4 04       		.uleb128 0x4
 1374 00a5 DC020000 		.4byte	.LASF15
 1375 00a9 02       		.byte	0x2
 1376 00aa 3C02     		.2byte	0x23c
 1377 00ac B0000000 		.4byte	0xb0
 1378 00b0 05       		.uleb128 0x5
 1379 00b1 6B000000 		.4byte	0x6b
 1380 00b5 02       		.uleb128 0x2
 1381 00b6 04       		.byte	0x4
 1382 00b7 07       		.byte	0x7
 1383 00b8 3A020000 		.4byte	.LASF16
 1384 00bc 06       		.uleb128 0x6
 1385 00bd A6030000 		.4byte	.LASF59
 1386 00c1 01       		.byte	0x1
 1387 00c2 6A       		.byte	0x6a
 1388 00c3 01       		.byte	0x1
 1389 00c4 07       		.uleb128 0x7
 1390 00c5 F5030000 		.4byte	.LASF17
 1391 00c9 01       		.byte	0x1
 1392 00ca E501     		.2byte	0x1e5
 1393 00cc 6B000000 		.4byte	0x6b
 1394 00d0 01       		.byte	0x1
 1395 00d1 E2000000 		.4byte	0xe2
 1396 00d5 08       		.uleb128 0x8
 1397 00d6 C3030000 		.4byte	.LASF19
 1398 00da 01       		.byte	0x1
 1399 00db E701     		.2byte	0x1e7
 1400 00dd 6B000000 		.4byte	0x6b
 1401 00e1 00       		.byte	0
 1402 00e2 07       		.uleb128 0x7
 1403 00e3 64000000 		.4byte	.LASF18
 1404 00e7 01       		.byte	0x1
 1405 00e8 8801     		.2byte	0x188
 1406 00ea 6B000000 		.4byte	0x6b
 1407 00ee 01       		.byte	0x1
 1408 00ef 00010000 		.4byte	0x100
 1409 00f3 08       		.uleb128 0x8
 1410 00f4 45030000 		.4byte	.LASF20
 1411 00f8 01       		.byte	0x1
 1412 00f9 8A01     		.2byte	0x18a
 1413 00fb 6B000000 		.4byte	0x6b
 1414 00ff 00       		.byte	0
 1415 0100 09       		.uleb128 0x9
 1416 0101 3D000000 		.4byte	.LASF21
 1417 0105 01       		.byte	0x1
 1418 0106 1104     		.2byte	0x411
ARM GAS  C:\Users\Patrick\AppData\Local\Temp\ccMAZXgj.s 			page 55


 1419 0108 01       		.byte	0x1
 1420 0109 1A010000 		.4byte	0x11a
 1421 010d 0A       		.uleb128 0xa
 1422 010e 32000000 		.4byte	.LASF43
 1423 0112 01       		.byte	0x1
 1424 0113 1104     		.2byte	0x411
 1425 0115 6B000000 		.4byte	0x6b
 1426 0119 00       		.byte	0
 1427 011a 0B       		.uleb128 0xb
 1428 011b B3010000 		.4byte	.LASF22
 1429 011f 01       		.byte	0x1
 1430 0120 B7       		.byte	0xb7
 1431 0121 01       		.byte	0x1
 1432 0122 32010000 		.4byte	0x132
 1433 0126 0C       		.uleb128 0xc
 1434 0127 B2030000 		.4byte	.LASF23
 1435 012b 01       		.byte	0x1
 1436 012c B9       		.byte	0xb9
 1437 012d 6B000000 		.4byte	0x6b
 1438 0131 00       		.byte	0
 1439 0132 0D       		.uleb128 0xd
 1440 0133 DF000000 		.4byte	.LASF24
 1441 0137 01       		.byte	0x1
 1442 0138 4C       		.byte	0x4c
 1443 0139 00000000 		.4byte	.LFB0
 1444 013d 8C000000 		.4byte	.LFE0-.LFB0
 1445 0141 01       		.uleb128 0x1
 1446 0142 9C       		.byte	0x9c
 1447 0143 91010000 		.4byte	0x191
 1448 0147 0E       		.uleb128 0xe
 1449 0148 BC000000 		.4byte	0xbc
 1450 014c 0A000000 		.4byte	.LBB22
 1451 0150 00000000 		.4byte	.Ldebug_ranges0+0
 1452 0154 01       		.byte	0x1
 1453 0155 51       		.byte	0x51
 1454 0156 0F       		.uleb128 0xf
 1455 0157 1A010000 		.4byte	0x11a
 1456 015b 36000000 		.4byte	.LBB26
 1457 015f 18000000 		.4byte	.Ldebug_ranges0+0x18
 1458 0163 01       		.byte	0x1
 1459 0164 55       		.byte	0x55
 1460 0165 10       		.uleb128 0x10
 1461 0166 18000000 		.4byte	.Ldebug_ranges0+0x18
 1462 016a 11       		.uleb128 0x11
 1463 016b 26010000 		.4byte	0x126
 1464 016f 00000000 		.4byte	.LLST0
 1465 0173 12       		.uleb128 0x12
 1466 0174 3A000000 		.4byte	.LVL0
 1467 0178 B8060000 		.4byte	0x6b8
 1468 017c 12       		.uleb128 0x12
 1469 017d 5E000000 		.4byte	.LVL2
 1470 0181 C3060000 		.4byte	0x6c3
 1471 0185 13       		.uleb128 0x13
 1472 0186 68000000 		.4byte	.LVL4
 1473 018a CA060000 		.4byte	0x6ca
 1474 018e 00       		.byte	0
 1475 018f 00       		.byte	0
ARM GAS  C:\Users\Patrick\AppData\Local\Temp\ccMAZXgj.s 			page 56


 1476 0190 00       		.byte	0
 1477 0191 14       		.uleb128 0x14
 1478 0192 BC000000 		.4byte	0xbc
 1479 0196 00000000 		.4byte	.LFB1
 1480 019a 3C000000 		.4byte	.LFE1-.LFB1
 1481 019e 01       		.uleb128 0x1
 1482 019f 9C       		.byte	0x9c
 1483 01a0 15       		.uleb128 0x15
 1484 01a1 1A010000 		.4byte	0x11a
 1485 01a5 00000000 		.4byte	.LFB2
 1486 01a9 40000000 		.4byte	.LFE2-.LFB2
 1487 01ad 01       		.uleb128 0x1
 1488 01ae 9C       		.byte	0x9c
 1489 01af D8010000 		.4byte	0x1d8
 1490 01b3 11       		.uleb128 0x11
 1491 01b4 26010000 		.4byte	0x126
 1492 01b8 13000000 		.4byte	.LLST1
 1493 01bc 12       		.uleb128 0x12
 1494 01bd 06000000 		.4byte	.LVL5
 1495 01c1 B8060000 		.4byte	0x6b8
 1496 01c5 12       		.uleb128 0x12
 1497 01c6 2A000000 		.4byte	.LVL7
 1498 01ca C3060000 		.4byte	0x6c3
 1499 01ce 13       		.uleb128 0x13
 1500 01cf 34000000 		.4byte	.LVL9
 1501 01d3 CA060000 		.4byte	0x6ca
 1502 01d7 00       		.byte	0
 1503 01d8 0D       		.uleb128 0xd
 1504 01d9 04020000 		.4byte	.LASF25
 1505 01dd 01       		.byte	0x1
 1506 01de F0       		.byte	0xf0
 1507 01df 00000000 		.4byte	.LFB3
 1508 01e3 40000000 		.4byte	.LFE3-.LFB3
 1509 01e7 01       		.uleb128 0x1
 1510 01e8 9C       		.byte	0x9c
 1511 01e9 18020000 		.4byte	0x218
 1512 01ed 16       		.uleb128 0x16
 1513 01ee B2030000 		.4byte	.LASF23
 1514 01f2 01       		.byte	0x1
 1515 01f3 F2       		.byte	0xf2
 1516 01f4 6B000000 		.4byte	0x6b
 1517 01f8 26000000 		.4byte	.LLST2
 1518 01fc 12       		.uleb128 0x12
 1519 01fd 06000000 		.4byte	.LVL10
 1520 0201 B8060000 		.4byte	0x6b8
 1521 0205 12       		.uleb128 0x12
 1522 0206 16000000 		.4byte	.LVL12
 1523 020a DB060000 		.4byte	0x6db
 1524 020e 13       		.uleb128 0x13
 1525 020f 34000000 		.4byte	.LVL14
 1526 0213 CA060000 		.4byte	0x6ca
 1527 0217 00       		.byte	0
 1528 0218 17       		.uleb128 0x17
 1529 0219 E9010000 		.4byte	.LASF44
 1530 021d 01       		.byte	0x1
 1531 021e 2701     		.2byte	0x127
 1532 0220 6B000000 		.4byte	0x6b
ARM GAS  C:\Users\Patrick\AppData\Local\Temp\ccMAZXgj.s 			page 57


 1533 0224 00000000 		.4byte	.LFB4
 1534 0228 04000000 		.4byte	.LFE4-.LFB4
 1535 022c 01       		.uleb128 0x1
 1536 022d 9C       		.byte	0x9c
 1537 022e 18       		.uleb128 0x18
 1538 022f F9020000 		.4byte	.LASF26
 1539 0233 01       		.byte	0x1
 1540 0234 3F01     		.2byte	0x13f
 1541 0236 00000000 		.4byte	.LFB5
 1542 023a 02000000 		.4byte	.LFE5-.LFB5
 1543 023e 01       		.uleb128 0x1
 1544 023f 9C       		.byte	0x9c
 1545 0240 53020000 		.4byte	0x253
 1546 0244 19       		.uleb128 0x19
 1547 0245 27010000 		.4byte	.LASF28
 1548 0249 01       		.byte	0x1
 1549 024a 3F01     		.2byte	0x13f
 1550 024c 6B000000 		.4byte	0x6b
 1551 0250 01       		.uleb128 0x1
 1552 0251 50       		.byte	0x50
 1553 0252 00       		.byte	0
 1554 0253 18       		.uleb128 0x18
 1555 0254 2F010000 		.4byte	.LASF27
 1556 0258 01       		.byte	0x1
 1557 0259 6701     		.2byte	0x167
 1558 025b 00000000 		.4byte	.LFB6
 1559 025f 0C000000 		.4byte	.LFE6-.LFB6
 1560 0263 01       		.uleb128 0x1
 1561 0264 9C       		.byte	0x9c
 1562 0265 78020000 		.4byte	0x278
 1563 0269 19       		.uleb128 0x19
 1564 026a E2010000 		.4byte	.LASF29
 1565 026e 01       		.byte	0x1
 1566 026f 6701     		.2byte	0x167
 1567 0271 6B000000 		.4byte	0x6b
 1568 0275 01       		.uleb128 0x1
 1569 0276 50       		.byte	0x50
 1570 0277 00       		.byte	0
 1571 0278 15       		.uleb128 0x15
 1572 0279 E2000000 		.4byte	0xe2
 1573 027d 00000000 		.4byte	.LFB7
 1574 0281 0C000000 		.4byte	.LFE7-.LFB7
 1575 0285 01       		.uleb128 0x1
 1576 0286 9C       		.byte	0x9c
 1577 0287 93020000 		.4byte	0x293
 1578 028b 1A       		.uleb128 0x1a
 1579 028c F3000000 		.4byte	0xf3
 1580 0290 01       		.uleb128 0x1
 1581 0291 50       		.byte	0x50
 1582 0292 00       		.byte	0
 1583 0293 15       		.uleb128 0x15
 1584 0294 C4000000 		.4byte	0xc4
 1585 0298 00000000 		.4byte	.LFB8
 1586 029c 10000000 		.4byte	.LFE8-.LFB8
 1587 02a0 01       		.uleb128 0x1
 1588 02a1 9C       		.byte	0x9c
 1589 02a2 B0020000 		.4byte	0x2b0
ARM GAS  C:\Users\Patrick\AppData\Local\Temp\ccMAZXgj.s 			page 58


 1590 02a6 11       		.uleb128 0x11
 1591 02a7 D5000000 		.4byte	0xd5
 1592 02ab 39000000 		.4byte	.LLST3
 1593 02af 00       		.byte	0
 1594 02b0 1B       		.uleb128 0x1b
 1595 02b1 97040000 		.4byte	.LASF31
 1596 02b5 01       		.byte	0x1
 1597 02b6 1402     		.2byte	0x214
 1598 02b8 6B000000 		.4byte	0x6b
 1599 02bc 00000000 		.4byte	.LFB9
 1600 02c0 28000000 		.4byte	.LFE9-.LFB9
 1601 02c4 01       		.uleb128 0x1
 1602 02c5 9C       		.byte	0x9c
 1603 02c6 E9020000 		.4byte	0x2e9
 1604 02ca 1C       		.uleb128 0x1c
 1605 02cb 45030000 		.4byte	.LASF20
 1606 02cf 01       		.byte	0x1
 1607 02d0 1602     		.2byte	0x216
 1608 02d2 6B000000 		.4byte	0x6b
 1609 02d6 51000000 		.4byte	.LLST4
 1610 02da 1D       		.uleb128 0x1d
 1611 02db 75020000 		.4byte	.LASF30
 1612 02df 01       		.byte	0x1
 1613 02e0 1702     		.2byte	0x217
 1614 02e2 6B000000 		.4byte	0x6b
 1615 02e6 01       		.uleb128 0x1
 1616 02e7 53       		.byte	0x53
 1617 02e8 00       		.byte	0
 1618 02e9 1B       		.uleb128 0x1b
 1619 02ea 10020000 		.4byte	.LASF32
 1620 02ee 01       		.byte	0x1
 1621 02ef 7A02     		.2byte	0x27a
 1622 02f1 77000000 		.4byte	0x77
 1623 02f5 00000000 		.4byte	.LFB10
 1624 02f9 1C000000 		.4byte	.LFE10-.LFB10
 1625 02fd 01       		.uleb128 0x1
 1626 02fe 9C       		.byte	0x9c
 1627 02ff 48030000 		.4byte	0x348
 1628 0303 1E       		.uleb128 0x1e
 1629 0304 C4000000 		.4byte	0xc4
 1630 0308 00000000 		.4byte	.LBB30
 1631 030c 30000000 		.4byte	.Ldebug_ranges0+0x30
 1632 0310 01       		.byte	0x1
 1633 0311 8602     		.2byte	0x286
 1634 0313 27030000 		.4byte	0x327
 1635 0317 10       		.uleb128 0x10
 1636 0318 30000000 		.4byte	.Ldebug_ranges0+0x30
 1637 031c 11       		.uleb128 0x11
 1638 031d D5000000 		.4byte	0xd5
 1639 0321 70000000 		.4byte	.LLST5
 1640 0325 00       		.byte	0
 1641 0326 00       		.byte	0
 1642 0327 1F       		.uleb128 0x1f
 1643 0328 E2000000 		.4byte	0xe2
 1644 032c 02000000 		.4byte	.LBB33
 1645 0330 48000000 		.4byte	.Ldebug_ranges0+0x48
 1646 0334 01       		.byte	0x1
ARM GAS  C:\Users\Patrick\AppData\Local\Temp\ccMAZXgj.s 			page 59


 1647 0335 8602     		.2byte	0x286
 1648 0337 10       		.uleb128 0x10
 1649 0338 48000000 		.4byte	.Ldebug_ranges0+0x48
 1650 033c 11       		.uleb128 0x11
 1651 033d F3000000 		.4byte	0xf3
 1652 0341 88000000 		.4byte	.LLST6
 1653 0345 00       		.byte	0
 1654 0346 00       		.byte	0
 1655 0347 00       		.byte	0
 1656 0348 1B       		.uleb128 0x1b
 1657 0349 2E030000 		.4byte	.LASF33
 1658 034d 01       		.byte	0x1
 1659 034e AB02     		.2byte	0x2ab
 1660 0350 6B000000 		.4byte	0x6b
 1661 0354 00000000 		.4byte	.LFB11
 1662 0358 10000000 		.4byte	.LFE11-.LFB11
 1663 035c 01       		.uleb128 0x1
 1664 035d 9C       		.byte	0x9c
 1665 035e 73030000 		.4byte	0x373
 1666 0362 1C       		.uleb128 0x1c
 1667 0363 9B010000 		.4byte	.LASF34
 1668 0367 01       		.byte	0x1
 1669 0368 AE02     		.2byte	0x2ae
 1670 036a 6B000000 		.4byte	0x6b
 1671 036e 9B000000 		.4byte	.LLST7
 1672 0372 00       		.byte	0
 1673 0373 18       		.uleb128 0x18
 1674 0374 AF020000 		.4byte	.LASF35
 1675 0378 01       		.byte	0x1
 1676 0379 F502     		.2byte	0x2f5
 1677 037b 00000000 		.4byte	.LFB12
 1678 037f 24000000 		.4byte	.LFE12-.LFB12
 1679 0383 01       		.uleb128 0x1
 1680 0384 9C       		.byte	0x9c
 1681 0385 AC030000 		.4byte	0x3ac
 1682 0389 1C       		.uleb128 0x1c
 1683 038a B2030000 		.4byte	.LASF23
 1684 038e 01       		.byte	0x1
 1685 038f F702     		.2byte	0x2f7
 1686 0391 6B000000 		.4byte	0x6b
 1687 0395 B7000000 		.4byte	.LLST8
 1688 0399 12       		.uleb128 0x12
 1689 039a 06000000 		.4byte	.LVL30
 1690 039e B8060000 		.4byte	0x6b8
 1691 03a2 13       		.uleb128 0x13
 1692 03a3 20000000 		.4byte	.LVL31
 1693 03a7 CA060000 		.4byte	0x6ca
 1694 03ab 00       		.byte	0
 1695 03ac 18       		.uleb128 0x18
 1696 03ad C4020000 		.4byte	.LASF36
 1697 03b1 01       		.byte	0x1
 1698 03b2 2D03     		.2byte	0x32d
 1699 03b4 00000000 		.4byte	.LFB13
 1700 03b8 02000000 		.4byte	.LFE13-.LFB13
 1701 03bc 01       		.uleb128 0x1
 1702 03bd 9C       		.byte	0x9c
 1703 03be D1030000 		.4byte	0x3d1
ARM GAS  C:\Users\Patrick\AppData\Local\Temp\ccMAZXgj.s 			page 60


 1704 03c2 19       		.uleb128 0x19
 1705 03c3 F9000000 		.4byte	.LASF37
 1706 03c7 01       		.byte	0x1
 1707 03c8 2D03     		.2byte	0x32d
 1708 03ca 6B000000 		.4byte	0x6b
 1709 03ce 01       		.uleb128 0x1
 1710 03cf 50       		.byte	0x50
 1711 03d0 00       		.byte	0
 1712 03d1 18       		.uleb128 0x18
 1713 03d2 43020000 		.4byte	.LASF38
 1714 03d6 01       		.byte	0x1
 1715 03d7 5903     		.2byte	0x359
 1716 03d9 00000000 		.4byte	.LFB14
 1717 03dd 0C000000 		.4byte	.LFE14-.LFB14
 1718 03e1 01       		.uleb128 0x1
 1719 03e2 9C       		.byte	0x9c
 1720 03e3 F6030000 		.4byte	0x3f6
 1721 03e7 19       		.uleb128 0x19
 1722 03e8 6D020000 		.4byte	.LASF39
 1723 03ec 01       		.byte	0x1
 1724 03ed 5903     		.2byte	0x359
 1725 03ef 6B000000 		.4byte	0x6b
 1726 03f3 01       		.uleb128 0x1
 1727 03f4 50       		.byte	0x50
 1728 03f5 00       		.byte	0
 1729 03f6 18       		.uleb128 0x18
 1730 03f7 58020000 		.4byte	.LASF40
 1731 03fb 01       		.byte	0x1
 1732 03fc 6D03     		.2byte	0x36d
 1733 03fe 00000000 		.4byte	.LFB15
 1734 0402 0C000000 		.4byte	.LFE15-.LFB15
 1735 0406 01       		.uleb128 0x1
 1736 0407 9C       		.byte	0x9c
 1737 0408 1B040000 		.4byte	0x41b
 1738 040c 19       		.uleb128 0x19
 1739 040d 6D020000 		.4byte	.LASF39
 1740 0411 01       		.byte	0x1
 1741 0412 6D03     		.2byte	0x36d
 1742 0414 6B000000 		.4byte	0x6b
 1743 0418 01       		.uleb128 0x1
 1744 0419 50       		.byte	0x50
 1745 041a 00       		.byte	0
 1746 041b 18       		.uleb128 0x18
 1747 041c 7E020000 		.4byte	.LASF41
 1748 0420 01       		.byte	0x1
 1749 0421 8C03     		.2byte	0x38c
 1750 0423 00000000 		.4byte	.LFB16
 1751 0427 0C000000 		.4byte	.LFE16-.LFB16
 1752 042b 01       		.uleb128 0x1
 1753 042c 9C       		.byte	0x9c
 1754 042d 40040000 		.4byte	0x440
 1755 0431 19       		.uleb128 0x19
 1756 0432 E2010000 		.4byte	.LASF29
 1757 0436 01       		.byte	0x1
 1758 0437 8C03     		.2byte	0x38c
 1759 0439 6B000000 		.4byte	0x6b
 1760 043d 01       		.uleb128 0x1
ARM GAS  C:\Users\Patrick\AppData\Local\Temp\ccMAZXgj.s 			page 61


 1761 043e 50       		.byte	0x50
 1762 043f 00       		.byte	0
 1763 0440 18       		.uleb128 0x18
 1764 0441 1F020000 		.4byte	.LASF42
 1765 0445 01       		.byte	0x1
 1766 0446 AE03     		.2byte	0x3ae
 1767 0448 00000000 		.4byte	.LFB17
 1768 044c 14000000 		.4byte	.LFE17-.LFB17
 1769 0450 01       		.uleb128 0x1
 1770 0451 9C       		.byte	0x9c
 1771 0452 65040000 		.4byte	0x465
 1772 0456 19       		.uleb128 0x19
 1773 0457 32000000 		.4byte	.LASF43
 1774 045b 01       		.byte	0x1
 1775 045c AE03     		.2byte	0x3ae
 1776 045e 6B000000 		.4byte	0x6b
 1777 0462 01       		.uleb128 0x1
 1778 0463 50       		.byte	0x50
 1779 0464 00       		.byte	0
 1780 0465 17       		.uleb128 0x17
 1781 0466 5E010000 		.4byte	.LASF45
 1782 046a 01       		.byte	0x1
 1783 046b EB03     		.2byte	0x3eb
 1784 046d 6B000000 		.4byte	0x6b
 1785 0471 00000000 		.4byte	.LFB18
 1786 0475 0C000000 		.4byte	.LFE18-.LFB18
 1787 0479 01       		.uleb128 0x1
 1788 047a 9C       		.byte	0x9c
 1789 047b 15       		.uleb128 0x15
 1790 047c 00010000 		.4byte	0x100
 1791 0480 00000000 		.4byte	.LFB19
 1792 0484 18000000 		.4byte	.LFE19-.LFB19
 1793 0488 01       		.uleb128 0x1
 1794 0489 9C       		.byte	0x9c
 1795 048a 96040000 		.4byte	0x496
 1796 048e 20       		.uleb128 0x20
 1797 048f 0D010000 		.4byte	0x10d
 1798 0493 01       		.uleb128 0x1
 1799 0494 50       		.byte	0x50
 1800 0495 00       		.byte	0
 1801 0496 18       		.uleb128 0x18
 1802 0497 9E020000 		.4byte	.LASF46
 1803 049b 01       		.byte	0x1
 1804 049c 7904     		.2byte	0x479
 1805 049e 00000000 		.4byte	.LFB20
 1806 04a2 34000000 		.4byte	.LFE20-.LFB20
 1807 04a6 01       		.uleb128 0x1
 1808 04a7 9C       		.byte	0x9c
 1809 04a8 E1040000 		.4byte	0x4e1
 1810 04ac 19       		.uleb128 0x19
 1811 04ad 4C000000 		.4byte	.LASF47
 1812 04b1 01       		.byte	0x1
 1813 04b2 7904     		.2byte	0x479
 1814 04b4 E1040000 		.4byte	0x4e1
 1815 04b8 01       		.uleb128 0x1
 1816 04b9 50       		.byte	0x50
 1817 04ba 1C       		.uleb128 0x1c
ARM GAS  C:\Users\Patrick\AppData\Local\Temp\ccMAZXgj.s 			page 62


 1818 04bb C1010000 		.4byte	.LASF48
 1819 04bf 01       		.byte	0x1
 1820 04c0 7B04     		.2byte	0x47b
 1821 04c2 77000000 		.4byte	0x77
 1822 04c6 CA000000 		.4byte	.LLST9
 1823 04ca 1F       		.uleb128 0x1f
 1824 04cb 00010000 		.4byte	0x100
 1825 04cf 0C000000 		.4byte	.LBB38
 1826 04d3 60000000 		.4byte	.Ldebug_ranges0+0x60
 1827 04d7 01       		.byte	0x1
 1828 04d8 8304     		.2byte	0x483
 1829 04da 21       		.uleb128 0x21
 1830 04db 0D010000 		.4byte	0x10d
 1831 04df 00       		.byte	0
 1832 04e0 00       		.byte	0
 1833 04e1 22       		.uleb128 0x22
 1834 04e2 04       		.byte	0x4
 1835 04e3 E7040000 		.4byte	0x4e7
 1836 04e7 23       		.uleb128 0x23
 1837 04e8 91000000 		.4byte	0x91
 1838 04ec 18       		.uleb128 0x18
 1839 04ed A6040000 		.4byte	.LASF49
 1840 04f1 01       		.byte	0x1
 1841 04f2 A704     		.2byte	0x4a7
 1842 04f4 00000000 		.4byte	.LFB21
 1843 04f8 38000000 		.4byte	.LFE21-.LFB21
 1844 04fc 01       		.uleb128 0x1
 1845 04fd 9C       		.byte	0x9c
 1846 04fe 4D050000 		.4byte	0x54d
 1847 0502 24       		.uleb128 0x24
 1848 0503 4C000000 		.4byte	.LASF47
 1849 0507 01       		.byte	0x1
 1850 0508 A704     		.2byte	0x4a7
 1851 050a 4D050000 		.4byte	0x54d
 1852 050e E9000000 		.4byte	.LLST10
 1853 0512 24       		.uleb128 0x24
 1854 0513 24030000 		.4byte	.LASF50
 1855 0517 01       		.byte	0x1
 1856 0518 A704     		.2byte	0x4a7
 1857 051a 6B000000 		.4byte	0x6b
 1858 051e 0A010000 		.4byte	.LLST11
 1859 0522 1C       		.uleb128 0x1c
 1860 0523 C1010000 		.4byte	.LASF48
 1861 0527 01       		.byte	0x1
 1862 0528 AA04     		.2byte	0x4aa
 1863 052a 6B000000 		.4byte	0x6b
 1864 052e 2B010000 		.4byte	.LLST12
 1865 0532 1F       		.uleb128 0x1f
 1866 0533 00010000 		.4byte	0x100
 1867 0537 0E000000 		.4byte	.LBB44
 1868 053b 80000000 		.4byte	.Ldebug_ranges0+0x80
 1869 053f 01       		.byte	0x1
 1870 0540 B104     		.2byte	0x4b1
 1871 0542 25       		.uleb128 0x25
 1872 0543 0D010000 		.4byte	0x10d
 1873 0547 65010000 		.4byte	.LLST13
 1874 054b 00       		.byte	0
ARM GAS  C:\Users\Patrick\AppData\Local\Temp\ccMAZXgj.s 			page 63


 1875 054c 00       		.byte	0
 1876 054d 22       		.uleb128 0x22
 1877 054e 04       		.byte	0x4
 1878 054f 53050000 		.4byte	0x553
 1879 0553 23       		.uleb128 0x23
 1880 0554 6B000000 		.4byte	0x6b
 1881 0558 18       		.uleb128 0x18
 1882 0559 C7000000 		.4byte	.LASF51
 1883 055d 01       		.byte	0x1
 1884 055e CE04     		.2byte	0x4ce
 1885 0560 00000000 		.4byte	.LFB22
 1886 0564 3C000000 		.4byte	.LFE22-.LFB22
 1887 0568 01       		.uleb128 0x1
 1888 0569 9C       		.byte	0x9c
 1889 056a CF050000 		.4byte	0x5cf
 1890 056e 19       		.uleb128 0x19
 1891 056f 32000000 		.4byte	.LASF43
 1892 0573 01       		.byte	0x1
 1893 0574 CE04     		.2byte	0x4ce
 1894 0576 6B000000 		.4byte	0x6b
 1895 057a 01       		.uleb128 0x1
 1896 057b 50       		.byte	0x50
 1897 057c 1E       		.uleb128 0x1e
 1898 057d 00010000 		.4byte	0x100
 1899 0581 06000000 		.4byte	.LBB50
 1900 0585 A0000000 		.4byte	.Ldebug_ranges0+0xa0
 1901 0589 01       		.byte	0x1
 1902 058a D304     		.2byte	0x4d3
 1903 058c 96050000 		.4byte	0x596
 1904 0590 21       		.uleb128 0x21
 1905 0591 0D010000 		.4byte	0x10d
 1906 0595 00       		.byte	0
 1907 0596 1E       		.uleb128 0x1e
 1908 0597 00010000 		.4byte	0x100
 1909 059b 10000000 		.4byte	.LBB53
 1910 059f B8000000 		.4byte	.Ldebug_ranges0+0xb8
 1911 05a3 01       		.byte	0x1
 1912 05a4 D404     		.2byte	0x4d4
 1913 05a6 B4050000 		.4byte	0x5b4
 1914 05aa 25       		.uleb128 0x25
 1915 05ab 0D010000 		.4byte	0x10d
 1916 05af 78010000 		.4byte	.LLST14
 1917 05b3 00       		.byte	0
 1918 05b4 1F       		.uleb128 0x1f
 1919 05b5 00010000 		.4byte	0x100
 1920 05b9 1E000000 		.4byte	.LBB59
 1921 05bd D8000000 		.4byte	.Ldebug_ranges0+0xd8
 1922 05c1 01       		.byte	0x1
 1923 05c2 D504     		.2byte	0x4d5
 1924 05c4 25       		.uleb128 0x25
 1925 05c5 0D010000 		.4byte	0x10d
 1926 05c9 8C010000 		.4byte	.LLST15
 1927 05cd 00       		.byte	0
 1928 05ce 00       		.byte	0
 1929 05cf 1B       		.uleb128 0x1b
 1930 05d0 8D000000 		.4byte	.LASF52
 1931 05d4 01       		.byte	0x1
ARM GAS  C:\Users\Patrick\AppData\Local\Temp\ccMAZXgj.s 			page 64


 1932 05d5 F904     		.2byte	0x4f9
 1933 05d7 6B000000 		.4byte	0x6b
 1934 05db 00000000 		.4byte	.LFB23
 1935 05df 1C000000 		.4byte	.LFE23-.LFB23
 1936 05e3 01       		.uleb128 0x1
 1937 05e4 9C       		.byte	0x9c
 1938 05e5 FA050000 		.4byte	0x5fa
 1939 05e9 1C       		.uleb128 0x1c
 1940 05ea 9B010000 		.4byte	.LASF34
 1941 05ee 01       		.byte	0x1
 1942 05ef FC04     		.2byte	0x4fc
 1943 05f1 6B000000 		.4byte	0x6b
 1944 05f5 A0010000 		.4byte	.LLST16
 1945 05f9 00       		.byte	0
 1946 05fa 18       		.uleb128 0x18
 1947 05fb 07000000 		.4byte	.LASF53
 1948 05ff 01       		.byte	0x1
 1949 0600 4A05     		.2byte	0x54a
 1950 0602 00000000 		.4byte	.LFB24
 1951 0606 24000000 		.4byte	.LFE24-.LFB24
 1952 060a 01       		.uleb128 0x1
 1953 060b 9C       		.byte	0x9c
 1954 060c 33060000 		.4byte	0x633
 1955 0610 1C       		.uleb128 0x1c
 1956 0611 B2030000 		.4byte	.LASF23
 1957 0615 01       		.byte	0x1
 1958 0616 4C05     		.2byte	0x54c
 1959 0618 6B000000 		.4byte	0x6b
 1960 061c BE010000 		.4byte	.LLST17
 1961 0620 12       		.uleb128 0x12
 1962 0621 06000000 		.4byte	.LVL54
 1963 0625 B8060000 		.4byte	0x6b8
 1964 0629 13       		.uleb128 0x13
 1965 062a 20000000 		.4byte	.LVL55
 1966 062e CA060000 		.4byte	0x6ca
 1967 0632 00       		.byte	0
 1968 0633 18       		.uleb128 0x18
 1969 0634 53000000 		.4byte	.LASF54
 1970 0638 01       		.byte	0x1
 1971 0639 A005     		.2byte	0x5a0
 1972 063b 00000000 		.4byte	.LFB25
 1973 063f 5C000000 		.4byte	.LFE25-.LFB25
 1974 0643 01       		.uleb128 0x1
 1975 0644 9C       		.byte	0x9c
 1976 0645 82060000 		.4byte	0x682
 1977 0649 24       		.uleb128 0x24
 1978 064a 49010000 		.4byte	.LASF55
 1979 064e 01       		.byte	0x1
 1980 064f A005     		.2byte	0x5a0
 1981 0651 6B000000 		.4byte	0x6b
 1982 0655 D1010000 		.4byte	.LLST18
 1983 0659 10       		.uleb128 0x10
 1984 065a F0000000 		.4byte	.Ldebug_ranges0+0xf0
 1985 065e 1C       		.uleb128 0x1c
 1986 065f 32020000 		.4byte	.LASF56
 1987 0663 01       		.byte	0x1
 1988 0664 A805     		.2byte	0x5a8
ARM GAS  C:\Users\Patrick\AppData\Local\Temp\ccMAZXgj.s 			page 65


 1989 0666 6B000000 		.4byte	0x6b
 1990 066a FD010000 		.4byte	.LLST19
 1991 066e 1D       		.uleb128 0x1d
 1992 066f BE000000 		.4byte	.LASF57
 1993 0673 01       		.byte	0x1
 1994 0674 D005     		.2byte	0x5d0
 1995 0676 6B000000 		.4byte	0x6b
 1996 067a 05       		.uleb128 0x5
 1997 067b 03       		.byte	0x3
 1998 067c 01000000 		.4byte	txPeriod.4989
 1999 0680 00       		.byte	0
 2000 0681 00       		.byte	0
 2001 0682 18       		.uleb128 0x18
 2002 0683 CA010000 		.4byte	.LASF58
 2003 0687 01       		.byte	0x1
 2004 0688 2406     		.2byte	0x624
 2005 068a 00000000 		.4byte	.LFB26
 2006 068e 02000000 		.4byte	.LFE26-.LFB26
 2007 0692 01       		.uleb128 0x1
 2008 0693 9C       		.byte	0x9c
 2009 0694 A7060000 		.4byte	0x6a7
 2010 0698 19       		.uleb128 0x19
 2011 0699 F9000000 		.4byte	.LASF37
 2012 069d 01       		.byte	0x1
 2013 069e 2406     		.2byte	0x624
 2014 06a0 6B000000 		.4byte	0x6b
 2015 06a4 01       		.uleb128 0x1
 2016 06a5 50       		.byte	0x50
 2017 06a6 00       		.byte	0
 2018 06a7 26       		.uleb128 0x26
 2019 06a8 15030000 		.4byte	.LASF66
 2020 06ac 01       		.byte	0x1
 2021 06ad 1B       		.byte	0x1b
 2022 06ae 6B000000 		.4byte	0x6b
 2023 06b2 05       		.uleb128 0x5
 2024 06b3 03       		.byte	0x3
 2025 06b4 00000000 		.4byte	UART_1_initVar
 2026 06b8 27       		.uleb128 0x27
 2027 06b9 84010000 		.4byte	.LASF67
 2028 06bd 04       		.byte	0x4
 2029 06be 7D       		.byte	0x7d
 2030 06bf 6B000000 		.4byte	0x6b
 2031 06c3 28       		.uleb128 0x28
 2032 06c4 CA030000 		.4byte	.LASF60
 2033 06c8 03       		.byte	0x3
 2034 06c9 27       		.byte	0x27
 2035 06ca 29       		.uleb128 0x29
 2036 06cb 1C000000 		.4byte	.LASF61
 2037 06cf 04       		.byte	0x4
 2038 06d0 7E       		.byte	0x7e
 2039 06d1 DB060000 		.4byte	0x6db
 2040 06d5 2A       		.uleb128 0x2a
 2041 06d6 6B000000 		.4byte	0x6b
 2042 06da 00       		.byte	0
 2043 06db 28       		.uleb128 0x28
 2044 06dc E0030000 		.4byte	.LASF62
 2045 06e0 03       		.byte	0x3
ARM GAS  C:\Users\Patrick\AppData\Local\Temp\ccMAZXgj.s 			page 66


 2046 06e1 28       		.byte	0x28
 2047 06e2 00       		.byte	0
 2048              		.section	.debug_abbrev,"",%progbits
 2049              	.Ldebug_abbrev0:
 2050 0000 01       		.uleb128 0x1
 2051 0001 11       		.uleb128 0x11
 2052 0002 01       		.byte	0x1
 2053 0003 25       		.uleb128 0x25
 2054 0004 0E       		.uleb128 0xe
 2055 0005 13       		.uleb128 0x13
 2056 0006 0B       		.uleb128 0xb
 2057 0007 03       		.uleb128 0x3
 2058 0008 0E       		.uleb128 0xe
 2059 0009 1B       		.uleb128 0x1b
 2060 000a 0E       		.uleb128 0xe
 2061 000b 55       		.uleb128 0x55
 2062 000c 17       		.uleb128 0x17
 2063 000d 11       		.uleb128 0x11
 2064 000e 01       		.uleb128 0x1
 2065 000f 10       		.uleb128 0x10
 2066 0010 17       		.uleb128 0x17
 2067 0011 00       		.byte	0
 2068 0012 00       		.byte	0
 2069 0013 02       		.uleb128 0x2
 2070 0014 24       		.uleb128 0x24
 2071 0015 00       		.byte	0
 2072 0016 0B       		.uleb128 0xb
 2073 0017 0B       		.uleb128 0xb
 2074 0018 3E       		.uleb128 0x3e
 2075 0019 0B       		.uleb128 0xb
 2076 001a 03       		.uleb128 0x3
 2077 001b 0E       		.uleb128 0xe
 2078 001c 00       		.byte	0
 2079 001d 00       		.byte	0
 2080 001e 03       		.uleb128 0x3
 2081 001f 24       		.uleb128 0x24
 2082 0020 00       		.byte	0
 2083 0021 0B       		.uleb128 0xb
 2084 0022 0B       		.uleb128 0xb
 2085 0023 3E       		.uleb128 0x3e
 2086 0024 0B       		.uleb128 0xb
 2087 0025 03       		.uleb128 0x3
 2088 0026 08       		.uleb128 0x8
 2089 0027 00       		.byte	0
 2090 0028 00       		.byte	0
 2091 0029 04       		.uleb128 0x4
 2092 002a 16       		.uleb128 0x16
 2093 002b 00       		.byte	0
 2094 002c 03       		.uleb128 0x3
 2095 002d 0E       		.uleb128 0xe
 2096 002e 3A       		.uleb128 0x3a
 2097 002f 0B       		.uleb128 0xb
 2098 0030 3B       		.uleb128 0x3b
 2099 0031 05       		.uleb128 0x5
 2100 0032 49       		.uleb128 0x49
 2101 0033 13       		.uleb128 0x13
 2102 0034 00       		.byte	0
ARM GAS  C:\Users\Patrick\AppData\Local\Temp\ccMAZXgj.s 			page 67


 2103 0035 00       		.byte	0
 2104 0036 05       		.uleb128 0x5
 2105 0037 35       		.uleb128 0x35
 2106 0038 00       		.byte	0
 2107 0039 49       		.uleb128 0x49
 2108 003a 13       		.uleb128 0x13
 2109 003b 00       		.byte	0
 2110 003c 00       		.byte	0
 2111 003d 06       		.uleb128 0x6
 2112 003e 2E       		.uleb128 0x2e
 2113 003f 00       		.byte	0
 2114 0040 3F       		.uleb128 0x3f
 2115 0041 19       		.uleb128 0x19
 2116 0042 03       		.uleb128 0x3
 2117 0043 0E       		.uleb128 0xe
 2118 0044 3A       		.uleb128 0x3a
 2119 0045 0B       		.uleb128 0xb
 2120 0046 3B       		.uleb128 0x3b
 2121 0047 0B       		.uleb128 0xb
 2122 0048 27       		.uleb128 0x27
 2123 0049 19       		.uleb128 0x19
 2124 004a 20       		.uleb128 0x20
 2125 004b 0B       		.uleb128 0xb
 2126 004c 00       		.byte	0
 2127 004d 00       		.byte	0
 2128 004e 07       		.uleb128 0x7
 2129 004f 2E       		.uleb128 0x2e
 2130 0050 01       		.byte	0x1
 2131 0051 3F       		.uleb128 0x3f
 2132 0052 19       		.uleb128 0x19
 2133 0053 03       		.uleb128 0x3
 2134 0054 0E       		.uleb128 0xe
 2135 0055 3A       		.uleb128 0x3a
 2136 0056 0B       		.uleb128 0xb
 2137 0057 3B       		.uleb128 0x3b
 2138 0058 05       		.uleb128 0x5
 2139 0059 27       		.uleb128 0x27
 2140 005a 19       		.uleb128 0x19
 2141 005b 49       		.uleb128 0x49
 2142 005c 13       		.uleb128 0x13
 2143 005d 20       		.uleb128 0x20
 2144 005e 0B       		.uleb128 0xb
 2145 005f 01       		.uleb128 0x1
 2146 0060 13       		.uleb128 0x13
 2147 0061 00       		.byte	0
 2148 0062 00       		.byte	0
 2149 0063 08       		.uleb128 0x8
 2150 0064 34       		.uleb128 0x34
 2151 0065 00       		.byte	0
 2152 0066 03       		.uleb128 0x3
 2153 0067 0E       		.uleb128 0xe
 2154 0068 3A       		.uleb128 0x3a
 2155 0069 0B       		.uleb128 0xb
 2156 006a 3B       		.uleb128 0x3b
 2157 006b 05       		.uleb128 0x5
 2158 006c 49       		.uleb128 0x49
 2159 006d 13       		.uleb128 0x13
ARM GAS  C:\Users\Patrick\AppData\Local\Temp\ccMAZXgj.s 			page 68


 2160 006e 00       		.byte	0
 2161 006f 00       		.byte	0
 2162 0070 09       		.uleb128 0x9
 2163 0071 2E       		.uleb128 0x2e
 2164 0072 01       		.byte	0x1
 2165 0073 3F       		.uleb128 0x3f
 2166 0074 19       		.uleb128 0x19
 2167 0075 03       		.uleb128 0x3
 2168 0076 0E       		.uleb128 0xe
 2169 0077 3A       		.uleb128 0x3a
 2170 0078 0B       		.uleb128 0xb
 2171 0079 3B       		.uleb128 0x3b
 2172 007a 05       		.uleb128 0x5
 2173 007b 27       		.uleb128 0x27
 2174 007c 19       		.uleb128 0x19
 2175 007d 20       		.uleb128 0x20
 2176 007e 0B       		.uleb128 0xb
 2177 007f 01       		.uleb128 0x1
 2178 0080 13       		.uleb128 0x13
 2179 0081 00       		.byte	0
 2180 0082 00       		.byte	0
 2181 0083 0A       		.uleb128 0xa
 2182 0084 05       		.uleb128 0x5
 2183 0085 00       		.byte	0
 2184 0086 03       		.uleb128 0x3
 2185 0087 0E       		.uleb128 0xe
 2186 0088 3A       		.uleb128 0x3a
 2187 0089 0B       		.uleb128 0xb
 2188 008a 3B       		.uleb128 0x3b
 2189 008b 05       		.uleb128 0x5
 2190 008c 49       		.uleb128 0x49
 2191 008d 13       		.uleb128 0x13
 2192 008e 00       		.byte	0
 2193 008f 00       		.byte	0
 2194 0090 0B       		.uleb128 0xb
 2195 0091 2E       		.uleb128 0x2e
 2196 0092 01       		.byte	0x1
 2197 0093 3F       		.uleb128 0x3f
 2198 0094 19       		.uleb128 0x19
 2199 0095 03       		.uleb128 0x3
 2200 0096 0E       		.uleb128 0xe
 2201 0097 3A       		.uleb128 0x3a
 2202 0098 0B       		.uleb128 0xb
 2203 0099 3B       		.uleb128 0x3b
 2204 009a 0B       		.uleb128 0xb
 2205 009b 27       		.uleb128 0x27
 2206 009c 19       		.uleb128 0x19
 2207 009d 20       		.uleb128 0x20
 2208 009e 0B       		.uleb128 0xb
 2209 009f 01       		.uleb128 0x1
 2210 00a0 13       		.uleb128 0x13
 2211 00a1 00       		.byte	0
 2212 00a2 00       		.byte	0
 2213 00a3 0C       		.uleb128 0xc
 2214 00a4 34       		.uleb128 0x34
 2215 00a5 00       		.byte	0
 2216 00a6 03       		.uleb128 0x3
ARM GAS  C:\Users\Patrick\AppData\Local\Temp\ccMAZXgj.s 			page 69


 2217 00a7 0E       		.uleb128 0xe
 2218 00a8 3A       		.uleb128 0x3a
 2219 00a9 0B       		.uleb128 0xb
 2220 00aa 3B       		.uleb128 0x3b
 2221 00ab 0B       		.uleb128 0xb
 2222 00ac 49       		.uleb128 0x49
 2223 00ad 13       		.uleb128 0x13
 2224 00ae 00       		.byte	0
 2225 00af 00       		.byte	0
 2226 00b0 0D       		.uleb128 0xd
 2227 00b1 2E       		.uleb128 0x2e
 2228 00b2 01       		.byte	0x1
 2229 00b3 3F       		.uleb128 0x3f
 2230 00b4 19       		.uleb128 0x19
 2231 00b5 03       		.uleb128 0x3
 2232 00b6 0E       		.uleb128 0xe
 2233 00b7 3A       		.uleb128 0x3a
 2234 00b8 0B       		.uleb128 0xb
 2235 00b9 3B       		.uleb128 0x3b
 2236 00ba 0B       		.uleb128 0xb
 2237 00bb 27       		.uleb128 0x27
 2238 00bc 19       		.uleb128 0x19
 2239 00bd 11       		.uleb128 0x11
 2240 00be 01       		.uleb128 0x1
 2241 00bf 12       		.uleb128 0x12
 2242 00c0 06       		.uleb128 0x6
 2243 00c1 40       		.uleb128 0x40
 2244 00c2 18       		.uleb128 0x18
 2245 00c3 9742     		.uleb128 0x2117
 2246 00c5 19       		.uleb128 0x19
 2247 00c6 01       		.uleb128 0x1
 2248 00c7 13       		.uleb128 0x13
 2249 00c8 00       		.byte	0
 2250 00c9 00       		.byte	0
 2251 00ca 0E       		.uleb128 0xe
 2252 00cb 1D       		.uleb128 0x1d
 2253 00cc 00       		.byte	0
 2254 00cd 31       		.uleb128 0x31
 2255 00ce 13       		.uleb128 0x13
 2256 00cf 52       		.uleb128 0x52
 2257 00d0 01       		.uleb128 0x1
 2258 00d1 55       		.uleb128 0x55
 2259 00d2 17       		.uleb128 0x17
 2260 00d3 58       		.uleb128 0x58
 2261 00d4 0B       		.uleb128 0xb
 2262 00d5 59       		.uleb128 0x59
 2263 00d6 0B       		.uleb128 0xb
 2264 00d7 00       		.byte	0
 2265 00d8 00       		.byte	0
 2266 00d9 0F       		.uleb128 0xf
 2267 00da 1D       		.uleb128 0x1d
 2268 00db 01       		.byte	0x1
 2269 00dc 31       		.uleb128 0x31
 2270 00dd 13       		.uleb128 0x13
 2271 00de 52       		.uleb128 0x52
 2272 00df 01       		.uleb128 0x1
 2273 00e0 55       		.uleb128 0x55
ARM GAS  C:\Users\Patrick\AppData\Local\Temp\ccMAZXgj.s 			page 70


 2274 00e1 17       		.uleb128 0x17
 2275 00e2 58       		.uleb128 0x58
 2276 00e3 0B       		.uleb128 0xb
 2277 00e4 59       		.uleb128 0x59
 2278 00e5 0B       		.uleb128 0xb
 2279 00e6 00       		.byte	0
 2280 00e7 00       		.byte	0
 2281 00e8 10       		.uleb128 0x10
 2282 00e9 0B       		.uleb128 0xb
 2283 00ea 01       		.byte	0x1
 2284 00eb 55       		.uleb128 0x55
 2285 00ec 17       		.uleb128 0x17
 2286 00ed 00       		.byte	0
 2287 00ee 00       		.byte	0
 2288 00ef 11       		.uleb128 0x11
 2289 00f0 34       		.uleb128 0x34
 2290 00f1 00       		.byte	0
 2291 00f2 31       		.uleb128 0x31
 2292 00f3 13       		.uleb128 0x13
 2293 00f4 02       		.uleb128 0x2
 2294 00f5 17       		.uleb128 0x17
 2295 00f6 00       		.byte	0
 2296 00f7 00       		.byte	0
 2297 00f8 12       		.uleb128 0x12
 2298 00f9 898201   		.uleb128 0x4109
 2299 00fc 00       		.byte	0
 2300 00fd 11       		.uleb128 0x11
 2301 00fe 01       		.uleb128 0x1
 2302 00ff 31       		.uleb128 0x31
 2303 0100 13       		.uleb128 0x13
 2304 0101 00       		.byte	0
 2305 0102 00       		.byte	0
 2306 0103 13       		.uleb128 0x13
 2307 0104 898201   		.uleb128 0x4109
 2308 0107 00       		.byte	0
 2309 0108 11       		.uleb128 0x11
 2310 0109 01       		.uleb128 0x1
 2311 010a 9542     		.uleb128 0x2115
 2312 010c 19       		.uleb128 0x19
 2313 010d 31       		.uleb128 0x31
 2314 010e 13       		.uleb128 0x13
 2315 010f 00       		.byte	0
 2316 0110 00       		.byte	0
 2317 0111 14       		.uleb128 0x14
 2318 0112 2E       		.uleb128 0x2e
 2319 0113 00       		.byte	0
 2320 0114 31       		.uleb128 0x31
 2321 0115 13       		.uleb128 0x13
 2322 0116 11       		.uleb128 0x11
 2323 0117 01       		.uleb128 0x1
 2324 0118 12       		.uleb128 0x12
 2325 0119 06       		.uleb128 0x6
 2326 011a 40       		.uleb128 0x40
 2327 011b 18       		.uleb128 0x18
 2328 011c 9742     		.uleb128 0x2117
 2329 011e 19       		.uleb128 0x19
 2330 011f 00       		.byte	0
ARM GAS  C:\Users\Patrick\AppData\Local\Temp\ccMAZXgj.s 			page 71


 2331 0120 00       		.byte	0
 2332 0121 15       		.uleb128 0x15
 2333 0122 2E       		.uleb128 0x2e
 2334 0123 01       		.byte	0x1
 2335 0124 31       		.uleb128 0x31
 2336 0125 13       		.uleb128 0x13
 2337 0126 11       		.uleb128 0x11
 2338 0127 01       		.uleb128 0x1
 2339 0128 12       		.uleb128 0x12
 2340 0129 06       		.uleb128 0x6
 2341 012a 40       		.uleb128 0x40
 2342 012b 18       		.uleb128 0x18
 2343 012c 9742     		.uleb128 0x2117
 2344 012e 19       		.uleb128 0x19
 2345 012f 01       		.uleb128 0x1
 2346 0130 13       		.uleb128 0x13
 2347 0131 00       		.byte	0
 2348 0132 00       		.byte	0
 2349 0133 16       		.uleb128 0x16
 2350 0134 34       		.uleb128 0x34
 2351 0135 00       		.byte	0
 2352 0136 03       		.uleb128 0x3
 2353 0137 0E       		.uleb128 0xe
 2354 0138 3A       		.uleb128 0x3a
 2355 0139 0B       		.uleb128 0xb
 2356 013a 3B       		.uleb128 0x3b
 2357 013b 0B       		.uleb128 0xb
 2358 013c 49       		.uleb128 0x49
 2359 013d 13       		.uleb128 0x13
 2360 013e 02       		.uleb128 0x2
 2361 013f 17       		.uleb128 0x17
 2362 0140 00       		.byte	0
 2363 0141 00       		.byte	0
 2364 0142 17       		.uleb128 0x17
 2365 0143 2E       		.uleb128 0x2e
 2366 0144 00       		.byte	0
 2367 0145 3F       		.uleb128 0x3f
 2368 0146 19       		.uleb128 0x19
 2369 0147 03       		.uleb128 0x3
 2370 0148 0E       		.uleb128 0xe
 2371 0149 3A       		.uleb128 0x3a
 2372 014a 0B       		.uleb128 0xb
 2373 014b 3B       		.uleb128 0x3b
 2374 014c 05       		.uleb128 0x5
 2375 014d 27       		.uleb128 0x27
 2376 014e 19       		.uleb128 0x19
 2377 014f 49       		.uleb128 0x49
 2378 0150 13       		.uleb128 0x13
 2379 0151 11       		.uleb128 0x11
 2380 0152 01       		.uleb128 0x1
 2381 0153 12       		.uleb128 0x12
 2382 0154 06       		.uleb128 0x6
 2383 0155 40       		.uleb128 0x40
 2384 0156 18       		.uleb128 0x18
 2385 0157 9742     		.uleb128 0x2117
 2386 0159 19       		.uleb128 0x19
 2387 015a 00       		.byte	0
ARM GAS  C:\Users\Patrick\AppData\Local\Temp\ccMAZXgj.s 			page 72


 2388 015b 00       		.byte	0
 2389 015c 18       		.uleb128 0x18
 2390 015d 2E       		.uleb128 0x2e
 2391 015e 01       		.byte	0x1
 2392 015f 3F       		.uleb128 0x3f
 2393 0160 19       		.uleb128 0x19
 2394 0161 03       		.uleb128 0x3
 2395 0162 0E       		.uleb128 0xe
 2396 0163 3A       		.uleb128 0x3a
 2397 0164 0B       		.uleb128 0xb
 2398 0165 3B       		.uleb128 0x3b
 2399 0166 05       		.uleb128 0x5
 2400 0167 27       		.uleb128 0x27
 2401 0168 19       		.uleb128 0x19
 2402 0169 11       		.uleb128 0x11
 2403 016a 01       		.uleb128 0x1
 2404 016b 12       		.uleb128 0x12
 2405 016c 06       		.uleb128 0x6
 2406 016d 40       		.uleb128 0x40
 2407 016e 18       		.uleb128 0x18
 2408 016f 9742     		.uleb128 0x2117
 2409 0171 19       		.uleb128 0x19
 2410 0172 01       		.uleb128 0x1
 2411 0173 13       		.uleb128 0x13
 2412 0174 00       		.byte	0
 2413 0175 00       		.byte	0
 2414 0176 19       		.uleb128 0x19
 2415 0177 05       		.uleb128 0x5
 2416 0178 00       		.byte	0
 2417 0179 03       		.uleb128 0x3
 2418 017a 0E       		.uleb128 0xe
 2419 017b 3A       		.uleb128 0x3a
 2420 017c 0B       		.uleb128 0xb
 2421 017d 3B       		.uleb128 0x3b
 2422 017e 05       		.uleb128 0x5
 2423 017f 49       		.uleb128 0x49
 2424 0180 13       		.uleb128 0x13
 2425 0181 02       		.uleb128 0x2
 2426 0182 18       		.uleb128 0x18
 2427 0183 00       		.byte	0
 2428 0184 00       		.byte	0
 2429 0185 1A       		.uleb128 0x1a
 2430 0186 34       		.uleb128 0x34
 2431 0187 00       		.byte	0
 2432 0188 31       		.uleb128 0x31
 2433 0189 13       		.uleb128 0x13
 2434 018a 02       		.uleb128 0x2
 2435 018b 18       		.uleb128 0x18
 2436 018c 00       		.byte	0
 2437 018d 00       		.byte	0
 2438 018e 1B       		.uleb128 0x1b
 2439 018f 2E       		.uleb128 0x2e
 2440 0190 01       		.byte	0x1
 2441 0191 3F       		.uleb128 0x3f
 2442 0192 19       		.uleb128 0x19
 2443 0193 03       		.uleb128 0x3
 2444 0194 0E       		.uleb128 0xe
ARM GAS  C:\Users\Patrick\AppData\Local\Temp\ccMAZXgj.s 			page 73


 2445 0195 3A       		.uleb128 0x3a
 2446 0196 0B       		.uleb128 0xb
 2447 0197 3B       		.uleb128 0x3b
 2448 0198 05       		.uleb128 0x5
 2449 0199 27       		.uleb128 0x27
 2450 019a 19       		.uleb128 0x19
 2451 019b 49       		.uleb128 0x49
 2452 019c 13       		.uleb128 0x13
 2453 019d 11       		.uleb128 0x11
 2454 019e 01       		.uleb128 0x1
 2455 019f 12       		.uleb128 0x12
 2456 01a0 06       		.uleb128 0x6
 2457 01a1 40       		.uleb128 0x40
 2458 01a2 18       		.uleb128 0x18
 2459 01a3 9742     		.uleb128 0x2117
 2460 01a5 19       		.uleb128 0x19
 2461 01a6 01       		.uleb128 0x1
 2462 01a7 13       		.uleb128 0x13
 2463 01a8 00       		.byte	0
 2464 01a9 00       		.byte	0
 2465 01aa 1C       		.uleb128 0x1c
 2466 01ab 34       		.uleb128 0x34
 2467 01ac 00       		.byte	0
 2468 01ad 03       		.uleb128 0x3
 2469 01ae 0E       		.uleb128 0xe
 2470 01af 3A       		.uleb128 0x3a
 2471 01b0 0B       		.uleb128 0xb
 2472 01b1 3B       		.uleb128 0x3b
 2473 01b2 05       		.uleb128 0x5
 2474 01b3 49       		.uleb128 0x49
 2475 01b4 13       		.uleb128 0x13
 2476 01b5 02       		.uleb128 0x2
 2477 01b6 17       		.uleb128 0x17
 2478 01b7 00       		.byte	0
 2479 01b8 00       		.byte	0
 2480 01b9 1D       		.uleb128 0x1d
 2481 01ba 34       		.uleb128 0x34
 2482 01bb 00       		.byte	0
 2483 01bc 03       		.uleb128 0x3
 2484 01bd 0E       		.uleb128 0xe
 2485 01be 3A       		.uleb128 0x3a
 2486 01bf 0B       		.uleb128 0xb
 2487 01c0 3B       		.uleb128 0x3b
 2488 01c1 05       		.uleb128 0x5
 2489 01c2 49       		.uleb128 0x49
 2490 01c3 13       		.uleb128 0x13
 2491 01c4 02       		.uleb128 0x2
 2492 01c5 18       		.uleb128 0x18
 2493 01c6 00       		.byte	0
 2494 01c7 00       		.byte	0
 2495 01c8 1E       		.uleb128 0x1e
 2496 01c9 1D       		.uleb128 0x1d
 2497 01ca 01       		.byte	0x1
 2498 01cb 31       		.uleb128 0x31
 2499 01cc 13       		.uleb128 0x13
 2500 01cd 52       		.uleb128 0x52
 2501 01ce 01       		.uleb128 0x1
ARM GAS  C:\Users\Patrick\AppData\Local\Temp\ccMAZXgj.s 			page 74


 2502 01cf 55       		.uleb128 0x55
 2503 01d0 17       		.uleb128 0x17
 2504 01d1 58       		.uleb128 0x58
 2505 01d2 0B       		.uleb128 0xb
 2506 01d3 59       		.uleb128 0x59
 2507 01d4 05       		.uleb128 0x5
 2508 01d5 01       		.uleb128 0x1
 2509 01d6 13       		.uleb128 0x13
 2510 01d7 00       		.byte	0
 2511 01d8 00       		.byte	0
 2512 01d9 1F       		.uleb128 0x1f
 2513 01da 1D       		.uleb128 0x1d
 2514 01db 01       		.byte	0x1
 2515 01dc 31       		.uleb128 0x31
 2516 01dd 13       		.uleb128 0x13
 2517 01de 52       		.uleb128 0x52
 2518 01df 01       		.uleb128 0x1
 2519 01e0 55       		.uleb128 0x55
 2520 01e1 17       		.uleb128 0x17
 2521 01e2 58       		.uleb128 0x58
 2522 01e3 0B       		.uleb128 0xb
 2523 01e4 59       		.uleb128 0x59
 2524 01e5 05       		.uleb128 0x5
 2525 01e6 00       		.byte	0
 2526 01e7 00       		.byte	0
 2527 01e8 20       		.uleb128 0x20
 2528 01e9 05       		.uleb128 0x5
 2529 01ea 00       		.byte	0
 2530 01eb 31       		.uleb128 0x31
 2531 01ec 13       		.uleb128 0x13
 2532 01ed 02       		.uleb128 0x2
 2533 01ee 18       		.uleb128 0x18
 2534 01ef 00       		.byte	0
 2535 01f0 00       		.byte	0
 2536 01f1 21       		.uleb128 0x21
 2537 01f2 05       		.uleb128 0x5
 2538 01f3 00       		.byte	0
 2539 01f4 31       		.uleb128 0x31
 2540 01f5 13       		.uleb128 0x13
 2541 01f6 00       		.byte	0
 2542 01f7 00       		.byte	0
 2543 01f8 22       		.uleb128 0x22
 2544 01f9 0F       		.uleb128 0xf
 2545 01fa 00       		.byte	0
 2546 01fb 0B       		.uleb128 0xb
 2547 01fc 0B       		.uleb128 0xb
 2548 01fd 49       		.uleb128 0x49
 2549 01fe 13       		.uleb128 0x13
 2550 01ff 00       		.byte	0
 2551 0200 00       		.byte	0
 2552 0201 23       		.uleb128 0x23
 2553 0202 26       		.uleb128 0x26
 2554 0203 00       		.byte	0
 2555 0204 49       		.uleb128 0x49
 2556 0205 13       		.uleb128 0x13
 2557 0206 00       		.byte	0
 2558 0207 00       		.byte	0
ARM GAS  C:\Users\Patrick\AppData\Local\Temp\ccMAZXgj.s 			page 75


 2559 0208 24       		.uleb128 0x24
 2560 0209 05       		.uleb128 0x5
 2561 020a 00       		.byte	0
 2562 020b 03       		.uleb128 0x3
 2563 020c 0E       		.uleb128 0xe
 2564 020d 3A       		.uleb128 0x3a
 2565 020e 0B       		.uleb128 0xb
 2566 020f 3B       		.uleb128 0x3b
 2567 0210 05       		.uleb128 0x5
 2568 0211 49       		.uleb128 0x49
 2569 0212 13       		.uleb128 0x13
 2570 0213 02       		.uleb128 0x2
 2571 0214 17       		.uleb128 0x17
 2572 0215 00       		.byte	0
 2573 0216 00       		.byte	0
 2574 0217 25       		.uleb128 0x25
 2575 0218 05       		.uleb128 0x5
 2576 0219 00       		.byte	0
 2577 021a 31       		.uleb128 0x31
 2578 021b 13       		.uleb128 0x13
 2579 021c 02       		.uleb128 0x2
 2580 021d 17       		.uleb128 0x17
 2581 021e 00       		.byte	0
 2582 021f 00       		.byte	0
 2583 0220 26       		.uleb128 0x26
 2584 0221 34       		.uleb128 0x34
 2585 0222 00       		.byte	0
 2586 0223 03       		.uleb128 0x3
 2587 0224 0E       		.uleb128 0xe
 2588 0225 3A       		.uleb128 0x3a
 2589 0226 0B       		.uleb128 0xb
 2590 0227 3B       		.uleb128 0x3b
 2591 0228 0B       		.uleb128 0xb
 2592 0229 49       		.uleb128 0x49
 2593 022a 13       		.uleb128 0x13
 2594 022b 3F       		.uleb128 0x3f
 2595 022c 19       		.uleb128 0x19
 2596 022d 02       		.uleb128 0x2
 2597 022e 18       		.uleb128 0x18
 2598 022f 00       		.byte	0
 2599 0230 00       		.byte	0
 2600 0231 27       		.uleb128 0x27
 2601 0232 2E       		.uleb128 0x2e
 2602 0233 00       		.byte	0
 2603 0234 3F       		.uleb128 0x3f
 2604 0235 19       		.uleb128 0x19
 2605 0236 03       		.uleb128 0x3
 2606 0237 0E       		.uleb128 0xe
 2607 0238 3A       		.uleb128 0x3a
 2608 0239 0B       		.uleb128 0xb
 2609 023a 3B       		.uleb128 0x3b
 2610 023b 0B       		.uleb128 0xb
 2611 023c 27       		.uleb128 0x27
 2612 023d 19       		.uleb128 0x19
 2613 023e 49       		.uleb128 0x49
 2614 023f 13       		.uleb128 0x13
 2615 0240 3C       		.uleb128 0x3c
ARM GAS  C:\Users\Patrick\AppData\Local\Temp\ccMAZXgj.s 			page 76


 2616 0241 19       		.uleb128 0x19
 2617 0242 00       		.byte	0
 2618 0243 00       		.byte	0
 2619 0244 28       		.uleb128 0x28
 2620 0245 2E       		.uleb128 0x2e
 2621 0246 00       		.byte	0
 2622 0247 3F       		.uleb128 0x3f
 2623 0248 19       		.uleb128 0x19
 2624 0249 03       		.uleb128 0x3
 2625 024a 0E       		.uleb128 0xe
 2626 024b 3A       		.uleb128 0x3a
 2627 024c 0B       		.uleb128 0xb
 2628 024d 3B       		.uleb128 0x3b
 2629 024e 0B       		.uleb128 0xb
 2630 024f 27       		.uleb128 0x27
 2631 0250 19       		.uleb128 0x19
 2632 0251 3C       		.uleb128 0x3c
 2633 0252 19       		.uleb128 0x19
 2634 0253 00       		.byte	0
 2635 0254 00       		.byte	0
 2636 0255 29       		.uleb128 0x29
 2637 0256 2E       		.uleb128 0x2e
 2638 0257 01       		.byte	0x1
 2639 0258 3F       		.uleb128 0x3f
 2640 0259 19       		.uleb128 0x19
 2641 025a 03       		.uleb128 0x3
 2642 025b 0E       		.uleb128 0xe
 2643 025c 3A       		.uleb128 0x3a
 2644 025d 0B       		.uleb128 0xb
 2645 025e 3B       		.uleb128 0x3b
 2646 025f 0B       		.uleb128 0xb
 2647 0260 27       		.uleb128 0x27
 2648 0261 19       		.uleb128 0x19
 2649 0262 3C       		.uleb128 0x3c
 2650 0263 19       		.uleb128 0x19
 2651 0264 01       		.uleb128 0x1
 2652 0265 13       		.uleb128 0x13
 2653 0266 00       		.byte	0
 2654 0267 00       		.byte	0
 2655 0268 2A       		.uleb128 0x2a
 2656 0269 05       		.uleb128 0x5
 2657 026a 00       		.byte	0
 2658 026b 49       		.uleb128 0x49
 2659 026c 13       		.uleb128 0x13
 2660 026d 00       		.byte	0
 2661 026e 00       		.byte	0
 2662 026f 00       		.byte	0
 2663              		.section	.debug_loc,"",%progbits
 2664              	.Ldebug_loc0:
 2665              	.LLST0:
 2666 0000 3C000000 		.4byte	.LVL1
 2667 0004 64000000 		.4byte	.LVL3
 2668 0008 0100     		.2byte	0x1
 2669 000a 55       		.byte	0x55
 2670 000b 00000000 		.4byte	0
 2671 000f 00000000 		.4byte	0
 2672              	.LLST1:
ARM GAS  C:\Users\Patrick\AppData\Local\Temp\ccMAZXgj.s 			page 77


 2673 0013 08000000 		.4byte	.LVL6
 2674 0017 30000000 		.4byte	.LVL8
 2675 001b 0100     		.2byte	0x1
 2676 001d 55       		.byte	0x55
 2677 001e 00000000 		.4byte	0
 2678 0022 00000000 		.4byte	0
 2679              	.LLST2:
 2680 0026 08000000 		.4byte	.LVL11
 2681 002a 30000000 		.4byte	.LVL13
 2682 002e 0100     		.2byte	0x1
 2683 0030 54       		.byte	0x54
 2684 0031 00000000 		.4byte	0
 2685 0035 00000000 		.4byte	0
 2686              	.LLST3:
 2687 0039 04000000 		.4byte	.LVL18
 2688 003d 08000000 		.4byte	.LVL19
 2689 0041 0600     		.2byte	0x6
 2690 0043 70       		.byte	0x70
 2691 0044 00       		.sleb128 0
 2692 0045 08       		.byte	0x8
 2693 0046 7F       		.byte	0x7f
 2694 0047 1A       		.byte	0x1a
 2695 0048 9F       		.byte	0x9f
 2696 0049 00000000 		.4byte	0
 2697 004d 00000000 		.4byte	0
 2698              	.LLST4:
 2699 0051 00000000 		.4byte	.LVL20
 2700 0055 18000000 		.4byte	.LVL22
 2701 0059 0200     		.2byte	0x2
 2702 005b 30       		.byte	0x30
 2703 005c 9F       		.byte	0x9f
 2704 005d 18000000 		.4byte	.LVL22
 2705 0061 28000000 		.4byte	.LFE9
 2706 0065 0100     		.2byte	0x1
 2707 0067 50       		.byte	0x50
 2708 0068 00000000 		.4byte	0
 2709 006c 00000000 		.4byte	0
 2710              	.LLST5:
 2711 0070 06000000 		.4byte	.LVL24
 2712 0074 0C000000 		.4byte	.LVL26
 2713 0078 0600     		.2byte	0x6
 2714 007a 73       		.byte	0x73
 2715 007b 00       		.sleb128 0
 2716 007c 08       		.byte	0x8
 2717 007d 7F       		.byte	0x7f
 2718 007e 1A       		.byte	0x1a
 2719 007f 9F       		.byte	0x9f
 2720 0080 00000000 		.4byte	0
 2721 0084 00000000 		.4byte	0
 2722              	.LLST6:
 2723 0088 08000000 		.4byte	.LVL25
 2724 008c 10000000 		.4byte	.LVL27
 2725 0090 0100     		.2byte	0x1
 2726 0092 50       		.byte	0x50
 2727 0093 00000000 		.4byte	0
 2728 0097 00000000 		.4byte	0
 2729              	.LLST7:
ARM GAS  C:\Users\Patrick\AppData\Local\Temp\ccMAZXgj.s 			page 78


 2730 009b 04000000 		.4byte	.LVL28
 2731 009f 08000000 		.4byte	.LVL29
 2732 00a3 0A00     		.2byte	0xa
 2733 00a5 70       		.byte	0x70
 2734 00a6 00       		.sleb128 0
 2735 00a7 08       		.byte	0x8
 2736 00a8 20       		.byte	0x20
 2737 00a9 1A       		.byte	0x1a
 2738 00aa 48       		.byte	0x48
 2739 00ab 24       		.byte	0x24
 2740 00ac 30       		.byte	0x30
 2741 00ad 2E       		.byte	0x2e
 2742 00ae 9F       		.byte	0x9f
 2743 00af 00000000 		.4byte	0
 2744 00b3 00000000 		.4byte	0
 2745              	.LLST8:
 2746 00b7 06000000 		.4byte	.LVL30
 2747 00bb 1F000000 		.4byte	.LVL31-1
 2748 00bf 0100     		.2byte	0x1
 2749 00c1 50       		.byte	0x50
 2750 00c2 00000000 		.4byte	0
 2751 00c6 00000000 		.4byte	0
 2752              	.LLST9:
 2753 00ca 00000000 		.4byte	.LVL38
 2754 00ce 12000000 		.4byte	.LVL39
 2755 00d2 0200     		.2byte	0x2
 2756 00d4 30       		.byte	0x30
 2757 00d5 9F       		.byte	0x9f
 2758 00d6 1C000000 		.4byte	.LVL40
 2759 00da 24000000 		.4byte	.LVL41
 2760 00de 0100     		.2byte	0x1
 2761 00e0 51       		.byte	0x51
 2762 00e1 00000000 		.4byte	0
 2763 00e5 00000000 		.4byte	0
 2764              	.LLST10:
 2765 00e9 00000000 		.4byte	.LVL42
 2766 00ed 16000000 		.4byte	.LVL43
 2767 00f1 0100     		.2byte	0x1
 2768 00f3 50       		.byte	0x50
 2769 00f4 16000000 		.4byte	.LVL43
 2770 00f8 38000000 		.4byte	.LFE21
 2771 00fc 0400     		.2byte	0x4
 2772 00fe F3       		.byte	0xf3
 2773 00ff 01       		.uleb128 0x1
 2774 0100 50       		.byte	0x50
 2775 0101 9F       		.byte	0x9f
 2776 0102 00000000 		.4byte	0
 2777 0106 00000000 		.4byte	0
 2778              	.LLST11:
 2779 010a 00000000 		.4byte	.LVL42
 2780 010e 16000000 		.4byte	.LVL43
 2781 0112 0100     		.2byte	0x1
 2782 0114 51       		.byte	0x51
 2783 0115 16000000 		.4byte	.LVL43
 2784 0119 38000000 		.4byte	.LFE21
 2785 011d 0400     		.2byte	0x4
 2786 011f F3       		.byte	0xf3
ARM GAS  C:\Users\Patrick\AppData\Local\Temp\ccMAZXgj.s 			page 79


 2787 0120 01       		.uleb128 0x1
 2788 0121 51       		.byte	0x51
 2789 0122 9F       		.byte	0x9f
 2790 0123 00000000 		.4byte	0
 2791 0127 00000000 		.4byte	0
 2792              	.LLST12:
 2793 012b 00000000 		.4byte	.LVL42
 2794 012f 16000000 		.4byte	.LVL43
 2795 0133 0200     		.2byte	0x2
 2796 0135 30       		.byte	0x30
 2797 0136 9F       		.byte	0x9f
 2798 0137 16000000 		.4byte	.LVL43
 2799 013b 1A000000 		.4byte	.LVL44
 2800 013f 0900     		.2byte	0x9
 2801 0141 71       		.byte	0x71
 2802 0142 00       		.sleb128 0
 2803 0143 F3       		.byte	0xf3
 2804 0144 01       		.uleb128 0x1
 2805 0145 50       		.byte	0x50
 2806 0146 31       		.byte	0x31
 2807 0147 1C       		.byte	0x1c
 2808 0148 1C       		.byte	0x1c
 2809 0149 9F       		.byte	0x9f
 2810 014a 24000000 		.4byte	.LVL45
 2811 014e 28000000 		.4byte	.LVL46
 2812 0152 0900     		.2byte	0x9
 2813 0154 71       		.byte	0x71
 2814 0155 00       		.sleb128 0
 2815 0156 F3       		.byte	0xf3
 2816 0157 01       		.uleb128 0x1
 2817 0158 50       		.byte	0x50
 2818 0159 31       		.byte	0x31
 2819 015a 1C       		.byte	0x1c
 2820 015b 1C       		.byte	0x1c
 2821 015c 9F       		.byte	0x9f
 2822 015d 00000000 		.4byte	0
 2823 0161 00000000 		.4byte	0
 2824              	.LLST13:
 2825 0165 1A000000 		.4byte	.LVL44
 2826 0169 28000000 		.4byte	.LVL46
 2827 016d 0100     		.2byte	0x1
 2828 016f 50       		.byte	0x50
 2829 0170 00000000 		.4byte	0
 2830 0174 00000000 		.4byte	0
 2831              	.LLST14:
 2832 0178 14000000 		.4byte	.LVL48
 2833 017c 2E000000 		.4byte	.LVL50
 2834 0180 0200     		.2byte	0x2
 2835 0182 3D       		.byte	0x3d
 2836 0183 9F       		.byte	0x9f
 2837 0184 00000000 		.4byte	0
 2838 0188 00000000 		.4byte	0
 2839              	.LLST15:
 2840 018c 22000000 		.4byte	.LVL49
 2841 0190 2E000000 		.4byte	.LVL50
 2842 0194 0200     		.2byte	0x2
 2843 0196 3A       		.byte	0x3a
ARM GAS  C:\Users\Patrick\AppData\Local\Temp\ccMAZXgj.s 			page 80


 2844 0197 9F       		.byte	0x9f
 2845 0198 00000000 		.4byte	0
 2846 019c 00000000 		.4byte	0
 2847              	.LLST16:
 2848 01a0 06000000 		.4byte	.LVL51
 2849 01a4 0E000000 		.4byte	.LVL52
 2850 01a8 0100     		.2byte	0x1
 2851 01aa 50       		.byte	0x50
 2852 01ab 14000000 		.4byte	.LVL53
 2853 01af 1C000000 		.4byte	.LFE23
 2854 01b3 0100     		.2byte	0x1
 2855 01b5 50       		.byte	0x50
 2856 01b6 00000000 		.4byte	0
 2857 01ba 00000000 		.4byte	0
 2858              	.LLST17:
 2859 01be 06000000 		.4byte	.LVL54
 2860 01c2 1F000000 		.4byte	.LVL55-1
 2861 01c6 0100     		.2byte	0x1
 2862 01c8 50       		.byte	0x50
 2863 01c9 00000000 		.4byte	0
 2864 01cd 00000000 		.4byte	0
 2865              	.LLST18:
 2866 01d1 00000000 		.4byte	.LVL56
 2867 01d5 2C000000 		.4byte	.LVL59
 2868 01d9 0100     		.2byte	0x1
 2869 01db 50       		.byte	0x50
 2870 01dc 2C000000 		.4byte	.LVL59
 2871 01e0 3A000000 		.4byte	.LVL60
 2872 01e4 0400     		.2byte	0x4
 2873 01e6 F3       		.byte	0xf3
 2874 01e7 01       		.uleb128 0x1
 2875 01e8 50       		.byte	0x50
 2876 01e9 9F       		.byte	0x9f
 2877 01ea 3A000000 		.4byte	.LVL60
 2878 01ee 5C000000 		.4byte	.LFE25
 2879 01f2 0100     		.2byte	0x1
 2880 01f4 50       		.byte	0x50
 2881 01f5 00000000 		.4byte	0
 2882 01f9 00000000 		.4byte	0
 2883              	.LLST19:
 2884 01fd 1E000000 		.4byte	.LVL57
 2885 0201 26000000 		.4byte	.LVL58
 2886 0205 0100     		.2byte	0x1
 2887 0207 53       		.byte	0x53
 2888 0208 46000000 		.4byte	.LVL61
 2889 020c 48000000 		.4byte	.LVL62
 2890 0210 0100     		.2byte	0x1
 2891 0212 53       		.byte	0x53
 2892 0213 00000000 		.4byte	0
 2893 0217 00000000 		.4byte	0
 2894              		.section	.debug_aranges,"",%progbits
 2895 0000 EC000000 		.4byte	0xec
 2896 0004 0200     		.2byte	0x2
 2897 0006 00000000 		.4byte	.Ldebug_info0
 2898 000a 04       		.byte	0x4
 2899 000b 00       		.byte	0
 2900 000c 0000     		.2byte	0
ARM GAS  C:\Users\Patrick\AppData\Local\Temp\ccMAZXgj.s 			page 81


 2901 000e 0000     		.2byte	0
 2902 0010 00000000 		.4byte	.LFB0
 2903 0014 8C000000 		.4byte	.LFE0-.LFB0
 2904 0018 00000000 		.4byte	.LFB1
 2905 001c 3C000000 		.4byte	.LFE1-.LFB1
 2906 0020 00000000 		.4byte	.LFB2
 2907 0024 40000000 		.4byte	.LFE2-.LFB2
 2908 0028 00000000 		.4byte	.LFB3
 2909 002c 40000000 		.4byte	.LFE3-.LFB3
 2910 0030 00000000 		.4byte	.LFB4
 2911 0034 04000000 		.4byte	.LFE4-.LFB4
 2912 0038 00000000 		.4byte	.LFB5
 2913 003c 02000000 		.4byte	.LFE5-.LFB5
 2914 0040 00000000 		.4byte	.LFB6
 2915 0044 0C000000 		.4byte	.LFE6-.LFB6
 2916 0048 00000000 		.4byte	.LFB7
 2917 004c 0C000000 		.4byte	.LFE7-.LFB7
 2918 0050 00000000 		.4byte	.LFB8
 2919 0054 10000000 		.4byte	.LFE8-.LFB8
 2920 0058 00000000 		.4byte	.LFB9
 2921 005c 28000000 		.4byte	.LFE9-.LFB9
 2922 0060 00000000 		.4byte	.LFB10
 2923 0064 1C000000 		.4byte	.LFE10-.LFB10
 2924 0068 00000000 		.4byte	.LFB11
 2925 006c 10000000 		.4byte	.LFE11-.LFB11
 2926 0070 00000000 		.4byte	.LFB12
 2927 0074 24000000 		.4byte	.LFE12-.LFB12
 2928 0078 00000000 		.4byte	.LFB13
 2929 007c 02000000 		.4byte	.LFE13-.LFB13
 2930 0080 00000000 		.4byte	.LFB14
 2931 0084 0C000000 		.4byte	.LFE14-.LFB14
 2932 0088 00000000 		.4byte	.LFB15
 2933 008c 0C000000 		.4byte	.LFE15-.LFB15
 2934 0090 00000000 		.4byte	.LFB16
 2935 0094 0C000000 		.4byte	.LFE16-.LFB16
 2936 0098 00000000 		.4byte	.LFB17
 2937 009c 14000000 		.4byte	.LFE17-.LFB17
 2938 00a0 00000000 		.4byte	.LFB18
 2939 00a4 0C000000 		.4byte	.LFE18-.LFB18
 2940 00a8 00000000 		.4byte	.LFB19
 2941 00ac 18000000 		.4byte	.LFE19-.LFB19
 2942 00b0 00000000 		.4byte	.LFB20
 2943 00b4 34000000 		.4byte	.LFE20-.LFB20
 2944 00b8 00000000 		.4byte	.LFB21
 2945 00bc 38000000 		.4byte	.LFE21-.LFB21
 2946 00c0 00000000 		.4byte	.LFB22
 2947 00c4 3C000000 		.4byte	.LFE22-.LFB22
 2948 00c8 00000000 		.4byte	.LFB23
 2949 00cc 1C000000 		.4byte	.LFE23-.LFB23
 2950 00d0 00000000 		.4byte	.LFB24
 2951 00d4 24000000 		.4byte	.LFE24-.LFB24
 2952 00d8 00000000 		.4byte	.LFB25
 2953 00dc 5C000000 		.4byte	.LFE25-.LFB25
 2954 00e0 00000000 		.4byte	.LFB26
 2955 00e4 02000000 		.4byte	.LFE26-.LFB26
 2956 00e8 00000000 		.4byte	0
 2957 00ec 00000000 		.4byte	0
ARM GAS  C:\Users\Patrick\AppData\Local\Temp\ccMAZXgj.s 			page 82


 2958              		.section	.debug_ranges,"",%progbits
 2959              	.Ldebug_ranges0:
 2960 0000 0A000000 		.4byte	.LBB22
 2961 0004 24000000 		.4byte	.LBE22
 2962 0008 26000000 		.4byte	.LBB25
 2963 000c 34000000 		.4byte	.LBE25
 2964 0010 00000000 		.4byte	0
 2965 0014 00000000 		.4byte	0
 2966 0018 36000000 		.4byte	.LBB26
 2967 001c 60000000 		.4byte	.LBE26
 2968 0020 64000000 		.4byte	.LBB29
 2969 0024 8C000000 		.4byte	.LBE29
 2970 0028 00000000 		.4byte	0
 2971 002c 00000000 		.4byte	0
 2972 0030 00000000 		.4byte	.LBB30
 2973 0034 02000000 		.4byte	.LBE30
 2974 0038 04000000 		.4byte	.LBB36
 2975 003c 06000000 		.4byte	.LBE36
 2976 0040 00000000 		.4byte	0
 2977 0044 00000000 		.4byte	0
 2978 0048 02000000 		.4byte	.LBB33
 2979 004c 04000000 		.4byte	.LBE33
 2980 0050 06000000 		.4byte	.LBB37
 2981 0054 08000000 		.4byte	.LBE37
 2982 0058 00000000 		.4byte	0
 2983 005c 00000000 		.4byte	0
 2984 0060 0C000000 		.4byte	.LBB38
 2985 0064 10000000 		.4byte	.LBE38
 2986 0068 12000000 		.4byte	.LBB42
 2987 006c 18000000 		.4byte	.LBE42
 2988 0070 1C000000 		.4byte	.LBB43
 2989 0074 1E000000 		.4byte	.LBE43
 2990 0078 00000000 		.4byte	0
 2991 007c 00000000 		.4byte	0
 2992 0080 0E000000 		.4byte	.LBB44
 2993 0084 16000000 		.4byte	.LBE44
 2994 0088 1A000000 		.4byte	.LBB48
 2995 008c 20000000 		.4byte	.LBE48
 2996 0090 22000000 		.4byte	.LBB49
 2997 0094 24000000 		.4byte	.LBE49
 2998 0098 00000000 		.4byte	0
 2999 009c 00000000 		.4byte	0
 3000 00a0 06000000 		.4byte	.LBB50
 3001 00a4 10000000 		.4byte	.LBE50
 3002 00a8 12000000 		.4byte	.LBB57
 3003 00ac 14000000 		.4byte	.LBE57
 3004 00b0 00000000 		.4byte	0
 3005 00b4 00000000 		.4byte	0
 3006 00b8 10000000 		.4byte	.LBB53
 3007 00bc 12000000 		.4byte	.LBE53
 3008 00c0 14000000 		.4byte	.LBB58
 3009 00c4 1E000000 		.4byte	.LBE58
 3010 00c8 20000000 		.4byte	.LBB62
 3011 00cc 22000000 		.4byte	.LBE62
 3012 00d0 00000000 		.4byte	0
 3013 00d4 00000000 		.4byte	0
 3014 00d8 1E000000 		.4byte	.LBB59
ARM GAS  C:\Users\Patrick\AppData\Local\Temp\ccMAZXgj.s 			page 83


 3015 00dc 20000000 		.4byte	.LBE59
 3016 00e0 22000000 		.4byte	.LBB63
 3017 00e4 3C000000 		.4byte	.LBE63
 3018 00e8 00000000 		.4byte	0
 3019 00ec 00000000 		.4byte	0
 3020 00f0 08000000 		.4byte	.LBB64
 3021 00f4 36000000 		.4byte	.LBE64
 3022 00f8 3A000000 		.4byte	.LBB65
 3023 00fc 5C000000 		.4byte	.LBE65
 3024 0100 00000000 		.4byte	0
 3025 0104 00000000 		.4byte	0
 3026 0108 00000000 		.4byte	.LFB0
 3027 010c 8C000000 		.4byte	.LFE0
 3028 0110 00000000 		.4byte	.LFB1
 3029 0114 3C000000 		.4byte	.LFE1
 3030 0118 00000000 		.4byte	.LFB2
 3031 011c 40000000 		.4byte	.LFE2
 3032 0120 00000000 		.4byte	.LFB3
 3033 0124 40000000 		.4byte	.LFE3
 3034 0128 00000000 		.4byte	.LFB4
 3035 012c 04000000 		.4byte	.LFE4
 3036 0130 00000000 		.4byte	.LFB5
 3037 0134 02000000 		.4byte	.LFE5
 3038 0138 00000000 		.4byte	.LFB6
 3039 013c 0C000000 		.4byte	.LFE6
 3040 0140 00000000 		.4byte	.LFB7
 3041 0144 0C000000 		.4byte	.LFE7
 3042 0148 00000000 		.4byte	.LFB8
 3043 014c 10000000 		.4byte	.LFE8
 3044 0150 00000000 		.4byte	.LFB9
 3045 0154 28000000 		.4byte	.LFE9
 3046 0158 00000000 		.4byte	.LFB10
 3047 015c 1C000000 		.4byte	.LFE10
 3048 0160 00000000 		.4byte	.LFB11
 3049 0164 10000000 		.4byte	.LFE11
 3050 0168 00000000 		.4byte	.LFB12
 3051 016c 24000000 		.4byte	.LFE12
 3052 0170 00000000 		.4byte	.LFB13
 3053 0174 02000000 		.4byte	.LFE13
 3054 0178 00000000 		.4byte	.LFB14
 3055 017c 0C000000 		.4byte	.LFE14
 3056 0180 00000000 		.4byte	.LFB15
 3057 0184 0C000000 		.4byte	.LFE15
 3058 0188 00000000 		.4byte	.LFB16
 3059 018c 0C000000 		.4byte	.LFE16
 3060 0190 00000000 		.4byte	.LFB17
 3061 0194 14000000 		.4byte	.LFE17
 3062 0198 00000000 		.4byte	.LFB18
 3063 019c 0C000000 		.4byte	.LFE18
 3064 01a0 00000000 		.4byte	.LFB19
 3065 01a4 18000000 		.4byte	.LFE19
 3066 01a8 00000000 		.4byte	.LFB20
 3067 01ac 34000000 		.4byte	.LFE20
 3068 01b0 00000000 		.4byte	.LFB21
 3069 01b4 38000000 		.4byte	.LFE21
 3070 01b8 00000000 		.4byte	.LFB22
 3071 01bc 3C000000 		.4byte	.LFE22
ARM GAS  C:\Users\Patrick\AppData\Local\Temp\ccMAZXgj.s 			page 84


 3072 01c0 00000000 		.4byte	.LFB23
 3073 01c4 1C000000 		.4byte	.LFE23
 3074 01c8 00000000 		.4byte	.LFB24
 3075 01cc 24000000 		.4byte	.LFE24
 3076 01d0 00000000 		.4byte	.LFB25
 3077 01d4 5C000000 		.4byte	.LFE25
 3078 01d8 00000000 		.4byte	.LFB26
 3079 01dc 02000000 		.4byte	.LFE26
 3080 01e0 00000000 		.4byte	0
 3081 01e4 00000000 		.4byte	0
 3082              		.section	.debug_line,"",%progbits
 3083              	.Ldebug_line0:
 3084 0000 86030000 		.section	.debug_str,"MS",%progbits,1
 3084      02006500 
 3084      00000201 
 3084      FB0E0D00 
 3084      01010101 
 3085              	.LASF10:
 3086 0000 75696E74 		.ascii	"uint16\000"
 3086      313600
 3087              	.LASF53:
 3088 0007 55415254 		.ascii	"UART_1_ClearTxBuffer\000"
 3088      5F315F43 
 3088      6C656172 
 3088      54784275 
 3088      66666572 
 3089              	.LASF61:
 3090 001c 43794578 		.ascii	"CyExitCriticalSection\000"
 3090      69744372 
 3090      69746963 
 3090      616C5365 
 3090      6374696F 
 3091              	.LASF43:
 3092 0032 74784461 		.ascii	"txDataByte\000"
 3092      74614279 
 3092      746500
 3093              	.LASF21:
 3094 003d 55415254 		.ascii	"UART_1_PutChar\000"
 3094      5F315F50 
 3094      75744368 
 3094      617200
 3095              	.LASF47:
 3096 004c 73747269 		.ascii	"string\000"
 3096      6E6700
 3097              	.LASF54:
 3098 0053 55415254 		.ascii	"UART_1_SendBreak\000"
 3098      5F315F53 
 3098      656E6442 
 3098      7265616B 
 3098      00
 3099              	.LASF18:
 3100 0064 55415254 		.ascii	"UART_1_ReadRxData\000"
 3100      5F315F52 
 3100      65616452 
 3100      78446174 
 3100      6100
 3101              	.LASF7:
ARM GAS  C:\Users\Patrick\AppData\Local\Temp\ccMAZXgj.s 			page 85


 3102 0076 6C6F6E67 		.ascii	"long long unsigned int\000"
 3102      206C6F6E 
 3102      6720756E 
 3102      7369676E 
 3102      65642069 
 3103              	.LASF52:
 3104 008d 55415254 		.ascii	"UART_1_GetTxBufferSize\000"
 3104      5F315F47 
 3104      65745478 
 3104      42756666 
 3104      65725369 
 3105              	.LASF6:
 3106 00a4 6C6F6E67 		.ascii	"long long int\000"
 3106      206C6F6E 
 3106      6720696E 
 3106      7400
 3107              	.LASF0:
 3108 00b2 7369676E 		.ascii	"signed char\000"
 3108      65642063 
 3108      68617200 
 3109              	.LASF57:
 3110 00be 74785065 		.ascii	"txPeriod\000"
 3110      72696F64 
 3110      00
 3111              	.LASF51:
 3112 00c7 55415254 		.ascii	"UART_1_PutCRLF\000"
 3112      5F315F50 
 3112      75744352 
 3112      4C4600
 3113              	.LASF4:
 3114 00d6 6C6F6E67 		.ascii	"long int\000"
 3114      20696E74 
 3114      00
 3115              	.LASF24:
 3116 00df 55415254 		.ascii	"UART_1_Start\000"
 3116      5F315F53 
 3116      74617274 
 3116      00
 3117              	.LASF9:
 3118 00ec 75696E74 		.ascii	"uint8\000"
 3118      3800
 3119              	.LASF12:
 3120 00f2 646F7562 		.ascii	"double\000"
 3120      6C6500
 3121              	.LASF37:
 3122 00f9 61646472 		.ascii	"addressMode\000"
 3122      6573734D 
 3122      6F646500 
 3123              	.LASF64:
 3124 0105 2E5C4765 		.ascii	".\\Generated_Source\\PSoC5\\UART_1.c\000"
 3124      6E657261 
 3124      7465645F 
 3124      536F7572 
 3124      63655C50 
 3125              	.LASF28:
 3126 0127 636F6E74 		.ascii	"control\000"
 3126      726F6C00 
ARM GAS  C:\Users\Patrick\AppData\Local\Temp\ccMAZXgj.s 			page 86


 3127              	.LASF27:
 3128 012f 55415254 		.ascii	"UART_1_SetRxInterruptMode\000"
 3128      5F315F53 
 3128      65745278 
 3128      496E7465 
 3128      72727570 
 3129              	.LASF55:
 3130 0149 7265744D 		.ascii	"retMode\000"
 3130      6F646500 
 3131              	.LASF8:
 3132 0151 756E7369 		.ascii	"unsigned int\000"
 3132      676E6564 
 3132      20696E74 
 3132      00
 3133              	.LASF45:
 3134 015e 55415254 		.ascii	"UART_1_ReadTxStatus\000"
 3134      5F315F52 
 3134      65616454 
 3134      78537461 
 3134      74757300 
 3135              	.LASF5:
 3136 0172 6C6F6E67 		.ascii	"long unsigned int\000"
 3136      20756E73 
 3136      69676E65 
 3136      6420696E 
 3136      7400
 3137              	.LASF67:
 3138 0184 4379456E 		.ascii	"CyEnterCriticalSection\000"
 3138      74657243 
 3138      72697469 
 3138      63616C53 
 3138      65637469 
 3139              	.LASF34:
 3140 019b 73697A65 		.ascii	"size\000"
 3140      00
 3141              	.LASF3:
 3142 01a0 73686F72 		.ascii	"short unsigned int\000"
 3142      7420756E 
 3142      7369676E 
 3142      65642069 
 3142      6E7400
 3143              	.LASF22:
 3144 01b3 55415254 		.ascii	"UART_1_Enable\000"
 3144      5F315F45 
 3144      6E61626C 
 3144      6500
 3145              	.LASF48:
 3146 01c1 62756649 		.ascii	"bufIndex\000"
 3146      6E646578 
 3146      00
 3147              	.LASF58:
 3148 01ca 55415254 		.ascii	"UART_1_SetTxAddressMode\000"
 3148      5F315F53 
 3148      65745478 
 3148      41646472 
 3148      6573734D 
 3149              	.LASF29:
ARM GAS  C:\Users\Patrick\AppData\Local\Temp\ccMAZXgj.s 			page 87


 3150 01e2 696E7453 		.ascii	"intSrc\000"
 3150      726300
 3151              	.LASF44:
 3152 01e9 55415254 		.ascii	"UART_1_ReadControlRegister\000"
 3152      5F315F52 
 3152      65616443 
 3152      6F6E7472 
 3152      6F6C5265 
 3153              	.LASF25:
 3154 0204 55415254 		.ascii	"UART_1_Stop\000"
 3154      5F315F53 
 3154      746F7000 
 3155              	.LASF32:
 3156 0210 55415254 		.ascii	"UART_1_GetByte\000"
 3156      5F315F47 
 3156      65744279 
 3156      746500
 3157              	.LASF42:
 3158 021f 55415254 		.ascii	"UART_1_WriteTxData\000"
 3158      5F315F57 
 3158      72697465 
 3158      54784461 
 3158      746100
 3159              	.LASF56:
 3160 0232 746D7053 		.ascii	"tmpStat\000"
 3160      74617400 
 3161              	.LASF16:
 3162 023a 73697A65 		.ascii	"sizetype\000"
 3162      74797065 
 3162      00
 3163              	.LASF38:
 3164 0243 55415254 		.ascii	"UART_1_SetRxAddress1\000"
 3164      5F315F53 
 3164      65745278 
 3164      41646472 
 3164      65737331 
 3165              	.LASF40:
 3166 0258 55415254 		.ascii	"UART_1_SetRxAddress2\000"
 3166      5F315F53 
 3166      65745278 
 3166      41646472 
 3166      65737332 
 3167              	.LASF39:
 3168 026d 61646472 		.ascii	"address\000"
 3168      65737300 
 3169              	.LASF30:
 3170 0275 72785374 		.ascii	"rxStatus\000"
 3170      61747573 
 3170      00
 3171              	.LASF41:
 3172 027e 55415254 		.ascii	"UART_1_SetTxInterruptMode\000"
 3172      5F315F53 
 3172      65745478 
 3172      496E7465 
 3172      72727570 
 3173              	.LASF11:
 3174 0298 666C6F61 		.ascii	"float\000"
ARM GAS  C:\Users\Patrick\AppData\Local\Temp\ccMAZXgj.s 			page 88


 3174      7400
 3175              	.LASF46:
 3176 029e 55415254 		.ascii	"UART_1_PutString\000"
 3176      5F315F50 
 3176      75745374 
 3176      72696E67 
 3176      00
 3177              	.LASF35:
 3178 02af 55415254 		.ascii	"UART_1_ClearRxBuffer\000"
 3178      5F315F43 
 3178      6C656172 
 3178      52784275 
 3178      66666572 
 3179              	.LASF36:
 3180 02c4 55415254 		.ascii	"UART_1_SetRxAddressMode\000"
 3180      5F315F53 
 3180      65745278 
 3180      41646472 
 3180      6573734D 
 3181              	.LASF15:
 3182 02dc 72656738 		.ascii	"reg8\000"
 3182      00
 3183              	.LASF1:
 3184 02e1 756E7369 		.ascii	"unsigned char\000"
 3184      676E6564 
 3184      20636861 
 3184      7200
 3185              	.LASF2:
 3186 02ef 73686F72 		.ascii	"short int\000"
 3186      7420696E 
 3186      7400
 3187              	.LASF26:
 3188 02f9 55415254 		.ascii	"UART_1_WriteControlRegister\000"
 3188      5F315F57 
 3188      72697465 
 3188      436F6E74 
 3188      726F6C52 
 3189              	.LASF66:
 3190 0315 55415254 		.ascii	"UART_1_initVar\000"
 3190      5F315F69 
 3190      6E697456 
 3190      617200
 3191              	.LASF50:
 3192 0324 62797465 		.ascii	"byteCount\000"
 3192      436F756E 
 3192      7400
 3193              	.LASF33:
 3194 032e 55415254 		.ascii	"UART_1_GetRxBufferSize\000"
 3194      5F315F47 
 3194      65745278 
 3194      42756666 
 3194      65725369 
 3195              	.LASF20:
 3196 0345 72784461 		.ascii	"rxData\000"
 3196      746100
 3197              	.LASF14:
 3198 034c 63686172 		.ascii	"char\000"
ARM GAS  C:\Users\Patrick\AppData\Local\Temp\ccMAZXgj.s 			page 89


 3198      00
 3199              	.LASF65:
 3200 0351 433A5C55 		.ascii	"C:\\Users\\Patrick\\Documents\\GitHub\\PSoC 5LP FIl"
 3200      73657273 
 3200      5C506174 
 3200      7269636B 
 3200      5C446F63 
 3201 037f 65735C43 		.ascii	"es\\C-CAN_PSoC_DevKit\\C-CAN.cydsn\000"
 3201      2D43414E 
 3201      5F50536F 
 3201      435F4465 
 3201      764B6974 
 3202              	.LASF13:
 3203 03a0 63686172 		.ascii	"char8\000"
 3203      3800
 3204              	.LASF59:
 3205 03a6 55415254 		.ascii	"UART_1_Init\000"
 3205      5F315F49 
 3205      6E697400 
 3206              	.LASF23:
 3207 03b2 656E6162 		.ascii	"enableInterrupts\000"
 3207      6C65496E 
 3207      74657272 
 3207      75707473 
 3207      00
 3208              	.LASF19:
 3209 03c3 73746174 		.ascii	"status\000"
 3209      757300
 3210              	.LASF60:
 3211 03ca 55415254 		.ascii	"UART_1_IntClock_Start\000"
 3211      5F315F49 
 3211      6E74436C 
 3211      6F636B5F 
 3211      53746172 
 3212              	.LASF62:
 3213 03e0 55415254 		.ascii	"UART_1_IntClock_Stop\000"
 3213      5F315F49 
 3213      6E74436C 
 3213      6F636B5F 
 3213      53746F70 
 3214              	.LASF17:
 3215 03f5 55415254 		.ascii	"UART_1_ReadRxStatus\000"
 3215      5F315F52 
 3215      65616452 
 3215      78537461 
 3215      74757300 
 3216              	.LASF63:
 3217 0409 474E5520 		.ascii	"GNU C 4.9.3 20150303 (release) [ARM/embedded-4_9-br"
 3217      4320342E 
 3217      392E3320 
 3217      32303135 
 3217      30333033 
 3218 043c 616E6368 		.ascii	"anch revision 221220] -mcpu=cortex-m3 -mthumb -g -O"
 3218      20726576 
 3218      6973696F 
 3218      6E203232 
 3218      31323230 
ARM GAS  C:\Users\Patrick\AppData\Local\Temp\ccMAZXgj.s 			page 90


 3219 046f 33202D66 		.ascii	"3 -ffunction-sections -ffat-lto-objects\000"
 3219      66756E63 
 3219      74696F6E 
 3219      2D736563 
 3219      74696F6E 
 3220              	.LASF31:
 3221 0497 55415254 		.ascii	"UART_1_GetChar\000"
 3221      5F315F47 
 3221      65744368 
 3221      617200
 3222              	.LASF49:
 3223 04a6 55415254 		.ascii	"UART_1_PutArray\000"
 3223      5F315F50 
 3223      75744172 
 3223      72617900 
 3224              		.ident	"GCC: (GNU Tools for ARM Embedded Processors) 4.9.3 20150303 (release) [ARM/embedded-4_9-br
