ARM GAS  C:\Users\Patrick\AppData\Local\Temp\ccFUkQgi.s 			page 1


   1              		.syntax unified
   2              		.cpu cortex-m3
   3              		.fpu softvfp
   4              		.eabi_attribute 20, 1
   5              		.eabi_attribute 21, 1
   6              		.eabi_attribute 23, 3
   7              		.eabi_attribute 24, 1
   8              		.eabi_attribute 25, 1
   9              		.eabi_attribute 26, 1
  10              		.eabi_attribute 30, 6
  11              		.eabi_attribute 34, 1
  12              		.eabi_attribute 18, 4
  13              		.thumb
  14              		.file	"UART_1.c"
  15              		.text
  16              	.Ltext0:
  17              		.cfi_sections	.debug_frame
  18              		.global	UART_1_initVar
  19              		.bss
  20              		.type	UART_1_initVar, %object
  21              		.size	UART_1_initVar, 1
  22              	UART_1_initVar:
  23 0000 00       		.space	1
  24              		.comm	UART_1_txBuffer,80,4
  25              		.global	UART_1_txBufferRead
  26              		.type	UART_1_txBufferRead, %object
  27              		.size	UART_1_txBufferRead, 1
  28              	UART_1_txBufferRead:
  29 0001 00       		.space	1
  30              		.global	UART_1_txBufferWrite
  31              		.type	UART_1_txBufferWrite, %object
  32              		.size	UART_1_txBufferWrite, 1
  33              	UART_1_txBufferWrite:
  34 0002 00       		.space	1
  35              		.global	UART_1_errorStatus
  36              		.type	UART_1_errorStatus, %object
  37              		.size	UART_1_errorStatus, 1
  38              	UART_1_errorStatus:
  39 0003 00       		.space	1
  40              		.comm	UART_1_rxBuffer,80,4
  41              		.global	UART_1_rxBufferRead
  42              		.type	UART_1_rxBufferRead, %object
  43              		.size	UART_1_rxBufferRead, 1
  44              	UART_1_rxBufferRead:
  45 0004 00       		.space	1
  46              		.global	UART_1_rxBufferWrite
  47              		.type	UART_1_rxBufferWrite, %object
  48              		.size	UART_1_rxBufferWrite, 1
  49              	UART_1_rxBufferWrite:
  50 0005 00       		.space	1
  51              		.global	UART_1_rxBufferLoopDetect
  52              		.type	UART_1_rxBufferLoopDetect, %object
  53              		.size	UART_1_rxBufferLoopDetect, 1
  54              	UART_1_rxBufferLoopDetect:
  55 0006 00       		.space	1
  56              		.global	UART_1_rxBufferOverflow
  57              		.type	UART_1_rxBufferOverflow, %object
ARM GAS  C:\Users\Patrick\AppData\Local\Temp\ccFUkQgi.s 			page 2


  58              		.size	UART_1_rxBufferOverflow, 1
  59              	UART_1_rxBufferOverflow:
  60 0007 00       		.space	1
  61              		.section	.text.UART_1_Start,"ax",%progbits
  62              		.align	2
  63              		.global	UART_1_Start
  64              		.thumb
  65              		.thumb_func
  66              		.type	UART_1_Start, %function
  67              	UART_1_Start:
  68              	.LFB0:
  69              		.file 1 ".\\Generated_Source\\PSoC5\\UART_1.c"
   1:.\Generated_Source\PSoC5/UART_1.c **** /*******************************************************************************
   2:.\Generated_Source\PSoC5/UART_1.c **** * File Name: UART_1.c
   3:.\Generated_Source\PSoC5/UART_1.c **** * Version 2.50
   4:.\Generated_Source\PSoC5/UART_1.c **** *
   5:.\Generated_Source\PSoC5/UART_1.c **** * Description:
   6:.\Generated_Source\PSoC5/UART_1.c **** *  This file provides all API functionality of the UART component
   7:.\Generated_Source\PSoC5/UART_1.c **** *
   8:.\Generated_Source\PSoC5/UART_1.c **** * Note:
   9:.\Generated_Source\PSoC5/UART_1.c **** *
  10:.\Generated_Source\PSoC5/UART_1.c **** ********************************************************************************
  11:.\Generated_Source\PSoC5/UART_1.c **** * Copyright 2008-2015, Cypress Semiconductor Corporation.  All rights reserved.
  12:.\Generated_Source\PSoC5/UART_1.c **** * You may use this file only in accordance with the license, terms, conditions,
  13:.\Generated_Source\PSoC5/UART_1.c **** * disclaimers, and limitations in the end user license agreement accompanying
  14:.\Generated_Source\PSoC5/UART_1.c **** * the software package with which this file was provided.
  15:.\Generated_Source\PSoC5/UART_1.c **** *******************************************************************************/
  16:.\Generated_Source\PSoC5/UART_1.c **** 
  17:.\Generated_Source\PSoC5/UART_1.c **** #include "UART_1.h"
  18:.\Generated_Source\PSoC5/UART_1.c **** #if (UART_1_INTERNAL_CLOCK_USED)
  19:.\Generated_Source\PSoC5/UART_1.c ****     #include "UART_1_IntClock.h"
  20:.\Generated_Source\PSoC5/UART_1.c **** #endif /* End UART_1_INTERNAL_CLOCK_USED */
  21:.\Generated_Source\PSoC5/UART_1.c **** 
  22:.\Generated_Source\PSoC5/UART_1.c **** 
  23:.\Generated_Source\PSoC5/UART_1.c **** /***************************************
  24:.\Generated_Source\PSoC5/UART_1.c **** * Global data allocation
  25:.\Generated_Source\PSoC5/UART_1.c **** ***************************************/
  26:.\Generated_Source\PSoC5/UART_1.c **** 
  27:.\Generated_Source\PSoC5/UART_1.c **** uint8 UART_1_initVar = 0u;
  28:.\Generated_Source\PSoC5/UART_1.c **** 
  29:.\Generated_Source\PSoC5/UART_1.c **** #if (UART_1_TX_INTERRUPT_ENABLED && UART_1_TX_ENABLED)
  30:.\Generated_Source\PSoC5/UART_1.c ****     volatile uint8 UART_1_txBuffer[UART_1_TX_BUFFER_SIZE];
  31:.\Generated_Source\PSoC5/UART_1.c ****     volatile uint8 UART_1_txBufferRead = 0u;
  32:.\Generated_Source\PSoC5/UART_1.c ****     uint8 UART_1_txBufferWrite = 0u;
  33:.\Generated_Source\PSoC5/UART_1.c **** #endif /* (UART_1_TX_INTERRUPT_ENABLED && UART_1_TX_ENABLED) */
  34:.\Generated_Source\PSoC5/UART_1.c **** 
  35:.\Generated_Source\PSoC5/UART_1.c **** #if (UART_1_RX_INTERRUPT_ENABLED && (UART_1_RX_ENABLED || UART_1_HD_ENABLED))
  36:.\Generated_Source\PSoC5/UART_1.c ****     uint8 UART_1_errorStatus = 0u;
  37:.\Generated_Source\PSoC5/UART_1.c ****     volatile uint8 UART_1_rxBuffer[UART_1_RX_BUFFER_SIZE];
  38:.\Generated_Source\PSoC5/UART_1.c ****     volatile uint8 UART_1_rxBufferRead  = 0u;
  39:.\Generated_Source\PSoC5/UART_1.c ****     volatile uint8 UART_1_rxBufferWrite = 0u;
  40:.\Generated_Source\PSoC5/UART_1.c ****     volatile uint8 UART_1_rxBufferLoopDetect = 0u;
  41:.\Generated_Source\PSoC5/UART_1.c ****     volatile uint8 UART_1_rxBufferOverflow   = 0u;
  42:.\Generated_Source\PSoC5/UART_1.c ****     #if (UART_1_RXHW_ADDRESS_ENABLED)
  43:.\Generated_Source\PSoC5/UART_1.c ****         volatile uint8 UART_1_rxAddressMode = UART_1_RX_ADDRESS_MODE;
  44:.\Generated_Source\PSoC5/UART_1.c ****         volatile uint8 UART_1_rxAddressDetected = 0u;
  45:.\Generated_Source\PSoC5/UART_1.c ****     #endif /* (UART_1_RXHW_ADDRESS_ENABLED) */
ARM GAS  C:\Users\Patrick\AppData\Local\Temp\ccFUkQgi.s 			page 3


  46:.\Generated_Source\PSoC5/UART_1.c **** #endif /* (UART_1_RX_INTERRUPT_ENABLED && (UART_1_RX_ENABLED || UART_1_HD_ENABLED)) */
  47:.\Generated_Source\PSoC5/UART_1.c **** 
  48:.\Generated_Source\PSoC5/UART_1.c **** 
  49:.\Generated_Source\PSoC5/UART_1.c **** /*******************************************************************************
  50:.\Generated_Source\PSoC5/UART_1.c **** * Function Name: UART_1_Start
  51:.\Generated_Source\PSoC5/UART_1.c **** ********************************************************************************
  52:.\Generated_Source\PSoC5/UART_1.c **** *
  53:.\Generated_Source\PSoC5/UART_1.c **** * Summary:
  54:.\Generated_Source\PSoC5/UART_1.c **** *  This is the preferred method to begin component operation.
  55:.\Generated_Source\PSoC5/UART_1.c **** *  UART_1_Start() sets the initVar variable, calls the
  56:.\Generated_Source\PSoC5/UART_1.c **** *  UART_1_Init() function, and then calls the
  57:.\Generated_Source\PSoC5/UART_1.c **** *  UART_1_Enable() function.
  58:.\Generated_Source\PSoC5/UART_1.c **** *
  59:.\Generated_Source\PSoC5/UART_1.c **** * Parameters:
  60:.\Generated_Source\PSoC5/UART_1.c **** *  None.
  61:.\Generated_Source\PSoC5/UART_1.c **** *
  62:.\Generated_Source\PSoC5/UART_1.c **** * Return:
  63:.\Generated_Source\PSoC5/UART_1.c **** *  None.
  64:.\Generated_Source\PSoC5/UART_1.c **** *
  65:.\Generated_Source\PSoC5/UART_1.c **** * Global variables:
  66:.\Generated_Source\PSoC5/UART_1.c **** *  The UART_1_intiVar variable is used to indicate initial
  67:.\Generated_Source\PSoC5/UART_1.c **** *  configuration of this component. The variable is initialized to zero (0u)
  68:.\Generated_Source\PSoC5/UART_1.c **** *  and set to one (1u) the first time UART_1_Start() is called. This
  69:.\Generated_Source\PSoC5/UART_1.c **** *  allows for component initialization without re-initialization in all
  70:.\Generated_Source\PSoC5/UART_1.c **** *  subsequent calls to the UART_1_Start() routine.
  71:.\Generated_Source\PSoC5/UART_1.c **** *
  72:.\Generated_Source\PSoC5/UART_1.c **** * Reentrant:
  73:.\Generated_Source\PSoC5/UART_1.c **** *  No.
  74:.\Generated_Source\PSoC5/UART_1.c **** *
  75:.\Generated_Source\PSoC5/UART_1.c **** *******************************************************************************/
  76:.\Generated_Source\PSoC5/UART_1.c **** void UART_1_Start(void) 
  77:.\Generated_Source\PSoC5/UART_1.c **** {
  70              		.loc 1 77 0
  71              		.cfi_startproc
  72              		@ args = 0, pretend = 0, frame = 0
  73              		@ frame_needed = 1, uses_anonymous_args = 0
  74 0000 80B5     		push	{r7, lr}
  75              		.cfi_def_cfa_offset 8
  76              		.cfi_offset 7, -8
  77              		.cfi_offset 14, -4
  78 0002 00AF     		add	r7, sp, #0
  79              		.cfi_def_cfa_register 7
  78:.\Generated_Source\PSoC5/UART_1.c ****     /* If not initialized then initialize all required hardware and software */
  79:.\Generated_Source\PSoC5/UART_1.c ****     if(UART_1_initVar == 0u)
  80              		.loc 1 79 0
  81 0004 054B     		ldr	r3, .L3
  82 0006 1B78     		ldrb	r3, [r3]	@ zero_extendqisi2
  83 0008 002B     		cmp	r3, #0
  84 000a 04D1     		bne	.L2
  80:.\Generated_Source\PSoC5/UART_1.c ****     {
  81:.\Generated_Source\PSoC5/UART_1.c ****         UART_1_Init();
  85              		.loc 1 81 0
  86 000c FFF7FEFF 		bl	UART_1_Init
  82:.\Generated_Source\PSoC5/UART_1.c ****         UART_1_initVar = 1u;
  87              		.loc 1 82 0
  88 0010 024B     		ldr	r3, .L3
  89 0012 0122     		movs	r2, #1
ARM GAS  C:\Users\Patrick\AppData\Local\Temp\ccFUkQgi.s 			page 4


  90 0014 1A70     		strb	r2, [r3]
  91              	.L2:
  83:.\Generated_Source\PSoC5/UART_1.c ****     }
  84:.\Generated_Source\PSoC5/UART_1.c **** 
  85:.\Generated_Source\PSoC5/UART_1.c ****     UART_1_Enable();
  92              		.loc 1 85 0
  93 0016 FFF7FEFF 		bl	UART_1_Enable
  86:.\Generated_Source\PSoC5/UART_1.c **** }
  94              		.loc 1 86 0
  95 001a 80BD     		pop	{r7, pc}
  96              	.L4:
  97              		.align	2
  98              	.L3:
  99 001c 00000000 		.word	UART_1_initVar
 100              		.cfi_endproc
 101              	.LFE0:
 102              		.size	UART_1_Start, .-UART_1_Start
 103              		.section	.text.UART_1_Init,"ax",%progbits
 104              		.align	2
 105              		.global	UART_1_Init
 106              		.thumb
 107              		.thumb_func
 108              		.type	UART_1_Init, %function
 109              	UART_1_Init:
 110              	.LFB1:
  87:.\Generated_Source\PSoC5/UART_1.c **** 
  88:.\Generated_Source\PSoC5/UART_1.c **** 
  89:.\Generated_Source\PSoC5/UART_1.c **** /*******************************************************************************
  90:.\Generated_Source\PSoC5/UART_1.c **** * Function Name: UART_1_Init
  91:.\Generated_Source\PSoC5/UART_1.c **** ********************************************************************************
  92:.\Generated_Source\PSoC5/UART_1.c **** *
  93:.\Generated_Source\PSoC5/UART_1.c **** * Summary:
  94:.\Generated_Source\PSoC5/UART_1.c **** *  Initializes or restores the component according to the customizer Configure
  95:.\Generated_Source\PSoC5/UART_1.c **** *  dialog settings. It is not necessary to call UART_1_Init() because
  96:.\Generated_Source\PSoC5/UART_1.c **** *  the UART_1_Start() API calls this function and is the preferred
  97:.\Generated_Source\PSoC5/UART_1.c **** *  method to begin component operation.
  98:.\Generated_Source\PSoC5/UART_1.c **** *
  99:.\Generated_Source\PSoC5/UART_1.c **** * Parameters:
 100:.\Generated_Source\PSoC5/UART_1.c **** *  None.
 101:.\Generated_Source\PSoC5/UART_1.c **** *
 102:.\Generated_Source\PSoC5/UART_1.c **** * Return:
 103:.\Generated_Source\PSoC5/UART_1.c **** *  None.
 104:.\Generated_Source\PSoC5/UART_1.c **** *
 105:.\Generated_Source\PSoC5/UART_1.c **** *******************************************************************************/
 106:.\Generated_Source\PSoC5/UART_1.c **** void UART_1_Init(void) 
 107:.\Generated_Source\PSoC5/UART_1.c **** {
 111              		.loc 1 107 0
 112              		.cfi_startproc
 113              		@ args = 0, pretend = 0, frame = 0
 114              		@ frame_needed = 1, uses_anonymous_args = 0
 115 0000 80B5     		push	{r7, lr}
 116              		.cfi_def_cfa_offset 8
 117              		.cfi_offset 7, -8
 118              		.cfi_offset 14, -4
 119 0002 00AF     		add	r7, sp, #0
 120              		.cfi_def_cfa_register 7
 108:.\Generated_Source\PSoC5/UART_1.c ****     #if(UART_1_RX_ENABLED || UART_1_HD_ENABLED)
ARM GAS  C:\Users\Patrick\AppData\Local\Temp\ccFUkQgi.s 			page 5


 109:.\Generated_Source\PSoC5/UART_1.c **** 
 110:.\Generated_Source\PSoC5/UART_1.c ****         #if (UART_1_RX_INTERRUPT_ENABLED)
 111:.\Generated_Source\PSoC5/UART_1.c ****             /* Set RX interrupt vector and priority */
 112:.\Generated_Source\PSoC5/UART_1.c ****             (void) CyIntSetVector(UART_1_RX_VECT_NUM, &UART_1_RXISR);
 121              		.loc 1 112 0
 122 0004 0120     		movs	r0, #1
 123 0006 1149     		ldr	r1, .L6
 124 0008 FFF7FEFF 		bl	CyIntSetVector
 113:.\Generated_Source\PSoC5/UART_1.c ****             CyIntSetPriority(UART_1_RX_VECT_NUM, UART_1_RX_PRIOR_NUM);
 125              		.loc 1 113 0
 126 000c 0120     		movs	r0, #1
 127 000e 0721     		movs	r1, #7
 128 0010 FFF7FEFF 		bl	CyIntSetPriority
 114:.\Generated_Source\PSoC5/UART_1.c ****             UART_1_errorStatus = 0u;
 129              		.loc 1 114 0
 130 0014 0E4B     		ldr	r3, .L6+4
 131 0016 0022     		movs	r2, #0
 132 0018 1A70     		strb	r2, [r3]
 115:.\Generated_Source\PSoC5/UART_1.c ****         #endif /* (UART_1_RX_INTERRUPT_ENABLED) */
 116:.\Generated_Source\PSoC5/UART_1.c **** 
 117:.\Generated_Source\PSoC5/UART_1.c ****         #if (UART_1_RXHW_ADDRESS_ENABLED)
 118:.\Generated_Source\PSoC5/UART_1.c ****             UART_1_SetRxAddressMode(UART_1_RX_ADDRESS_MODE);
 119:.\Generated_Source\PSoC5/UART_1.c ****             UART_1_SetRxAddress1(UART_1_RX_HW_ADDRESS1);
 120:.\Generated_Source\PSoC5/UART_1.c ****             UART_1_SetRxAddress2(UART_1_RX_HW_ADDRESS2);
 121:.\Generated_Source\PSoC5/UART_1.c ****         #endif /* End UART_1_RXHW_ADDRESS_ENABLED */
 122:.\Generated_Source\PSoC5/UART_1.c **** 
 123:.\Generated_Source\PSoC5/UART_1.c ****         /* Init Count7 period */
 124:.\Generated_Source\PSoC5/UART_1.c ****         UART_1_RXBITCTR_PERIOD_REG = UART_1_RXBITCTR_INIT;
 133              		.loc 1 124 0
 134 001a 0E4B     		ldr	r3, .L6+8
 135 001c 7222     		movs	r2, #114
 136 001e 1A70     		strb	r2, [r3]
 125:.\Generated_Source\PSoC5/UART_1.c ****         /* Configure the Initial RX interrupt mask */
 126:.\Generated_Source\PSoC5/UART_1.c ****         UART_1_RXSTATUS_MASK_REG  = UART_1_INIT_RX_INTERRUPTS_MASK;
 137              		.loc 1 126 0
 138 0020 0D4B     		ldr	r3, .L6+12
 139 0022 2022     		movs	r2, #32
 140 0024 1A70     		strb	r2, [r3]
 127:.\Generated_Source\PSoC5/UART_1.c ****     #endif /* End UART_1_RX_ENABLED || UART_1_HD_ENABLED*/
 128:.\Generated_Source\PSoC5/UART_1.c **** 
 129:.\Generated_Source\PSoC5/UART_1.c ****     #if(UART_1_TX_ENABLED)
 130:.\Generated_Source\PSoC5/UART_1.c ****         #if (UART_1_TX_INTERRUPT_ENABLED)
 131:.\Generated_Source\PSoC5/UART_1.c ****             /* Set TX interrupt vector and priority */
 132:.\Generated_Source\PSoC5/UART_1.c ****             (void) CyIntSetVector(UART_1_TX_VECT_NUM, &UART_1_TXISR);
 141              		.loc 1 132 0
 142 0026 0220     		movs	r0, #2
 143 0028 0C49     		ldr	r1, .L6+16
 144 002a FFF7FEFF 		bl	CyIntSetVector
 133:.\Generated_Source\PSoC5/UART_1.c ****             CyIntSetPriority(UART_1_TX_VECT_NUM, UART_1_TX_PRIOR_NUM);
 145              		.loc 1 133 0
 146 002e 0220     		movs	r0, #2
 147 0030 0721     		movs	r1, #7
 148 0032 FFF7FEFF 		bl	CyIntSetPriority
 134:.\Generated_Source\PSoC5/UART_1.c ****         #endif /* (UART_1_TX_INTERRUPT_ENABLED) */
 135:.\Generated_Source\PSoC5/UART_1.c **** 
 136:.\Generated_Source\PSoC5/UART_1.c ****         /* Write Counter Value for TX Bit Clk Generator*/
 137:.\Generated_Source\PSoC5/UART_1.c ****         #if (UART_1_TXCLKGEN_DP)
ARM GAS  C:\Users\Patrick\AppData\Local\Temp\ccFUkQgi.s 			page 6


 138:.\Generated_Source\PSoC5/UART_1.c ****             UART_1_TXBITCLKGEN_CTR_REG = UART_1_BIT_CENTER;
 149              		.loc 1 138 0
 150 0036 0A4B     		ldr	r3, .L6+20
 151 0038 0622     		movs	r2, #6
 152 003a 1A70     		strb	r2, [r3]
 139:.\Generated_Source\PSoC5/UART_1.c ****             UART_1_TXBITCLKTX_COMPLETE_REG = ((UART_1_NUMBER_OF_DATA_BITS +
 153              		.loc 1 139 0
 154 003c 094B     		ldr	r3, .L6+24
 155 003e 4722     		movs	r2, #71
 156 0040 1A70     		strb	r2, [r3]
 140:.\Generated_Source\PSoC5/UART_1.c ****                         UART_1_NUMBER_OF_START_BIT) * UART_1_OVER_SAMPLE_COUNT) - 1u;
 141:.\Generated_Source\PSoC5/UART_1.c ****         #else
 142:.\Generated_Source\PSoC5/UART_1.c ****             UART_1_TXBITCTR_PERIOD_REG = ((UART_1_NUMBER_OF_DATA_BITS +
 143:.\Generated_Source\PSoC5/UART_1.c ****                         UART_1_NUMBER_OF_START_BIT) * UART_1_OVER_SAMPLE_8) - 1u;
 144:.\Generated_Source\PSoC5/UART_1.c ****         #endif /* End UART_1_TXCLKGEN_DP */
 145:.\Generated_Source\PSoC5/UART_1.c **** 
 146:.\Generated_Source\PSoC5/UART_1.c ****         /* Configure the Initial TX interrupt mask */
 147:.\Generated_Source\PSoC5/UART_1.c ****         #if (UART_1_TX_INTERRUPT_ENABLED)
 148:.\Generated_Source\PSoC5/UART_1.c ****             UART_1_TXSTATUS_MASK_REG = UART_1_TX_STS_FIFO_EMPTY;
 157              		.loc 1 148 0
 158 0042 094B     		ldr	r3, .L6+28
 159 0044 0222     		movs	r2, #2
 160 0046 1A70     		strb	r2, [r3]
 149:.\Generated_Source\PSoC5/UART_1.c ****         #else
 150:.\Generated_Source\PSoC5/UART_1.c ****             UART_1_TXSTATUS_MASK_REG = UART_1_INIT_TX_INTERRUPTS_MASK;
 151:.\Generated_Source\PSoC5/UART_1.c ****         #endif /*End UART_1_TX_INTERRUPT_ENABLED*/
 152:.\Generated_Source\PSoC5/UART_1.c **** 
 153:.\Generated_Source\PSoC5/UART_1.c ****     #endif /* End UART_1_TX_ENABLED */
 154:.\Generated_Source\PSoC5/UART_1.c **** 
 155:.\Generated_Source\PSoC5/UART_1.c ****     #if(UART_1_PARITY_TYPE_SW)  /* Write Parity to Control Register */
 156:.\Generated_Source\PSoC5/UART_1.c ****         UART_1_WriteControlRegister( \
 157:.\Generated_Source\PSoC5/UART_1.c ****             (UART_1_ReadControlRegister() & (uint8)~UART_1_CTRL_PARITY_TYPE_MASK) | \
 158:.\Generated_Source\PSoC5/UART_1.c ****             (uint8)(UART_1_PARITY_TYPE << UART_1_CTRL_PARITY_TYPE0_SHIFT) );
 159:.\Generated_Source\PSoC5/UART_1.c ****     #endif /* End UART_1_PARITY_TYPE_SW */
 160:.\Generated_Source\PSoC5/UART_1.c **** }
 161              		.loc 1 160 0
 162 0048 80BD     		pop	{r7, pc}
 163              	.L7:
 164 004a 00BF     		.align	2
 165              	.L6:
 166 004c 00000000 		.word	UART_1_RXISR
 167 0050 00000000 		.word	UART_1_errorStatus
 168 0054 89650040 		.word	1073767817
 169 0058 88640040 		.word	1073767560
 170 005c 00000000 		.word	UART_1_TXISR
 171 0060 28640040 		.word	1073767464
 172 0064 38640040 		.word	1073767480
 173 0068 8A640040 		.word	1073767562
 174              		.cfi_endproc
 175              	.LFE1:
 176              		.size	UART_1_Init, .-UART_1_Init
 177              		.section	.text.UART_1_Enable,"ax",%progbits
 178              		.align	2
 179              		.global	UART_1_Enable
 180              		.thumb
 181              		.thumb_func
 182              		.type	UART_1_Enable, %function
ARM GAS  C:\Users\Patrick\AppData\Local\Temp\ccFUkQgi.s 			page 7


 183              	UART_1_Enable:
 184              	.LFB2:
 161:.\Generated_Source\PSoC5/UART_1.c **** 
 162:.\Generated_Source\PSoC5/UART_1.c **** 
 163:.\Generated_Source\PSoC5/UART_1.c **** /*******************************************************************************
 164:.\Generated_Source\PSoC5/UART_1.c **** * Function Name: UART_1_Enable
 165:.\Generated_Source\PSoC5/UART_1.c **** ********************************************************************************
 166:.\Generated_Source\PSoC5/UART_1.c **** *
 167:.\Generated_Source\PSoC5/UART_1.c **** * Summary:
 168:.\Generated_Source\PSoC5/UART_1.c **** *  Activates the hardware and begins component operation. It is not necessary
 169:.\Generated_Source\PSoC5/UART_1.c **** *  to call UART_1_Enable() because the UART_1_Start() API
 170:.\Generated_Source\PSoC5/UART_1.c **** *  calls this function, which is the preferred method to begin component
 171:.\Generated_Source\PSoC5/UART_1.c **** *  operation.
 172:.\Generated_Source\PSoC5/UART_1.c **** 
 173:.\Generated_Source\PSoC5/UART_1.c **** * Parameters:
 174:.\Generated_Source\PSoC5/UART_1.c **** *  None.
 175:.\Generated_Source\PSoC5/UART_1.c **** *
 176:.\Generated_Source\PSoC5/UART_1.c **** * Return:
 177:.\Generated_Source\PSoC5/UART_1.c **** *  None.
 178:.\Generated_Source\PSoC5/UART_1.c **** *
 179:.\Generated_Source\PSoC5/UART_1.c **** * Global Variables:
 180:.\Generated_Source\PSoC5/UART_1.c **** *  UART_1_rxAddressDetected - set to initial state (0).
 181:.\Generated_Source\PSoC5/UART_1.c **** *
 182:.\Generated_Source\PSoC5/UART_1.c **** *******************************************************************************/
 183:.\Generated_Source\PSoC5/UART_1.c **** void UART_1_Enable(void) 
 184:.\Generated_Source\PSoC5/UART_1.c **** {
 185              		.loc 1 184 0
 186              		.cfi_startproc
 187              		@ args = 0, pretend = 0, frame = 8
 188              		@ frame_needed = 1, uses_anonymous_args = 0
 189 0000 80B5     		push	{r7, lr}
 190              		.cfi_def_cfa_offset 8
 191              		.cfi_offset 7, -8
 192              		.cfi_offset 14, -4
 193 0002 82B0     		sub	sp, sp, #8
 194              		.cfi_def_cfa_offset 16
 195 0004 00AF     		add	r7, sp, #0
 196              		.cfi_def_cfa_register 7
 185:.\Generated_Source\PSoC5/UART_1.c ****     uint8 enableInterrupts;
 186:.\Generated_Source\PSoC5/UART_1.c ****     enableInterrupts = CyEnterCriticalSection();
 197              		.loc 1 186 0
 198 0006 FFF7FEFF 		bl	CyEnterCriticalSection
 199 000a 0346     		mov	r3, r0
 200 000c FB71     		strb	r3, [r7, #7]
 187:.\Generated_Source\PSoC5/UART_1.c **** 
 188:.\Generated_Source\PSoC5/UART_1.c ****     #if (UART_1_RX_ENABLED || UART_1_HD_ENABLED)
 189:.\Generated_Source\PSoC5/UART_1.c ****         /* RX Counter (Count7) Enable */
 190:.\Generated_Source\PSoC5/UART_1.c ****         UART_1_RXBITCTR_CONTROL_REG |= UART_1_CNTR_ENABLE;
 201              		.loc 1 190 0
 202 000e 154A     		ldr	r2, .L9
 203 0010 144B     		ldr	r3, .L9
 204 0012 1B78     		ldrb	r3, [r3]
 205 0014 DBB2     		uxtb	r3, r3
 206 0016 43F02003 		orr	r3, r3, #32
 207 001a DBB2     		uxtb	r3, r3
 208 001c 1370     		strb	r3, [r2]
 191:.\Generated_Source\PSoC5/UART_1.c **** 
ARM GAS  C:\Users\Patrick\AppData\Local\Temp\ccFUkQgi.s 			page 8


 192:.\Generated_Source\PSoC5/UART_1.c ****         /* Enable the RX Interrupt */
 193:.\Generated_Source\PSoC5/UART_1.c ****         UART_1_RXSTATUS_ACTL_REG  |= UART_1_INT_ENABLE;
 209              		.loc 1 193 0
 210 001e 124A     		ldr	r2, .L9+4
 211 0020 114B     		ldr	r3, .L9+4
 212 0022 1B78     		ldrb	r3, [r3]
 213 0024 DBB2     		uxtb	r3, r3
 214 0026 43F01003 		orr	r3, r3, #16
 215 002a DBB2     		uxtb	r3, r3
 216 002c 1370     		strb	r3, [r2]
 194:.\Generated_Source\PSoC5/UART_1.c **** 
 195:.\Generated_Source\PSoC5/UART_1.c ****         #if (UART_1_RX_INTERRUPT_ENABLED)
 196:.\Generated_Source\PSoC5/UART_1.c ****             UART_1_EnableRxInt();
 217              		.loc 1 196 0
 218 002e 0F4B     		ldr	r3, .L9+8
 219 0030 0222     		movs	r2, #2
 220 0032 1A60     		str	r2, [r3]
 197:.\Generated_Source\PSoC5/UART_1.c **** 
 198:.\Generated_Source\PSoC5/UART_1.c ****             #if (UART_1_RXHW_ADDRESS_ENABLED)
 199:.\Generated_Source\PSoC5/UART_1.c ****                 UART_1_rxAddressDetected = 0u;
 200:.\Generated_Source\PSoC5/UART_1.c ****             #endif /* (UART_1_RXHW_ADDRESS_ENABLED) */
 201:.\Generated_Source\PSoC5/UART_1.c ****         #endif /* (UART_1_RX_INTERRUPT_ENABLED) */
 202:.\Generated_Source\PSoC5/UART_1.c ****     #endif /* (UART_1_RX_ENABLED || UART_1_HD_ENABLED) */
 203:.\Generated_Source\PSoC5/UART_1.c **** 
 204:.\Generated_Source\PSoC5/UART_1.c ****     #if(UART_1_TX_ENABLED)
 205:.\Generated_Source\PSoC5/UART_1.c ****         /* TX Counter (DP/Count7) Enable */
 206:.\Generated_Source\PSoC5/UART_1.c ****         #if(!UART_1_TXCLKGEN_DP)
 207:.\Generated_Source\PSoC5/UART_1.c ****             UART_1_TXBITCTR_CONTROL_REG |= UART_1_CNTR_ENABLE;
 208:.\Generated_Source\PSoC5/UART_1.c ****         #endif /* End UART_1_TXCLKGEN_DP */
 209:.\Generated_Source\PSoC5/UART_1.c **** 
 210:.\Generated_Source\PSoC5/UART_1.c ****         /* Enable the TX Interrupt */
 211:.\Generated_Source\PSoC5/UART_1.c ****         UART_1_TXSTATUS_ACTL_REG |= UART_1_INT_ENABLE;
 221              		.loc 1 211 0
 222 0034 0E4A     		ldr	r2, .L9+12
 223 0036 0E4B     		ldr	r3, .L9+12
 224 0038 1B78     		ldrb	r3, [r3]
 225 003a DBB2     		uxtb	r3, r3
 226 003c 43F01003 		orr	r3, r3, #16
 227 0040 DBB2     		uxtb	r3, r3
 228 0042 1370     		strb	r3, [r2]
 212:.\Generated_Source\PSoC5/UART_1.c ****         #if (UART_1_TX_INTERRUPT_ENABLED)
 213:.\Generated_Source\PSoC5/UART_1.c ****             UART_1_ClearPendingTxInt(); /* Clear history of TX_NOT_EMPTY */
 229              		.loc 1 213 0
 230 0044 0B4B     		ldr	r3, .L9+16
 231 0046 0422     		movs	r2, #4
 232 0048 1A60     		str	r2, [r3]
 214:.\Generated_Source\PSoC5/UART_1.c ****             UART_1_EnableTxInt();
 233              		.loc 1 214 0
 234 004a 084B     		ldr	r3, .L9+8
 235 004c 0422     		movs	r2, #4
 236 004e 1A60     		str	r2, [r3]
 215:.\Generated_Source\PSoC5/UART_1.c ****         #endif /* (UART_1_TX_INTERRUPT_ENABLED) */
 216:.\Generated_Source\PSoC5/UART_1.c ****      #endif /* (UART_1_TX_INTERRUPT_ENABLED) */
 217:.\Generated_Source\PSoC5/UART_1.c **** 
 218:.\Generated_Source\PSoC5/UART_1.c ****     #if (UART_1_INTERNAL_CLOCK_USED)
 219:.\Generated_Source\PSoC5/UART_1.c ****         UART_1_IntClock_Start();  /* Enable the clock */
 237              		.loc 1 219 0
ARM GAS  C:\Users\Patrick\AppData\Local\Temp\ccFUkQgi.s 			page 9


 238 0050 FFF7FEFF 		bl	UART_1_IntClock_Start
 220:.\Generated_Source\PSoC5/UART_1.c ****     #endif /* (UART_1_INTERNAL_CLOCK_USED) */
 221:.\Generated_Source\PSoC5/UART_1.c **** 
 222:.\Generated_Source\PSoC5/UART_1.c ****     CyExitCriticalSection(enableInterrupts);
 239              		.loc 1 222 0
 240 0054 FB79     		ldrb	r3, [r7, #7]	@ zero_extendqisi2
 241 0056 1846     		mov	r0, r3
 242 0058 FFF7FEFF 		bl	CyExitCriticalSection
 223:.\Generated_Source\PSoC5/UART_1.c **** }
 243              		.loc 1 223 0
 244 005c 0837     		adds	r7, r7, #8
 245              		.cfi_def_cfa_offset 8
 246 005e BD46     		mov	sp, r7
 247              		.cfi_def_cfa_register 13
 248              		@ sp needed
 249 0060 80BD     		pop	{r7, pc}
 250              	.L10:
 251 0062 00BF     		.align	2
 252              	.L9:
 253 0064 99650040 		.word	1073767833
 254 0068 98640040 		.word	1073767576
 255 006c 00E100E0 		.word	-536813312
 256 0070 9A640040 		.word	1073767578
 257 0074 80E200E0 		.word	-536812928
 258              		.cfi_endproc
 259              	.LFE2:
 260              		.size	UART_1_Enable, .-UART_1_Enable
 261              		.section	.text.UART_1_Stop,"ax",%progbits
 262              		.align	2
 263              		.global	UART_1_Stop
 264              		.thumb
 265              		.thumb_func
 266              		.type	UART_1_Stop, %function
 267              	UART_1_Stop:
 268              	.LFB3:
 224:.\Generated_Source\PSoC5/UART_1.c **** 
 225:.\Generated_Source\PSoC5/UART_1.c **** 
 226:.\Generated_Source\PSoC5/UART_1.c **** /*******************************************************************************
 227:.\Generated_Source\PSoC5/UART_1.c **** * Function Name: UART_1_Stop
 228:.\Generated_Source\PSoC5/UART_1.c **** ********************************************************************************
 229:.\Generated_Source\PSoC5/UART_1.c **** *
 230:.\Generated_Source\PSoC5/UART_1.c **** * Summary:
 231:.\Generated_Source\PSoC5/UART_1.c **** *  Disables the UART operation.
 232:.\Generated_Source\PSoC5/UART_1.c **** *
 233:.\Generated_Source\PSoC5/UART_1.c **** * Parameters:
 234:.\Generated_Source\PSoC5/UART_1.c **** *  None.
 235:.\Generated_Source\PSoC5/UART_1.c **** *
 236:.\Generated_Source\PSoC5/UART_1.c **** * Return:
 237:.\Generated_Source\PSoC5/UART_1.c **** *  None.
 238:.\Generated_Source\PSoC5/UART_1.c **** *
 239:.\Generated_Source\PSoC5/UART_1.c **** *******************************************************************************/
 240:.\Generated_Source\PSoC5/UART_1.c **** void UART_1_Stop(void) 
 241:.\Generated_Source\PSoC5/UART_1.c **** {
 269              		.loc 1 241 0
 270              		.cfi_startproc
 271              		@ args = 0, pretend = 0, frame = 8
 272              		@ frame_needed = 1, uses_anonymous_args = 0
ARM GAS  C:\Users\Patrick\AppData\Local\Temp\ccFUkQgi.s 			page 10


 273 0000 80B5     		push	{r7, lr}
 274              		.cfi_def_cfa_offset 8
 275              		.cfi_offset 7, -8
 276              		.cfi_offset 14, -4
 277 0002 82B0     		sub	sp, sp, #8
 278              		.cfi_def_cfa_offset 16
 279 0004 00AF     		add	r7, sp, #0
 280              		.cfi_def_cfa_register 7
 242:.\Generated_Source\PSoC5/UART_1.c ****     uint8 enableInterrupts;
 243:.\Generated_Source\PSoC5/UART_1.c ****     enableInterrupts = CyEnterCriticalSection();
 281              		.loc 1 243 0
 282 0006 FFF7FEFF 		bl	CyEnterCriticalSection
 283 000a 0346     		mov	r3, r0
 284 000c FB71     		strb	r3, [r7, #7]
 244:.\Generated_Source\PSoC5/UART_1.c **** 
 245:.\Generated_Source\PSoC5/UART_1.c ****     /* Write Bit Counter Disable */
 246:.\Generated_Source\PSoC5/UART_1.c ****     #if (UART_1_RX_ENABLED || UART_1_HD_ENABLED)
 247:.\Generated_Source\PSoC5/UART_1.c ****         UART_1_RXBITCTR_CONTROL_REG &= (uint8) ~UART_1_CNTR_ENABLE;
 285              		.loc 1 247 0
 286 000e 134A     		ldr	r2, .L12
 287 0010 124B     		ldr	r3, .L12
 288 0012 1B78     		ldrb	r3, [r3]
 289 0014 DBB2     		uxtb	r3, r3
 290 0016 23F02003 		bic	r3, r3, #32
 291 001a DBB2     		uxtb	r3, r3
 292 001c 1370     		strb	r3, [r2]
 248:.\Generated_Source\PSoC5/UART_1.c ****     #endif /* (UART_1_RX_ENABLED || UART_1_HD_ENABLED) */
 249:.\Generated_Source\PSoC5/UART_1.c **** 
 250:.\Generated_Source\PSoC5/UART_1.c ****     #if (UART_1_TX_ENABLED)
 251:.\Generated_Source\PSoC5/UART_1.c ****         #if(!UART_1_TXCLKGEN_DP)
 252:.\Generated_Source\PSoC5/UART_1.c ****             UART_1_TXBITCTR_CONTROL_REG &= (uint8) ~UART_1_CNTR_ENABLE;
 253:.\Generated_Source\PSoC5/UART_1.c ****         #endif /* (!UART_1_TXCLKGEN_DP) */
 254:.\Generated_Source\PSoC5/UART_1.c ****     #endif /* (UART_1_TX_ENABLED) */
 255:.\Generated_Source\PSoC5/UART_1.c **** 
 256:.\Generated_Source\PSoC5/UART_1.c ****     #if (UART_1_INTERNAL_CLOCK_USED)
 257:.\Generated_Source\PSoC5/UART_1.c ****         UART_1_IntClock_Stop();   /* Disable the clock */
 293              		.loc 1 257 0
 294 001e FFF7FEFF 		bl	UART_1_IntClock_Stop
 258:.\Generated_Source\PSoC5/UART_1.c ****     #endif /* (UART_1_INTERNAL_CLOCK_USED) */
 259:.\Generated_Source\PSoC5/UART_1.c **** 
 260:.\Generated_Source\PSoC5/UART_1.c ****     /* Disable internal interrupt component */
 261:.\Generated_Source\PSoC5/UART_1.c ****     #if (UART_1_RX_ENABLED || UART_1_HD_ENABLED)
 262:.\Generated_Source\PSoC5/UART_1.c ****         UART_1_RXSTATUS_ACTL_REG  &= (uint8) ~UART_1_INT_ENABLE;
 295              		.loc 1 262 0
 296 0022 0F4A     		ldr	r2, .L12+4
 297 0024 0E4B     		ldr	r3, .L12+4
 298 0026 1B78     		ldrb	r3, [r3]
 299 0028 DBB2     		uxtb	r3, r3
 300 002a 23F01003 		bic	r3, r3, #16
 301 002e DBB2     		uxtb	r3, r3
 302 0030 1370     		strb	r3, [r2]
 263:.\Generated_Source\PSoC5/UART_1.c **** 
 264:.\Generated_Source\PSoC5/UART_1.c ****         #if (UART_1_RX_INTERRUPT_ENABLED)
 265:.\Generated_Source\PSoC5/UART_1.c ****             UART_1_DisableRxInt();
 303              		.loc 1 265 0
 304 0032 0C4B     		ldr	r3, .L12+8
 305 0034 0222     		movs	r2, #2
ARM GAS  C:\Users\Patrick\AppData\Local\Temp\ccFUkQgi.s 			page 11


 306 0036 1A60     		str	r2, [r3]
 266:.\Generated_Source\PSoC5/UART_1.c ****         #endif /* (UART_1_RX_INTERRUPT_ENABLED) */
 267:.\Generated_Source\PSoC5/UART_1.c ****     #endif /* (UART_1_RX_ENABLED || UART_1_HD_ENABLED) */
 268:.\Generated_Source\PSoC5/UART_1.c **** 
 269:.\Generated_Source\PSoC5/UART_1.c ****     #if (UART_1_TX_ENABLED)
 270:.\Generated_Source\PSoC5/UART_1.c ****         UART_1_TXSTATUS_ACTL_REG &= (uint8) ~UART_1_INT_ENABLE;
 307              		.loc 1 270 0
 308 0038 0B4A     		ldr	r2, .L12+12
 309 003a 0B4B     		ldr	r3, .L12+12
 310 003c 1B78     		ldrb	r3, [r3]
 311 003e DBB2     		uxtb	r3, r3
 312 0040 23F01003 		bic	r3, r3, #16
 313 0044 DBB2     		uxtb	r3, r3
 314 0046 1370     		strb	r3, [r2]
 271:.\Generated_Source\PSoC5/UART_1.c **** 
 272:.\Generated_Source\PSoC5/UART_1.c ****         #if (UART_1_TX_INTERRUPT_ENABLED)
 273:.\Generated_Source\PSoC5/UART_1.c ****             UART_1_DisableTxInt();
 315              		.loc 1 273 0
 316 0048 064B     		ldr	r3, .L12+8
 317 004a 0422     		movs	r2, #4
 318 004c 1A60     		str	r2, [r3]
 274:.\Generated_Source\PSoC5/UART_1.c ****         #endif /* (UART_1_TX_INTERRUPT_ENABLED) */
 275:.\Generated_Source\PSoC5/UART_1.c ****     #endif /* (UART_1_TX_ENABLED) */
 276:.\Generated_Source\PSoC5/UART_1.c **** 
 277:.\Generated_Source\PSoC5/UART_1.c ****     CyExitCriticalSection(enableInterrupts);
 319              		.loc 1 277 0
 320 004e FB79     		ldrb	r3, [r7, #7]	@ zero_extendqisi2
 321 0050 1846     		mov	r0, r3
 322 0052 FFF7FEFF 		bl	CyExitCriticalSection
 278:.\Generated_Source\PSoC5/UART_1.c **** }
 323              		.loc 1 278 0
 324 0056 0837     		adds	r7, r7, #8
 325              		.cfi_def_cfa_offset 8
 326 0058 BD46     		mov	sp, r7
 327              		.cfi_def_cfa_register 13
 328              		@ sp needed
 329 005a 80BD     		pop	{r7, pc}
 330              	.L13:
 331              		.align	2
 332              	.L12:
 333 005c 99650040 		.word	1073767833
 334 0060 98640040 		.word	1073767576
 335 0064 80E100E0 		.word	-536813184
 336 0068 9A640040 		.word	1073767578
 337              		.cfi_endproc
 338              	.LFE3:
 339              		.size	UART_1_Stop, .-UART_1_Stop
 340              		.section	.text.UART_1_ReadControlRegister,"ax",%progbits
 341              		.align	2
 342              		.global	UART_1_ReadControlRegister
 343              		.thumb
 344              		.thumb_func
 345              		.type	UART_1_ReadControlRegister, %function
 346              	UART_1_ReadControlRegister:
 347              	.LFB4:
 279:.\Generated_Source\PSoC5/UART_1.c **** 
 280:.\Generated_Source\PSoC5/UART_1.c **** 
ARM GAS  C:\Users\Patrick\AppData\Local\Temp\ccFUkQgi.s 			page 12


 281:.\Generated_Source\PSoC5/UART_1.c **** /*******************************************************************************
 282:.\Generated_Source\PSoC5/UART_1.c **** * Function Name: UART_1_ReadControlRegister
 283:.\Generated_Source\PSoC5/UART_1.c **** ********************************************************************************
 284:.\Generated_Source\PSoC5/UART_1.c **** *
 285:.\Generated_Source\PSoC5/UART_1.c **** * Summary:
 286:.\Generated_Source\PSoC5/UART_1.c **** *  Returns the current value of the control register.
 287:.\Generated_Source\PSoC5/UART_1.c **** *
 288:.\Generated_Source\PSoC5/UART_1.c **** * Parameters:
 289:.\Generated_Source\PSoC5/UART_1.c **** *  None.
 290:.\Generated_Source\PSoC5/UART_1.c **** *
 291:.\Generated_Source\PSoC5/UART_1.c **** * Return:
 292:.\Generated_Source\PSoC5/UART_1.c **** *  Contents of the control register.
 293:.\Generated_Source\PSoC5/UART_1.c **** *
 294:.\Generated_Source\PSoC5/UART_1.c **** *******************************************************************************/
 295:.\Generated_Source\PSoC5/UART_1.c **** uint8 UART_1_ReadControlRegister(void) 
 296:.\Generated_Source\PSoC5/UART_1.c **** {
 348              		.loc 1 296 0
 349              		.cfi_startproc
 350              		@ args = 0, pretend = 0, frame = 0
 351              		@ frame_needed = 1, uses_anonymous_args = 0
 352              		@ link register save eliminated.
 353 0000 80B4     		push	{r7}
 354              		.cfi_def_cfa_offset 4
 355              		.cfi_offset 7, -4
 356 0002 00AF     		add	r7, sp, #0
 357              		.cfi_def_cfa_register 7
 297:.\Generated_Source\PSoC5/UART_1.c ****     #if (UART_1_CONTROL_REG_REMOVED)
 298:.\Generated_Source\PSoC5/UART_1.c ****         return(0u);
 358              		.loc 1 298 0
 359 0004 0023     		movs	r3, #0
 299:.\Generated_Source\PSoC5/UART_1.c ****     #else
 300:.\Generated_Source\PSoC5/UART_1.c ****         return(UART_1_CONTROL_REG);
 301:.\Generated_Source\PSoC5/UART_1.c ****     #endif /* (UART_1_CONTROL_REG_REMOVED) */
 302:.\Generated_Source\PSoC5/UART_1.c **** }
 360              		.loc 1 302 0
 361 0006 1846     		mov	r0, r3
 362 0008 BD46     		mov	sp, r7
 363              		.cfi_def_cfa_register 13
 364              		@ sp needed
 365 000a 5DF8047B 		ldr	r7, [sp], #4
 366              		.cfi_restore 7
 367              		.cfi_def_cfa_offset 0
 368 000e 7047     		bx	lr
 369              		.cfi_endproc
 370              	.LFE4:
 371              		.size	UART_1_ReadControlRegister, .-UART_1_ReadControlRegister
 372              		.section	.text.UART_1_WriteControlRegister,"ax",%progbits
 373              		.align	2
 374              		.global	UART_1_WriteControlRegister
 375              		.thumb
 376              		.thumb_func
 377              		.type	UART_1_WriteControlRegister, %function
 378              	UART_1_WriteControlRegister:
 379              	.LFB5:
 303:.\Generated_Source\PSoC5/UART_1.c **** 
 304:.\Generated_Source\PSoC5/UART_1.c **** 
 305:.\Generated_Source\PSoC5/UART_1.c **** /*******************************************************************************
ARM GAS  C:\Users\Patrick\AppData\Local\Temp\ccFUkQgi.s 			page 13


 306:.\Generated_Source\PSoC5/UART_1.c **** * Function Name: UART_1_WriteControlRegister
 307:.\Generated_Source\PSoC5/UART_1.c **** ********************************************************************************
 308:.\Generated_Source\PSoC5/UART_1.c **** *
 309:.\Generated_Source\PSoC5/UART_1.c **** * Summary:
 310:.\Generated_Source\PSoC5/UART_1.c **** *  Writes an 8-bit value into the control register
 311:.\Generated_Source\PSoC5/UART_1.c **** *
 312:.\Generated_Source\PSoC5/UART_1.c **** * Parameters:
 313:.\Generated_Source\PSoC5/UART_1.c **** *  control:  control register value
 314:.\Generated_Source\PSoC5/UART_1.c **** *
 315:.\Generated_Source\PSoC5/UART_1.c **** * Return:
 316:.\Generated_Source\PSoC5/UART_1.c **** *  None.
 317:.\Generated_Source\PSoC5/UART_1.c **** *
 318:.\Generated_Source\PSoC5/UART_1.c **** *******************************************************************************/
 319:.\Generated_Source\PSoC5/UART_1.c **** void  UART_1_WriteControlRegister(uint8 control) 
 320:.\Generated_Source\PSoC5/UART_1.c **** {
 380              		.loc 1 320 0
 381              		.cfi_startproc
 382              		@ args = 0, pretend = 0, frame = 8
 383              		@ frame_needed = 1, uses_anonymous_args = 0
 384              		@ link register save eliminated.
 385 0000 80B4     		push	{r7}
 386              		.cfi_def_cfa_offset 4
 387              		.cfi_offset 7, -4
 388 0002 83B0     		sub	sp, sp, #12
 389              		.cfi_def_cfa_offset 16
 390 0004 00AF     		add	r7, sp, #0
 391              		.cfi_def_cfa_register 7
 392 0006 0346     		mov	r3, r0
 393 0008 FB71     		strb	r3, [r7, #7]
 321:.\Generated_Source\PSoC5/UART_1.c ****     #if (UART_1_CONTROL_REG_REMOVED)
 322:.\Generated_Source\PSoC5/UART_1.c ****         if(0u != control)
 323:.\Generated_Source\PSoC5/UART_1.c ****         {
 324:.\Generated_Source\PSoC5/UART_1.c ****             /* Suppress compiler warning */
 325:.\Generated_Source\PSoC5/UART_1.c ****         }
 326:.\Generated_Source\PSoC5/UART_1.c ****     #else
 327:.\Generated_Source\PSoC5/UART_1.c ****        UART_1_CONTROL_REG = control;
 328:.\Generated_Source\PSoC5/UART_1.c ****     #endif /* (UART_1_CONTROL_REG_REMOVED) */
 329:.\Generated_Source\PSoC5/UART_1.c **** }
 394              		.loc 1 329 0
 395 000a 0C37     		adds	r7, r7, #12
 396              		.cfi_def_cfa_offset 4
 397 000c BD46     		mov	sp, r7
 398              		.cfi_def_cfa_register 13
 399              		@ sp needed
 400 000e 5DF8047B 		ldr	r7, [sp], #4
 401              		.cfi_restore 7
 402              		.cfi_def_cfa_offset 0
 403 0012 7047     		bx	lr
 404              		.cfi_endproc
 405              	.LFE5:
 406              		.size	UART_1_WriteControlRegister, .-UART_1_WriteControlRegister
 407              		.section	.text.UART_1_SetRxInterruptMode,"ax",%progbits
 408              		.align	2
 409              		.global	UART_1_SetRxInterruptMode
 410              		.thumb
 411              		.thumb_func
 412              		.type	UART_1_SetRxInterruptMode, %function
ARM GAS  C:\Users\Patrick\AppData\Local\Temp\ccFUkQgi.s 			page 14


 413              	UART_1_SetRxInterruptMode:
 414              	.LFB6:
 330:.\Generated_Source\PSoC5/UART_1.c **** 
 331:.\Generated_Source\PSoC5/UART_1.c **** 
 332:.\Generated_Source\PSoC5/UART_1.c **** #if(UART_1_RX_ENABLED || UART_1_HD_ENABLED)
 333:.\Generated_Source\PSoC5/UART_1.c ****     /*******************************************************************************
 334:.\Generated_Source\PSoC5/UART_1.c ****     * Function Name: UART_1_SetRxInterruptMode
 335:.\Generated_Source\PSoC5/UART_1.c ****     ********************************************************************************
 336:.\Generated_Source\PSoC5/UART_1.c ****     *
 337:.\Generated_Source\PSoC5/UART_1.c ****     * Summary:
 338:.\Generated_Source\PSoC5/UART_1.c ****     *  Configures the RX interrupt sources enabled.
 339:.\Generated_Source\PSoC5/UART_1.c ****     *
 340:.\Generated_Source\PSoC5/UART_1.c ****     * Parameters:
 341:.\Generated_Source\PSoC5/UART_1.c ****     *  IntSrc:  Bit field containing the RX interrupts to enable. Based on the 
 342:.\Generated_Source\PSoC5/UART_1.c ****     *  bit-field arrangement of the status register. This value must be a 
 343:.\Generated_Source\PSoC5/UART_1.c ****     *  combination of status register bit-masks shown below:
 344:.\Generated_Source\PSoC5/UART_1.c ****     *      UART_1_RX_STS_FIFO_NOTEMPTY    Interrupt on byte received.
 345:.\Generated_Source\PSoC5/UART_1.c ****     *      UART_1_RX_STS_PAR_ERROR        Interrupt on parity error.
 346:.\Generated_Source\PSoC5/UART_1.c ****     *      UART_1_RX_STS_STOP_ERROR       Interrupt on stop error.
 347:.\Generated_Source\PSoC5/UART_1.c ****     *      UART_1_RX_STS_BREAK            Interrupt on break.
 348:.\Generated_Source\PSoC5/UART_1.c ****     *      UART_1_RX_STS_OVERRUN          Interrupt on overrun error.
 349:.\Generated_Source\PSoC5/UART_1.c ****     *      UART_1_RX_STS_ADDR_MATCH       Interrupt on address match.
 350:.\Generated_Source\PSoC5/UART_1.c ****     *      UART_1_RX_STS_MRKSPC           Interrupt on address detect.
 351:.\Generated_Source\PSoC5/UART_1.c ****     *
 352:.\Generated_Source\PSoC5/UART_1.c ****     * Return:
 353:.\Generated_Source\PSoC5/UART_1.c ****     *  None.
 354:.\Generated_Source\PSoC5/UART_1.c ****     *
 355:.\Generated_Source\PSoC5/UART_1.c ****     * Theory:
 356:.\Generated_Source\PSoC5/UART_1.c ****     *  Enables the output of specific status bits to the interrupt controller
 357:.\Generated_Source\PSoC5/UART_1.c ****     *
 358:.\Generated_Source\PSoC5/UART_1.c ****     *******************************************************************************/
 359:.\Generated_Source\PSoC5/UART_1.c ****     void UART_1_SetRxInterruptMode(uint8 intSrc) 
 360:.\Generated_Source\PSoC5/UART_1.c ****     {
 415              		.loc 1 360 0
 416              		.cfi_startproc
 417              		@ args = 0, pretend = 0, frame = 8
 418              		@ frame_needed = 1, uses_anonymous_args = 0
 419              		@ link register save eliminated.
 420 0000 80B4     		push	{r7}
 421              		.cfi_def_cfa_offset 4
 422              		.cfi_offset 7, -4
 423 0002 83B0     		sub	sp, sp, #12
 424              		.cfi_def_cfa_offset 16
 425 0004 00AF     		add	r7, sp, #0
 426              		.cfi_def_cfa_register 7
 427 0006 0346     		mov	r3, r0
 428 0008 FB71     		strb	r3, [r7, #7]
 361:.\Generated_Source\PSoC5/UART_1.c ****         UART_1_RXSTATUS_MASK_REG  = intSrc;
 429              		.loc 1 361 0
 430 000a 044A     		ldr	r2, .L18
 431 000c FB79     		ldrb	r3, [r7, #7]
 432 000e 1370     		strb	r3, [r2]
 362:.\Generated_Source\PSoC5/UART_1.c ****     }
 433              		.loc 1 362 0
 434 0010 0C37     		adds	r7, r7, #12
 435              		.cfi_def_cfa_offset 4
 436 0012 BD46     		mov	sp, r7
ARM GAS  C:\Users\Patrick\AppData\Local\Temp\ccFUkQgi.s 			page 15


 437              		.cfi_def_cfa_register 13
 438              		@ sp needed
 439 0014 5DF8047B 		ldr	r7, [sp], #4
 440              		.cfi_restore 7
 441              		.cfi_def_cfa_offset 0
 442 0018 7047     		bx	lr
 443              	.L19:
 444 001a 00BF     		.align	2
 445              	.L18:
 446 001c 88640040 		.word	1073767560
 447              		.cfi_endproc
 448              	.LFE6:
 449              		.size	UART_1_SetRxInterruptMode, .-UART_1_SetRxInterruptMode
 450              		.section	.text.UART_1_ReadRxData,"ax",%progbits
 451              		.align	2
 452              		.global	UART_1_ReadRxData
 453              		.thumb
 454              		.thumb_func
 455              		.type	UART_1_ReadRxData, %function
 456              	UART_1_ReadRxData:
 457              	.LFB7:
 363:.\Generated_Source\PSoC5/UART_1.c **** 
 364:.\Generated_Source\PSoC5/UART_1.c **** 
 365:.\Generated_Source\PSoC5/UART_1.c ****     /*******************************************************************************
 366:.\Generated_Source\PSoC5/UART_1.c ****     * Function Name: UART_1_ReadRxData
 367:.\Generated_Source\PSoC5/UART_1.c ****     ********************************************************************************
 368:.\Generated_Source\PSoC5/UART_1.c ****     *
 369:.\Generated_Source\PSoC5/UART_1.c ****     * Summary:
 370:.\Generated_Source\PSoC5/UART_1.c ****     *  Returns the next byte of received data. This function returns data without
 371:.\Generated_Source\PSoC5/UART_1.c ****     *  checking the status. You must check the status separately.
 372:.\Generated_Source\PSoC5/UART_1.c ****     *
 373:.\Generated_Source\PSoC5/UART_1.c ****     * Parameters:
 374:.\Generated_Source\PSoC5/UART_1.c ****     *  None.
 375:.\Generated_Source\PSoC5/UART_1.c ****     *
 376:.\Generated_Source\PSoC5/UART_1.c ****     * Return:
 377:.\Generated_Source\PSoC5/UART_1.c ****     *  Received data from RX register
 378:.\Generated_Source\PSoC5/UART_1.c ****     *
 379:.\Generated_Source\PSoC5/UART_1.c ****     * Global Variables:
 380:.\Generated_Source\PSoC5/UART_1.c ****     *  UART_1_rxBuffer - RAM buffer pointer for save received data.
 381:.\Generated_Source\PSoC5/UART_1.c ****     *  UART_1_rxBufferWrite - cyclic index for write to rxBuffer,
 382:.\Generated_Source\PSoC5/UART_1.c ****     *     checked to identify new data.
 383:.\Generated_Source\PSoC5/UART_1.c ****     *  UART_1_rxBufferRead - cyclic index for read from rxBuffer,
 384:.\Generated_Source\PSoC5/UART_1.c ****     *     incremented after each byte has been read from buffer.
 385:.\Generated_Source\PSoC5/UART_1.c ****     *  UART_1_rxBufferLoopDetect - cleared if loop condition was detected
 386:.\Generated_Source\PSoC5/UART_1.c ****     *     in RX ISR.
 387:.\Generated_Source\PSoC5/UART_1.c ****     *
 388:.\Generated_Source\PSoC5/UART_1.c ****     * Reentrant:
 389:.\Generated_Source\PSoC5/UART_1.c ****     *  No.
 390:.\Generated_Source\PSoC5/UART_1.c ****     *
 391:.\Generated_Source\PSoC5/UART_1.c ****     *******************************************************************************/
 392:.\Generated_Source\PSoC5/UART_1.c ****     uint8 UART_1_ReadRxData(void) 
 393:.\Generated_Source\PSoC5/UART_1.c ****     {
 458              		.loc 1 393 0
 459              		.cfi_startproc
 460              		@ args = 0, pretend = 0, frame = 8
 461              		@ frame_needed = 1, uses_anonymous_args = 0
 462              		@ link register save eliminated.
ARM GAS  C:\Users\Patrick\AppData\Local\Temp\ccFUkQgi.s 			page 16


 463 0000 80B4     		push	{r7}
 464              		.cfi_def_cfa_offset 4
 465              		.cfi_offset 7, -4
 466 0002 83B0     		sub	sp, sp, #12
 467              		.cfi_def_cfa_offset 16
 468 0004 00AF     		add	r7, sp, #0
 469              		.cfi_def_cfa_register 7
 394:.\Generated_Source\PSoC5/UART_1.c ****         uint8 rxData;
 395:.\Generated_Source\PSoC5/UART_1.c **** 
 396:.\Generated_Source\PSoC5/UART_1.c ****     #if (UART_1_RX_INTERRUPT_ENABLED)
 397:.\Generated_Source\PSoC5/UART_1.c **** 
 398:.\Generated_Source\PSoC5/UART_1.c ****         uint8 locRxBufferRead;
 399:.\Generated_Source\PSoC5/UART_1.c ****         uint8 locRxBufferWrite;
 400:.\Generated_Source\PSoC5/UART_1.c **** 
 401:.\Generated_Source\PSoC5/UART_1.c ****         /* Protect variables that could change on interrupt */
 402:.\Generated_Source\PSoC5/UART_1.c ****         UART_1_DisableRxInt();
 470              		.loc 1 402 0
 471 0006 1C4B     		ldr	r3, .L27
 472 0008 0222     		movs	r2, #2
 473 000a 1A60     		str	r2, [r3]
 403:.\Generated_Source\PSoC5/UART_1.c **** 
 404:.\Generated_Source\PSoC5/UART_1.c ****         locRxBufferRead  = UART_1_rxBufferRead;
 474              		.loc 1 404 0
 475 000c 1B4B     		ldr	r3, .L27+4
 476 000e 1B78     		ldrb	r3, [r3]
 477 0010 BB71     		strb	r3, [r7, #6]
 405:.\Generated_Source\PSoC5/UART_1.c ****         locRxBufferWrite = UART_1_rxBufferWrite;
 478              		.loc 1 405 0
 479 0012 1B4B     		ldr	r3, .L27+8
 480 0014 1B78     		ldrb	r3, [r3]
 481 0016 7B71     		strb	r3, [r7, #5]
 406:.\Generated_Source\PSoC5/UART_1.c **** 
 407:.\Generated_Source\PSoC5/UART_1.c ****         if( (UART_1_rxBufferLoopDetect != 0u) || (locRxBufferRead != locRxBufferWrite) )
 482              		.loc 1 407 0
 483 0018 1A4B     		ldr	r3, .L27+12
 484 001a 1B78     		ldrb	r3, [r3]
 485 001c DBB2     		uxtb	r3, r3
 486 001e 002B     		cmp	r3, #0
 487 0020 03D1     		bne	.L21
 488              		.loc 1 407 0 is_stmt 0 discriminator 1
 489 0022 BA79     		ldrb	r2, [r7, #6]	@ zero_extendqisi2
 490 0024 7B79     		ldrb	r3, [r7, #5]	@ zero_extendqisi2
 491 0026 9A42     		cmp	r2, r3
 492 0028 18D0     		beq	.L22
 493              	.L21:
 408:.\Generated_Source\PSoC5/UART_1.c ****         {
 409:.\Generated_Source\PSoC5/UART_1.c ****             rxData = UART_1_rxBuffer[locRxBufferRead];
 494              		.loc 1 409 0 is_stmt 1
 495 002a BB79     		ldrb	r3, [r7, #6]	@ zero_extendqisi2
 496 002c 164A     		ldr	r2, .L27+16
 497 002e D35C     		ldrb	r3, [r2, r3]
 498 0030 FB71     		strb	r3, [r7, #7]
 410:.\Generated_Source\PSoC5/UART_1.c ****             locRxBufferRead++;
 499              		.loc 1 410 0
 500 0032 BB79     		ldrb	r3, [r7, #6]	@ zero_extendqisi2
 501 0034 0133     		adds	r3, r3, #1
 502 0036 BB71     		strb	r3, [r7, #6]
ARM GAS  C:\Users\Patrick\AppData\Local\Temp\ccFUkQgi.s 			page 17


 411:.\Generated_Source\PSoC5/UART_1.c **** 
 412:.\Generated_Source\PSoC5/UART_1.c ****             if(locRxBufferRead >= UART_1_RX_BUFFER_SIZE)
 503              		.loc 1 412 0
 504 0038 BB79     		ldrb	r3, [r7, #6]	@ zero_extendqisi2
 505 003a 4F2B     		cmp	r3, #79
 506 003c 01D9     		bls	.L23
 413:.\Generated_Source\PSoC5/UART_1.c ****             {
 414:.\Generated_Source\PSoC5/UART_1.c ****                 locRxBufferRead = 0u;
 507              		.loc 1 414 0
 508 003e 0023     		movs	r3, #0
 509 0040 BB71     		strb	r3, [r7, #6]
 510              	.L23:
 415:.\Generated_Source\PSoC5/UART_1.c ****             }
 416:.\Generated_Source\PSoC5/UART_1.c ****             /* Update the real pointer */
 417:.\Generated_Source\PSoC5/UART_1.c ****             UART_1_rxBufferRead = locRxBufferRead;
 511              		.loc 1 417 0
 512 0042 0E4A     		ldr	r2, .L27+4
 513 0044 BB79     		ldrb	r3, [r7, #6]
 514 0046 1370     		strb	r3, [r2]
 418:.\Generated_Source\PSoC5/UART_1.c **** 
 419:.\Generated_Source\PSoC5/UART_1.c ****             if(UART_1_rxBufferLoopDetect != 0u)
 515              		.loc 1 419 0
 516 0048 0E4B     		ldr	r3, .L27+12
 517 004a 1B78     		ldrb	r3, [r3]
 518 004c DBB2     		uxtb	r3, r3
 519 004e 002B     		cmp	r3, #0
 520 0050 03D0     		beq	.L24
 420:.\Generated_Source\PSoC5/UART_1.c ****             {
 421:.\Generated_Source\PSoC5/UART_1.c ****                 UART_1_rxBufferLoopDetect = 0u;
 521              		.loc 1 421 0
 522 0052 0C4B     		ldr	r3, .L27+12
 523 0054 0022     		movs	r2, #0
 524 0056 1A70     		strb	r2, [r3]
 419:.\Generated_Source\PSoC5/UART_1.c ****             {
 525              		.loc 1 419 0
 526 0058 03E0     		b	.L25
 527              	.L24:
 528 005a 02E0     		b	.L25
 529              	.L22:
 422:.\Generated_Source\PSoC5/UART_1.c ****                 #if ((UART_1_RX_INTERRUPT_ENABLED) && (UART_1_FLOW_CONTROL != 0u))
 423:.\Generated_Source\PSoC5/UART_1.c ****                     /* When Hardware Flow Control selected - return RX mask */
 424:.\Generated_Source\PSoC5/UART_1.c ****                     #if( UART_1_HD_ENABLED )
 425:.\Generated_Source\PSoC5/UART_1.c ****                         if((UART_1_CONTROL_REG & UART_1_CTRL_HD_SEND) == 0u)
 426:.\Generated_Source\PSoC5/UART_1.c ****                         {   /* In Half duplex mode return RX mask only in RX
 427:.\Generated_Source\PSoC5/UART_1.c ****                             *  configuration set, otherwise
 428:.\Generated_Source\PSoC5/UART_1.c ****                             *  mask will be returned in LoadRxConfig() API.
 429:.\Generated_Source\PSoC5/UART_1.c ****                             */
 430:.\Generated_Source\PSoC5/UART_1.c ****                             UART_1_RXSTATUS_MASK_REG  |= UART_1_RX_STS_FIFO_NOTEMPTY;
 431:.\Generated_Source\PSoC5/UART_1.c ****                         }
 432:.\Generated_Source\PSoC5/UART_1.c ****                     #else
 433:.\Generated_Source\PSoC5/UART_1.c ****                         UART_1_RXSTATUS_MASK_REG  |= UART_1_RX_STS_FIFO_NOTEMPTY;
 434:.\Generated_Source\PSoC5/UART_1.c ****                     #endif /* end UART_1_HD_ENABLED */
 435:.\Generated_Source\PSoC5/UART_1.c ****                 #endif /* ((UART_1_RX_INTERRUPT_ENABLED) && (UART_1_FLOW_CONTROL != 0u)) */
 436:.\Generated_Source\PSoC5/UART_1.c ****             }
 437:.\Generated_Source\PSoC5/UART_1.c ****         }
 438:.\Generated_Source\PSoC5/UART_1.c ****         else
 439:.\Generated_Source\PSoC5/UART_1.c ****         {   /* Needs to check status for RX_STS_FIFO_NOTEMPTY bit */
ARM GAS  C:\Users\Patrick\AppData\Local\Temp\ccFUkQgi.s 			page 18


 440:.\Generated_Source\PSoC5/UART_1.c ****             rxData = UART_1_RXDATA_REG;
 530              		.loc 1 440 0
 531 005c 0B4B     		ldr	r3, .L27+20
 532 005e 1B78     		ldrb	r3, [r3]
 533 0060 FB71     		strb	r3, [r7, #7]
 534              	.L25:
 441:.\Generated_Source\PSoC5/UART_1.c ****         }
 442:.\Generated_Source\PSoC5/UART_1.c **** 
 443:.\Generated_Source\PSoC5/UART_1.c ****         UART_1_EnableRxInt();
 535              		.loc 1 443 0
 536 0062 0B4B     		ldr	r3, .L27+24
 537 0064 0222     		movs	r2, #2
 538 0066 1A60     		str	r2, [r3]
 444:.\Generated_Source\PSoC5/UART_1.c **** 
 445:.\Generated_Source\PSoC5/UART_1.c ****     #else
 446:.\Generated_Source\PSoC5/UART_1.c **** 
 447:.\Generated_Source\PSoC5/UART_1.c ****         /* Needs to check status for RX_STS_FIFO_NOTEMPTY bit */
 448:.\Generated_Source\PSoC5/UART_1.c ****         rxData = UART_1_RXDATA_REG;
 449:.\Generated_Source\PSoC5/UART_1.c **** 
 450:.\Generated_Source\PSoC5/UART_1.c ****     #endif /* (UART_1_RX_INTERRUPT_ENABLED) */
 451:.\Generated_Source\PSoC5/UART_1.c **** 
 452:.\Generated_Source\PSoC5/UART_1.c ****         return(rxData);
 539              		.loc 1 452 0
 540 0068 FB79     		ldrb	r3, [r7, #7]	@ zero_extendqisi2
 453:.\Generated_Source\PSoC5/UART_1.c ****     }
 541              		.loc 1 453 0
 542 006a 1846     		mov	r0, r3
 543 006c 0C37     		adds	r7, r7, #12
 544              		.cfi_def_cfa_offset 4
 545 006e BD46     		mov	sp, r7
 546              		.cfi_def_cfa_register 13
 547              		@ sp needed
 548 0070 5DF8047B 		ldr	r7, [sp], #4
 549              		.cfi_restore 7
 550              		.cfi_def_cfa_offset 0
 551 0074 7047     		bx	lr
 552              	.L28:
 553 0076 00BF     		.align	2
 554              	.L27:
 555 0078 80E100E0 		.word	-536813184
 556 007c 00000000 		.word	UART_1_rxBufferRead
 557 0080 00000000 		.word	UART_1_rxBufferWrite
 558 0084 00000000 		.word	UART_1_rxBufferLoopDetect
 559 0088 00000000 		.word	UART_1_rxBuffer
 560 008c 4A650040 		.word	1073767754
 561 0090 00E100E0 		.word	-536813312
 562              		.cfi_endproc
 563              	.LFE7:
 564              		.size	UART_1_ReadRxData, .-UART_1_ReadRxData
 565              		.section	.text.UART_1_ReadRxStatus,"ax",%progbits
 566              		.align	2
 567              		.global	UART_1_ReadRxStatus
 568              		.thumb
 569              		.thumb_func
 570              		.type	UART_1_ReadRxStatus, %function
 571              	UART_1_ReadRxStatus:
 572              	.LFB8:
ARM GAS  C:\Users\Patrick\AppData\Local\Temp\ccFUkQgi.s 			page 19


 454:.\Generated_Source\PSoC5/UART_1.c **** 
 455:.\Generated_Source\PSoC5/UART_1.c **** 
 456:.\Generated_Source\PSoC5/UART_1.c ****     /*******************************************************************************
 457:.\Generated_Source\PSoC5/UART_1.c ****     * Function Name: UART_1_ReadRxStatus
 458:.\Generated_Source\PSoC5/UART_1.c ****     ********************************************************************************
 459:.\Generated_Source\PSoC5/UART_1.c ****     *
 460:.\Generated_Source\PSoC5/UART_1.c ****     * Summary:
 461:.\Generated_Source\PSoC5/UART_1.c ****     *  Returns the current state of the receiver status register and the software
 462:.\Generated_Source\PSoC5/UART_1.c ****     *  buffer overflow status.
 463:.\Generated_Source\PSoC5/UART_1.c ****     *
 464:.\Generated_Source\PSoC5/UART_1.c ****     * Parameters:
 465:.\Generated_Source\PSoC5/UART_1.c ****     *  None.
 466:.\Generated_Source\PSoC5/UART_1.c ****     *
 467:.\Generated_Source\PSoC5/UART_1.c ****     * Return:
 468:.\Generated_Source\PSoC5/UART_1.c ****     *  Current state of the status register.
 469:.\Generated_Source\PSoC5/UART_1.c ****     *
 470:.\Generated_Source\PSoC5/UART_1.c ****     * Side Effect:
 471:.\Generated_Source\PSoC5/UART_1.c ****     *  All status register bits are clear-on-read except
 472:.\Generated_Source\PSoC5/UART_1.c ****     *  UART_1_RX_STS_FIFO_NOTEMPTY.
 473:.\Generated_Source\PSoC5/UART_1.c ****     *  UART_1_RX_STS_FIFO_NOTEMPTY clears immediately after RX data
 474:.\Generated_Source\PSoC5/UART_1.c ****     *  register read.
 475:.\Generated_Source\PSoC5/UART_1.c ****     *
 476:.\Generated_Source\PSoC5/UART_1.c ****     * Global Variables:
 477:.\Generated_Source\PSoC5/UART_1.c ****     *  UART_1_rxBufferOverflow - used to indicate overload condition.
 478:.\Generated_Source\PSoC5/UART_1.c ****     *   It set to one in RX interrupt when there isn't free space in
 479:.\Generated_Source\PSoC5/UART_1.c ****     *   UART_1_rxBufferRead to write new data. This condition returned
 480:.\Generated_Source\PSoC5/UART_1.c ****     *   and cleared to zero by this API as an
 481:.\Generated_Source\PSoC5/UART_1.c ****     *   UART_1_RX_STS_SOFT_BUFF_OVER bit along with RX Status register
 482:.\Generated_Source\PSoC5/UART_1.c ****     *   bits.
 483:.\Generated_Source\PSoC5/UART_1.c ****     *
 484:.\Generated_Source\PSoC5/UART_1.c ****     *******************************************************************************/
 485:.\Generated_Source\PSoC5/UART_1.c ****     uint8 UART_1_ReadRxStatus(void) 
 486:.\Generated_Source\PSoC5/UART_1.c ****     {
 573              		.loc 1 486 0
 574              		.cfi_startproc
 575              		@ args = 0, pretend = 0, frame = 8
 576              		@ frame_needed = 1, uses_anonymous_args = 0
 577              		@ link register save eliminated.
 578 0000 80B4     		push	{r7}
 579              		.cfi_def_cfa_offset 4
 580              		.cfi_offset 7, -4
 581 0002 83B0     		sub	sp, sp, #12
 582              		.cfi_def_cfa_offset 16
 583 0004 00AF     		add	r7, sp, #0
 584              		.cfi_def_cfa_register 7
 487:.\Generated_Source\PSoC5/UART_1.c ****         uint8 status;
 488:.\Generated_Source\PSoC5/UART_1.c **** 
 489:.\Generated_Source\PSoC5/UART_1.c ****         status = UART_1_RXSTATUS_REG & UART_1_RX_HW_MASK;
 585              		.loc 1 489 0
 586 0006 0C4B     		ldr	r3, .L32
 587 0008 1B78     		ldrb	r3, [r3]
 588 000a DBB2     		uxtb	r3, r3
 589 000c 03F07F03 		and	r3, r3, #127
 590 0010 FB71     		strb	r3, [r7, #7]
 490:.\Generated_Source\PSoC5/UART_1.c **** 
 491:.\Generated_Source\PSoC5/UART_1.c ****     #if (UART_1_RX_INTERRUPT_ENABLED)
 492:.\Generated_Source\PSoC5/UART_1.c ****         if(UART_1_rxBufferOverflow != 0u)
ARM GAS  C:\Users\Patrick\AppData\Local\Temp\ccFUkQgi.s 			page 20


 591              		.loc 1 492 0
 592 0012 0A4B     		ldr	r3, .L32+4
 593 0014 1B78     		ldrb	r3, [r3]
 594 0016 DBB2     		uxtb	r3, r3
 595 0018 002B     		cmp	r3, #0
 596 001a 06D0     		beq	.L30
 493:.\Generated_Source\PSoC5/UART_1.c ****         {
 494:.\Generated_Source\PSoC5/UART_1.c ****             status |= UART_1_RX_STS_SOFT_BUFF_OVER;
 597              		.loc 1 494 0
 598 001c FB79     		ldrb	r3, [r7, #7]
 599 001e 63F07F03 		orn	r3, r3, #127
 600 0022 FB71     		strb	r3, [r7, #7]
 495:.\Generated_Source\PSoC5/UART_1.c ****             UART_1_rxBufferOverflow = 0u;
 601              		.loc 1 495 0
 602 0024 054B     		ldr	r3, .L32+4
 603 0026 0022     		movs	r2, #0
 604 0028 1A70     		strb	r2, [r3]
 605              	.L30:
 496:.\Generated_Source\PSoC5/UART_1.c ****         }
 497:.\Generated_Source\PSoC5/UART_1.c ****     #endif /* (UART_1_RX_INTERRUPT_ENABLED) */
 498:.\Generated_Source\PSoC5/UART_1.c **** 
 499:.\Generated_Source\PSoC5/UART_1.c ****         return(status);
 606              		.loc 1 499 0
 607 002a FB79     		ldrb	r3, [r7, #7]	@ zero_extendqisi2
 500:.\Generated_Source\PSoC5/UART_1.c ****     }
 608              		.loc 1 500 0
 609 002c 1846     		mov	r0, r3
 610 002e 0C37     		adds	r7, r7, #12
 611              		.cfi_def_cfa_offset 4
 612 0030 BD46     		mov	sp, r7
 613              		.cfi_def_cfa_register 13
 614              		@ sp needed
 615 0032 5DF8047B 		ldr	r7, [sp], #4
 616              		.cfi_restore 7
 617              		.cfi_def_cfa_offset 0
 618 0036 7047     		bx	lr
 619              	.L33:
 620              		.align	2
 621              	.L32:
 622 0038 68640040 		.word	1073767528
 623 003c 00000000 		.word	UART_1_rxBufferOverflow
 624              		.cfi_endproc
 625              	.LFE8:
 626              		.size	UART_1_ReadRxStatus, .-UART_1_ReadRxStatus
 627              		.section	.text.UART_1_GetChar,"ax",%progbits
 628              		.align	2
 629              		.global	UART_1_GetChar
 630              		.thumb
 631              		.thumb_func
 632              		.type	UART_1_GetChar, %function
 633              	UART_1_GetChar:
 634              	.LFB9:
 501:.\Generated_Source\PSoC5/UART_1.c **** 
 502:.\Generated_Source\PSoC5/UART_1.c **** 
 503:.\Generated_Source\PSoC5/UART_1.c ****     /*******************************************************************************
 504:.\Generated_Source\PSoC5/UART_1.c ****     * Function Name: UART_1_GetChar
 505:.\Generated_Source\PSoC5/UART_1.c ****     ********************************************************************************
ARM GAS  C:\Users\Patrick\AppData\Local\Temp\ccFUkQgi.s 			page 21


 506:.\Generated_Source\PSoC5/UART_1.c ****     *
 507:.\Generated_Source\PSoC5/UART_1.c ****     * Summary:
 508:.\Generated_Source\PSoC5/UART_1.c ****     *  Returns the last received byte of data. UART_1_GetChar() is
 509:.\Generated_Source\PSoC5/UART_1.c ****     *  designed for ASCII characters and returns a uint8 where 1 to 255 are values
 510:.\Generated_Source\PSoC5/UART_1.c ****     *  for valid characters and 0 indicates an error occurred or no data is present.
 511:.\Generated_Source\PSoC5/UART_1.c ****     *
 512:.\Generated_Source\PSoC5/UART_1.c ****     * Parameters:
 513:.\Generated_Source\PSoC5/UART_1.c ****     *  None.
 514:.\Generated_Source\PSoC5/UART_1.c ****     *
 515:.\Generated_Source\PSoC5/UART_1.c ****     * Return:
 516:.\Generated_Source\PSoC5/UART_1.c ****     *  Character read from UART RX buffer. ASCII characters from 1 to 255 are valid.
 517:.\Generated_Source\PSoC5/UART_1.c ****     *  A returned zero signifies an error condition or no data available.
 518:.\Generated_Source\PSoC5/UART_1.c ****     *
 519:.\Generated_Source\PSoC5/UART_1.c ****     * Global Variables:
 520:.\Generated_Source\PSoC5/UART_1.c ****     *  UART_1_rxBuffer - RAM buffer pointer for save received data.
 521:.\Generated_Source\PSoC5/UART_1.c ****     *  UART_1_rxBufferWrite - cyclic index for write to rxBuffer,
 522:.\Generated_Source\PSoC5/UART_1.c ****     *     checked to identify new data.
 523:.\Generated_Source\PSoC5/UART_1.c ****     *  UART_1_rxBufferRead - cyclic index for read from rxBuffer,
 524:.\Generated_Source\PSoC5/UART_1.c ****     *     incremented after each byte has been read from buffer.
 525:.\Generated_Source\PSoC5/UART_1.c ****     *  UART_1_rxBufferLoopDetect - cleared if loop condition was detected
 526:.\Generated_Source\PSoC5/UART_1.c ****     *     in RX ISR.
 527:.\Generated_Source\PSoC5/UART_1.c ****     *
 528:.\Generated_Source\PSoC5/UART_1.c ****     * Reentrant:
 529:.\Generated_Source\PSoC5/UART_1.c ****     *  No.
 530:.\Generated_Source\PSoC5/UART_1.c ****     *
 531:.\Generated_Source\PSoC5/UART_1.c ****     *******************************************************************************/
 532:.\Generated_Source\PSoC5/UART_1.c ****     uint8 UART_1_GetChar(void) 
 533:.\Generated_Source\PSoC5/UART_1.c ****     {
 635              		.loc 1 533 0
 636              		.cfi_startproc
 637              		@ args = 0, pretend = 0, frame = 8
 638              		@ frame_needed = 1, uses_anonymous_args = 0
 639              		@ link register save eliminated.
 640 0000 80B4     		push	{r7}
 641              		.cfi_def_cfa_offset 4
 642              		.cfi_offset 7, -4
 643 0002 83B0     		sub	sp, sp, #12
 644              		.cfi_def_cfa_offset 16
 645 0004 00AF     		add	r7, sp, #0
 646              		.cfi_def_cfa_register 7
 534:.\Generated_Source\PSoC5/UART_1.c ****         uint8 rxData = 0u;
 647              		.loc 1 534 0
 648 0006 0023     		movs	r3, #0
 649 0008 FB71     		strb	r3, [r7, #7]
 535:.\Generated_Source\PSoC5/UART_1.c ****         uint8 rxStatus;
 536:.\Generated_Source\PSoC5/UART_1.c **** 
 537:.\Generated_Source\PSoC5/UART_1.c ****     #if (UART_1_RX_INTERRUPT_ENABLED)
 538:.\Generated_Source\PSoC5/UART_1.c ****         uint8 locRxBufferRead;
 539:.\Generated_Source\PSoC5/UART_1.c ****         uint8 locRxBufferWrite;
 540:.\Generated_Source\PSoC5/UART_1.c **** 
 541:.\Generated_Source\PSoC5/UART_1.c ****         /* Protect variables that could change on interrupt */
 542:.\Generated_Source\PSoC5/UART_1.c ****         UART_1_DisableRxInt();
 650              		.loc 1 542 0
 651 000a 234B     		ldr	r3, .L41
 652 000c 0222     		movs	r2, #2
 653 000e 1A60     		str	r2, [r3]
 543:.\Generated_Source\PSoC5/UART_1.c **** 
ARM GAS  C:\Users\Patrick\AppData\Local\Temp\ccFUkQgi.s 			page 22


 544:.\Generated_Source\PSoC5/UART_1.c ****         locRxBufferRead  = UART_1_rxBufferRead;
 654              		.loc 1 544 0
 655 0010 224B     		ldr	r3, .L41+4
 656 0012 1B78     		ldrb	r3, [r3]
 657 0014 BB71     		strb	r3, [r7, #6]
 545:.\Generated_Source\PSoC5/UART_1.c ****         locRxBufferWrite = UART_1_rxBufferWrite;
 658              		.loc 1 545 0
 659 0016 224B     		ldr	r3, .L41+8
 660 0018 1B78     		ldrb	r3, [r3]
 661 001a 7B71     		strb	r3, [r7, #5]
 546:.\Generated_Source\PSoC5/UART_1.c **** 
 547:.\Generated_Source\PSoC5/UART_1.c ****         if( (UART_1_rxBufferLoopDetect != 0u) || (locRxBufferRead != locRxBufferWrite) )
 662              		.loc 1 547 0
 663 001c 214B     		ldr	r3, .L41+12
 664 001e 1B78     		ldrb	r3, [r3]
 665 0020 DBB2     		uxtb	r3, r3
 666 0022 002B     		cmp	r3, #0
 667 0024 03D1     		bne	.L35
 668              		.loc 1 547 0 is_stmt 0 discriminator 1
 669 0026 BA79     		ldrb	r2, [r7, #6]	@ zero_extendqisi2
 670 0028 7B79     		ldrb	r3, [r7, #5]	@ zero_extendqisi2
 671 002a 9A42     		cmp	r2, r3
 672 002c 18D0     		beq	.L36
 673              	.L35:
 548:.\Generated_Source\PSoC5/UART_1.c ****         {
 549:.\Generated_Source\PSoC5/UART_1.c ****             rxData = UART_1_rxBuffer[locRxBufferRead];
 674              		.loc 1 549 0 is_stmt 1
 675 002e BB79     		ldrb	r3, [r7, #6]	@ zero_extendqisi2
 676 0030 1D4A     		ldr	r2, .L41+16
 677 0032 D35C     		ldrb	r3, [r2, r3]
 678 0034 FB71     		strb	r3, [r7, #7]
 550:.\Generated_Source\PSoC5/UART_1.c ****             locRxBufferRead++;
 679              		.loc 1 550 0
 680 0036 BB79     		ldrb	r3, [r7, #6]	@ zero_extendqisi2
 681 0038 0133     		adds	r3, r3, #1
 682 003a BB71     		strb	r3, [r7, #6]
 551:.\Generated_Source\PSoC5/UART_1.c ****             if(locRxBufferRead >= UART_1_RX_BUFFER_SIZE)
 683              		.loc 1 551 0
 684 003c BB79     		ldrb	r3, [r7, #6]	@ zero_extendqisi2
 685 003e 4F2B     		cmp	r3, #79
 686 0040 01D9     		bls	.L37
 552:.\Generated_Source\PSoC5/UART_1.c ****             {
 553:.\Generated_Source\PSoC5/UART_1.c ****                 locRxBufferRead = 0u;
 687              		.loc 1 553 0
 688 0042 0023     		movs	r3, #0
 689 0044 BB71     		strb	r3, [r7, #6]
 690              	.L37:
 554:.\Generated_Source\PSoC5/UART_1.c ****             }
 555:.\Generated_Source\PSoC5/UART_1.c ****             /* Update the real pointer */
 556:.\Generated_Source\PSoC5/UART_1.c ****             UART_1_rxBufferRead = locRxBufferRead;
 691              		.loc 1 556 0
 692 0046 154A     		ldr	r2, .L41+4
 693 0048 BB79     		ldrb	r3, [r7, #6]
 694 004a 1370     		strb	r3, [r2]
 557:.\Generated_Source\PSoC5/UART_1.c **** 
 558:.\Generated_Source\PSoC5/UART_1.c ****             if(UART_1_rxBufferLoopDetect != 0u)
 695              		.loc 1 558 0
ARM GAS  C:\Users\Patrick\AppData\Local\Temp\ccFUkQgi.s 			page 23


 696 004c 154B     		ldr	r3, .L41+12
 697 004e 1B78     		ldrb	r3, [r3]
 698 0050 DBB2     		uxtb	r3, r3
 699 0052 002B     		cmp	r3, #0
 700 0054 03D0     		beq	.L38
 559:.\Generated_Source\PSoC5/UART_1.c ****             {
 560:.\Generated_Source\PSoC5/UART_1.c ****                 UART_1_rxBufferLoopDetect = 0u;
 701              		.loc 1 560 0
 702 0056 134B     		ldr	r3, .L41+12
 703 0058 0022     		movs	r2, #0
 704 005a 1A70     		strb	r2, [r3]
 558:.\Generated_Source\PSoC5/UART_1.c ****             {
 705              		.loc 1 558 0
 706 005c 12E0     		b	.L39
 707              	.L38:
 708 005e 11E0     		b	.L39
 709              	.L36:
 561:.\Generated_Source\PSoC5/UART_1.c ****                 #if( (UART_1_RX_INTERRUPT_ENABLED) && (UART_1_FLOW_CONTROL != 0u) )
 562:.\Generated_Source\PSoC5/UART_1.c ****                     /* When Hardware Flow Control selected - return RX mask */
 563:.\Generated_Source\PSoC5/UART_1.c ****                     #if( UART_1_HD_ENABLED )
 564:.\Generated_Source\PSoC5/UART_1.c ****                         if((UART_1_CONTROL_REG & UART_1_CTRL_HD_SEND) == 0u)
 565:.\Generated_Source\PSoC5/UART_1.c ****                         {   /* In Half duplex mode return RX mask only if
 566:.\Generated_Source\PSoC5/UART_1.c ****                             *  RX configuration set, otherwise
 567:.\Generated_Source\PSoC5/UART_1.c ****                             *  mask will be returned in LoadRxConfig() API.
 568:.\Generated_Source\PSoC5/UART_1.c ****                             */
 569:.\Generated_Source\PSoC5/UART_1.c ****                             UART_1_RXSTATUS_MASK_REG |= UART_1_RX_STS_FIFO_NOTEMPTY;
 570:.\Generated_Source\PSoC5/UART_1.c ****                         }
 571:.\Generated_Source\PSoC5/UART_1.c ****                     #else
 572:.\Generated_Source\PSoC5/UART_1.c ****                         UART_1_RXSTATUS_MASK_REG |= UART_1_RX_STS_FIFO_NOTEMPTY;
 573:.\Generated_Source\PSoC5/UART_1.c ****                     #endif /* end UART_1_HD_ENABLED */
 574:.\Generated_Source\PSoC5/UART_1.c ****                 #endif /* UART_1_RX_INTERRUPT_ENABLED and Hardware flow control*/
 575:.\Generated_Source\PSoC5/UART_1.c ****             }
 576:.\Generated_Source\PSoC5/UART_1.c **** 
 577:.\Generated_Source\PSoC5/UART_1.c ****         }
 578:.\Generated_Source\PSoC5/UART_1.c ****         else
 579:.\Generated_Source\PSoC5/UART_1.c ****         {   rxStatus = UART_1_RXSTATUS_REG;
 710              		.loc 1 579 0
 711 0060 124B     		ldr	r3, .L41+20
 712 0062 1B78     		ldrb	r3, [r3]
 713 0064 3B71     		strb	r3, [r7, #4]
 580:.\Generated_Source\PSoC5/UART_1.c ****             if((rxStatus & UART_1_RX_STS_FIFO_NOTEMPTY) != 0u)
 714              		.loc 1 580 0
 715 0066 3B79     		ldrb	r3, [r7, #4]	@ zero_extendqisi2
 716 0068 03F02003 		and	r3, r3, #32
 717 006c 002B     		cmp	r3, #0
 718 006e 09D0     		beq	.L39
 581:.\Generated_Source\PSoC5/UART_1.c ****             {   /* Read received data from FIFO */
 582:.\Generated_Source\PSoC5/UART_1.c ****                 rxData = UART_1_RXDATA_REG;
 719              		.loc 1 582 0
 720 0070 0F4B     		ldr	r3, .L41+24
 721 0072 1B78     		ldrb	r3, [r3]
 722 0074 FB71     		strb	r3, [r7, #7]
 583:.\Generated_Source\PSoC5/UART_1.c ****                 /*Check status on error*/
 584:.\Generated_Source\PSoC5/UART_1.c ****                 if((rxStatus & (UART_1_RX_STS_BREAK | UART_1_RX_STS_PAR_ERROR |
 585:.\Generated_Source\PSoC5/UART_1.c ****                                 UART_1_RX_STS_STOP_ERROR | UART_1_RX_STS_OVERRUN)) != 0u)
 723              		.loc 1 585 0
 724 0076 3B79     		ldrb	r3, [r7, #4]	@ zero_extendqisi2
ARM GAS  C:\Users\Patrick\AppData\Local\Temp\ccFUkQgi.s 			page 24


 725 0078 03F01E03 		and	r3, r3, #30
 584:.\Generated_Source\PSoC5/UART_1.c ****                                 UART_1_RX_STS_STOP_ERROR | UART_1_RX_STS_OVERRUN)) != 0u)
 726              		.loc 1 584 0
 727 007c 002B     		cmp	r3, #0
 728 007e 01D0     		beq	.L39
 586:.\Generated_Source\PSoC5/UART_1.c ****                 {
 587:.\Generated_Source\PSoC5/UART_1.c ****                     rxData = 0u;
 729              		.loc 1 587 0
 730 0080 0023     		movs	r3, #0
 731 0082 FB71     		strb	r3, [r7, #7]
 732              	.L39:
 588:.\Generated_Source\PSoC5/UART_1.c ****                 }
 589:.\Generated_Source\PSoC5/UART_1.c ****             }
 590:.\Generated_Source\PSoC5/UART_1.c ****         }
 591:.\Generated_Source\PSoC5/UART_1.c **** 
 592:.\Generated_Source\PSoC5/UART_1.c ****         UART_1_EnableRxInt();
 733              		.loc 1 592 0
 734 0084 0B4B     		ldr	r3, .L41+28
 735 0086 0222     		movs	r2, #2
 736 0088 1A60     		str	r2, [r3]
 593:.\Generated_Source\PSoC5/UART_1.c **** 
 594:.\Generated_Source\PSoC5/UART_1.c ****     #else
 595:.\Generated_Source\PSoC5/UART_1.c **** 
 596:.\Generated_Source\PSoC5/UART_1.c ****         rxStatus =UART_1_RXSTATUS_REG;
 597:.\Generated_Source\PSoC5/UART_1.c ****         if((rxStatus & UART_1_RX_STS_FIFO_NOTEMPTY) != 0u)
 598:.\Generated_Source\PSoC5/UART_1.c ****         {
 599:.\Generated_Source\PSoC5/UART_1.c ****             /* Read received data from FIFO */
 600:.\Generated_Source\PSoC5/UART_1.c ****             rxData = UART_1_RXDATA_REG;
 601:.\Generated_Source\PSoC5/UART_1.c **** 
 602:.\Generated_Source\PSoC5/UART_1.c ****             /*Check status on error*/
 603:.\Generated_Source\PSoC5/UART_1.c ****             if((rxStatus & (UART_1_RX_STS_BREAK | UART_1_RX_STS_PAR_ERROR |
 604:.\Generated_Source\PSoC5/UART_1.c ****                             UART_1_RX_STS_STOP_ERROR | UART_1_RX_STS_OVERRUN)) != 0u)
 605:.\Generated_Source\PSoC5/UART_1.c ****             {
 606:.\Generated_Source\PSoC5/UART_1.c ****                 rxData = 0u;
 607:.\Generated_Source\PSoC5/UART_1.c ****             }
 608:.\Generated_Source\PSoC5/UART_1.c ****         }
 609:.\Generated_Source\PSoC5/UART_1.c ****     #endif /* (UART_1_RX_INTERRUPT_ENABLED) */
 610:.\Generated_Source\PSoC5/UART_1.c **** 
 611:.\Generated_Source\PSoC5/UART_1.c ****         return(rxData);
 737              		.loc 1 611 0
 738 008a FB79     		ldrb	r3, [r7, #7]	@ zero_extendqisi2
 612:.\Generated_Source\PSoC5/UART_1.c ****     }
 739              		.loc 1 612 0
 740 008c 1846     		mov	r0, r3
 741 008e 0C37     		adds	r7, r7, #12
 742              		.cfi_def_cfa_offset 4
 743 0090 BD46     		mov	sp, r7
 744              		.cfi_def_cfa_register 13
 745              		@ sp needed
 746 0092 5DF8047B 		ldr	r7, [sp], #4
 747              		.cfi_restore 7
 748              		.cfi_def_cfa_offset 0
 749 0096 7047     		bx	lr
 750              	.L42:
 751              		.align	2
 752              	.L41:
 753 0098 80E100E0 		.word	-536813184
ARM GAS  C:\Users\Patrick\AppData\Local\Temp\ccFUkQgi.s 			page 25


 754 009c 00000000 		.word	UART_1_rxBufferRead
 755 00a0 00000000 		.word	UART_1_rxBufferWrite
 756 00a4 00000000 		.word	UART_1_rxBufferLoopDetect
 757 00a8 00000000 		.word	UART_1_rxBuffer
 758 00ac 68640040 		.word	1073767528
 759 00b0 4A650040 		.word	1073767754
 760 00b4 00E100E0 		.word	-536813312
 761              		.cfi_endproc
 762              	.LFE9:
 763              		.size	UART_1_GetChar, .-UART_1_GetChar
 764              		.section	.text.UART_1_GetByte,"ax",%progbits
 765              		.align	2
 766              		.global	UART_1_GetByte
 767              		.thumb
 768              		.thumb_func
 769              		.type	UART_1_GetByte, %function
 770              	UART_1_GetByte:
 771              	.LFB10:
 613:.\Generated_Source\PSoC5/UART_1.c **** 
 614:.\Generated_Source\PSoC5/UART_1.c **** 
 615:.\Generated_Source\PSoC5/UART_1.c ****     /*******************************************************************************
 616:.\Generated_Source\PSoC5/UART_1.c ****     * Function Name: UART_1_GetByte
 617:.\Generated_Source\PSoC5/UART_1.c ****     ********************************************************************************
 618:.\Generated_Source\PSoC5/UART_1.c ****     *
 619:.\Generated_Source\PSoC5/UART_1.c ****     * Summary:
 620:.\Generated_Source\PSoC5/UART_1.c ****     *  Reads UART RX buffer immediately, returns received character and error
 621:.\Generated_Source\PSoC5/UART_1.c ****     *  condition.
 622:.\Generated_Source\PSoC5/UART_1.c ****     *
 623:.\Generated_Source\PSoC5/UART_1.c ****     * Parameters:
 624:.\Generated_Source\PSoC5/UART_1.c ****     *  None.
 625:.\Generated_Source\PSoC5/UART_1.c ****     *
 626:.\Generated_Source\PSoC5/UART_1.c ****     * Return:
 627:.\Generated_Source\PSoC5/UART_1.c ****     *  MSB contains status and LSB contains UART RX data. If the MSB is nonzero,
 628:.\Generated_Source\PSoC5/UART_1.c ****     *  an error has occurred.
 629:.\Generated_Source\PSoC5/UART_1.c ****     *
 630:.\Generated_Source\PSoC5/UART_1.c ****     * Reentrant:
 631:.\Generated_Source\PSoC5/UART_1.c ****     *  No.
 632:.\Generated_Source\PSoC5/UART_1.c ****     *
 633:.\Generated_Source\PSoC5/UART_1.c ****     *******************************************************************************/
 634:.\Generated_Source\PSoC5/UART_1.c ****     uint16 UART_1_GetByte(void) 
 635:.\Generated_Source\PSoC5/UART_1.c ****     {
 772              		.loc 1 635 0
 773              		.cfi_startproc
 774              		@ args = 0, pretend = 0, frame = 8
 775              		@ frame_needed = 1, uses_anonymous_args = 0
 776 0000 90B5     		push	{r4, r7, lr}
 777              		.cfi_def_cfa_offset 12
 778              		.cfi_offset 4, -12
 779              		.cfi_offset 7, -8
 780              		.cfi_offset 14, -4
 781 0002 83B0     		sub	sp, sp, #12
 782              		.cfi_def_cfa_offset 24
 783 0004 00AF     		add	r7, sp, #0
 784              		.cfi_def_cfa_register 7
 636:.\Generated_Source\PSoC5/UART_1.c ****         
 637:.\Generated_Source\PSoC5/UART_1.c ****     #if (UART_1_RX_INTERRUPT_ENABLED)
 638:.\Generated_Source\PSoC5/UART_1.c ****         uint16 locErrorStatus;
ARM GAS  C:\Users\Patrick\AppData\Local\Temp\ccFUkQgi.s 			page 26


 639:.\Generated_Source\PSoC5/UART_1.c ****         /* Protect variables that could change on interrupt */
 640:.\Generated_Source\PSoC5/UART_1.c ****         UART_1_DisableRxInt();
 785              		.loc 1 640 0
 786 0006 0C4B     		ldr	r3, .L45
 787 0008 0222     		movs	r2, #2
 788 000a 1A60     		str	r2, [r3]
 641:.\Generated_Source\PSoC5/UART_1.c ****         locErrorStatus = (uint16)UART_1_errorStatus;
 789              		.loc 1 641 0
 790 000c 0B4B     		ldr	r3, .L45+4
 791 000e 1B78     		ldrb	r3, [r3]	@ zero_extendqisi2
 792 0010 FB80     		strh	r3, [r7, #6]	@ movhi
 642:.\Generated_Source\PSoC5/UART_1.c ****         UART_1_errorStatus = 0u;
 793              		.loc 1 642 0
 794 0012 0A4B     		ldr	r3, .L45+4
 795 0014 0022     		movs	r2, #0
 796 0016 1A70     		strb	r2, [r3]
 643:.\Generated_Source\PSoC5/UART_1.c ****         UART_1_EnableRxInt();
 797              		.loc 1 643 0
 798 0018 094B     		ldr	r3, .L45+8
 799 001a 0222     		movs	r2, #2
 800 001c 1A60     		str	r2, [r3]
 644:.\Generated_Source\PSoC5/UART_1.c ****         return ( (uint16)(locErrorStatus << 8u) | UART_1_ReadRxData() );
 801              		.loc 1 644 0
 802 001e FB88     		ldrh	r3, [r7, #6]	@ movhi
 803 0020 1B02     		lsls	r3, r3, #8
 804 0022 9CB2     		uxth	r4, r3
 805 0024 FFF7FEFF 		bl	UART_1_ReadRxData
 806 0028 0346     		mov	r3, r0
 807 002a 9BB2     		uxth	r3, r3
 808 002c 2343     		orrs	r3, r3, r4
 809 002e 9BB2     		uxth	r3, r3
 645:.\Generated_Source\PSoC5/UART_1.c ****     #else
 646:.\Generated_Source\PSoC5/UART_1.c ****         return ( ((uint16)UART_1_ReadRxStatus() << 8u) | UART_1_ReadRxData() );
 647:.\Generated_Source\PSoC5/UART_1.c ****     #endif /* UART_1_RX_INTERRUPT_ENABLED */
 648:.\Generated_Source\PSoC5/UART_1.c ****         
 649:.\Generated_Source\PSoC5/UART_1.c ****     }
 810              		.loc 1 649 0
 811 0030 1846     		mov	r0, r3
 812 0032 0C37     		adds	r7, r7, #12
 813              		.cfi_def_cfa_offset 12
 814 0034 BD46     		mov	sp, r7
 815              		.cfi_def_cfa_register 13
 816              		@ sp needed
 817 0036 90BD     		pop	{r4, r7, pc}
 818              	.L46:
 819              		.align	2
 820              	.L45:
 821 0038 80E100E0 		.word	-536813184
 822 003c 00000000 		.word	UART_1_errorStatus
 823 0040 00E100E0 		.word	-536813312
 824              		.cfi_endproc
 825              	.LFE10:
 826              		.size	UART_1_GetByte, .-UART_1_GetByte
 827              		.section	.text.UART_1_GetRxBufferSize,"ax",%progbits
 828              		.align	2
 829              		.global	UART_1_GetRxBufferSize
 830              		.thumb
ARM GAS  C:\Users\Patrick\AppData\Local\Temp\ccFUkQgi.s 			page 27


 831              		.thumb_func
 832              		.type	UART_1_GetRxBufferSize, %function
 833              	UART_1_GetRxBufferSize:
 834              	.LFB11:
 650:.\Generated_Source\PSoC5/UART_1.c **** 
 651:.\Generated_Source\PSoC5/UART_1.c **** 
 652:.\Generated_Source\PSoC5/UART_1.c ****     /*******************************************************************************
 653:.\Generated_Source\PSoC5/UART_1.c ****     * Function Name: UART_1_GetRxBufferSize
 654:.\Generated_Source\PSoC5/UART_1.c ****     ********************************************************************************
 655:.\Generated_Source\PSoC5/UART_1.c ****     *
 656:.\Generated_Source\PSoC5/UART_1.c ****     * Summary:
 657:.\Generated_Source\PSoC5/UART_1.c ****     *  Returns the number of received bytes available in the RX buffer.
 658:.\Generated_Source\PSoC5/UART_1.c ****     *  * RX software buffer is disabled (RX Buffer Size parameter is equal to 4): 
 659:.\Generated_Source\PSoC5/UART_1.c ****     *    returns 0 for empty RX FIFO or 1 for not empty RX FIFO.
 660:.\Generated_Source\PSoC5/UART_1.c ****     *  * RX software buffer is enabled: returns the number of bytes available in 
 661:.\Generated_Source\PSoC5/UART_1.c ****     *    the RX software buffer. Bytes available in the RX FIFO do not take to 
 662:.\Generated_Source\PSoC5/UART_1.c ****     *    account.
 663:.\Generated_Source\PSoC5/UART_1.c ****     *
 664:.\Generated_Source\PSoC5/UART_1.c ****     * Parameters:
 665:.\Generated_Source\PSoC5/UART_1.c ****     *  None.
 666:.\Generated_Source\PSoC5/UART_1.c ****     *
 667:.\Generated_Source\PSoC5/UART_1.c ****     * Return:
 668:.\Generated_Source\PSoC5/UART_1.c ****     *  uint8: Number of bytes in the RX buffer. 
 669:.\Generated_Source\PSoC5/UART_1.c ****     *    Return value type depends on RX Buffer Size parameter.
 670:.\Generated_Source\PSoC5/UART_1.c ****     *
 671:.\Generated_Source\PSoC5/UART_1.c ****     * Global Variables:
 672:.\Generated_Source\PSoC5/UART_1.c ****     *  UART_1_rxBufferWrite - used to calculate left bytes.
 673:.\Generated_Source\PSoC5/UART_1.c ****     *  UART_1_rxBufferRead - used to calculate left bytes.
 674:.\Generated_Source\PSoC5/UART_1.c ****     *  UART_1_rxBufferLoopDetect - checked to decide left bytes amount.
 675:.\Generated_Source\PSoC5/UART_1.c ****     *
 676:.\Generated_Source\PSoC5/UART_1.c ****     * Reentrant:
 677:.\Generated_Source\PSoC5/UART_1.c ****     *  No.
 678:.\Generated_Source\PSoC5/UART_1.c ****     *
 679:.\Generated_Source\PSoC5/UART_1.c ****     * Theory:
 680:.\Generated_Source\PSoC5/UART_1.c ****     *  Allows the user to find out how full the RX Buffer is.
 681:.\Generated_Source\PSoC5/UART_1.c ****     *
 682:.\Generated_Source\PSoC5/UART_1.c ****     *******************************************************************************/
 683:.\Generated_Source\PSoC5/UART_1.c ****     uint8 UART_1_GetRxBufferSize(void)
 684:.\Generated_Source\PSoC5/UART_1.c ****                                                             
 685:.\Generated_Source\PSoC5/UART_1.c ****     {
 835              		.loc 1 685 0
 836              		.cfi_startproc
 837              		@ args = 0, pretend = 0, frame = 8
 838              		@ frame_needed = 1, uses_anonymous_args = 0
 839              		@ link register save eliminated.
 840 0000 80B4     		push	{r7}
 841              		.cfi_def_cfa_offset 4
 842              		.cfi_offset 7, -4
 843 0002 83B0     		sub	sp, sp, #12
 844              		.cfi_def_cfa_offset 16
 845 0004 00AF     		add	r7, sp, #0
 846              		.cfi_def_cfa_register 7
 686:.\Generated_Source\PSoC5/UART_1.c ****         uint8 size;
 687:.\Generated_Source\PSoC5/UART_1.c **** 
 688:.\Generated_Source\PSoC5/UART_1.c ****     #if (UART_1_RX_INTERRUPT_ENABLED)
 689:.\Generated_Source\PSoC5/UART_1.c **** 
 690:.\Generated_Source\PSoC5/UART_1.c ****         /* Protect variables that could change on interrupt */
ARM GAS  C:\Users\Patrick\AppData\Local\Temp\ccFUkQgi.s 			page 28


 691:.\Generated_Source\PSoC5/UART_1.c ****         UART_1_DisableRxInt();
 847              		.loc 1 691 0
 848 0006 1D4B     		ldr	r3, .L54
 849 0008 0222     		movs	r2, #2
 850 000a 1A60     		str	r2, [r3]
 692:.\Generated_Source\PSoC5/UART_1.c **** 
 693:.\Generated_Source\PSoC5/UART_1.c ****         if(UART_1_rxBufferRead == UART_1_rxBufferWrite)
 851              		.loc 1 693 0
 852 000c 1C4B     		ldr	r3, .L54+4
 853 000e 1B78     		ldrb	r3, [r3]
 854 0010 DAB2     		uxtb	r2, r3
 855 0012 1C4B     		ldr	r3, .L54+8
 856 0014 1B78     		ldrb	r3, [r3]
 857 0016 DBB2     		uxtb	r3, r3
 858 0018 9A42     		cmp	r2, r3
 859 001a 0AD1     		bne	.L48
 694:.\Generated_Source\PSoC5/UART_1.c ****         {
 695:.\Generated_Source\PSoC5/UART_1.c ****             if(UART_1_rxBufferLoopDetect != 0u)
 860              		.loc 1 695 0
 861 001c 1A4B     		ldr	r3, .L54+12
 862 001e 1B78     		ldrb	r3, [r3]
 863 0020 DBB2     		uxtb	r3, r3
 864 0022 002B     		cmp	r3, #0
 865 0024 02D0     		beq	.L49
 696:.\Generated_Source\PSoC5/UART_1.c ****             {
 697:.\Generated_Source\PSoC5/UART_1.c ****                 size = UART_1_RX_BUFFER_SIZE;
 866              		.loc 1 697 0
 867 0026 5023     		movs	r3, #80
 868 0028 FB71     		strb	r3, [r7, #7]
 869 002a 1DE0     		b	.L51
 870              	.L49:
 698:.\Generated_Source\PSoC5/UART_1.c ****             }
 699:.\Generated_Source\PSoC5/UART_1.c ****             else
 700:.\Generated_Source\PSoC5/UART_1.c ****             {
 701:.\Generated_Source\PSoC5/UART_1.c ****                 size = 0u;
 871              		.loc 1 701 0
 872 002c 0023     		movs	r3, #0
 873 002e FB71     		strb	r3, [r7, #7]
 874 0030 1AE0     		b	.L51
 875              	.L48:
 702:.\Generated_Source\PSoC5/UART_1.c ****             }
 703:.\Generated_Source\PSoC5/UART_1.c ****         }
 704:.\Generated_Source\PSoC5/UART_1.c ****         else if(UART_1_rxBufferRead < UART_1_rxBufferWrite)
 876              		.loc 1 704 0
 877 0032 134B     		ldr	r3, .L54+4
 878 0034 1B78     		ldrb	r3, [r3]
 879 0036 DAB2     		uxtb	r2, r3
 880 0038 124B     		ldr	r3, .L54+8
 881 003a 1B78     		ldrb	r3, [r3]
 882 003c DBB2     		uxtb	r3, r3
 883 003e 9A42     		cmp	r2, r3
 884 0040 08D2     		bcs	.L52
 705:.\Generated_Source\PSoC5/UART_1.c ****         {
 706:.\Generated_Source\PSoC5/UART_1.c ****             size = (UART_1_rxBufferWrite - UART_1_rxBufferRead);
 885              		.loc 1 706 0
 886 0042 104B     		ldr	r3, .L54+8
 887 0044 1B78     		ldrb	r3, [r3]
ARM GAS  C:\Users\Patrick\AppData\Local\Temp\ccFUkQgi.s 			page 29


 888 0046 DAB2     		uxtb	r2, r3
 889 0048 0D4B     		ldr	r3, .L54+4
 890 004a 1B78     		ldrb	r3, [r3]
 891 004c DBB2     		uxtb	r3, r3
 892 004e D31A     		subs	r3, r2, r3
 893 0050 FB71     		strb	r3, [r7, #7]
 894 0052 09E0     		b	.L51
 895              	.L52:
 707:.\Generated_Source\PSoC5/UART_1.c ****         }
 708:.\Generated_Source\PSoC5/UART_1.c ****         else
 709:.\Generated_Source\PSoC5/UART_1.c ****         {
 710:.\Generated_Source\PSoC5/UART_1.c ****             size = (UART_1_RX_BUFFER_SIZE - UART_1_rxBufferRead) + UART_1_rxBufferWrite;
 896              		.loc 1 710 0
 897 0054 0B4B     		ldr	r3, .L54+8
 898 0056 1B78     		ldrb	r3, [r3]
 899 0058 DAB2     		uxtb	r2, r3
 900 005a 094B     		ldr	r3, .L54+4
 901 005c 1B78     		ldrb	r3, [r3]
 902 005e DBB2     		uxtb	r3, r3
 903 0060 D31A     		subs	r3, r2, r3
 904 0062 DBB2     		uxtb	r3, r3
 905 0064 5033     		adds	r3, r3, #80
 906 0066 FB71     		strb	r3, [r7, #7]
 907              	.L51:
 711:.\Generated_Source\PSoC5/UART_1.c ****         }
 712:.\Generated_Source\PSoC5/UART_1.c **** 
 713:.\Generated_Source\PSoC5/UART_1.c ****         UART_1_EnableRxInt();
 908              		.loc 1 713 0
 909 0068 084B     		ldr	r3, .L54+16
 910 006a 0222     		movs	r2, #2
 911 006c 1A60     		str	r2, [r3]
 714:.\Generated_Source\PSoC5/UART_1.c **** 
 715:.\Generated_Source\PSoC5/UART_1.c ****     #else
 716:.\Generated_Source\PSoC5/UART_1.c **** 
 717:.\Generated_Source\PSoC5/UART_1.c ****         /* We can only know if there is data in the fifo. */
 718:.\Generated_Source\PSoC5/UART_1.c ****         size = ((UART_1_RXSTATUS_REG & UART_1_RX_STS_FIFO_NOTEMPTY) != 0u) ? 1u : 0u;
 719:.\Generated_Source\PSoC5/UART_1.c **** 
 720:.\Generated_Source\PSoC5/UART_1.c ****     #endif /* (UART_1_RX_INTERRUPT_ENABLED) */
 721:.\Generated_Source\PSoC5/UART_1.c **** 
 722:.\Generated_Source\PSoC5/UART_1.c ****         return(size);
 912              		.loc 1 722 0
 913 006e FB79     		ldrb	r3, [r7, #7]	@ zero_extendqisi2
 723:.\Generated_Source\PSoC5/UART_1.c ****     }
 914              		.loc 1 723 0
 915 0070 1846     		mov	r0, r3
 916 0072 0C37     		adds	r7, r7, #12
 917              		.cfi_def_cfa_offset 4
 918 0074 BD46     		mov	sp, r7
 919              		.cfi_def_cfa_register 13
 920              		@ sp needed
 921 0076 5DF8047B 		ldr	r7, [sp], #4
 922              		.cfi_restore 7
 923              		.cfi_def_cfa_offset 0
 924 007a 7047     		bx	lr
 925              	.L55:
 926              		.align	2
 927              	.L54:
ARM GAS  C:\Users\Patrick\AppData\Local\Temp\ccFUkQgi.s 			page 30


 928 007c 80E100E0 		.word	-536813184
 929 0080 00000000 		.word	UART_1_rxBufferRead
 930 0084 00000000 		.word	UART_1_rxBufferWrite
 931 0088 00000000 		.word	UART_1_rxBufferLoopDetect
 932 008c 00E100E0 		.word	-536813312
 933              		.cfi_endproc
 934              	.LFE11:
 935              		.size	UART_1_GetRxBufferSize, .-UART_1_GetRxBufferSize
 936              		.section	.text.UART_1_ClearRxBuffer,"ax",%progbits
 937              		.align	2
 938              		.global	UART_1_ClearRxBuffer
 939              		.thumb
 940              		.thumb_func
 941              		.type	UART_1_ClearRxBuffer, %function
 942              	UART_1_ClearRxBuffer:
 943              	.LFB12:
 724:.\Generated_Source\PSoC5/UART_1.c **** 
 725:.\Generated_Source\PSoC5/UART_1.c **** 
 726:.\Generated_Source\PSoC5/UART_1.c ****     /*******************************************************************************
 727:.\Generated_Source\PSoC5/UART_1.c ****     * Function Name: UART_1_ClearRxBuffer
 728:.\Generated_Source\PSoC5/UART_1.c ****     ********************************************************************************
 729:.\Generated_Source\PSoC5/UART_1.c ****     *
 730:.\Generated_Source\PSoC5/UART_1.c ****     * Summary:
 731:.\Generated_Source\PSoC5/UART_1.c ****     *  Clears the receiver memory buffer and hardware RX FIFO of all received data.
 732:.\Generated_Source\PSoC5/UART_1.c ****     *
 733:.\Generated_Source\PSoC5/UART_1.c ****     * Parameters:
 734:.\Generated_Source\PSoC5/UART_1.c ****     *  None.
 735:.\Generated_Source\PSoC5/UART_1.c ****     *
 736:.\Generated_Source\PSoC5/UART_1.c ****     * Return:
 737:.\Generated_Source\PSoC5/UART_1.c ****     *  None.
 738:.\Generated_Source\PSoC5/UART_1.c ****     *
 739:.\Generated_Source\PSoC5/UART_1.c ****     * Global Variables:
 740:.\Generated_Source\PSoC5/UART_1.c ****     *  UART_1_rxBufferWrite - cleared to zero.
 741:.\Generated_Source\PSoC5/UART_1.c ****     *  UART_1_rxBufferRead - cleared to zero.
 742:.\Generated_Source\PSoC5/UART_1.c ****     *  UART_1_rxBufferLoopDetect - cleared to zero.
 743:.\Generated_Source\PSoC5/UART_1.c ****     *  UART_1_rxBufferOverflow - cleared to zero.
 744:.\Generated_Source\PSoC5/UART_1.c ****     *
 745:.\Generated_Source\PSoC5/UART_1.c ****     * Reentrant:
 746:.\Generated_Source\PSoC5/UART_1.c ****     *  No.
 747:.\Generated_Source\PSoC5/UART_1.c ****     *
 748:.\Generated_Source\PSoC5/UART_1.c ****     * Theory:
 749:.\Generated_Source\PSoC5/UART_1.c ****     *  Setting the pointers to zero makes the system believe there is no data to
 750:.\Generated_Source\PSoC5/UART_1.c ****     *  read and writing will resume at address 0 overwriting any data that may
 751:.\Generated_Source\PSoC5/UART_1.c ****     *  have remained in the RAM.
 752:.\Generated_Source\PSoC5/UART_1.c ****     *
 753:.\Generated_Source\PSoC5/UART_1.c ****     * Side Effects:
 754:.\Generated_Source\PSoC5/UART_1.c ****     *  Any received data not read from the RAM or FIFO buffer will be lost.
 755:.\Generated_Source\PSoC5/UART_1.c ****     *
 756:.\Generated_Source\PSoC5/UART_1.c ****     *******************************************************************************/
 757:.\Generated_Source\PSoC5/UART_1.c ****     void UART_1_ClearRxBuffer(void) 
 758:.\Generated_Source\PSoC5/UART_1.c ****     {
 944              		.loc 1 758 0
 945              		.cfi_startproc
 946              		@ args = 0, pretend = 0, frame = 8
 947              		@ frame_needed = 1, uses_anonymous_args = 0
 948 0000 80B5     		push	{r7, lr}
 949              		.cfi_def_cfa_offset 8
ARM GAS  C:\Users\Patrick\AppData\Local\Temp\ccFUkQgi.s 			page 31


 950              		.cfi_offset 7, -8
 951              		.cfi_offset 14, -4
 952 0002 82B0     		sub	sp, sp, #8
 953              		.cfi_def_cfa_offset 16
 954 0004 00AF     		add	r7, sp, #0
 955              		.cfi_def_cfa_register 7
 759:.\Generated_Source\PSoC5/UART_1.c ****         uint8 enableInterrupts;
 760:.\Generated_Source\PSoC5/UART_1.c **** 
 761:.\Generated_Source\PSoC5/UART_1.c ****         /* Clear the HW FIFO */
 762:.\Generated_Source\PSoC5/UART_1.c ****         enableInterrupts = CyEnterCriticalSection();
 956              		.loc 1 762 0
 957 0006 FFF7FEFF 		bl	CyEnterCriticalSection
 958 000a 0346     		mov	r3, r0
 959 000c FB71     		strb	r3, [r7, #7]
 763:.\Generated_Source\PSoC5/UART_1.c ****         UART_1_RXDATA_AUX_CTL_REG |= (uint8)  UART_1_RX_FIFO_CLR;
 960              		.loc 1 763 0
 961 000e 144A     		ldr	r2, .L57
 962 0010 134B     		ldr	r3, .L57
 963 0012 1B78     		ldrb	r3, [r3]
 964 0014 DBB2     		uxtb	r3, r3
 965 0016 43F00103 		orr	r3, r3, #1
 966 001a DBB2     		uxtb	r3, r3
 967 001c 1370     		strb	r3, [r2]
 764:.\Generated_Source\PSoC5/UART_1.c ****         UART_1_RXDATA_AUX_CTL_REG &= (uint8) ~UART_1_RX_FIFO_CLR;
 968              		.loc 1 764 0
 969 001e 104A     		ldr	r2, .L57
 970 0020 0F4B     		ldr	r3, .L57
 971 0022 1B78     		ldrb	r3, [r3]
 972 0024 DBB2     		uxtb	r3, r3
 973 0026 23F00103 		bic	r3, r3, #1
 974 002a DBB2     		uxtb	r3, r3
 975 002c 1370     		strb	r3, [r2]
 765:.\Generated_Source\PSoC5/UART_1.c ****         CyExitCriticalSection(enableInterrupts);
 976              		.loc 1 765 0
 977 002e FB79     		ldrb	r3, [r7, #7]	@ zero_extendqisi2
 978 0030 1846     		mov	r0, r3
 979 0032 FFF7FEFF 		bl	CyExitCriticalSection
 766:.\Generated_Source\PSoC5/UART_1.c **** 
 767:.\Generated_Source\PSoC5/UART_1.c ****     #if (UART_1_RX_INTERRUPT_ENABLED)
 768:.\Generated_Source\PSoC5/UART_1.c **** 
 769:.\Generated_Source\PSoC5/UART_1.c ****         /* Protect variables that could change on interrupt. */
 770:.\Generated_Source\PSoC5/UART_1.c ****         UART_1_DisableRxInt();
 980              		.loc 1 770 0
 981 0036 0B4B     		ldr	r3, .L57+4
 982 0038 0222     		movs	r2, #2
 983 003a 1A60     		str	r2, [r3]
 771:.\Generated_Source\PSoC5/UART_1.c **** 
 772:.\Generated_Source\PSoC5/UART_1.c ****         UART_1_rxBufferRead = 0u;
 984              		.loc 1 772 0
 985 003c 0A4B     		ldr	r3, .L57+8
 986 003e 0022     		movs	r2, #0
 987 0040 1A70     		strb	r2, [r3]
 773:.\Generated_Source\PSoC5/UART_1.c ****         UART_1_rxBufferWrite = 0u;
 988              		.loc 1 773 0
 989 0042 0A4B     		ldr	r3, .L57+12
 990 0044 0022     		movs	r2, #0
 991 0046 1A70     		strb	r2, [r3]
ARM GAS  C:\Users\Patrick\AppData\Local\Temp\ccFUkQgi.s 			page 32


 774:.\Generated_Source\PSoC5/UART_1.c ****         UART_1_rxBufferLoopDetect = 0u;
 992              		.loc 1 774 0
 993 0048 094B     		ldr	r3, .L57+16
 994 004a 0022     		movs	r2, #0
 995 004c 1A70     		strb	r2, [r3]
 775:.\Generated_Source\PSoC5/UART_1.c ****         UART_1_rxBufferOverflow = 0u;
 996              		.loc 1 775 0
 997 004e 094B     		ldr	r3, .L57+20
 998 0050 0022     		movs	r2, #0
 999 0052 1A70     		strb	r2, [r3]
 776:.\Generated_Source\PSoC5/UART_1.c **** 
 777:.\Generated_Source\PSoC5/UART_1.c ****         UART_1_EnableRxInt();
 1000              		.loc 1 777 0
 1001 0054 084B     		ldr	r3, .L57+24
 1002 0056 0222     		movs	r2, #2
 1003 0058 1A60     		str	r2, [r3]
 778:.\Generated_Source\PSoC5/UART_1.c **** 
 779:.\Generated_Source\PSoC5/UART_1.c ****     #endif /* (UART_1_RX_INTERRUPT_ENABLED) */
 780:.\Generated_Source\PSoC5/UART_1.c **** 
 781:.\Generated_Source\PSoC5/UART_1.c ****     }
 1004              		.loc 1 781 0
 1005 005a 0837     		adds	r7, r7, #8
 1006              		.cfi_def_cfa_offset 8
 1007 005c BD46     		mov	sp, r7
 1008              		.cfi_def_cfa_register 13
 1009              		@ sp needed
 1010 005e 80BD     		pop	{r7, pc}
 1011              	.L58:
 1012              		.align	2
 1013              	.L57:
 1014 0060 9A650040 		.word	1073767834
 1015 0064 80E100E0 		.word	-536813184
 1016 0068 00000000 		.word	UART_1_rxBufferRead
 1017 006c 00000000 		.word	UART_1_rxBufferWrite
 1018 0070 00000000 		.word	UART_1_rxBufferLoopDetect
 1019 0074 00000000 		.word	UART_1_rxBufferOverflow
 1020 0078 00E100E0 		.word	-536813312
 1021              		.cfi_endproc
 1022              	.LFE12:
 1023              		.size	UART_1_ClearRxBuffer, .-UART_1_ClearRxBuffer
 1024              		.section	.text.UART_1_SetRxAddressMode,"ax",%progbits
 1025              		.align	2
 1026              		.global	UART_1_SetRxAddressMode
 1027              		.thumb
 1028              		.thumb_func
 1029              		.type	UART_1_SetRxAddressMode, %function
 1030              	UART_1_SetRxAddressMode:
 1031              	.LFB13:
 782:.\Generated_Source\PSoC5/UART_1.c **** 
 783:.\Generated_Source\PSoC5/UART_1.c **** 
 784:.\Generated_Source\PSoC5/UART_1.c ****     /*******************************************************************************
 785:.\Generated_Source\PSoC5/UART_1.c ****     * Function Name: UART_1_SetRxAddressMode
 786:.\Generated_Source\PSoC5/UART_1.c ****     ********************************************************************************
 787:.\Generated_Source\PSoC5/UART_1.c ****     *
 788:.\Generated_Source\PSoC5/UART_1.c ****     * Summary:
 789:.\Generated_Source\PSoC5/UART_1.c ****     *  Sets the software controlled Addressing mode used by the RX portion of the
 790:.\Generated_Source\PSoC5/UART_1.c ****     *  UART.
ARM GAS  C:\Users\Patrick\AppData\Local\Temp\ccFUkQgi.s 			page 33


 791:.\Generated_Source\PSoC5/UART_1.c ****     *
 792:.\Generated_Source\PSoC5/UART_1.c ****     * Parameters:
 793:.\Generated_Source\PSoC5/UART_1.c ****     *  addressMode: Enumerated value indicating the mode of RX addressing
 794:.\Generated_Source\PSoC5/UART_1.c ****     *  UART_1__B_UART__AM_SW_BYTE_BYTE -  Software Byte-by-Byte address
 795:.\Generated_Source\PSoC5/UART_1.c ****     *                                               detection
 796:.\Generated_Source\PSoC5/UART_1.c ****     *  UART_1__B_UART__AM_SW_DETECT_TO_BUFFER - Software Detect to Buffer
 797:.\Generated_Source\PSoC5/UART_1.c ****     *                                               address detection
 798:.\Generated_Source\PSoC5/UART_1.c ****     *  UART_1__B_UART__AM_HW_BYTE_BY_BYTE - Hardware Byte-by-Byte address
 799:.\Generated_Source\PSoC5/UART_1.c ****     *                                               detection
 800:.\Generated_Source\PSoC5/UART_1.c ****     *  UART_1__B_UART__AM_HW_DETECT_TO_BUFFER - Hardware Detect to Buffer
 801:.\Generated_Source\PSoC5/UART_1.c ****     *                                               address detection
 802:.\Generated_Source\PSoC5/UART_1.c ****     *  UART_1__B_UART__AM_NONE - No address detection
 803:.\Generated_Source\PSoC5/UART_1.c ****     *
 804:.\Generated_Source\PSoC5/UART_1.c ****     * Return:
 805:.\Generated_Source\PSoC5/UART_1.c ****     *  None.
 806:.\Generated_Source\PSoC5/UART_1.c ****     *
 807:.\Generated_Source\PSoC5/UART_1.c ****     * Global Variables:
 808:.\Generated_Source\PSoC5/UART_1.c ****     *  UART_1_rxAddressMode - the parameter stored in this variable for
 809:.\Generated_Source\PSoC5/UART_1.c ****     *   the farther usage in RX ISR.
 810:.\Generated_Source\PSoC5/UART_1.c ****     *  UART_1_rxAddressDetected - set to initial state (0).
 811:.\Generated_Source\PSoC5/UART_1.c ****     *
 812:.\Generated_Source\PSoC5/UART_1.c ****     *******************************************************************************/
 813:.\Generated_Source\PSoC5/UART_1.c ****     void UART_1_SetRxAddressMode(uint8 addressMode)
 814:.\Generated_Source\PSoC5/UART_1.c ****                                                         
 815:.\Generated_Source\PSoC5/UART_1.c ****     {
 1032              		.loc 1 815 0
 1033              		.cfi_startproc
 1034              		@ args = 0, pretend = 0, frame = 8
 1035              		@ frame_needed = 1, uses_anonymous_args = 0
 1036              		@ link register save eliminated.
 1037 0000 80B4     		push	{r7}
 1038              		.cfi_def_cfa_offset 4
 1039              		.cfi_offset 7, -4
 1040 0002 83B0     		sub	sp, sp, #12
 1041              		.cfi_def_cfa_offset 16
 1042 0004 00AF     		add	r7, sp, #0
 1043              		.cfi_def_cfa_register 7
 1044 0006 0346     		mov	r3, r0
 1045 0008 FB71     		strb	r3, [r7, #7]
 816:.\Generated_Source\PSoC5/UART_1.c ****         #if(UART_1_RXHW_ADDRESS_ENABLED)
 817:.\Generated_Source\PSoC5/UART_1.c ****             #if(UART_1_CONTROL_REG_REMOVED)
 818:.\Generated_Source\PSoC5/UART_1.c ****                 if(0u != addressMode)
 819:.\Generated_Source\PSoC5/UART_1.c ****                 {
 820:.\Generated_Source\PSoC5/UART_1.c ****                     /* Suppress compiler warning */
 821:.\Generated_Source\PSoC5/UART_1.c ****                 }
 822:.\Generated_Source\PSoC5/UART_1.c ****             #else /* UART_1_CONTROL_REG_REMOVED */
 823:.\Generated_Source\PSoC5/UART_1.c ****                 uint8 tmpCtrl;
 824:.\Generated_Source\PSoC5/UART_1.c ****                 tmpCtrl = UART_1_CONTROL_REG & (uint8)~UART_1_CTRL_RXADDR_MODE_MASK;
 825:.\Generated_Source\PSoC5/UART_1.c ****                 tmpCtrl |= (uint8)(addressMode << UART_1_CTRL_RXADDR_MODE0_SHIFT);
 826:.\Generated_Source\PSoC5/UART_1.c ****                 UART_1_CONTROL_REG = tmpCtrl;
 827:.\Generated_Source\PSoC5/UART_1.c **** 
 828:.\Generated_Source\PSoC5/UART_1.c ****                 #if(UART_1_RX_INTERRUPT_ENABLED && \
 829:.\Generated_Source\PSoC5/UART_1.c ****                    (UART_1_RXBUFFERSIZE > UART_1_FIFO_LENGTH) )
 830:.\Generated_Source\PSoC5/UART_1.c ****                     UART_1_rxAddressMode = addressMode;
 831:.\Generated_Source\PSoC5/UART_1.c ****                     UART_1_rxAddressDetected = 0u;
 832:.\Generated_Source\PSoC5/UART_1.c ****                 #endif /* End UART_1_RXBUFFERSIZE > UART_1_FIFO_LENGTH*/
 833:.\Generated_Source\PSoC5/UART_1.c ****             #endif /* End UART_1_CONTROL_REG_REMOVED */
ARM GAS  C:\Users\Patrick\AppData\Local\Temp\ccFUkQgi.s 			page 34


 834:.\Generated_Source\PSoC5/UART_1.c ****         #else /* UART_1_RXHW_ADDRESS_ENABLED */
 835:.\Generated_Source\PSoC5/UART_1.c ****             if(0u != addressMode)
 836:.\Generated_Source\PSoC5/UART_1.c ****             {
 837:.\Generated_Source\PSoC5/UART_1.c ****                 /* Suppress compiler warning */
 838:.\Generated_Source\PSoC5/UART_1.c ****             }
 839:.\Generated_Source\PSoC5/UART_1.c ****         #endif /* End UART_1_RXHW_ADDRESS_ENABLED */
 840:.\Generated_Source\PSoC5/UART_1.c ****     }
 1046              		.loc 1 840 0
 1047 000a 0C37     		adds	r7, r7, #12
 1048              		.cfi_def_cfa_offset 4
 1049 000c BD46     		mov	sp, r7
 1050              		.cfi_def_cfa_register 13
 1051              		@ sp needed
 1052 000e 5DF8047B 		ldr	r7, [sp], #4
 1053              		.cfi_restore 7
 1054              		.cfi_def_cfa_offset 0
 1055 0012 7047     		bx	lr
 1056              		.cfi_endproc
 1057              	.LFE13:
 1058              		.size	UART_1_SetRxAddressMode, .-UART_1_SetRxAddressMode
 1059              		.section	.text.UART_1_SetRxAddress1,"ax",%progbits
 1060              		.align	2
 1061              		.global	UART_1_SetRxAddress1
 1062              		.thumb
 1063              		.thumb_func
 1064              		.type	UART_1_SetRxAddress1, %function
 1065              	UART_1_SetRxAddress1:
 1066              	.LFB14:
 841:.\Generated_Source\PSoC5/UART_1.c **** 
 842:.\Generated_Source\PSoC5/UART_1.c **** 
 843:.\Generated_Source\PSoC5/UART_1.c ****     /*******************************************************************************
 844:.\Generated_Source\PSoC5/UART_1.c ****     * Function Name: UART_1_SetRxAddress1
 845:.\Generated_Source\PSoC5/UART_1.c ****     ********************************************************************************
 846:.\Generated_Source\PSoC5/UART_1.c ****     *
 847:.\Generated_Source\PSoC5/UART_1.c ****     * Summary:
 848:.\Generated_Source\PSoC5/UART_1.c ****     *  Sets the first of two hardware-detectable receiver addresses.
 849:.\Generated_Source\PSoC5/UART_1.c ****     *
 850:.\Generated_Source\PSoC5/UART_1.c ****     * Parameters:
 851:.\Generated_Source\PSoC5/UART_1.c ****     *  address: Address #1 for hardware address detection.
 852:.\Generated_Source\PSoC5/UART_1.c ****     *
 853:.\Generated_Source\PSoC5/UART_1.c ****     * Return:
 854:.\Generated_Source\PSoC5/UART_1.c ****     *  None.
 855:.\Generated_Source\PSoC5/UART_1.c ****     *
 856:.\Generated_Source\PSoC5/UART_1.c ****     *******************************************************************************/
 857:.\Generated_Source\PSoC5/UART_1.c ****     void UART_1_SetRxAddress1(uint8 address) 
 858:.\Generated_Source\PSoC5/UART_1.c ****     {
 1067              		.loc 1 858 0
 1068              		.cfi_startproc
 1069              		@ args = 0, pretend = 0, frame = 8
 1070              		@ frame_needed = 1, uses_anonymous_args = 0
 1071              		@ link register save eliminated.
 1072 0000 80B4     		push	{r7}
 1073              		.cfi_def_cfa_offset 4
 1074              		.cfi_offset 7, -4
 1075 0002 83B0     		sub	sp, sp, #12
 1076              		.cfi_def_cfa_offset 16
 1077 0004 00AF     		add	r7, sp, #0
ARM GAS  C:\Users\Patrick\AppData\Local\Temp\ccFUkQgi.s 			page 35


 1078              		.cfi_def_cfa_register 7
 1079 0006 0346     		mov	r3, r0
 1080 0008 FB71     		strb	r3, [r7, #7]
 859:.\Generated_Source\PSoC5/UART_1.c ****         UART_1_RXADDRESS1_REG = address;
 1081              		.loc 1 859 0
 1082 000a 044A     		ldr	r2, .L61
 1083 000c FB79     		ldrb	r3, [r7, #7]
 1084 000e 1370     		strb	r3, [r2]
 860:.\Generated_Source\PSoC5/UART_1.c ****     }
 1085              		.loc 1 860 0
 1086 0010 0C37     		adds	r7, r7, #12
 1087              		.cfi_def_cfa_offset 4
 1088 0012 BD46     		mov	sp, r7
 1089              		.cfi_def_cfa_register 13
 1090              		@ sp needed
 1091 0014 5DF8047B 		ldr	r7, [sp], #4
 1092              		.cfi_restore 7
 1093              		.cfi_def_cfa_offset 0
 1094 0018 7047     		bx	lr
 1095              	.L62:
 1096 001a 00BF     		.align	2
 1097              	.L61:
 1098 001c 2A650040 		.word	1073767722
 1099              		.cfi_endproc
 1100              	.LFE14:
 1101              		.size	UART_1_SetRxAddress1, .-UART_1_SetRxAddress1
 1102              		.section	.text.UART_1_SetRxAddress2,"ax",%progbits
 1103              		.align	2
 1104              		.global	UART_1_SetRxAddress2
 1105              		.thumb
 1106              		.thumb_func
 1107              		.type	UART_1_SetRxAddress2, %function
 1108              	UART_1_SetRxAddress2:
 1109              	.LFB15:
 861:.\Generated_Source\PSoC5/UART_1.c **** 
 862:.\Generated_Source\PSoC5/UART_1.c **** 
 863:.\Generated_Source\PSoC5/UART_1.c ****     /*******************************************************************************
 864:.\Generated_Source\PSoC5/UART_1.c ****     * Function Name: UART_1_SetRxAddress2
 865:.\Generated_Source\PSoC5/UART_1.c ****     ********************************************************************************
 866:.\Generated_Source\PSoC5/UART_1.c ****     *
 867:.\Generated_Source\PSoC5/UART_1.c ****     * Summary:
 868:.\Generated_Source\PSoC5/UART_1.c ****     *  Sets the second of two hardware-detectable receiver addresses.
 869:.\Generated_Source\PSoC5/UART_1.c ****     *
 870:.\Generated_Source\PSoC5/UART_1.c ****     * Parameters:
 871:.\Generated_Source\PSoC5/UART_1.c ****     *  address: Address #2 for hardware address detection.
 872:.\Generated_Source\PSoC5/UART_1.c ****     *
 873:.\Generated_Source\PSoC5/UART_1.c ****     * Return:
 874:.\Generated_Source\PSoC5/UART_1.c ****     *  None.
 875:.\Generated_Source\PSoC5/UART_1.c ****     *
 876:.\Generated_Source\PSoC5/UART_1.c ****     *******************************************************************************/
 877:.\Generated_Source\PSoC5/UART_1.c ****     void UART_1_SetRxAddress2(uint8 address) 
 878:.\Generated_Source\PSoC5/UART_1.c ****     {
 1110              		.loc 1 878 0
 1111              		.cfi_startproc
 1112              		@ args = 0, pretend = 0, frame = 8
 1113              		@ frame_needed = 1, uses_anonymous_args = 0
 1114              		@ link register save eliminated.
ARM GAS  C:\Users\Patrick\AppData\Local\Temp\ccFUkQgi.s 			page 36


 1115 0000 80B4     		push	{r7}
 1116              		.cfi_def_cfa_offset 4
 1117              		.cfi_offset 7, -4
 1118 0002 83B0     		sub	sp, sp, #12
 1119              		.cfi_def_cfa_offset 16
 1120 0004 00AF     		add	r7, sp, #0
 1121              		.cfi_def_cfa_register 7
 1122 0006 0346     		mov	r3, r0
 1123 0008 FB71     		strb	r3, [r7, #7]
 879:.\Generated_Source\PSoC5/UART_1.c ****         UART_1_RXADDRESS2_REG = address;
 1124              		.loc 1 879 0
 1125 000a 044A     		ldr	r2, .L64
 1126 000c FB79     		ldrb	r3, [r7, #7]
 1127 000e 1370     		strb	r3, [r2]
 880:.\Generated_Source\PSoC5/UART_1.c ****     }
 1128              		.loc 1 880 0
 1129 0010 0C37     		adds	r7, r7, #12
 1130              		.cfi_def_cfa_offset 4
 1131 0012 BD46     		mov	sp, r7
 1132              		.cfi_def_cfa_register 13
 1133              		@ sp needed
 1134 0014 5DF8047B 		ldr	r7, [sp], #4
 1135              		.cfi_restore 7
 1136              		.cfi_def_cfa_offset 0
 1137 0018 7047     		bx	lr
 1138              	.L65:
 1139 001a 00BF     		.align	2
 1140              	.L64:
 1141 001c 3A650040 		.word	1073767738
 1142              		.cfi_endproc
 1143              	.LFE15:
 1144              		.size	UART_1_SetRxAddress2, .-UART_1_SetRxAddress2
 1145              		.section	.text.UART_1_SetTxInterruptMode,"ax",%progbits
 1146              		.align	2
 1147              		.global	UART_1_SetTxInterruptMode
 1148              		.thumb
 1149              		.thumb_func
 1150              		.type	UART_1_SetTxInterruptMode, %function
 1151              	UART_1_SetTxInterruptMode:
 1152              	.LFB16:
 881:.\Generated_Source\PSoC5/UART_1.c **** 
 882:.\Generated_Source\PSoC5/UART_1.c **** #endif  /* UART_1_RX_ENABLED || UART_1_HD_ENABLED*/
 883:.\Generated_Source\PSoC5/UART_1.c **** 
 884:.\Generated_Source\PSoC5/UART_1.c **** 
 885:.\Generated_Source\PSoC5/UART_1.c **** #if( (UART_1_TX_ENABLED) || (UART_1_HD_ENABLED) )
 886:.\Generated_Source\PSoC5/UART_1.c ****     /*******************************************************************************
 887:.\Generated_Source\PSoC5/UART_1.c ****     * Function Name: UART_1_SetTxInterruptMode
 888:.\Generated_Source\PSoC5/UART_1.c ****     ********************************************************************************
 889:.\Generated_Source\PSoC5/UART_1.c ****     *
 890:.\Generated_Source\PSoC5/UART_1.c ****     * Summary:
 891:.\Generated_Source\PSoC5/UART_1.c ****     *  Configures the TX interrupt sources to be enabled, but does not enable the
 892:.\Generated_Source\PSoC5/UART_1.c ****     *  interrupt.
 893:.\Generated_Source\PSoC5/UART_1.c ****     *
 894:.\Generated_Source\PSoC5/UART_1.c ****     * Parameters:
 895:.\Generated_Source\PSoC5/UART_1.c ****     *  intSrc: Bit field containing the TX interrupt sources to enable
 896:.\Generated_Source\PSoC5/UART_1.c ****     *   UART_1_TX_STS_COMPLETE        Interrupt on TX byte complete
 897:.\Generated_Source\PSoC5/UART_1.c ****     *   UART_1_TX_STS_FIFO_EMPTY      Interrupt when TX FIFO is empty
ARM GAS  C:\Users\Patrick\AppData\Local\Temp\ccFUkQgi.s 			page 37


 898:.\Generated_Source\PSoC5/UART_1.c ****     *   UART_1_TX_STS_FIFO_FULL       Interrupt when TX FIFO is full
 899:.\Generated_Source\PSoC5/UART_1.c ****     *   UART_1_TX_STS_FIFO_NOT_FULL   Interrupt when TX FIFO is not full
 900:.\Generated_Source\PSoC5/UART_1.c ****     *
 901:.\Generated_Source\PSoC5/UART_1.c ****     * Return:
 902:.\Generated_Source\PSoC5/UART_1.c ****     *  None.
 903:.\Generated_Source\PSoC5/UART_1.c ****     *
 904:.\Generated_Source\PSoC5/UART_1.c ****     * Theory:
 905:.\Generated_Source\PSoC5/UART_1.c ****     *  Enables the output of specific status bits to the interrupt controller
 906:.\Generated_Source\PSoC5/UART_1.c ****     *
 907:.\Generated_Source\PSoC5/UART_1.c ****     *******************************************************************************/
 908:.\Generated_Source\PSoC5/UART_1.c ****     void UART_1_SetTxInterruptMode(uint8 intSrc) 
 909:.\Generated_Source\PSoC5/UART_1.c ****     {
 1153              		.loc 1 909 0
 1154              		.cfi_startproc
 1155              		@ args = 0, pretend = 0, frame = 8
 1156              		@ frame_needed = 1, uses_anonymous_args = 0
 1157              		@ link register save eliminated.
 1158 0000 80B4     		push	{r7}
 1159              		.cfi_def_cfa_offset 4
 1160              		.cfi_offset 7, -4
 1161 0002 83B0     		sub	sp, sp, #12
 1162              		.cfi_def_cfa_offset 16
 1163 0004 00AF     		add	r7, sp, #0
 1164              		.cfi_def_cfa_register 7
 1165 0006 0346     		mov	r3, r0
 1166 0008 FB71     		strb	r3, [r7, #7]
 910:.\Generated_Source\PSoC5/UART_1.c ****         UART_1_TXSTATUS_MASK_REG = intSrc;
 1167              		.loc 1 910 0
 1168 000a 044A     		ldr	r2, .L67
 1169 000c FB79     		ldrb	r3, [r7, #7]
 1170 000e 1370     		strb	r3, [r2]
 911:.\Generated_Source\PSoC5/UART_1.c ****     }
 1171              		.loc 1 911 0
 1172 0010 0C37     		adds	r7, r7, #12
 1173              		.cfi_def_cfa_offset 4
 1174 0012 BD46     		mov	sp, r7
 1175              		.cfi_def_cfa_register 13
 1176              		@ sp needed
 1177 0014 5DF8047B 		ldr	r7, [sp], #4
 1178              		.cfi_restore 7
 1179              		.cfi_def_cfa_offset 0
 1180 0018 7047     		bx	lr
 1181              	.L68:
 1182 001a 00BF     		.align	2
 1183              	.L67:
 1184 001c 8A640040 		.word	1073767562
 1185              		.cfi_endproc
 1186              	.LFE16:
 1187              		.size	UART_1_SetTxInterruptMode, .-UART_1_SetTxInterruptMode
 1188              		.section	.text.UART_1_WriteTxData,"ax",%progbits
 1189              		.align	2
 1190              		.global	UART_1_WriteTxData
 1191              		.thumb
 1192              		.thumb_func
 1193              		.type	UART_1_WriteTxData, %function
 1194              	UART_1_WriteTxData:
 1195              	.LFB17:
ARM GAS  C:\Users\Patrick\AppData\Local\Temp\ccFUkQgi.s 			page 38


 912:.\Generated_Source\PSoC5/UART_1.c **** 
 913:.\Generated_Source\PSoC5/UART_1.c **** 
 914:.\Generated_Source\PSoC5/UART_1.c ****     /*******************************************************************************
 915:.\Generated_Source\PSoC5/UART_1.c ****     * Function Name: UART_1_WriteTxData
 916:.\Generated_Source\PSoC5/UART_1.c ****     ********************************************************************************
 917:.\Generated_Source\PSoC5/UART_1.c ****     *
 918:.\Generated_Source\PSoC5/UART_1.c ****     * Summary:
 919:.\Generated_Source\PSoC5/UART_1.c ****     *  Places a byte of data into the transmit buffer to be sent when the bus is
 920:.\Generated_Source\PSoC5/UART_1.c ****     *  available without checking the TX status register. You must check status
 921:.\Generated_Source\PSoC5/UART_1.c ****     *  separately.
 922:.\Generated_Source\PSoC5/UART_1.c ****     *
 923:.\Generated_Source\PSoC5/UART_1.c ****     * Parameters:
 924:.\Generated_Source\PSoC5/UART_1.c ****     *  txDataByte: data byte
 925:.\Generated_Source\PSoC5/UART_1.c ****     *
 926:.\Generated_Source\PSoC5/UART_1.c ****     * Return:
 927:.\Generated_Source\PSoC5/UART_1.c ****     * None.
 928:.\Generated_Source\PSoC5/UART_1.c ****     *
 929:.\Generated_Source\PSoC5/UART_1.c ****     * Global Variables:
 930:.\Generated_Source\PSoC5/UART_1.c ****     *  UART_1_txBuffer - RAM buffer pointer for save data for transmission
 931:.\Generated_Source\PSoC5/UART_1.c ****     *  UART_1_txBufferWrite - cyclic index for write to txBuffer,
 932:.\Generated_Source\PSoC5/UART_1.c ****     *    incremented after each byte saved to buffer.
 933:.\Generated_Source\PSoC5/UART_1.c ****     *  UART_1_txBufferRead - cyclic index for read from txBuffer,
 934:.\Generated_Source\PSoC5/UART_1.c ****     *    checked to identify the condition to write to FIFO directly or to TX buffer
 935:.\Generated_Source\PSoC5/UART_1.c ****     *  UART_1_initVar - checked to identify that the component has been
 936:.\Generated_Source\PSoC5/UART_1.c ****     *    initialized.
 937:.\Generated_Source\PSoC5/UART_1.c ****     *
 938:.\Generated_Source\PSoC5/UART_1.c ****     * Reentrant:
 939:.\Generated_Source\PSoC5/UART_1.c ****     *  No.
 940:.\Generated_Source\PSoC5/UART_1.c ****     *
 941:.\Generated_Source\PSoC5/UART_1.c ****     *******************************************************************************/
 942:.\Generated_Source\PSoC5/UART_1.c ****     void UART_1_WriteTxData(uint8 txDataByte) 
 943:.\Generated_Source\PSoC5/UART_1.c ****     {
 1196              		.loc 1 943 0
 1197              		.cfi_startproc
 1198              		@ args = 0, pretend = 0, frame = 8
 1199              		@ frame_needed = 1, uses_anonymous_args = 0
 1200              		@ link register save eliminated.
 1201 0000 80B4     		push	{r7}
 1202              		.cfi_def_cfa_offset 4
 1203              		.cfi_offset 7, -4
 1204 0002 83B0     		sub	sp, sp, #12
 1205              		.cfi_def_cfa_offset 16
 1206 0004 00AF     		add	r7, sp, #0
 1207              		.cfi_def_cfa_register 7
 1208 0006 0346     		mov	r3, r0
 1209 0008 FB71     		strb	r3, [r7, #7]
 944:.\Generated_Source\PSoC5/UART_1.c ****         /* If not Initialized then skip this function*/
 945:.\Generated_Source\PSoC5/UART_1.c ****         if(UART_1_initVar != 0u)
 1210              		.loc 1 945 0
 1211 000a 1A4B     		ldr	r3, .L74
 1212 000c 1B78     		ldrb	r3, [r3]	@ zero_extendqisi2
 1213 000e 002B     		cmp	r3, #0
 1214 0010 2AD0     		beq	.L69
 946:.\Generated_Source\PSoC5/UART_1.c ****         {
 947:.\Generated_Source\PSoC5/UART_1.c ****         #if (UART_1_TX_INTERRUPT_ENABLED)
 948:.\Generated_Source\PSoC5/UART_1.c **** 
 949:.\Generated_Source\PSoC5/UART_1.c ****             /* Protect variables that could change on interrupt. */
ARM GAS  C:\Users\Patrick\AppData\Local\Temp\ccFUkQgi.s 			page 39


 950:.\Generated_Source\PSoC5/UART_1.c ****             UART_1_DisableTxInt();
 1215              		.loc 1 950 0
 1216 0012 194B     		ldr	r3, .L74+4
 1217 0014 0422     		movs	r2, #4
 1218 0016 1A60     		str	r2, [r3]
 951:.\Generated_Source\PSoC5/UART_1.c **** 
 952:.\Generated_Source\PSoC5/UART_1.c ****             if( (UART_1_txBufferRead == UART_1_txBufferWrite) &&
 1219              		.loc 1 952 0
 1220 0018 184B     		ldr	r3, .L74+8
 1221 001a 1B78     		ldrb	r3, [r3]
 1222 001c DAB2     		uxtb	r2, r3
 1223 001e 184B     		ldr	r3, .L74+12
 1224 0020 1B78     		ldrb	r3, [r3]	@ zero_extendqisi2
 1225 0022 9A42     		cmp	r2, r3
 1226 0024 0AD1     		bne	.L71
 953:.\Generated_Source\PSoC5/UART_1.c ****                 ((UART_1_TXSTATUS_REG & UART_1_TX_STS_FIFO_FULL) == 0u) )
 1227              		.loc 1 953 0 discriminator 1
 1228 0026 174B     		ldr	r3, .L74+16
 1229 0028 1B78     		ldrb	r3, [r3]
 1230 002a DBB2     		uxtb	r3, r3
 1231 002c 03F00403 		and	r3, r3, #4
 952:.\Generated_Source\PSoC5/UART_1.c ****                 ((UART_1_TXSTATUS_REG & UART_1_TX_STS_FIFO_FULL) == 0u) )
 1232              		.loc 1 952 0 discriminator 1
 1233 0030 002B     		cmp	r3, #0
 1234 0032 03D1     		bne	.L71
 954:.\Generated_Source\PSoC5/UART_1.c ****             {
 955:.\Generated_Source\PSoC5/UART_1.c ****                 /* Add directly to the FIFO. */
 956:.\Generated_Source\PSoC5/UART_1.c ****                 UART_1_TXDATA_REG = txDataByte;
 1235              		.loc 1 956 0
 1236 0034 144A     		ldr	r2, .L74+20
 1237 0036 FB79     		ldrb	r3, [r7, #7]
 1238 0038 1370     		strb	r3, [r2]
 1239 003a 12E0     		b	.L72
 1240              	.L71:
 957:.\Generated_Source\PSoC5/UART_1.c ****             }
 958:.\Generated_Source\PSoC5/UART_1.c ****             else
 959:.\Generated_Source\PSoC5/UART_1.c ****             {
 960:.\Generated_Source\PSoC5/UART_1.c ****                 if(UART_1_txBufferWrite >= UART_1_TX_BUFFER_SIZE)
 1241              		.loc 1 960 0
 1242 003c 104B     		ldr	r3, .L74+12
 1243 003e 1B78     		ldrb	r3, [r3]	@ zero_extendqisi2
 1244 0040 4F2B     		cmp	r3, #79
 1245 0042 02D9     		bls	.L73
 961:.\Generated_Source\PSoC5/UART_1.c ****                 {
 962:.\Generated_Source\PSoC5/UART_1.c ****                     UART_1_txBufferWrite = 0u;
 1246              		.loc 1 962 0
 1247 0044 0E4B     		ldr	r3, .L74+12
 1248 0046 0022     		movs	r2, #0
 1249 0048 1A70     		strb	r2, [r3]
 1250              	.L73:
 963:.\Generated_Source\PSoC5/UART_1.c ****                 }
 964:.\Generated_Source\PSoC5/UART_1.c **** 
 965:.\Generated_Source\PSoC5/UART_1.c ****                 UART_1_txBuffer[UART_1_txBufferWrite] = txDataByte;
 1251              		.loc 1 965 0
 1252 004a 0D4B     		ldr	r3, .L74+12
 1253 004c 1B78     		ldrb	r3, [r3]	@ zero_extendqisi2
 1254 004e 1946     		mov	r1, r3
ARM GAS  C:\Users\Patrick\AppData\Local\Temp\ccFUkQgi.s 			page 40


 1255 0050 0E4A     		ldr	r2, .L74+24
 1256 0052 FB79     		ldrb	r3, [r7, #7]
 1257 0054 5354     		strb	r3, [r2, r1]
 966:.\Generated_Source\PSoC5/UART_1.c **** 
 967:.\Generated_Source\PSoC5/UART_1.c ****                 /* Add to the software buffer. */
 968:.\Generated_Source\PSoC5/UART_1.c ****                 UART_1_txBufferWrite++;
 1258              		.loc 1 968 0
 1259 0056 0A4B     		ldr	r3, .L74+12
 1260 0058 1B78     		ldrb	r3, [r3]	@ zero_extendqisi2
 1261 005a 0133     		adds	r3, r3, #1
 1262 005c DAB2     		uxtb	r2, r3
 1263 005e 084B     		ldr	r3, .L74+12
 1264 0060 1A70     		strb	r2, [r3]
 1265              	.L72:
 969:.\Generated_Source\PSoC5/UART_1.c ****             }
 970:.\Generated_Source\PSoC5/UART_1.c **** 
 971:.\Generated_Source\PSoC5/UART_1.c ****             UART_1_EnableTxInt();
 1266              		.loc 1 971 0
 1267 0062 0B4B     		ldr	r3, .L74+28
 1268 0064 0422     		movs	r2, #4
 1269 0066 1A60     		str	r2, [r3]
 1270              	.L69:
 972:.\Generated_Source\PSoC5/UART_1.c **** 
 973:.\Generated_Source\PSoC5/UART_1.c ****         #else
 974:.\Generated_Source\PSoC5/UART_1.c **** 
 975:.\Generated_Source\PSoC5/UART_1.c ****             /* Add directly to the FIFO. */
 976:.\Generated_Source\PSoC5/UART_1.c ****             UART_1_TXDATA_REG = txDataByte;
 977:.\Generated_Source\PSoC5/UART_1.c **** 
 978:.\Generated_Source\PSoC5/UART_1.c ****         #endif /*(UART_1_TX_INTERRUPT_ENABLED) */
 979:.\Generated_Source\PSoC5/UART_1.c ****         }
 980:.\Generated_Source\PSoC5/UART_1.c ****     }
 1271              		.loc 1 980 0
 1272 0068 0C37     		adds	r7, r7, #12
 1273              		.cfi_def_cfa_offset 4
 1274 006a BD46     		mov	sp, r7
 1275              		.cfi_def_cfa_register 13
 1276              		@ sp needed
 1277 006c 5DF8047B 		ldr	r7, [sp], #4
 1278              		.cfi_restore 7
 1279              		.cfi_def_cfa_offset 0
 1280 0070 7047     		bx	lr
 1281              	.L75:
 1282 0072 00BF     		.align	2
 1283              	.L74:
 1284 0074 00000000 		.word	UART_1_initVar
 1285 0078 80E100E0 		.word	-536813184
 1286 007c 00000000 		.word	UART_1_txBufferRead
 1287 0080 00000000 		.word	UART_1_txBufferWrite
 1288 0084 6A640040 		.word	1073767530
 1289 0088 49640040 		.word	1073767497
 1290 008c 00000000 		.word	UART_1_txBuffer
 1291 0090 00E100E0 		.word	-536813312
 1292              		.cfi_endproc
 1293              	.LFE17:
 1294              		.size	UART_1_WriteTxData, .-UART_1_WriteTxData
 1295              		.section	.text.UART_1_ReadTxStatus,"ax",%progbits
 1296              		.align	2
ARM GAS  C:\Users\Patrick\AppData\Local\Temp\ccFUkQgi.s 			page 41


 1297              		.global	UART_1_ReadTxStatus
 1298              		.thumb
 1299              		.thumb_func
 1300              		.type	UART_1_ReadTxStatus, %function
 1301              	UART_1_ReadTxStatus:
 1302              	.LFB18:
 981:.\Generated_Source\PSoC5/UART_1.c **** 
 982:.\Generated_Source\PSoC5/UART_1.c **** 
 983:.\Generated_Source\PSoC5/UART_1.c ****     /*******************************************************************************
 984:.\Generated_Source\PSoC5/UART_1.c ****     * Function Name: UART_1_ReadTxStatus
 985:.\Generated_Source\PSoC5/UART_1.c ****     ********************************************************************************
 986:.\Generated_Source\PSoC5/UART_1.c ****     *
 987:.\Generated_Source\PSoC5/UART_1.c ****     * Summary:
 988:.\Generated_Source\PSoC5/UART_1.c ****     *  Reads the status register for the TX portion of the UART.
 989:.\Generated_Source\PSoC5/UART_1.c ****     *
 990:.\Generated_Source\PSoC5/UART_1.c ****     * Parameters:
 991:.\Generated_Source\PSoC5/UART_1.c ****     *  None.
 992:.\Generated_Source\PSoC5/UART_1.c ****     *
 993:.\Generated_Source\PSoC5/UART_1.c ****     * Return:
 994:.\Generated_Source\PSoC5/UART_1.c ****     *  Contents of the status register
 995:.\Generated_Source\PSoC5/UART_1.c ****     *
 996:.\Generated_Source\PSoC5/UART_1.c ****     * Theory:
 997:.\Generated_Source\PSoC5/UART_1.c ****     *  This function reads the TX status register, which is cleared on read.
 998:.\Generated_Source\PSoC5/UART_1.c ****     *  It is up to the user to handle all bits in this return value accordingly,
 999:.\Generated_Source\PSoC5/UART_1.c ****     *  even if the bit was not enabled as an interrupt source the event happened
1000:.\Generated_Source\PSoC5/UART_1.c ****     *  and must be handled accordingly.
1001:.\Generated_Source\PSoC5/UART_1.c ****     *
1002:.\Generated_Source\PSoC5/UART_1.c ****     *******************************************************************************/
1003:.\Generated_Source\PSoC5/UART_1.c ****     uint8 UART_1_ReadTxStatus(void) 
1004:.\Generated_Source\PSoC5/UART_1.c ****     {
 1303              		.loc 1 1004 0
 1304              		.cfi_startproc
 1305              		@ args = 0, pretend = 0, frame = 0
 1306              		@ frame_needed = 1, uses_anonymous_args = 0
 1307              		@ link register save eliminated.
 1308 0000 80B4     		push	{r7}
 1309              		.cfi_def_cfa_offset 4
 1310              		.cfi_offset 7, -4
 1311 0002 00AF     		add	r7, sp, #0
 1312              		.cfi_def_cfa_register 7
1005:.\Generated_Source\PSoC5/UART_1.c ****         return(UART_1_TXSTATUS_REG);
 1313              		.loc 1 1005 0
 1314 0004 034B     		ldr	r3, .L78
 1315 0006 1B78     		ldrb	r3, [r3]
 1316 0008 DBB2     		uxtb	r3, r3
1006:.\Generated_Source\PSoC5/UART_1.c ****     }
 1317              		.loc 1 1006 0
 1318 000a 1846     		mov	r0, r3
 1319 000c BD46     		mov	sp, r7
 1320              		.cfi_def_cfa_register 13
 1321              		@ sp needed
 1322 000e 5DF8047B 		ldr	r7, [sp], #4
 1323              		.cfi_restore 7
 1324              		.cfi_def_cfa_offset 0
 1325 0012 7047     		bx	lr
 1326              	.L79:
 1327              		.align	2
ARM GAS  C:\Users\Patrick\AppData\Local\Temp\ccFUkQgi.s 			page 42


 1328              	.L78:
 1329 0014 6A640040 		.word	1073767530
 1330              		.cfi_endproc
 1331              	.LFE18:
 1332              		.size	UART_1_ReadTxStatus, .-UART_1_ReadTxStatus
 1333              		.section	.text.UART_1_PutChar,"ax",%progbits
 1334              		.align	2
 1335              		.global	UART_1_PutChar
 1336              		.thumb
 1337              		.thumb_func
 1338              		.type	UART_1_PutChar, %function
 1339              	UART_1_PutChar:
 1340              	.LFB19:
1007:.\Generated_Source\PSoC5/UART_1.c **** 
1008:.\Generated_Source\PSoC5/UART_1.c **** 
1009:.\Generated_Source\PSoC5/UART_1.c ****     /*******************************************************************************
1010:.\Generated_Source\PSoC5/UART_1.c ****     * Function Name: UART_1_PutChar
1011:.\Generated_Source\PSoC5/UART_1.c ****     ********************************************************************************
1012:.\Generated_Source\PSoC5/UART_1.c ****     *
1013:.\Generated_Source\PSoC5/UART_1.c ****     * Summary:
1014:.\Generated_Source\PSoC5/UART_1.c ****     *  Puts a byte of data into the transmit buffer to be sent when the bus is
1015:.\Generated_Source\PSoC5/UART_1.c ****     *  available. This is a blocking API that waits until the TX buffer has room to
1016:.\Generated_Source\PSoC5/UART_1.c ****     *  hold the data.
1017:.\Generated_Source\PSoC5/UART_1.c ****     *
1018:.\Generated_Source\PSoC5/UART_1.c ****     * Parameters:
1019:.\Generated_Source\PSoC5/UART_1.c ****     *  txDataByte: Byte containing the data to transmit
1020:.\Generated_Source\PSoC5/UART_1.c ****     *
1021:.\Generated_Source\PSoC5/UART_1.c ****     * Return:
1022:.\Generated_Source\PSoC5/UART_1.c ****     *  None.
1023:.\Generated_Source\PSoC5/UART_1.c ****     *
1024:.\Generated_Source\PSoC5/UART_1.c ****     * Global Variables:
1025:.\Generated_Source\PSoC5/UART_1.c ****     *  UART_1_txBuffer - RAM buffer pointer for save data for transmission
1026:.\Generated_Source\PSoC5/UART_1.c ****     *  UART_1_txBufferWrite - cyclic index for write to txBuffer,
1027:.\Generated_Source\PSoC5/UART_1.c ****     *     checked to identify free space in txBuffer and incremented after each byte
1028:.\Generated_Source\PSoC5/UART_1.c ****     *     saved to buffer.
1029:.\Generated_Source\PSoC5/UART_1.c ****     *  UART_1_txBufferRead - cyclic index for read from txBuffer,
1030:.\Generated_Source\PSoC5/UART_1.c ****     *     checked to identify free space in txBuffer.
1031:.\Generated_Source\PSoC5/UART_1.c ****     *  UART_1_initVar - checked to identify that the component has been
1032:.\Generated_Source\PSoC5/UART_1.c ****     *     initialized.
1033:.\Generated_Source\PSoC5/UART_1.c ****     *
1034:.\Generated_Source\PSoC5/UART_1.c ****     * Reentrant:
1035:.\Generated_Source\PSoC5/UART_1.c ****     *  No.
1036:.\Generated_Source\PSoC5/UART_1.c ****     *
1037:.\Generated_Source\PSoC5/UART_1.c ****     * Theory:
1038:.\Generated_Source\PSoC5/UART_1.c ****     *  Allows the user to transmit any byte of data in a single transfer
1039:.\Generated_Source\PSoC5/UART_1.c ****     *
1040:.\Generated_Source\PSoC5/UART_1.c ****     *******************************************************************************/
1041:.\Generated_Source\PSoC5/UART_1.c ****     void UART_1_PutChar(uint8 txDataByte) 
1042:.\Generated_Source\PSoC5/UART_1.c ****     {
 1341              		.loc 1 1042 0
 1342              		.cfi_startproc
 1343              		@ args = 0, pretend = 0, frame = 16
 1344              		@ frame_needed = 1, uses_anonymous_args = 0
 1345              		@ link register save eliminated.
 1346 0000 80B4     		push	{r7}
 1347              		.cfi_def_cfa_offset 4
 1348              		.cfi_offset 7, -4
ARM GAS  C:\Users\Patrick\AppData\Local\Temp\ccFUkQgi.s 			page 43


 1349 0002 85B0     		sub	sp, sp, #20
 1350              		.cfi_def_cfa_offset 24
 1351 0004 00AF     		add	r7, sp, #0
 1352              		.cfi_def_cfa_register 7
 1353 0006 0346     		mov	r3, r0
 1354 0008 FB71     		strb	r3, [r7, #7]
 1355              	.L83:
1043:.\Generated_Source\PSoC5/UART_1.c ****     #if (UART_1_TX_INTERRUPT_ENABLED)
1044:.\Generated_Source\PSoC5/UART_1.c ****         /* The temporary output pointer is used since it takes two instructions
1045:.\Generated_Source\PSoC5/UART_1.c ****         *  to increment with a wrap, and we can't risk doing that with the real
1046:.\Generated_Source\PSoC5/UART_1.c ****         *  pointer and getting an interrupt in between instructions.
1047:.\Generated_Source\PSoC5/UART_1.c ****         */
1048:.\Generated_Source\PSoC5/UART_1.c ****         uint8 locTxBufferWrite;
1049:.\Generated_Source\PSoC5/UART_1.c ****         uint8 locTxBufferRead;
1050:.\Generated_Source\PSoC5/UART_1.c **** 
1051:.\Generated_Source\PSoC5/UART_1.c ****         do
1052:.\Generated_Source\PSoC5/UART_1.c ****         { /* Block if software buffer is full, so we don't overwrite. */
1053:.\Generated_Source\PSoC5/UART_1.c **** 
1054:.\Generated_Source\PSoC5/UART_1.c ****         #if ((UART_1_TX_BUFFER_SIZE > UART_1_MAX_BYTE_VALUE) && (CY_PSOC3))
1055:.\Generated_Source\PSoC5/UART_1.c ****             /* Disable TX interrupt to protect variables from modification */
1056:.\Generated_Source\PSoC5/UART_1.c ****             UART_1_DisableTxInt();
1057:.\Generated_Source\PSoC5/UART_1.c ****         #endif /* (UART_1_TX_BUFFER_SIZE > UART_1_MAX_BYTE_VALUE) && (CY_PSOC3) */
1058:.\Generated_Source\PSoC5/UART_1.c **** 
1059:.\Generated_Source\PSoC5/UART_1.c ****             locTxBufferWrite = UART_1_txBufferWrite;
 1356              		.loc 1 1059 0
 1357 000a 254B     		ldr	r3, .L87
 1358 000c 1B78     		ldrb	r3, [r3]
 1359 000e FB73     		strb	r3, [r7, #15]
1060:.\Generated_Source\PSoC5/UART_1.c ****             locTxBufferRead  = UART_1_txBufferRead;
 1360              		.loc 1 1060 0
 1361 0010 244B     		ldr	r3, .L87+4
 1362 0012 1B78     		ldrb	r3, [r3]
 1363 0014 BB73     		strb	r3, [r7, #14]
1061:.\Generated_Source\PSoC5/UART_1.c **** 
1062:.\Generated_Source\PSoC5/UART_1.c ****         #if ((UART_1_TX_BUFFER_SIZE > UART_1_MAX_BYTE_VALUE) && (CY_PSOC3))
1063:.\Generated_Source\PSoC5/UART_1.c ****             /* Enable interrupt to continue transmission */
1064:.\Generated_Source\PSoC5/UART_1.c ****             UART_1_EnableTxInt();
1065:.\Generated_Source\PSoC5/UART_1.c ****         #endif /* (UART_1_TX_BUFFER_SIZE > UART_1_MAX_BYTE_VALUE) && (CY_PSOC3) */
1066:.\Generated_Source\PSoC5/UART_1.c ****         }
1067:.\Generated_Source\PSoC5/UART_1.c ****         while( (locTxBufferWrite < locTxBufferRead) ? (locTxBufferWrite == (locTxBufferRead - 1u)) 
 1364              		.loc 1 1067 0
 1365 0016 FA7B     		ldrb	r2, [r7, #15]	@ zero_extendqisi2
 1366 0018 BB7B     		ldrb	r3, [r7, #14]	@ zero_extendqisi2
 1367 001a 9A42     		cmp	r2, r3
 1368 001c 08D2     		bcs	.L81
 1369              		.loc 1 1067 0 is_stmt 0 discriminator 1
 1370 001e FA7B     		ldrb	r2, [r7, #15]	@ zero_extendqisi2
 1371 0020 BB7B     		ldrb	r3, [r7, #14]	@ zero_extendqisi2
 1372 0022 013B     		subs	r3, r3, #1
 1373 0024 9A42     		cmp	r2, r3
 1374 0026 0CBF     		ite	eq
 1375 0028 0123     		moveq	r3, #1
 1376 002a 0023     		movne	r3, #0
 1377 002c DBB2     		uxtb	r3, r3
 1378 002e 07E0     		b	.L82
 1379              	.L81:
1068:.\Generated_Source\PSoC5/UART_1.c ****                                 ((locTxBufferWrite - locTxBufferRead) ==
ARM GAS  C:\Users\Patrick\AppData\Local\Temp\ccFUkQgi.s 			page 44


 1380              		.loc 1 1068 0 is_stmt 1 discriminator 2
 1381 0030 FA7B     		ldrb	r2, [r7, #15]	@ zero_extendqisi2
 1382 0032 BB7B     		ldrb	r3, [r7, #14]	@ zero_extendqisi2
 1383 0034 D31A     		subs	r3, r2, r3
1067:.\Generated_Source\PSoC5/UART_1.c ****                                 ((locTxBufferWrite - locTxBufferRead) ==
 1384              		.loc 1 1067 0 discriminator 2
 1385 0036 4F2B     		cmp	r3, #79
 1386 0038 0CBF     		ite	eq
 1387 003a 0123     		moveq	r3, #1
 1388 003c 0023     		movne	r3, #0
 1389 003e DBB2     		uxtb	r3, r3
 1390              	.L82:
1069:.\Generated_Source\PSoC5/UART_1.c ****                                 (uint8)(UART_1_TX_BUFFER_SIZE - 1u)) );
 1391              		.loc 1 1069 0
 1392 0040 002B     		cmp	r3, #0
 1393 0042 E2D1     		bne	.L83
1070:.\Generated_Source\PSoC5/UART_1.c **** 
1071:.\Generated_Source\PSoC5/UART_1.c ****         if( (locTxBufferRead == locTxBufferWrite) &&
 1394              		.loc 1 1071 0
 1395 0044 BA7B     		ldrb	r2, [r7, #14]	@ zero_extendqisi2
 1396 0046 FB7B     		ldrb	r3, [r7, #15]	@ zero_extendqisi2
 1397 0048 9A42     		cmp	r2, r3
 1398 004a 0AD1     		bne	.L84
1072:.\Generated_Source\PSoC5/UART_1.c ****             ((UART_1_TXSTATUS_REG & UART_1_TX_STS_FIFO_FULL) == 0u) )
 1399              		.loc 1 1072 0 discriminator 1
 1400 004c 164B     		ldr	r3, .L87+8
 1401 004e 1B78     		ldrb	r3, [r3]
 1402 0050 DBB2     		uxtb	r3, r3
 1403 0052 03F00403 		and	r3, r3, #4
1071:.\Generated_Source\PSoC5/UART_1.c ****             ((UART_1_TXSTATUS_REG & UART_1_TX_STS_FIFO_FULL) == 0u) )
 1404              		.loc 1 1071 0 discriminator 1
 1405 0056 002B     		cmp	r3, #0
 1406 0058 03D1     		bne	.L84
1073:.\Generated_Source\PSoC5/UART_1.c ****         {
1074:.\Generated_Source\PSoC5/UART_1.c ****             /* Add directly to the FIFO */
1075:.\Generated_Source\PSoC5/UART_1.c ****             UART_1_TXDATA_REG = txDataByte;
 1407              		.loc 1 1075 0
 1408 005a 144A     		ldr	r2, .L87+12
 1409 005c FB79     		ldrb	r3, [r7, #7]
 1410 005e 1370     		strb	r3, [r2]
 1411 0060 18E0     		b	.L80
 1412              	.L84:
1076:.\Generated_Source\PSoC5/UART_1.c ****         }
1077:.\Generated_Source\PSoC5/UART_1.c ****         else
1078:.\Generated_Source\PSoC5/UART_1.c ****         {
1079:.\Generated_Source\PSoC5/UART_1.c ****             if(locTxBufferWrite >= UART_1_TX_BUFFER_SIZE)
 1413              		.loc 1 1079 0
 1414 0062 FB7B     		ldrb	r3, [r7, #15]	@ zero_extendqisi2
 1415 0064 4F2B     		cmp	r3, #79
 1416 0066 01D9     		bls	.L86
1080:.\Generated_Source\PSoC5/UART_1.c ****             {
1081:.\Generated_Source\PSoC5/UART_1.c ****                 locTxBufferWrite = 0u;
 1417              		.loc 1 1081 0
 1418 0068 0023     		movs	r3, #0
 1419 006a FB73     		strb	r3, [r7, #15]
 1420              	.L86:
1082:.\Generated_Source\PSoC5/UART_1.c ****             }
ARM GAS  C:\Users\Patrick\AppData\Local\Temp\ccFUkQgi.s 			page 45


1083:.\Generated_Source\PSoC5/UART_1.c ****             /* Add to the software buffer. */
1084:.\Generated_Source\PSoC5/UART_1.c ****             UART_1_txBuffer[locTxBufferWrite] = txDataByte;
 1421              		.loc 1 1084 0
 1422 006c FB7B     		ldrb	r3, [r7, #15]	@ zero_extendqisi2
 1423 006e 1049     		ldr	r1, .L87+16
 1424 0070 FA79     		ldrb	r2, [r7, #7]
 1425 0072 CA54     		strb	r2, [r1, r3]
1085:.\Generated_Source\PSoC5/UART_1.c ****             locTxBufferWrite++;
 1426              		.loc 1 1085 0
 1427 0074 FB7B     		ldrb	r3, [r7, #15]	@ zero_extendqisi2
 1428 0076 0133     		adds	r3, r3, #1
 1429 0078 FB73     		strb	r3, [r7, #15]
1086:.\Generated_Source\PSoC5/UART_1.c **** 
1087:.\Generated_Source\PSoC5/UART_1.c ****             /* Finally, update the real output pointer */
1088:.\Generated_Source\PSoC5/UART_1.c ****         #if ((UART_1_TX_BUFFER_SIZE > UART_1_MAX_BYTE_VALUE) && (CY_PSOC3))
1089:.\Generated_Source\PSoC5/UART_1.c ****             UART_1_DisableTxInt();
1090:.\Generated_Source\PSoC5/UART_1.c ****         #endif /* (UART_1_TX_BUFFER_SIZE > UART_1_MAX_BYTE_VALUE) && (CY_PSOC3) */
1091:.\Generated_Source\PSoC5/UART_1.c **** 
1092:.\Generated_Source\PSoC5/UART_1.c ****             UART_1_txBufferWrite = locTxBufferWrite;
 1430              		.loc 1 1092 0
 1431 007a 094A     		ldr	r2, .L87
 1432 007c FB7B     		ldrb	r3, [r7, #15]
 1433 007e 1370     		strb	r3, [r2]
1093:.\Generated_Source\PSoC5/UART_1.c **** 
1094:.\Generated_Source\PSoC5/UART_1.c ****         #if ((UART_1_TX_BUFFER_SIZE > UART_1_MAX_BYTE_VALUE) && (CY_PSOC3))
1095:.\Generated_Source\PSoC5/UART_1.c ****             UART_1_EnableTxInt();
1096:.\Generated_Source\PSoC5/UART_1.c ****         #endif /* (UART_1_TX_BUFFER_SIZE > UART_1_MAX_BYTE_VALUE) && (CY_PSOC3) */
1097:.\Generated_Source\PSoC5/UART_1.c **** 
1098:.\Generated_Source\PSoC5/UART_1.c ****             if(0u != (UART_1_TXSTATUS_REG & UART_1_TX_STS_FIFO_EMPTY))
 1434              		.loc 1 1098 0
 1435 0080 094B     		ldr	r3, .L87+8
 1436 0082 1B78     		ldrb	r3, [r3]
 1437 0084 DBB2     		uxtb	r3, r3
 1438 0086 03F00203 		and	r3, r3, #2
 1439 008a 002B     		cmp	r3, #0
 1440 008c 02D0     		beq	.L80
1099:.\Generated_Source\PSoC5/UART_1.c ****             {
1100:.\Generated_Source\PSoC5/UART_1.c ****                 /* Trigger TX interrupt to send software buffer */
1101:.\Generated_Source\PSoC5/UART_1.c ****                 UART_1_SetPendingTxInt();
 1441              		.loc 1 1101 0
 1442 008e 094B     		ldr	r3, .L87+20
 1443 0090 0422     		movs	r2, #4
 1444 0092 1A60     		str	r2, [r3]
 1445              	.L80:
1102:.\Generated_Source\PSoC5/UART_1.c ****             }
1103:.\Generated_Source\PSoC5/UART_1.c ****         }
1104:.\Generated_Source\PSoC5/UART_1.c **** 
1105:.\Generated_Source\PSoC5/UART_1.c ****     #else
1106:.\Generated_Source\PSoC5/UART_1.c **** 
1107:.\Generated_Source\PSoC5/UART_1.c ****         while((UART_1_TXSTATUS_REG & UART_1_TX_STS_FIFO_FULL) != 0u)
1108:.\Generated_Source\PSoC5/UART_1.c ****         {
1109:.\Generated_Source\PSoC5/UART_1.c ****             /* Wait for room in the FIFO */
1110:.\Generated_Source\PSoC5/UART_1.c ****         }
1111:.\Generated_Source\PSoC5/UART_1.c **** 
1112:.\Generated_Source\PSoC5/UART_1.c ****         /* Add directly to the FIFO */
1113:.\Generated_Source\PSoC5/UART_1.c ****         UART_1_TXDATA_REG = txDataByte;
1114:.\Generated_Source\PSoC5/UART_1.c **** 
ARM GAS  C:\Users\Patrick\AppData\Local\Temp\ccFUkQgi.s 			page 46


1115:.\Generated_Source\PSoC5/UART_1.c ****     #endif /* UART_1_TX_INTERRUPT_ENABLED */
1116:.\Generated_Source\PSoC5/UART_1.c ****     }
 1446              		.loc 1 1116 0
 1447 0094 1437     		adds	r7, r7, #20
 1448              		.cfi_def_cfa_offset 4
 1449 0096 BD46     		mov	sp, r7
 1450              		.cfi_def_cfa_register 13
 1451              		@ sp needed
 1452 0098 5DF8047B 		ldr	r7, [sp], #4
 1453              		.cfi_restore 7
 1454              		.cfi_def_cfa_offset 0
 1455 009c 7047     		bx	lr
 1456              	.L88:
 1457 009e 00BF     		.align	2
 1458              	.L87:
 1459 00a0 00000000 		.word	UART_1_txBufferWrite
 1460 00a4 00000000 		.word	UART_1_txBufferRead
 1461 00a8 6A640040 		.word	1073767530
 1462 00ac 49640040 		.word	1073767497
 1463 00b0 00000000 		.word	UART_1_txBuffer
 1464 00b4 00E200E0 		.word	-536813056
 1465              		.cfi_endproc
 1466              	.LFE19:
 1467              		.size	UART_1_PutChar, .-UART_1_PutChar
 1468              		.section	.text.UART_1_PutString,"ax",%progbits
 1469              		.align	2
 1470              		.global	UART_1_PutString
 1471              		.thumb
 1472              		.thumb_func
 1473              		.type	UART_1_PutString, %function
 1474              	UART_1_PutString:
 1475              	.LFB20:
1117:.\Generated_Source\PSoC5/UART_1.c **** 
1118:.\Generated_Source\PSoC5/UART_1.c **** 
1119:.\Generated_Source\PSoC5/UART_1.c ****     /*******************************************************************************
1120:.\Generated_Source\PSoC5/UART_1.c ****     * Function Name: UART_1_PutString
1121:.\Generated_Source\PSoC5/UART_1.c ****     ********************************************************************************
1122:.\Generated_Source\PSoC5/UART_1.c ****     *
1123:.\Generated_Source\PSoC5/UART_1.c ****     * Summary:
1124:.\Generated_Source\PSoC5/UART_1.c ****     *  Sends a NULL terminated string to the TX buffer for transmission.
1125:.\Generated_Source\PSoC5/UART_1.c ****     *
1126:.\Generated_Source\PSoC5/UART_1.c ****     * Parameters:
1127:.\Generated_Source\PSoC5/UART_1.c ****     *  string[]: Pointer to the null terminated string array residing in RAM or ROM
1128:.\Generated_Source\PSoC5/UART_1.c ****     *
1129:.\Generated_Source\PSoC5/UART_1.c ****     * Return:
1130:.\Generated_Source\PSoC5/UART_1.c ****     *  None.
1131:.\Generated_Source\PSoC5/UART_1.c ****     *
1132:.\Generated_Source\PSoC5/UART_1.c ****     * Global Variables:
1133:.\Generated_Source\PSoC5/UART_1.c ****     *  UART_1_initVar - checked to identify that the component has been
1134:.\Generated_Source\PSoC5/UART_1.c ****     *     initialized.
1135:.\Generated_Source\PSoC5/UART_1.c ****     *
1136:.\Generated_Source\PSoC5/UART_1.c ****     * Reentrant:
1137:.\Generated_Source\PSoC5/UART_1.c ****     *  No.
1138:.\Generated_Source\PSoC5/UART_1.c ****     *
1139:.\Generated_Source\PSoC5/UART_1.c ****     * Theory:
1140:.\Generated_Source\PSoC5/UART_1.c ****     *  If there is not enough memory in the TX buffer for the entire string, this
1141:.\Generated_Source\PSoC5/UART_1.c ****     *  function blocks until the last character of the string is loaded into the
ARM GAS  C:\Users\Patrick\AppData\Local\Temp\ccFUkQgi.s 			page 47


1142:.\Generated_Source\PSoC5/UART_1.c ****     *  TX buffer.
1143:.\Generated_Source\PSoC5/UART_1.c ****     *
1144:.\Generated_Source\PSoC5/UART_1.c ****     *******************************************************************************/
1145:.\Generated_Source\PSoC5/UART_1.c ****     void UART_1_PutString(const char8 string[]) 
1146:.\Generated_Source\PSoC5/UART_1.c ****     {
 1476              		.loc 1 1146 0
 1477              		.cfi_startproc
 1478              		@ args = 0, pretend = 0, frame = 16
 1479              		@ frame_needed = 1, uses_anonymous_args = 0
 1480 0000 80B5     		push	{r7, lr}
 1481              		.cfi_def_cfa_offset 8
 1482              		.cfi_offset 7, -8
 1483              		.cfi_offset 14, -4
 1484 0002 84B0     		sub	sp, sp, #16
 1485              		.cfi_def_cfa_offset 24
 1486 0004 00AF     		add	r7, sp, #0
 1487              		.cfi_def_cfa_register 7
 1488 0006 7860     		str	r0, [r7, #4]
1147:.\Generated_Source\PSoC5/UART_1.c ****         uint16 bufIndex = 0u;
 1489              		.loc 1 1147 0
 1490 0008 0023     		movs	r3, #0
 1491 000a FB81     		strh	r3, [r7, #14]	@ movhi
1148:.\Generated_Source\PSoC5/UART_1.c **** 
1149:.\Generated_Source\PSoC5/UART_1.c ****         /* If not Initialized then skip this function */
1150:.\Generated_Source\PSoC5/UART_1.c ****         if(UART_1_initVar != 0u)
 1492              		.loc 1 1150 0
 1493 000c 0B4B     		ldr	r3, .L93
 1494 000e 1B78     		ldrb	r3, [r3]	@ zero_extendqisi2
 1495 0010 002B     		cmp	r3, #0
 1496 0012 10D0     		beq	.L89
1151:.\Generated_Source\PSoC5/UART_1.c ****         {
1152:.\Generated_Source\PSoC5/UART_1.c ****             /* This is a blocking function, it will not exit until all data is sent */
1153:.\Generated_Source\PSoC5/UART_1.c ****             while(string[bufIndex] != (char8) 0)
 1497              		.loc 1 1153 0
 1498 0014 09E0     		b	.L91
 1499              	.L92:
1154:.\Generated_Source\PSoC5/UART_1.c ****             {
1155:.\Generated_Source\PSoC5/UART_1.c ****                 UART_1_PutChar((uint8)string[bufIndex]);
 1500              		.loc 1 1155 0
 1501 0016 FB89     		ldrh	r3, [r7, #14]
 1502 0018 7A68     		ldr	r2, [r7, #4]
 1503 001a 1344     		add	r3, r3, r2
 1504 001c 1B78     		ldrb	r3, [r3]	@ zero_extendqisi2
 1505 001e 1846     		mov	r0, r3
 1506 0020 FFF7FEFF 		bl	UART_1_PutChar
1156:.\Generated_Source\PSoC5/UART_1.c ****                 bufIndex++;
 1507              		.loc 1 1156 0
 1508 0024 FB89     		ldrh	r3, [r7, #14]
 1509 0026 0133     		adds	r3, r3, #1
 1510 0028 FB81     		strh	r3, [r7, #14]	@ movhi
 1511              	.L91:
1153:.\Generated_Source\PSoC5/UART_1.c ****             {
 1512              		.loc 1 1153 0
 1513 002a FB89     		ldrh	r3, [r7, #14]
 1514 002c 7A68     		ldr	r2, [r7, #4]
 1515 002e 1344     		add	r3, r3, r2
 1516 0030 1B78     		ldrb	r3, [r3]	@ zero_extendqisi2
ARM GAS  C:\Users\Patrick\AppData\Local\Temp\ccFUkQgi.s 			page 48


 1517 0032 002B     		cmp	r3, #0
 1518 0034 EFD1     		bne	.L92
 1519              	.L89:
1157:.\Generated_Source\PSoC5/UART_1.c ****             }
1158:.\Generated_Source\PSoC5/UART_1.c ****         }
1159:.\Generated_Source\PSoC5/UART_1.c ****     }
 1520              		.loc 1 1159 0
 1521 0036 1037     		adds	r7, r7, #16
 1522              		.cfi_def_cfa_offset 8
 1523 0038 BD46     		mov	sp, r7
 1524              		.cfi_def_cfa_register 13
 1525              		@ sp needed
 1526 003a 80BD     		pop	{r7, pc}
 1527              	.L94:
 1528              		.align	2
 1529              	.L93:
 1530 003c 00000000 		.word	UART_1_initVar
 1531              		.cfi_endproc
 1532              	.LFE20:
 1533              		.size	UART_1_PutString, .-UART_1_PutString
 1534              		.section	.text.UART_1_PutArray,"ax",%progbits
 1535              		.align	2
 1536              		.global	UART_1_PutArray
 1537              		.thumb
 1538              		.thumb_func
 1539              		.type	UART_1_PutArray, %function
 1540              	UART_1_PutArray:
 1541              	.LFB21:
1160:.\Generated_Source\PSoC5/UART_1.c **** 
1161:.\Generated_Source\PSoC5/UART_1.c **** 
1162:.\Generated_Source\PSoC5/UART_1.c ****     /*******************************************************************************
1163:.\Generated_Source\PSoC5/UART_1.c ****     * Function Name: UART_1_PutArray
1164:.\Generated_Source\PSoC5/UART_1.c ****     ********************************************************************************
1165:.\Generated_Source\PSoC5/UART_1.c ****     *
1166:.\Generated_Source\PSoC5/UART_1.c ****     * Summary:
1167:.\Generated_Source\PSoC5/UART_1.c ****     *  Places N bytes of data from a memory array into the TX buffer for
1168:.\Generated_Source\PSoC5/UART_1.c ****     *  transmission.
1169:.\Generated_Source\PSoC5/UART_1.c ****     *
1170:.\Generated_Source\PSoC5/UART_1.c ****     * Parameters:
1171:.\Generated_Source\PSoC5/UART_1.c ****     *  string[]: Address of the memory array residing in RAM or ROM.
1172:.\Generated_Source\PSoC5/UART_1.c ****     *  byteCount: Number of bytes to be transmitted. The type depends on TX Buffer
1173:.\Generated_Source\PSoC5/UART_1.c ****     *             Size parameter.
1174:.\Generated_Source\PSoC5/UART_1.c ****     *
1175:.\Generated_Source\PSoC5/UART_1.c ****     * Return:
1176:.\Generated_Source\PSoC5/UART_1.c ****     *  None.
1177:.\Generated_Source\PSoC5/UART_1.c ****     *
1178:.\Generated_Source\PSoC5/UART_1.c ****     * Global Variables:
1179:.\Generated_Source\PSoC5/UART_1.c ****     *  UART_1_initVar - checked to identify that the component has been
1180:.\Generated_Source\PSoC5/UART_1.c ****     *     initialized.
1181:.\Generated_Source\PSoC5/UART_1.c ****     *
1182:.\Generated_Source\PSoC5/UART_1.c ****     * Reentrant:
1183:.\Generated_Source\PSoC5/UART_1.c ****     *  No.
1184:.\Generated_Source\PSoC5/UART_1.c ****     *
1185:.\Generated_Source\PSoC5/UART_1.c ****     * Theory:
1186:.\Generated_Source\PSoC5/UART_1.c ****     *  If there is not enough memory in the TX buffer for the entire string, this
1187:.\Generated_Source\PSoC5/UART_1.c ****     *  function blocks until the last character of the string is loaded into the
1188:.\Generated_Source\PSoC5/UART_1.c ****     *  TX buffer.
ARM GAS  C:\Users\Patrick\AppData\Local\Temp\ccFUkQgi.s 			page 49


1189:.\Generated_Source\PSoC5/UART_1.c ****     *
1190:.\Generated_Source\PSoC5/UART_1.c ****     *******************************************************************************/
1191:.\Generated_Source\PSoC5/UART_1.c ****     void UART_1_PutArray(const uint8 string[], uint8 byteCount)
1192:.\Generated_Source\PSoC5/UART_1.c ****                                                                     
1193:.\Generated_Source\PSoC5/UART_1.c ****     {
 1542              		.loc 1 1193 0
 1543              		.cfi_startproc
 1544              		@ args = 0, pretend = 0, frame = 16
 1545              		@ frame_needed = 1, uses_anonymous_args = 0
 1546 0000 80B5     		push	{r7, lr}
 1547              		.cfi_def_cfa_offset 8
 1548              		.cfi_offset 7, -8
 1549              		.cfi_offset 14, -4
 1550 0002 84B0     		sub	sp, sp, #16
 1551              		.cfi_def_cfa_offset 24
 1552 0004 00AF     		add	r7, sp, #0
 1553              		.cfi_def_cfa_register 7
 1554 0006 7860     		str	r0, [r7, #4]
 1555 0008 0B46     		mov	r3, r1
 1556 000a FB70     		strb	r3, [r7, #3]
1194:.\Generated_Source\PSoC5/UART_1.c ****         uint8 bufIndex = 0u;
 1557              		.loc 1 1194 0
 1558 000c 0023     		movs	r3, #0
 1559 000e FB73     		strb	r3, [r7, #15]
1195:.\Generated_Source\PSoC5/UART_1.c **** 
1196:.\Generated_Source\PSoC5/UART_1.c ****         /* If not Initialized then skip this function */
1197:.\Generated_Source\PSoC5/UART_1.c ****         if(UART_1_initVar != 0u)
 1560              		.loc 1 1197 0
 1561 0010 0A4B     		ldr	r3, .L99
 1562 0012 1B78     		ldrb	r3, [r3]	@ zero_extendqisi2
 1563 0014 002B     		cmp	r3, #0
 1564 0016 0ED0     		beq	.L95
1198:.\Generated_Source\PSoC5/UART_1.c ****         {
1199:.\Generated_Source\PSoC5/UART_1.c ****             while(bufIndex < byteCount)
 1565              		.loc 1 1199 0
 1566 0018 09E0     		b	.L97
 1567              	.L98:
1200:.\Generated_Source\PSoC5/UART_1.c ****             {
1201:.\Generated_Source\PSoC5/UART_1.c ****                 UART_1_PutChar(string[bufIndex]);
 1568              		.loc 1 1201 0
 1569 001a FB7B     		ldrb	r3, [r7, #15]	@ zero_extendqisi2
 1570 001c 7A68     		ldr	r2, [r7, #4]
 1571 001e 1344     		add	r3, r3, r2
 1572 0020 1B78     		ldrb	r3, [r3]	@ zero_extendqisi2
 1573 0022 1846     		mov	r0, r3
 1574 0024 FFF7FEFF 		bl	UART_1_PutChar
1202:.\Generated_Source\PSoC5/UART_1.c ****                 bufIndex++;
 1575              		.loc 1 1202 0
 1576 0028 FB7B     		ldrb	r3, [r7, #15]	@ zero_extendqisi2
 1577 002a 0133     		adds	r3, r3, #1
 1578 002c FB73     		strb	r3, [r7, #15]
 1579              	.L97:
1199:.\Generated_Source\PSoC5/UART_1.c ****             {
 1580              		.loc 1 1199 0
 1581 002e FA7B     		ldrb	r2, [r7, #15]	@ zero_extendqisi2
 1582 0030 FB78     		ldrb	r3, [r7, #3]	@ zero_extendqisi2
 1583 0032 9A42     		cmp	r2, r3
ARM GAS  C:\Users\Patrick\AppData\Local\Temp\ccFUkQgi.s 			page 50


 1584 0034 F1D3     		bcc	.L98
 1585              	.L95:
1203:.\Generated_Source\PSoC5/UART_1.c ****             }
1204:.\Generated_Source\PSoC5/UART_1.c ****         }
1205:.\Generated_Source\PSoC5/UART_1.c ****     }
 1586              		.loc 1 1205 0
 1587 0036 1037     		adds	r7, r7, #16
 1588              		.cfi_def_cfa_offset 8
 1589 0038 BD46     		mov	sp, r7
 1590              		.cfi_def_cfa_register 13
 1591              		@ sp needed
 1592 003a 80BD     		pop	{r7, pc}
 1593              	.L100:
 1594              		.align	2
 1595              	.L99:
 1596 003c 00000000 		.word	UART_1_initVar
 1597              		.cfi_endproc
 1598              	.LFE21:
 1599              		.size	UART_1_PutArray, .-UART_1_PutArray
 1600              		.section	.text.UART_1_PutCRLF,"ax",%progbits
 1601              		.align	2
 1602              		.global	UART_1_PutCRLF
 1603              		.thumb
 1604              		.thumb_func
 1605              		.type	UART_1_PutCRLF, %function
 1606              	UART_1_PutCRLF:
 1607              	.LFB22:
1206:.\Generated_Source\PSoC5/UART_1.c **** 
1207:.\Generated_Source\PSoC5/UART_1.c **** 
1208:.\Generated_Source\PSoC5/UART_1.c ****     /*******************************************************************************
1209:.\Generated_Source\PSoC5/UART_1.c ****     * Function Name: UART_1_PutCRLF
1210:.\Generated_Source\PSoC5/UART_1.c ****     ********************************************************************************
1211:.\Generated_Source\PSoC5/UART_1.c ****     *
1212:.\Generated_Source\PSoC5/UART_1.c ****     * Summary:
1213:.\Generated_Source\PSoC5/UART_1.c ****     *  Writes a byte of data followed by a carriage return (0x0D) and line feed
1214:.\Generated_Source\PSoC5/UART_1.c ****     *  (0x0A) to the transmit buffer.
1215:.\Generated_Source\PSoC5/UART_1.c ****     *
1216:.\Generated_Source\PSoC5/UART_1.c ****     * Parameters:
1217:.\Generated_Source\PSoC5/UART_1.c ****     *  txDataByte: Data byte to transmit before the carriage return and line feed.
1218:.\Generated_Source\PSoC5/UART_1.c ****     *
1219:.\Generated_Source\PSoC5/UART_1.c ****     * Return:
1220:.\Generated_Source\PSoC5/UART_1.c ****     *  None.
1221:.\Generated_Source\PSoC5/UART_1.c ****     *
1222:.\Generated_Source\PSoC5/UART_1.c ****     * Global Variables:
1223:.\Generated_Source\PSoC5/UART_1.c ****     *  UART_1_initVar - checked to identify that the component has been
1224:.\Generated_Source\PSoC5/UART_1.c ****     *     initialized.
1225:.\Generated_Source\PSoC5/UART_1.c ****     *
1226:.\Generated_Source\PSoC5/UART_1.c ****     * Reentrant:
1227:.\Generated_Source\PSoC5/UART_1.c ****     *  No.
1228:.\Generated_Source\PSoC5/UART_1.c ****     *
1229:.\Generated_Source\PSoC5/UART_1.c ****     *******************************************************************************/
1230:.\Generated_Source\PSoC5/UART_1.c ****     void UART_1_PutCRLF(uint8 txDataByte) 
1231:.\Generated_Source\PSoC5/UART_1.c ****     {
 1608              		.loc 1 1231 0
 1609              		.cfi_startproc
 1610              		@ args = 0, pretend = 0, frame = 8
 1611              		@ frame_needed = 1, uses_anonymous_args = 0
ARM GAS  C:\Users\Patrick\AppData\Local\Temp\ccFUkQgi.s 			page 51


 1612 0000 80B5     		push	{r7, lr}
 1613              		.cfi_def_cfa_offset 8
 1614              		.cfi_offset 7, -8
 1615              		.cfi_offset 14, -4
 1616 0002 82B0     		sub	sp, sp, #8
 1617              		.cfi_def_cfa_offset 16
 1618 0004 00AF     		add	r7, sp, #0
 1619              		.cfi_def_cfa_register 7
 1620 0006 0346     		mov	r3, r0
 1621 0008 FB71     		strb	r3, [r7, #7]
1232:.\Generated_Source\PSoC5/UART_1.c ****         /* If not Initialized then skip this function */
1233:.\Generated_Source\PSoC5/UART_1.c ****         if(UART_1_initVar != 0u)
 1622              		.loc 1 1233 0
 1623 000a 084B     		ldr	r3, .L103
 1624 000c 1B78     		ldrb	r3, [r3]	@ zero_extendqisi2
 1625 000e 002B     		cmp	r3, #0
 1626 0010 09D0     		beq	.L101
1234:.\Generated_Source\PSoC5/UART_1.c ****         {
1235:.\Generated_Source\PSoC5/UART_1.c ****             UART_1_PutChar(txDataByte);
 1627              		.loc 1 1235 0
 1628 0012 FB79     		ldrb	r3, [r7, #7]	@ zero_extendqisi2
 1629 0014 1846     		mov	r0, r3
 1630 0016 FFF7FEFF 		bl	UART_1_PutChar
1236:.\Generated_Source\PSoC5/UART_1.c ****             UART_1_PutChar(0x0Du);
 1631              		.loc 1 1236 0
 1632 001a 0D20     		movs	r0, #13
 1633 001c FFF7FEFF 		bl	UART_1_PutChar
1237:.\Generated_Source\PSoC5/UART_1.c ****             UART_1_PutChar(0x0Au);
 1634              		.loc 1 1237 0
 1635 0020 0A20     		movs	r0, #10
 1636 0022 FFF7FEFF 		bl	UART_1_PutChar
 1637              	.L101:
1238:.\Generated_Source\PSoC5/UART_1.c ****         }
1239:.\Generated_Source\PSoC5/UART_1.c ****     }
 1638              		.loc 1 1239 0
 1639 0026 0837     		adds	r7, r7, #8
 1640              		.cfi_def_cfa_offset 8
 1641 0028 BD46     		mov	sp, r7
 1642              		.cfi_def_cfa_register 13
 1643              		@ sp needed
 1644 002a 80BD     		pop	{r7, pc}
 1645              	.L104:
 1646              		.align	2
 1647              	.L103:
 1648 002c 00000000 		.word	UART_1_initVar
 1649              		.cfi_endproc
 1650              	.LFE22:
 1651              		.size	UART_1_PutCRLF, .-UART_1_PutCRLF
 1652              		.section	.text.UART_1_GetTxBufferSize,"ax",%progbits
 1653              		.align	2
 1654              		.global	UART_1_GetTxBufferSize
 1655              		.thumb
 1656              		.thumb_func
 1657              		.type	UART_1_GetTxBufferSize, %function
 1658              	UART_1_GetTxBufferSize:
 1659              	.LFB23:
1240:.\Generated_Source\PSoC5/UART_1.c **** 
ARM GAS  C:\Users\Patrick\AppData\Local\Temp\ccFUkQgi.s 			page 52


1241:.\Generated_Source\PSoC5/UART_1.c **** 
1242:.\Generated_Source\PSoC5/UART_1.c ****     /*******************************************************************************
1243:.\Generated_Source\PSoC5/UART_1.c ****     * Function Name: UART_1_GetTxBufferSize
1244:.\Generated_Source\PSoC5/UART_1.c ****     ********************************************************************************
1245:.\Generated_Source\PSoC5/UART_1.c ****     *
1246:.\Generated_Source\PSoC5/UART_1.c ****     * Summary:
1247:.\Generated_Source\PSoC5/UART_1.c ****     *  Returns the number of bytes in the TX buffer which are waiting to be 
1248:.\Generated_Source\PSoC5/UART_1.c ****     *  transmitted.
1249:.\Generated_Source\PSoC5/UART_1.c ****     *  * TX software buffer is disabled (TX Buffer Size parameter is equal to 4): 
1250:.\Generated_Source\PSoC5/UART_1.c ****     *    returns 0 for empty TX FIFO, 1 for not full TX FIFO or 4 for full TX FIFO.
1251:.\Generated_Source\PSoC5/UART_1.c ****     *  * TX software buffer is enabled: returns the number of bytes in the TX 
1252:.\Generated_Source\PSoC5/UART_1.c ****     *    software buffer which are waiting to be transmitted. Bytes available in the
1253:.\Generated_Source\PSoC5/UART_1.c ****     *    TX FIFO do not count.
1254:.\Generated_Source\PSoC5/UART_1.c ****     *
1255:.\Generated_Source\PSoC5/UART_1.c ****     * Parameters:
1256:.\Generated_Source\PSoC5/UART_1.c ****     *  None.
1257:.\Generated_Source\PSoC5/UART_1.c ****     *
1258:.\Generated_Source\PSoC5/UART_1.c ****     * Return:
1259:.\Generated_Source\PSoC5/UART_1.c ****     *  Number of bytes used in the TX buffer. Return value type depends on the TX 
1260:.\Generated_Source\PSoC5/UART_1.c ****     *  Buffer Size parameter.
1261:.\Generated_Source\PSoC5/UART_1.c ****     *
1262:.\Generated_Source\PSoC5/UART_1.c ****     * Global Variables:
1263:.\Generated_Source\PSoC5/UART_1.c ****     *  UART_1_txBufferWrite - used to calculate left space.
1264:.\Generated_Source\PSoC5/UART_1.c ****     *  UART_1_txBufferRead - used to calculate left space.
1265:.\Generated_Source\PSoC5/UART_1.c ****     *
1266:.\Generated_Source\PSoC5/UART_1.c ****     * Reentrant:
1267:.\Generated_Source\PSoC5/UART_1.c ****     *  No.
1268:.\Generated_Source\PSoC5/UART_1.c ****     *
1269:.\Generated_Source\PSoC5/UART_1.c ****     * Theory:
1270:.\Generated_Source\PSoC5/UART_1.c ****     *  Allows the user to find out how full the TX Buffer is.
1271:.\Generated_Source\PSoC5/UART_1.c ****     *
1272:.\Generated_Source\PSoC5/UART_1.c ****     *******************************************************************************/
1273:.\Generated_Source\PSoC5/UART_1.c ****     uint8 UART_1_GetTxBufferSize(void)
1274:.\Generated_Source\PSoC5/UART_1.c ****                                                             
1275:.\Generated_Source\PSoC5/UART_1.c ****     {
 1660              		.loc 1 1275 0
 1661              		.cfi_startproc
 1662              		@ args = 0, pretend = 0, frame = 8
 1663              		@ frame_needed = 1, uses_anonymous_args = 0
 1664              		@ link register save eliminated.
 1665 0000 80B4     		push	{r7}
 1666              		.cfi_def_cfa_offset 4
 1667              		.cfi_offset 7, -4
 1668 0002 83B0     		sub	sp, sp, #12
 1669              		.cfi_def_cfa_offset 16
 1670 0004 00AF     		add	r7, sp, #0
 1671              		.cfi_def_cfa_register 7
1276:.\Generated_Source\PSoC5/UART_1.c ****         uint8 size;
1277:.\Generated_Source\PSoC5/UART_1.c **** 
1278:.\Generated_Source\PSoC5/UART_1.c ****     #if (UART_1_TX_INTERRUPT_ENABLED)
1279:.\Generated_Source\PSoC5/UART_1.c **** 
1280:.\Generated_Source\PSoC5/UART_1.c ****         /* Protect variables that could change on interrupt. */
1281:.\Generated_Source\PSoC5/UART_1.c ****         UART_1_DisableTxInt();
 1672              		.loc 1 1281 0
 1673 0006 174B     		ldr	r3, .L110
 1674 0008 0422     		movs	r2, #4
 1675 000a 1A60     		str	r2, [r3]
ARM GAS  C:\Users\Patrick\AppData\Local\Temp\ccFUkQgi.s 			page 53


1282:.\Generated_Source\PSoC5/UART_1.c **** 
1283:.\Generated_Source\PSoC5/UART_1.c ****         if(UART_1_txBufferRead == UART_1_txBufferWrite)
 1676              		.loc 1 1283 0
 1677 000c 164B     		ldr	r3, .L110+4
 1678 000e 1B78     		ldrb	r3, [r3]
 1679 0010 DAB2     		uxtb	r2, r3
 1680 0012 164B     		ldr	r3, .L110+8
 1681 0014 1B78     		ldrb	r3, [r3]	@ zero_extendqisi2
 1682 0016 9A42     		cmp	r2, r3
 1683 0018 02D1     		bne	.L106
1284:.\Generated_Source\PSoC5/UART_1.c ****         {
1285:.\Generated_Source\PSoC5/UART_1.c ****             size = 0u;
 1684              		.loc 1 1285 0
 1685 001a 0023     		movs	r3, #0
 1686 001c FB71     		strb	r3, [r7, #7]
 1687 001e 17E0     		b	.L107
 1688              	.L106:
1286:.\Generated_Source\PSoC5/UART_1.c ****         }
1287:.\Generated_Source\PSoC5/UART_1.c ****         else if(UART_1_txBufferRead < UART_1_txBufferWrite)
 1689              		.loc 1 1287 0
 1690 0020 114B     		ldr	r3, .L110+4
 1691 0022 1B78     		ldrb	r3, [r3]
 1692 0024 DAB2     		uxtb	r2, r3
 1693 0026 114B     		ldr	r3, .L110+8
 1694 0028 1B78     		ldrb	r3, [r3]	@ zero_extendqisi2
 1695 002a 9A42     		cmp	r2, r3
 1696 002c 07D2     		bcs	.L108
1288:.\Generated_Source\PSoC5/UART_1.c ****         {
1289:.\Generated_Source\PSoC5/UART_1.c ****             size = (UART_1_txBufferWrite - UART_1_txBufferRead);
 1697              		.loc 1 1289 0
 1698 002e 0F4B     		ldr	r3, .L110+8
 1699 0030 1A78     		ldrb	r2, [r3]	@ zero_extendqisi2
 1700 0032 0D4B     		ldr	r3, .L110+4
 1701 0034 1B78     		ldrb	r3, [r3]
 1702 0036 DBB2     		uxtb	r3, r3
 1703 0038 D31A     		subs	r3, r2, r3
 1704 003a FB71     		strb	r3, [r7, #7]
 1705 003c 08E0     		b	.L107
 1706              	.L108:
1290:.\Generated_Source\PSoC5/UART_1.c ****         }
1291:.\Generated_Source\PSoC5/UART_1.c ****         else
1292:.\Generated_Source\PSoC5/UART_1.c ****         {
1293:.\Generated_Source\PSoC5/UART_1.c ****             size = (UART_1_TX_BUFFER_SIZE - UART_1_txBufferRead) +
 1707              		.loc 1 1293 0
 1708 003e 0B4B     		ldr	r3, .L110+8
 1709 0040 1A78     		ldrb	r2, [r3]	@ zero_extendqisi2
 1710 0042 094B     		ldr	r3, .L110+4
 1711 0044 1B78     		ldrb	r3, [r3]
 1712 0046 DBB2     		uxtb	r3, r3
 1713 0048 D31A     		subs	r3, r2, r3
 1714 004a DBB2     		uxtb	r3, r3
 1715 004c 5033     		adds	r3, r3, #80
 1716 004e FB71     		strb	r3, [r7, #7]
 1717              	.L107:
1294:.\Generated_Source\PSoC5/UART_1.c ****                     UART_1_txBufferWrite;
1295:.\Generated_Source\PSoC5/UART_1.c ****         }
1296:.\Generated_Source\PSoC5/UART_1.c **** 
ARM GAS  C:\Users\Patrick\AppData\Local\Temp\ccFUkQgi.s 			page 54


1297:.\Generated_Source\PSoC5/UART_1.c ****         UART_1_EnableTxInt();
 1718              		.loc 1 1297 0
 1719 0050 074B     		ldr	r3, .L110+12
 1720 0052 0422     		movs	r2, #4
 1721 0054 1A60     		str	r2, [r3]
1298:.\Generated_Source\PSoC5/UART_1.c **** 
1299:.\Generated_Source\PSoC5/UART_1.c ****     #else
1300:.\Generated_Source\PSoC5/UART_1.c **** 
1301:.\Generated_Source\PSoC5/UART_1.c ****         size = UART_1_TXSTATUS_REG;
1302:.\Generated_Source\PSoC5/UART_1.c **** 
1303:.\Generated_Source\PSoC5/UART_1.c ****         /* Is the fifo is full. */
1304:.\Generated_Source\PSoC5/UART_1.c ****         if((size & UART_1_TX_STS_FIFO_FULL) != 0u)
1305:.\Generated_Source\PSoC5/UART_1.c ****         {
1306:.\Generated_Source\PSoC5/UART_1.c ****             size = UART_1_FIFO_LENGTH;
1307:.\Generated_Source\PSoC5/UART_1.c ****         }
1308:.\Generated_Source\PSoC5/UART_1.c ****         else if((size & UART_1_TX_STS_FIFO_EMPTY) != 0u)
1309:.\Generated_Source\PSoC5/UART_1.c ****         {
1310:.\Generated_Source\PSoC5/UART_1.c ****             size = 0u;
1311:.\Generated_Source\PSoC5/UART_1.c ****         }
1312:.\Generated_Source\PSoC5/UART_1.c ****         else
1313:.\Generated_Source\PSoC5/UART_1.c ****         {
1314:.\Generated_Source\PSoC5/UART_1.c ****             /* We only know there is data in the fifo. */
1315:.\Generated_Source\PSoC5/UART_1.c ****             size = 1u;
1316:.\Generated_Source\PSoC5/UART_1.c ****         }
1317:.\Generated_Source\PSoC5/UART_1.c **** 
1318:.\Generated_Source\PSoC5/UART_1.c ****     #endif /* (UART_1_TX_INTERRUPT_ENABLED) */
1319:.\Generated_Source\PSoC5/UART_1.c **** 
1320:.\Generated_Source\PSoC5/UART_1.c ****     return(size);
 1722              		.loc 1 1320 0
 1723 0056 FB79     		ldrb	r3, [r7, #7]	@ zero_extendqisi2
1321:.\Generated_Source\PSoC5/UART_1.c ****     }
 1724              		.loc 1 1321 0
 1725 0058 1846     		mov	r0, r3
 1726 005a 0C37     		adds	r7, r7, #12
 1727              		.cfi_def_cfa_offset 4
 1728 005c BD46     		mov	sp, r7
 1729              		.cfi_def_cfa_register 13
 1730              		@ sp needed
 1731 005e 5DF8047B 		ldr	r7, [sp], #4
 1732              		.cfi_restore 7
 1733              		.cfi_def_cfa_offset 0
 1734 0062 7047     		bx	lr
 1735              	.L111:
 1736              		.align	2
 1737              	.L110:
 1738 0064 80E100E0 		.word	-536813184
 1739 0068 00000000 		.word	UART_1_txBufferRead
 1740 006c 00000000 		.word	UART_1_txBufferWrite
 1741 0070 00E100E0 		.word	-536813312
 1742              		.cfi_endproc
 1743              	.LFE23:
 1744              		.size	UART_1_GetTxBufferSize, .-UART_1_GetTxBufferSize
 1745              		.section	.text.UART_1_ClearTxBuffer,"ax",%progbits
 1746              		.align	2
 1747              		.global	UART_1_ClearTxBuffer
 1748              		.thumb
 1749              		.thumb_func
ARM GAS  C:\Users\Patrick\AppData\Local\Temp\ccFUkQgi.s 			page 55


 1750              		.type	UART_1_ClearTxBuffer, %function
 1751              	UART_1_ClearTxBuffer:
 1752              	.LFB24:
1322:.\Generated_Source\PSoC5/UART_1.c **** 
1323:.\Generated_Source\PSoC5/UART_1.c **** 
1324:.\Generated_Source\PSoC5/UART_1.c ****     /*******************************************************************************
1325:.\Generated_Source\PSoC5/UART_1.c ****     * Function Name: UART_1_ClearTxBuffer
1326:.\Generated_Source\PSoC5/UART_1.c ****     ********************************************************************************
1327:.\Generated_Source\PSoC5/UART_1.c ****     *
1328:.\Generated_Source\PSoC5/UART_1.c ****     * Summary:
1329:.\Generated_Source\PSoC5/UART_1.c ****     *  Clears all data from the TX buffer and hardware TX FIFO.
1330:.\Generated_Source\PSoC5/UART_1.c ****     *
1331:.\Generated_Source\PSoC5/UART_1.c ****     * Parameters:
1332:.\Generated_Source\PSoC5/UART_1.c ****     *  None.
1333:.\Generated_Source\PSoC5/UART_1.c ****     *
1334:.\Generated_Source\PSoC5/UART_1.c ****     * Return:
1335:.\Generated_Source\PSoC5/UART_1.c ****     *  None.
1336:.\Generated_Source\PSoC5/UART_1.c ****     *
1337:.\Generated_Source\PSoC5/UART_1.c ****     * Global Variables:
1338:.\Generated_Source\PSoC5/UART_1.c ****     *  UART_1_txBufferWrite - cleared to zero.
1339:.\Generated_Source\PSoC5/UART_1.c ****     *  UART_1_txBufferRead - cleared to zero.
1340:.\Generated_Source\PSoC5/UART_1.c ****     *
1341:.\Generated_Source\PSoC5/UART_1.c ****     * Reentrant:
1342:.\Generated_Source\PSoC5/UART_1.c ****     *  No.
1343:.\Generated_Source\PSoC5/UART_1.c ****     *
1344:.\Generated_Source\PSoC5/UART_1.c ****     * Theory:
1345:.\Generated_Source\PSoC5/UART_1.c ****     *  Setting the pointers to zero makes the system believe there is no data to
1346:.\Generated_Source\PSoC5/UART_1.c ****     *  read and writing will resume at address 0 overwriting any data that may have
1347:.\Generated_Source\PSoC5/UART_1.c ****     *  remained in the RAM.
1348:.\Generated_Source\PSoC5/UART_1.c ****     *
1349:.\Generated_Source\PSoC5/UART_1.c ****     * Side Effects:
1350:.\Generated_Source\PSoC5/UART_1.c ****     *  Data waiting in the transmit buffer is not sent; a byte that is currently
1351:.\Generated_Source\PSoC5/UART_1.c ****     *  transmitting finishes transmitting.
1352:.\Generated_Source\PSoC5/UART_1.c ****     *
1353:.\Generated_Source\PSoC5/UART_1.c ****     *******************************************************************************/
1354:.\Generated_Source\PSoC5/UART_1.c ****     void UART_1_ClearTxBuffer(void) 
1355:.\Generated_Source\PSoC5/UART_1.c ****     {
 1753              		.loc 1 1355 0
 1754              		.cfi_startproc
 1755              		@ args = 0, pretend = 0, frame = 8
 1756              		@ frame_needed = 1, uses_anonymous_args = 0
 1757 0000 80B5     		push	{r7, lr}
 1758              		.cfi_def_cfa_offset 8
 1759              		.cfi_offset 7, -8
 1760              		.cfi_offset 14, -4
 1761 0002 82B0     		sub	sp, sp, #8
 1762              		.cfi_def_cfa_offset 16
 1763 0004 00AF     		add	r7, sp, #0
 1764              		.cfi_def_cfa_register 7
1356:.\Generated_Source\PSoC5/UART_1.c ****         uint8 enableInterrupts;
1357:.\Generated_Source\PSoC5/UART_1.c **** 
1358:.\Generated_Source\PSoC5/UART_1.c ****         enableInterrupts = CyEnterCriticalSection();
 1765              		.loc 1 1358 0
 1766 0006 FFF7FEFF 		bl	CyEnterCriticalSection
 1767 000a 0346     		mov	r3, r0
 1768 000c FB71     		strb	r3, [r7, #7]
1359:.\Generated_Source\PSoC5/UART_1.c ****         /* Clear the HW FIFO */
ARM GAS  C:\Users\Patrick\AppData\Local\Temp\ccFUkQgi.s 			page 56


1360:.\Generated_Source\PSoC5/UART_1.c ****         UART_1_TXDATA_AUX_CTL_REG |= (uint8)  UART_1_TX_FIFO_CLR;
 1769              		.loc 1 1360 0
 1770 000e 114A     		ldr	r2, .L113
 1771 0010 104B     		ldr	r3, .L113
 1772 0012 1B78     		ldrb	r3, [r3]
 1773 0014 DBB2     		uxtb	r3, r3
 1774 0016 43F00103 		orr	r3, r3, #1
 1775 001a DBB2     		uxtb	r3, r3
 1776 001c 1370     		strb	r3, [r2]
1361:.\Generated_Source\PSoC5/UART_1.c ****         UART_1_TXDATA_AUX_CTL_REG &= (uint8) ~UART_1_TX_FIFO_CLR;
 1777              		.loc 1 1361 0
 1778 001e 0D4A     		ldr	r2, .L113
 1779 0020 0C4B     		ldr	r3, .L113
 1780 0022 1B78     		ldrb	r3, [r3]
 1781 0024 DBB2     		uxtb	r3, r3
 1782 0026 23F00103 		bic	r3, r3, #1
 1783 002a DBB2     		uxtb	r3, r3
 1784 002c 1370     		strb	r3, [r2]
1362:.\Generated_Source\PSoC5/UART_1.c ****         CyExitCriticalSection(enableInterrupts);
 1785              		.loc 1 1362 0
 1786 002e FB79     		ldrb	r3, [r7, #7]	@ zero_extendqisi2
 1787 0030 1846     		mov	r0, r3
 1788 0032 FFF7FEFF 		bl	CyExitCriticalSection
1363:.\Generated_Source\PSoC5/UART_1.c **** 
1364:.\Generated_Source\PSoC5/UART_1.c ****     #if (UART_1_TX_INTERRUPT_ENABLED)
1365:.\Generated_Source\PSoC5/UART_1.c **** 
1366:.\Generated_Source\PSoC5/UART_1.c ****         /* Protect variables that could change on interrupt. */
1367:.\Generated_Source\PSoC5/UART_1.c ****         UART_1_DisableTxInt();
 1789              		.loc 1 1367 0
 1790 0036 084B     		ldr	r3, .L113+4
 1791 0038 0422     		movs	r2, #4
 1792 003a 1A60     		str	r2, [r3]
1368:.\Generated_Source\PSoC5/UART_1.c **** 
1369:.\Generated_Source\PSoC5/UART_1.c ****         UART_1_txBufferRead = 0u;
 1793              		.loc 1 1369 0
 1794 003c 074B     		ldr	r3, .L113+8
 1795 003e 0022     		movs	r2, #0
 1796 0040 1A70     		strb	r2, [r3]
1370:.\Generated_Source\PSoC5/UART_1.c ****         UART_1_txBufferWrite = 0u;
 1797              		.loc 1 1370 0
 1798 0042 074B     		ldr	r3, .L113+12
 1799 0044 0022     		movs	r2, #0
 1800 0046 1A70     		strb	r2, [r3]
1371:.\Generated_Source\PSoC5/UART_1.c **** 
1372:.\Generated_Source\PSoC5/UART_1.c ****         /* Enable Tx interrupt. */
1373:.\Generated_Source\PSoC5/UART_1.c ****         UART_1_EnableTxInt();
 1801              		.loc 1 1373 0
 1802 0048 064B     		ldr	r3, .L113+16
 1803 004a 0422     		movs	r2, #4
 1804 004c 1A60     		str	r2, [r3]
1374:.\Generated_Source\PSoC5/UART_1.c **** 
1375:.\Generated_Source\PSoC5/UART_1.c ****     #endif /* (UART_1_TX_INTERRUPT_ENABLED) */
1376:.\Generated_Source\PSoC5/UART_1.c ****     }
 1805              		.loc 1 1376 0
 1806 004e 0837     		adds	r7, r7, #8
 1807              		.cfi_def_cfa_offset 8
 1808 0050 BD46     		mov	sp, r7
ARM GAS  C:\Users\Patrick\AppData\Local\Temp\ccFUkQgi.s 			page 57


 1809              		.cfi_def_cfa_register 13
 1810              		@ sp needed
 1811 0052 80BD     		pop	{r7, pc}
 1812              	.L114:
 1813              		.align	2
 1814              	.L113:
 1815 0054 99640040 		.word	1073767577
 1816 0058 80E100E0 		.word	-536813184
 1817 005c 00000000 		.word	UART_1_txBufferRead
 1818 0060 00000000 		.word	UART_1_txBufferWrite
 1819 0064 00E100E0 		.word	-536813312
 1820              		.cfi_endproc
 1821              	.LFE24:
 1822              		.size	UART_1_ClearTxBuffer, .-UART_1_ClearTxBuffer
 1823              		.section	.text.UART_1_SendBreak,"ax",%progbits
 1824              		.align	2
 1825              		.global	UART_1_SendBreak
 1826              		.thumb
 1827              		.thumb_func
 1828              		.type	UART_1_SendBreak, %function
 1829              	UART_1_SendBreak:
 1830              	.LFB25:
1377:.\Generated_Source\PSoC5/UART_1.c **** 
1378:.\Generated_Source\PSoC5/UART_1.c **** 
1379:.\Generated_Source\PSoC5/UART_1.c ****     /*******************************************************************************
1380:.\Generated_Source\PSoC5/UART_1.c ****     * Function Name: UART_1_SendBreak
1381:.\Generated_Source\PSoC5/UART_1.c ****     ********************************************************************************
1382:.\Generated_Source\PSoC5/UART_1.c ****     *
1383:.\Generated_Source\PSoC5/UART_1.c ****     * Summary:
1384:.\Generated_Source\PSoC5/UART_1.c ****     *  Transmits a break signal on the bus.
1385:.\Generated_Source\PSoC5/UART_1.c ****     *
1386:.\Generated_Source\PSoC5/UART_1.c ****     * Parameters:
1387:.\Generated_Source\PSoC5/UART_1.c ****     *  uint8 retMode:  Send Break return mode. See the following table for options.
1388:.\Generated_Source\PSoC5/UART_1.c ****     *   UART_1_SEND_BREAK - Initialize registers for break, send the Break
1389:.\Generated_Source\PSoC5/UART_1.c ****     *       signal and return immediately.
1390:.\Generated_Source\PSoC5/UART_1.c ****     *   UART_1_WAIT_FOR_COMPLETE_REINIT - Wait until break transmission is
1391:.\Generated_Source\PSoC5/UART_1.c ****     *       complete, reinitialize registers to normal transmission mode then return
1392:.\Generated_Source\PSoC5/UART_1.c ****     *   UART_1_REINIT - Reinitialize registers to normal transmission mode
1393:.\Generated_Source\PSoC5/UART_1.c ****     *       then return.
1394:.\Generated_Source\PSoC5/UART_1.c ****     *   UART_1_SEND_WAIT_REINIT - Performs both options: 
1395:.\Generated_Source\PSoC5/UART_1.c ****     *      UART_1_SEND_BREAK and UART_1_WAIT_FOR_COMPLETE_REINIT.
1396:.\Generated_Source\PSoC5/UART_1.c ****     *      This option is recommended for most cases.
1397:.\Generated_Source\PSoC5/UART_1.c ****     *
1398:.\Generated_Source\PSoC5/UART_1.c ****     * Return:
1399:.\Generated_Source\PSoC5/UART_1.c ****     *  None.
1400:.\Generated_Source\PSoC5/UART_1.c ****     *
1401:.\Generated_Source\PSoC5/UART_1.c ****     * Global Variables:
1402:.\Generated_Source\PSoC5/UART_1.c ****     *  UART_1_initVar - checked to identify that the component has been
1403:.\Generated_Source\PSoC5/UART_1.c ****     *     initialized.
1404:.\Generated_Source\PSoC5/UART_1.c ****     *  txPeriod - static variable, used for keeping TX period configuration.
1405:.\Generated_Source\PSoC5/UART_1.c ****     *
1406:.\Generated_Source\PSoC5/UART_1.c ****     * Reentrant:
1407:.\Generated_Source\PSoC5/UART_1.c ****     *  No.
1408:.\Generated_Source\PSoC5/UART_1.c ****     *
1409:.\Generated_Source\PSoC5/UART_1.c ****     * Theory:
1410:.\Generated_Source\PSoC5/UART_1.c ****     *  SendBreak function initializes registers to send 13-bit break signal. It is
1411:.\Generated_Source\PSoC5/UART_1.c ****     *  important to return the registers configuration to normal for continue 8-bit
ARM GAS  C:\Users\Patrick\AppData\Local\Temp\ccFUkQgi.s 			page 58


1412:.\Generated_Source\PSoC5/UART_1.c ****     *  operation.
1413:.\Generated_Source\PSoC5/UART_1.c ****     *  There are 3 variants for this API usage:
1414:.\Generated_Source\PSoC5/UART_1.c ****     *  1) SendBreak(3) - function will send the Break signal and take care on the
1415:.\Generated_Source\PSoC5/UART_1.c ****     *     configuration returning. Function will block CPU until transmission
1416:.\Generated_Source\PSoC5/UART_1.c ****     *     complete.
1417:.\Generated_Source\PSoC5/UART_1.c ****     *  2) User may want to use blocking time if UART configured to the low speed
1418:.\Generated_Source\PSoC5/UART_1.c ****     *     operation
1419:.\Generated_Source\PSoC5/UART_1.c ****     *     Example for this case:
1420:.\Generated_Source\PSoC5/UART_1.c ****     *     SendBreak(0);     - initialize Break signal transmission
1421:.\Generated_Source\PSoC5/UART_1.c ****     *         Add your code here to use CPU time
1422:.\Generated_Source\PSoC5/UART_1.c ****     *     SendBreak(1);     - complete Break operation
1423:.\Generated_Source\PSoC5/UART_1.c ****     *  3) Same to 2) but user may want to initialize and use the interrupt to
1424:.\Generated_Source\PSoC5/UART_1.c ****     *     complete break operation.
1425:.\Generated_Source\PSoC5/UART_1.c ****     *     Example for this case:
1426:.\Generated_Source\PSoC5/UART_1.c ****     *     Initialize TX interrupt with "TX - On TX Complete" parameter
1427:.\Generated_Source\PSoC5/UART_1.c ****     *     SendBreak(0);     - initialize Break signal transmission
1428:.\Generated_Source\PSoC5/UART_1.c ****     *         Add your code here to use CPU time
1429:.\Generated_Source\PSoC5/UART_1.c ****     *     When interrupt appear with UART_1_TX_STS_COMPLETE status:
1430:.\Generated_Source\PSoC5/UART_1.c ****     *     SendBreak(2);     - complete Break operation
1431:.\Generated_Source\PSoC5/UART_1.c ****     *
1432:.\Generated_Source\PSoC5/UART_1.c ****     * Side Effects:
1433:.\Generated_Source\PSoC5/UART_1.c ****     *  The UART_1_SendBreak() function initializes registers to send a
1434:.\Generated_Source\PSoC5/UART_1.c ****     *  break signal.
1435:.\Generated_Source\PSoC5/UART_1.c ****     *  Break signal length depends on the break signal bits configuration.
1436:.\Generated_Source\PSoC5/UART_1.c ****     *  The register configuration should be reinitialized before normal 8-bit
1437:.\Generated_Source\PSoC5/UART_1.c ****     *  communication can continue.
1438:.\Generated_Source\PSoC5/UART_1.c ****     *
1439:.\Generated_Source\PSoC5/UART_1.c ****     *******************************************************************************/
1440:.\Generated_Source\PSoC5/UART_1.c ****     void UART_1_SendBreak(uint8 retMode) 
1441:.\Generated_Source\PSoC5/UART_1.c ****     {
 1831              		.loc 1 1441 0
 1832              		.cfi_startproc
 1833              		@ args = 0, pretend = 0, frame = 16
 1834              		@ frame_needed = 1, uses_anonymous_args = 0
 1835              		@ link register save eliminated.
 1836 0000 80B4     		push	{r7}
 1837              		.cfi_def_cfa_offset 4
 1838              		.cfi_offset 7, -4
 1839 0002 85B0     		sub	sp, sp, #20
 1840              		.cfi_def_cfa_offset 24
 1841 0004 00AF     		add	r7, sp, #0
 1842              		.cfi_def_cfa_register 7
 1843 0006 0346     		mov	r3, r0
 1844 0008 FB71     		strb	r3, [r7, #7]
1442:.\Generated_Source\PSoC5/UART_1.c **** 
1443:.\Generated_Source\PSoC5/UART_1.c ****         /* If not Initialized then skip this function*/
1444:.\Generated_Source\PSoC5/UART_1.c ****         if(UART_1_initVar != 0u)
 1845              		.loc 1 1444 0
 1846 000a 1F4B     		ldr	r3, .L123
 1847 000c 1B78     		ldrb	r3, [r3]	@ zero_extendqisi2
 1848 000e 002B     		cmp	r3, #0
 1849 0010 35D0     		beq	.L115
 1850              	.LBB2:
1445:.\Generated_Source\PSoC5/UART_1.c ****         {
1446:.\Generated_Source\PSoC5/UART_1.c ****             /* Set the Counter to 13-bits and transmit a 00 byte */
1447:.\Generated_Source\PSoC5/UART_1.c ****             /* When that is done then reset the counter value back */
1448:.\Generated_Source\PSoC5/UART_1.c ****             uint8 tmpStat;
ARM GAS  C:\Users\Patrick\AppData\Local\Temp\ccFUkQgi.s 			page 59


1449:.\Generated_Source\PSoC5/UART_1.c **** 
1450:.\Generated_Source\PSoC5/UART_1.c ****         #if(UART_1_HD_ENABLED) /* Half Duplex mode*/
1451:.\Generated_Source\PSoC5/UART_1.c **** 
1452:.\Generated_Source\PSoC5/UART_1.c ****             if( (retMode == UART_1_SEND_BREAK) ||
1453:.\Generated_Source\PSoC5/UART_1.c ****                 (retMode == UART_1_SEND_WAIT_REINIT ) )
1454:.\Generated_Source\PSoC5/UART_1.c ****             {
1455:.\Generated_Source\PSoC5/UART_1.c ****                 /* CTRL_HD_SEND_BREAK - sends break bits in HD mode */
1456:.\Generated_Source\PSoC5/UART_1.c ****                 UART_1_WriteControlRegister(UART_1_ReadControlRegister() |
1457:.\Generated_Source\PSoC5/UART_1.c ****                                                       UART_1_CTRL_HD_SEND_BREAK);
1458:.\Generated_Source\PSoC5/UART_1.c ****                 /* Send zeros */
1459:.\Generated_Source\PSoC5/UART_1.c ****                 UART_1_TXDATA_REG = 0u;
1460:.\Generated_Source\PSoC5/UART_1.c **** 
1461:.\Generated_Source\PSoC5/UART_1.c ****                 do /* Wait until transmit starts */
1462:.\Generated_Source\PSoC5/UART_1.c ****                 {
1463:.\Generated_Source\PSoC5/UART_1.c ****                     tmpStat = UART_1_TXSTATUS_REG;
1464:.\Generated_Source\PSoC5/UART_1.c ****                 }
1465:.\Generated_Source\PSoC5/UART_1.c ****                 while((tmpStat & UART_1_TX_STS_FIFO_EMPTY) != 0u);
1466:.\Generated_Source\PSoC5/UART_1.c ****             }
1467:.\Generated_Source\PSoC5/UART_1.c **** 
1468:.\Generated_Source\PSoC5/UART_1.c ****             if( (retMode == UART_1_WAIT_FOR_COMPLETE_REINIT) ||
1469:.\Generated_Source\PSoC5/UART_1.c ****                 (retMode == UART_1_SEND_WAIT_REINIT) )
1470:.\Generated_Source\PSoC5/UART_1.c ****             {
1471:.\Generated_Source\PSoC5/UART_1.c ****                 do /* Wait until transmit complete */
1472:.\Generated_Source\PSoC5/UART_1.c ****                 {
1473:.\Generated_Source\PSoC5/UART_1.c ****                     tmpStat = UART_1_TXSTATUS_REG;
1474:.\Generated_Source\PSoC5/UART_1.c ****                 }
1475:.\Generated_Source\PSoC5/UART_1.c ****                 while(((uint8)~tmpStat & UART_1_TX_STS_COMPLETE) != 0u);
1476:.\Generated_Source\PSoC5/UART_1.c ****             }
1477:.\Generated_Source\PSoC5/UART_1.c **** 
1478:.\Generated_Source\PSoC5/UART_1.c ****             if( (retMode == UART_1_WAIT_FOR_COMPLETE_REINIT) ||
1479:.\Generated_Source\PSoC5/UART_1.c ****                 (retMode == UART_1_REINIT) ||
1480:.\Generated_Source\PSoC5/UART_1.c ****                 (retMode == UART_1_SEND_WAIT_REINIT) )
1481:.\Generated_Source\PSoC5/UART_1.c ****             {
1482:.\Generated_Source\PSoC5/UART_1.c ****                 UART_1_WriteControlRegister(UART_1_ReadControlRegister() &
1483:.\Generated_Source\PSoC5/UART_1.c ****                                               (uint8)~UART_1_CTRL_HD_SEND_BREAK);
1484:.\Generated_Source\PSoC5/UART_1.c ****             }
1485:.\Generated_Source\PSoC5/UART_1.c **** 
1486:.\Generated_Source\PSoC5/UART_1.c ****         #else /* UART_1_HD_ENABLED Full Duplex mode */
1487:.\Generated_Source\PSoC5/UART_1.c **** 
1488:.\Generated_Source\PSoC5/UART_1.c ****             static uint8 txPeriod;
1489:.\Generated_Source\PSoC5/UART_1.c **** 
1490:.\Generated_Source\PSoC5/UART_1.c ****             if( (retMode == UART_1_SEND_BREAK) ||
 1851              		.loc 1 1490 0
 1852 0012 FB79     		ldrb	r3, [r7, #7]	@ zero_extendqisi2
 1853 0014 002B     		cmp	r3, #0
 1854 0016 02D0     		beq	.L117
 1855              		.loc 1 1490 0 is_stmt 0 discriminator 1
 1856 0018 FB79     		ldrb	r3, [r7, #7]	@ zero_extendqisi2
 1857 001a 032B     		cmp	r3, #3
 1858 001c 12D1     		bne	.L118
 1859              	.L117:
1491:.\Generated_Source\PSoC5/UART_1.c ****                 (retMode == UART_1_SEND_WAIT_REINIT) )
1492:.\Generated_Source\PSoC5/UART_1.c ****             {
1493:.\Generated_Source\PSoC5/UART_1.c ****                 /* CTRL_HD_SEND_BREAK - skip to send parity bit at Break signal in Full Duplex mode
1494:.\Generated_Source\PSoC5/UART_1.c ****                 #if( (UART_1_PARITY_TYPE != UART_1__B_UART__NONE_REVB) || \
1495:.\Generated_Source\PSoC5/UART_1.c ****                                     (UART_1_PARITY_TYPE_SW != 0u) )
1496:.\Generated_Source\PSoC5/UART_1.c ****                     UART_1_WriteControlRegister(UART_1_ReadControlRegister() |
ARM GAS  C:\Users\Patrick\AppData\Local\Temp\ccFUkQgi.s 			page 60


1497:.\Generated_Source\PSoC5/UART_1.c ****                                                           UART_1_CTRL_HD_SEND_BREAK);
1498:.\Generated_Source\PSoC5/UART_1.c ****                 #endif /* End UART_1_PARITY_TYPE != UART_1__B_UART__NONE_REVB  */
1499:.\Generated_Source\PSoC5/UART_1.c **** 
1500:.\Generated_Source\PSoC5/UART_1.c ****                 #if(UART_1_TXCLKGEN_DP)
1501:.\Generated_Source\PSoC5/UART_1.c ****                     txPeriod = UART_1_TXBITCLKTX_COMPLETE_REG;
 1860              		.loc 1 1501 0 is_stmt 1
 1861 001e 1B4B     		ldr	r3, .L123+4
 1862 0020 1B78     		ldrb	r3, [r3]
 1863 0022 DAB2     		uxtb	r2, r3
 1864 0024 1A4B     		ldr	r3, .L123+8
 1865 0026 1A70     		strb	r2, [r3]
1502:.\Generated_Source\PSoC5/UART_1.c ****                     UART_1_TXBITCLKTX_COMPLETE_REG = UART_1_TXBITCTR_BREAKBITS;
 1866              		.loc 1 1502 0
 1867 0028 184B     		ldr	r3, .L123+4
 1868 002a 6722     		movs	r2, #103
 1869 002c 1A70     		strb	r2, [r3]
1503:.\Generated_Source\PSoC5/UART_1.c ****                 #else
1504:.\Generated_Source\PSoC5/UART_1.c ****                     txPeriod = UART_1_TXBITCTR_PERIOD_REG;
1505:.\Generated_Source\PSoC5/UART_1.c ****                     UART_1_TXBITCTR_PERIOD_REG = UART_1_TXBITCTR_BREAKBITS8X;
1506:.\Generated_Source\PSoC5/UART_1.c ****                 #endif /* End UART_1_TXCLKGEN_DP */
1507:.\Generated_Source\PSoC5/UART_1.c **** 
1508:.\Generated_Source\PSoC5/UART_1.c ****                 /* Send zeros */
1509:.\Generated_Source\PSoC5/UART_1.c ****                 UART_1_TXDATA_REG = 0u;
 1870              		.loc 1 1509 0
 1871 002e 194B     		ldr	r3, .L123+12
 1872 0030 0022     		movs	r2, #0
 1873 0032 1A70     		strb	r2, [r3]
 1874              	.L119:
1510:.\Generated_Source\PSoC5/UART_1.c **** 
1511:.\Generated_Source\PSoC5/UART_1.c ****                 do /* Wait until transmit starts */
1512:.\Generated_Source\PSoC5/UART_1.c ****                 {
1513:.\Generated_Source\PSoC5/UART_1.c ****                     tmpStat = UART_1_TXSTATUS_REG;
 1875              		.loc 1 1513 0 discriminator 1
 1876 0034 184B     		ldr	r3, .L123+16
 1877 0036 1B78     		ldrb	r3, [r3]
 1878 0038 FB73     		strb	r3, [r7, #15]
1514:.\Generated_Source\PSoC5/UART_1.c ****                 }
1515:.\Generated_Source\PSoC5/UART_1.c ****                 while((tmpStat & UART_1_TX_STS_FIFO_EMPTY) != 0u);
 1879              		.loc 1 1515 0 discriminator 1
 1880 003a FB7B     		ldrb	r3, [r7, #15]	@ zero_extendqisi2
 1881 003c 03F00203 		and	r3, r3, #2
 1882 0040 002B     		cmp	r3, #0
 1883 0042 F7D1     		bne	.L119
 1884              	.L118:
1516:.\Generated_Source\PSoC5/UART_1.c ****             }
1517:.\Generated_Source\PSoC5/UART_1.c **** 
1518:.\Generated_Source\PSoC5/UART_1.c ****             if( (retMode == UART_1_WAIT_FOR_COMPLETE_REINIT) ||
 1885              		.loc 1 1518 0
 1886 0044 FB79     		ldrb	r3, [r7, #7]	@ zero_extendqisi2
 1887 0046 012B     		cmp	r3, #1
 1888 0048 02D0     		beq	.L120
 1889              		.loc 1 1518 0 is_stmt 0 discriminator 1
 1890 004a FB79     		ldrb	r3, [r7, #7]	@ zero_extendqisi2
 1891 004c 032B     		cmp	r3, #3
 1892 004e 09D1     		bne	.L121
 1893              	.L120:
1519:.\Generated_Source\PSoC5/UART_1.c ****                 (retMode == UART_1_SEND_WAIT_REINIT) )
ARM GAS  C:\Users\Patrick\AppData\Local\Temp\ccFUkQgi.s 			page 61


1520:.\Generated_Source\PSoC5/UART_1.c ****             {
1521:.\Generated_Source\PSoC5/UART_1.c ****                 do /* Wait until transmit complete */
1522:.\Generated_Source\PSoC5/UART_1.c ****                 {
1523:.\Generated_Source\PSoC5/UART_1.c ****                     tmpStat = UART_1_TXSTATUS_REG;
 1894              		.loc 1 1523 0 is_stmt 1 discriminator 1
 1895 0050 114B     		ldr	r3, .L123+16
 1896 0052 1B78     		ldrb	r3, [r3]
 1897 0054 FB73     		strb	r3, [r7, #15]
1524:.\Generated_Source\PSoC5/UART_1.c ****                 }
1525:.\Generated_Source\PSoC5/UART_1.c ****                 while(((uint8)~tmpStat & UART_1_TX_STS_COMPLETE) != 0u);
 1898              		.loc 1 1525 0 discriminator 1
 1899 0056 FB7B     		ldrb	r3, [r7, #15]
 1900 0058 DB43     		mvns	r3, r3
 1901 005a DBB2     		uxtb	r3, r3
 1902 005c 03F00103 		and	r3, r3, #1
 1903 0060 002B     		cmp	r3, #0
 1904 0062 F5D1     		bne	.L120
 1905              	.L121:
1526:.\Generated_Source\PSoC5/UART_1.c ****             }
1527:.\Generated_Source\PSoC5/UART_1.c **** 
1528:.\Generated_Source\PSoC5/UART_1.c ****             if( (retMode == UART_1_WAIT_FOR_COMPLETE_REINIT) ||
 1906              		.loc 1 1528 0
 1907 0064 FB79     		ldrb	r3, [r7, #7]	@ zero_extendqisi2
 1908 0066 012B     		cmp	r3, #1
 1909 0068 05D0     		beq	.L122
 1910              		.loc 1 1528 0 is_stmt 0 discriminator 1
 1911 006a FB79     		ldrb	r3, [r7, #7]	@ zero_extendqisi2
 1912 006c 022B     		cmp	r3, #2
 1913 006e 02D0     		beq	.L122
1529:.\Generated_Source\PSoC5/UART_1.c ****                 (retMode == UART_1_REINIT) ||
 1914              		.loc 1 1529 0 is_stmt 1
 1915 0070 FB79     		ldrb	r3, [r7, #7]	@ zero_extendqisi2
 1916 0072 032B     		cmp	r3, #3
 1917 0074 03D1     		bne	.L115
 1918              	.L122:
1530:.\Generated_Source\PSoC5/UART_1.c ****                 (retMode == UART_1_SEND_WAIT_REINIT) )
1531:.\Generated_Source\PSoC5/UART_1.c ****             {
1532:.\Generated_Source\PSoC5/UART_1.c **** 
1533:.\Generated_Source\PSoC5/UART_1.c ****             #if(UART_1_TXCLKGEN_DP)
1534:.\Generated_Source\PSoC5/UART_1.c ****                 UART_1_TXBITCLKTX_COMPLETE_REG = txPeriod;
 1919              		.loc 1 1534 0
 1920 0076 054B     		ldr	r3, .L123+4
 1921 0078 054A     		ldr	r2, .L123+8
 1922 007a 1278     		ldrb	r2, [r2]	@ zero_extendqisi2
 1923 007c 1A70     		strb	r2, [r3]
 1924              	.L115:
 1925              	.LBE2:
1535:.\Generated_Source\PSoC5/UART_1.c ****             #else
1536:.\Generated_Source\PSoC5/UART_1.c ****                 UART_1_TXBITCTR_PERIOD_REG = txPeriod;
1537:.\Generated_Source\PSoC5/UART_1.c ****             #endif /* End UART_1_TXCLKGEN_DP */
1538:.\Generated_Source\PSoC5/UART_1.c **** 
1539:.\Generated_Source\PSoC5/UART_1.c ****             #if( (UART_1_PARITY_TYPE != UART_1__B_UART__NONE_REVB) || \
1540:.\Generated_Source\PSoC5/UART_1.c ****                  (UART_1_PARITY_TYPE_SW != 0u) )
1541:.\Generated_Source\PSoC5/UART_1.c ****                 UART_1_WriteControlRegister(UART_1_ReadControlRegister() &
1542:.\Generated_Source\PSoC5/UART_1.c ****                                                       (uint8) ~UART_1_CTRL_HD_SEND_BREAK);
1543:.\Generated_Source\PSoC5/UART_1.c ****             #endif /* End UART_1_PARITY_TYPE != NONE */
1544:.\Generated_Source\PSoC5/UART_1.c ****             }
ARM GAS  C:\Users\Patrick\AppData\Local\Temp\ccFUkQgi.s 			page 62


1545:.\Generated_Source\PSoC5/UART_1.c ****         #endif    /* End UART_1_HD_ENABLED */
1546:.\Generated_Source\PSoC5/UART_1.c ****         }
1547:.\Generated_Source\PSoC5/UART_1.c ****     }
 1926              		.loc 1 1547 0
 1927 007e 1437     		adds	r7, r7, #20
 1928              		.cfi_def_cfa_offset 4
 1929 0080 BD46     		mov	sp, r7
 1930              		.cfi_def_cfa_register 13
 1931              		@ sp needed
 1932 0082 5DF8047B 		ldr	r7, [sp], #4
 1933              		.cfi_restore 7
 1934              		.cfi_def_cfa_offset 0
 1935 0086 7047     		bx	lr
 1936              	.L124:
 1937              		.align	2
 1938              	.L123:
 1939 0088 00000000 		.word	UART_1_initVar
 1940 008c 38640040 		.word	1073767480
 1941 0090 08000000 		.word	txPeriod.5017
 1942 0094 49640040 		.word	1073767497
 1943 0098 6A640040 		.word	1073767530
 1944              		.cfi_endproc
 1945              	.LFE25:
 1946              		.size	UART_1_SendBreak, .-UART_1_SendBreak
 1947              		.section	.text.UART_1_SetTxAddressMode,"ax",%progbits
 1948              		.align	2
 1949              		.global	UART_1_SetTxAddressMode
 1950              		.thumb
 1951              		.thumb_func
 1952              		.type	UART_1_SetTxAddressMode, %function
 1953              	UART_1_SetTxAddressMode:
 1954              	.LFB26:
1548:.\Generated_Source\PSoC5/UART_1.c **** 
1549:.\Generated_Source\PSoC5/UART_1.c **** 
1550:.\Generated_Source\PSoC5/UART_1.c ****     /*******************************************************************************
1551:.\Generated_Source\PSoC5/UART_1.c ****     * Function Name: UART_1_SetTxAddressMode
1552:.\Generated_Source\PSoC5/UART_1.c ****     ********************************************************************************
1553:.\Generated_Source\PSoC5/UART_1.c ****     *
1554:.\Generated_Source\PSoC5/UART_1.c ****     * Summary:
1555:.\Generated_Source\PSoC5/UART_1.c ****     *  Configures the transmitter to signal the next bytes is address or data.
1556:.\Generated_Source\PSoC5/UART_1.c ****     *
1557:.\Generated_Source\PSoC5/UART_1.c ****     * Parameters:
1558:.\Generated_Source\PSoC5/UART_1.c ****     *  addressMode: 
1559:.\Generated_Source\PSoC5/UART_1.c ****     *       UART_1_SET_SPACE - Configure the transmitter to send the next
1560:.\Generated_Source\PSoC5/UART_1.c ****     *                                    byte as a data.
1561:.\Generated_Source\PSoC5/UART_1.c ****     *       UART_1_SET_MARK  - Configure the transmitter to send the next
1562:.\Generated_Source\PSoC5/UART_1.c ****     *                                    byte as an address.
1563:.\Generated_Source\PSoC5/UART_1.c ****     *
1564:.\Generated_Source\PSoC5/UART_1.c ****     * Return:
1565:.\Generated_Source\PSoC5/UART_1.c ****     *  None.
1566:.\Generated_Source\PSoC5/UART_1.c ****     *
1567:.\Generated_Source\PSoC5/UART_1.c ****     * Side Effects:
1568:.\Generated_Source\PSoC5/UART_1.c ****     *  This function sets and clears UART_1_CTRL_MARK bit in the Control
1569:.\Generated_Source\PSoC5/UART_1.c ****     *  register.
1570:.\Generated_Source\PSoC5/UART_1.c ****     *
1571:.\Generated_Source\PSoC5/UART_1.c ****     *******************************************************************************/
1572:.\Generated_Source\PSoC5/UART_1.c ****     void UART_1_SetTxAddressMode(uint8 addressMode) 
ARM GAS  C:\Users\Patrick\AppData\Local\Temp\ccFUkQgi.s 			page 63


1573:.\Generated_Source\PSoC5/UART_1.c ****     {
 1955              		.loc 1 1573 0
 1956              		.cfi_startproc
 1957              		@ args = 0, pretend = 0, frame = 8
 1958              		@ frame_needed = 1, uses_anonymous_args = 0
 1959              		@ link register save eliminated.
 1960 0000 80B4     		push	{r7}
 1961              		.cfi_def_cfa_offset 4
 1962              		.cfi_offset 7, -4
 1963 0002 83B0     		sub	sp, sp, #12
 1964              		.cfi_def_cfa_offset 16
 1965 0004 00AF     		add	r7, sp, #0
 1966              		.cfi_def_cfa_register 7
 1967 0006 0346     		mov	r3, r0
 1968 0008 FB71     		strb	r3, [r7, #7]
1574:.\Generated_Source\PSoC5/UART_1.c ****         /* Mark/Space sending enable */
1575:.\Generated_Source\PSoC5/UART_1.c ****         if(addressMode != 0u)
1576:.\Generated_Source\PSoC5/UART_1.c ****         {
1577:.\Generated_Source\PSoC5/UART_1.c ****         #if( UART_1_CONTROL_REG_REMOVED == 0u )
1578:.\Generated_Source\PSoC5/UART_1.c ****             UART_1_WriteControlRegister(UART_1_ReadControlRegister() |
1579:.\Generated_Source\PSoC5/UART_1.c ****                                                   UART_1_CTRL_MARK);
1580:.\Generated_Source\PSoC5/UART_1.c ****         #endif /* End UART_1_CONTROL_REG_REMOVED == 0u */
1581:.\Generated_Source\PSoC5/UART_1.c ****         }
1582:.\Generated_Source\PSoC5/UART_1.c ****         else
1583:.\Generated_Source\PSoC5/UART_1.c ****         {
1584:.\Generated_Source\PSoC5/UART_1.c ****         #if( UART_1_CONTROL_REG_REMOVED == 0u )
1585:.\Generated_Source\PSoC5/UART_1.c ****             UART_1_WriteControlRegister(UART_1_ReadControlRegister() &
1586:.\Generated_Source\PSoC5/UART_1.c ****                                                   (uint8) ~UART_1_CTRL_MARK);
1587:.\Generated_Source\PSoC5/UART_1.c ****         #endif /* End UART_1_CONTROL_REG_REMOVED == 0u */
1588:.\Generated_Source\PSoC5/UART_1.c ****         }
1589:.\Generated_Source\PSoC5/UART_1.c ****     }
 1969              		.loc 1 1589 0
 1970 000a 0C37     		adds	r7, r7, #12
 1971              		.cfi_def_cfa_offset 4
 1972 000c BD46     		mov	sp, r7
 1973              		.cfi_def_cfa_register 13
 1974              		@ sp needed
 1975 000e 5DF8047B 		ldr	r7, [sp], #4
 1976              		.cfi_restore 7
 1977              		.cfi_def_cfa_offset 0
 1978 0012 7047     		bx	lr
 1979              		.cfi_endproc
 1980              	.LFE26:
 1981              		.size	UART_1_SetTxAddressMode, .-UART_1_SetTxAddressMode
 1982              		.bss
 1983              	txPeriod.5017:
 1984 0008 00       		.space	1
 1985              		.text
 1986              	.Letext0:
 1987              		.file 2 ".\\Generated_Source\\PSoC5\\cytypes.h"